
NES_FPGA.elf:     file format elf32-littlenios2
NES_FPGA.elf
architecture: nios2, flags 0x00000112:
EXEC_P, HAS_SYMS, D_PAGED
start address 0x080001b4

Program Header:
    LOAD off    0x00001000 vaddr 0x08000000 paddr 0x08000000 align 2**12
         filesz 0x00000020 memsz 0x00000020 flags r-x
    LOAD off    0x00001020 vaddr 0x08000020 paddr 0x08000020 align 2**12
         filesz 0x00019414 memsz 0x00019414 flags r-x
    LOAD off    0x0001a434 vaddr 0x08019434 paddr 0x0801b010 align 2**12
         filesz 0x00001bdc memsz 0x00001bdc flags rw-
    LOAD off    0x0001cbec vaddr 0x0801cbec paddr 0x0801cbec align 2**12
         filesz 0x00000000 memsz 0x000008bc flags rw-

Sections:
Idx Name          Size      VMA       LMA       File off  Algn
  0 .entry        00000020  08000000  08000000  00001000  2**5
                  CONTENTS, ALLOC, LOAD, READONLY, CODE
  1 .exceptions   00000194  08000020  08000020  00001020  2**2
                  CONTENTS, ALLOC, LOAD, READONLY, CODE
  2 .text         00018a58  080001b4  080001b4  000011b4  2**2
                  CONTENTS, ALLOC, LOAD, READONLY, CODE
  3 .rodata       00000828  08018c0c  08018c0c  00019c0c  2**2
                  CONTENTS, ALLOC, LOAD, READONLY, DATA
  4 .rwdata       00001bdc  08019434  0801b010  0001a434  2**2
                  CONTENTS, ALLOC, LOAD, DATA, SMALL_DATA
  5 .bss          000008bc  0801cbec  0801cbec  0001cbec  2**2
                  ALLOC, SMALL_DATA
  6 .comment      00000023  00000000  00000000  0001c010  2**0
                  CONTENTS, READONLY
  7 .debug_aranges 00000d98  00000000  00000000  0001c038  2**3
                  CONTENTS, READONLY, DEBUGGING
  8 .debug_pubnames 00002309  00000000  00000000  0001cdd0  2**0
                  CONTENTS, READONLY, DEBUGGING
  9 .debug_info   0002be12  00000000  00000000  0001f0d9  2**0
                  CONTENTS, READONLY, DEBUGGING
 10 .debug_abbrev 000087ee  00000000  00000000  0004aeeb  2**0
                  CONTENTS, READONLY, DEBUGGING
 11 .debug_line   00018c32  00000000  00000000  000536d9  2**0
                  CONTENTS, READONLY, DEBUGGING
 12 .debug_frame  000024bc  00000000  00000000  0006c30c  2**2
                  CONTENTS, READONLY, DEBUGGING
 13 .debug_str    0000260e  00000000  00000000  0006e7c8  2**0
                  CONTENTS, READONLY, DEBUGGING
 14 .debug_loc    0000d2a4  00000000  00000000  00070dd6  2**0
                  CONTENTS, READONLY, DEBUGGING
 15 .debug_alt_sim_info 00000030  00000000  00000000  0007e07c  2**2
                  CONTENTS, READONLY, DEBUGGING
 16 .debug_ranges 00000990  00000000  00000000  0007e0b0  2**3
                  CONTENTS, READONLY, DEBUGGING
 17 .thread_model 00000003  00000000  00000000  00082c7d  2**0
                  CONTENTS, READONLY
 18 .cpu          00000003  00000000  00000000  00082c80  2**0
                  CONTENTS, READONLY
 19 .qsys         00000001  00000000  00000000  00082c83  2**0
                  CONTENTS, READONLY
 20 .simulation_enabled 00000001  00000000  00000000  00082c84  2**0
                  CONTENTS, READONLY
 21 .sysid_hash   00000004  00000000  00000000  00082c85  2**0
                  CONTENTS, READONLY
 22 .sysid_base   00000004  00000000  00000000  00082c89  2**0
                  CONTENTS, READONLY
 23 .sysid_time   00000004  00000000  00000000  00082c8d  2**0
                  CONTENTS, READONLY
 24 .stderr_dev   00000009  00000000  00000000  00082c91  2**0
                  CONTENTS, READONLY
 25 .stdin_dev    00000009  00000000  00000000  00082c9a  2**0
                  CONTENTS, READONLY
 26 .stdout_dev   00000009  00000000  00000000  00082ca3  2**0
                  CONTENTS, READONLY
 27 .sopc_system_name 0000000b  00000000  00000000  00082cac  2**0
                  CONTENTS, READONLY
 28 .quartus_project_dir 00000030  00000000  00000000  00082cb7  2**0
                  CONTENTS, READONLY
 29 .jdi          00004cc6  00000000  00000000  00082ce7  2**0
                  CONTENTS, READONLY
 30 .sopcinfo     00047750  00000000  00000000  000879ad  2**0
                  CONTENTS, READONLY
SYMBOL TABLE:
08000000 l    d  .entry	00000000 .entry
08000020 l    d  .exceptions	00000000 .exceptions
080001b4 l    d  .text	00000000 .text
08018c0c l    d  .rodata	00000000 .rodata
08019434 l    d  .rwdata	00000000 .rwdata
0801cbec l    d  .bss	00000000 .bss
00000000 l    d  .comment	00000000 .comment
00000000 l    d  .debug_aranges	00000000 .debug_aranges
00000000 l    d  .debug_pubnames	00000000 .debug_pubnames
00000000 l    d  .debug_info	00000000 .debug_info
00000000 l    d  .debug_abbrev	00000000 .debug_abbrev
00000000 l    d  .debug_line	00000000 .debug_line
00000000 l    d  .debug_frame	00000000 .debug_frame
00000000 l    d  .debug_str	00000000 .debug_str
00000000 l    d  .debug_loc	00000000 .debug_loc
00000000 l    d  .debug_alt_sim_info	00000000 .debug_alt_sim_info
00000000 l    d  .debug_ranges	00000000 .debug_ranges
080001fc l       .text	00000000 alt_after_alt_main
00000000 l    df *ABS*	00000000 alt_irq_handler.c
00000000 l    df *ABS*	00000000 cpu.c
00000000 l    df *ABS*	00000000 main.c
00000000 l    df *ABS*	00000000 ppu.c
0801cc1e l     O .bss	00000002 i
00000000 l    df *ABS*	00000000 sdcard.c
00000000 l    df *ABS*	00000000 vga.c
00000000 l    df *ABS*	00000000 malloc.c
00000000 l    df *ABS*	00000000 mallocr.c
00000000 l    df *ABS*	00000000 printf.c
00000000 l    df *ABS*	00000000 putchar.c
00000000 l    df *ABS*	00000000 puts.c
00000000 l    df *ABS*	00000000 sbrkr.c
00000000 l    df *ABS*	00000000 strlen.c
00000000 l    df *ABS*	00000000 vfprintf.c
080075d4 l     F .text	00000058 __sprint_r
08019126 l     O .rodata	00000010 blanks.3452
08019116 l     O .rodata	00000010 zeroes.3453
00000000 l    df *ABS*	00000000 wsetup.c
00000000 l    df *ABS*	00000000 dtoa.c
08009638 l     F .text	00000218 quorem
00000000 l    df *ABS*	00000000 fflush.c
00000000 l    df *ABS*	00000000 findfp.c
0800b034 l     F .text	00000058 std
0800b140 l     F .text	00000008 __fp_lock
0800b148 l     F .text	00000008 __fp_unlock
00000000 l    df *ABS*	00000000 mallocr.c
00000000 l    df *ABS*	00000000 fvwrite.c
00000000 l    df *ABS*	00000000 fwalk.c
00000000 l    df *ABS*	00000000 impure.c
0801993c l     O .rwdata	00000400 impure_data
00000000 l    df *ABS*	00000000 int_errno.c
00000000 l    df *ABS*	00000000 locale.c
0801afe4 l     O .rwdata	00000004 charset
0801915c l     O .rodata	00000030 lconv
00000000 l    df *ABS*	00000000 makebuf.c
00000000 l    df *ABS*	00000000 memchr.c
00000000 l    df *ABS*	00000000 memcpy.c
00000000 l    df *ABS*	00000000 memmove.c
00000000 l    df *ABS*	00000000 memset.c
00000000 l    df *ABS*	00000000 mprec.c
080192a4 l     O .rodata	0000000c p05.2458
00000000 l    df *ABS*	00000000 putc.c
00000000 l    df *ABS*	00000000 mallocr.c
00000000 l    df *ABS*	00000000 s_isinfd.c
00000000 l    df *ABS*	00000000 s_isnand.c
00000000 l    df *ABS*	00000000 stdio.c
00000000 l    df *ABS*	00000000 strcmp.c
00000000 l    df *ABS*	00000000 wbuf.c
00000000 l    df *ABS*	00000000 writer.c
00000000 l    df *ABS*	00000000 mallocr.c
00000000 l    df *ABS*	00000000 closer.c
00000000 l    df *ABS*	00000000 fclose.c
00000000 l    df *ABS*	00000000 fstatr.c
00000000 l    df *ABS*	00000000 isattyr.c
00000000 l    df *ABS*	00000000 lseekr.c
00000000 l    df *ABS*	00000000 readr.c
00000000 l    df *ABS*	00000000 libgcc2.c
00000000 l    df *ABS*	00000000 libgcc2.c
00000000 l    df *ABS*	00000000 dp-bit.c
0800ee5c l     F .text	00000410 _fpadd_parts
00000000 l    df *ABS*	00000000 dp-bit.c
00000000 l    df *ABS*	00000000 dp-bit.c
00000000 l    df *ABS*	00000000 dp-bit.c
00000000 l    df *ABS*	00000000 dp-bit.c
00000000 l    df *ABS*	00000000 dp-bit.c
00000000 l    df *ABS*	00000000 dp-bit.c
00000000 l    df *ABS*	00000000 dp-bit.c
00000000 l    df *ABS*	00000000 dp-bit.c
00000000 l    df *ABS*	00000000 dp-bit.c
00000000 l    df *ABS*	00000000 dp-bit.c
00000000 l    df *ABS*	00000000 dp-bit.c
00000000 l    df *ABS*	00000000 lib2-divmod.c
0800ff88 l     F .text	0000007c udivmodsi4
00000000 l    df *ABS*	00000000 libgcc2.c
00000000 l    df *ABS*	00000000 libgcc2.c
00000000 l    df *ABS*	00000000 libgcc2.c
00000000 l    df *ABS*	00000000 dp-bit.c
00000000 l    df *ABS*	00000000 dp-bit.c
00000000 l    df *ABS*	00000000 dp-bit.c
00000000 l    df *ABS*	00000000 alt_close.c
080107fc l     F .text	00000060 alt_get_errno
00000000 l    df *ABS*	00000000 alt_dev.c
0801085c l     F .text	0000002c alt_dev_null_write
00000000 l    df *ABS*	00000000 alt_errno.c
00000000 l    df *ABS*	00000000 alt_fstat.c
0801095c l     F .text	00000060 alt_get_errno
00000000 l    df *ABS*	00000000 alt_isatty.c
08010a7c l     F .text	00000060 alt_get_errno
00000000 l    df *ABS*	00000000 alt_load.c
08010b5c l     F .text	0000006c alt_load_section
00000000 l    df *ABS*	00000000 alt_lseek.c
08010cb8 l     F .text	00000060 alt_get_errno
00000000 l    df *ABS*	00000000 alt_main.c
00000000 l    df *ABS*	00000000 alt_malloc_lock.c
00000000 l    df *ABS*	00000000 alt_read.c
08010ee4 l     F .text	00000060 alt_get_errno
00000000 l    df *ABS*	00000000 alt_release_fd.c
00000000 l    df *ABS*	00000000 alt_sbrk.c
0801b000 l     O .rwdata	00000004 heap_end
00000000 l    df *ABS*	00000000 alt_write.c
08011180 l     F .text	00000060 alt_get_errno
00000000 l    df *ABS*	00000000 alt_sys_init.c
08019ef0 l     O .rwdata	00001060 jtag_uart
0801af50 l     O .rwdata	00000054 Pixel_Buffer_DMA
0801afa4 l     O .rwdata	0000002c Altera_UP_SD_Card_Avalon_Interface_0
0801145c l     F .text	00000038 alt_dev_reg
00000000 l    df *ABS*	00000000 altera_avalon_jtag_uart_fd.c
00000000 l    df *ABS*	00000000 altera_avalon_jtag_uart_init.c
0801169c l     F .text	00000228 altera_avalon_jtag_uart_irq
080118c4 l     F .text	000000b0 altera_avalon_jtag_uart_timeout
00000000 l    df *ABS*	00000000 altera_avalon_jtag_uart_ioctl.c
00000000 l    df *ABS*	00000000 altera_avalon_jtag_uart_read.c
00000000 l    df *ABS*	00000000 altera_avalon_jtag_uart_write.c
00000000 l    df *ABS*	00000000 altera_up_avalon_video_pixel_buffer_dma.c
00000000 l    df *ABS*	00000000 altera_up_sd_card_avalon_interface.c
00000000 l    df *ABS*	00000000 alt_alarm_start.c
00000000 l    df *ABS*	00000000 alt_dcache_flush_all.c
00000000 l    df *ABS*	00000000 alt_dev_llist_insert.c
08017b1c l     F .text	00000060 alt_get_errno
00000000 l    df *ABS*	00000000 alt_do_ctors.c
00000000 l    df *ABS*	00000000 alt_do_dtors.c
00000000 l    df *ABS*	00000000 alt_find_dev.c
00000000 l    df *ABS*	00000000 alt_icache_flush_all.c
00000000 l    df *ABS*	00000000 alt_iic.c
00000000 l    df *ABS*	00000000 alt_iic_isr_register.c
00000000 l    df *ABS*	00000000 alt_io_redirect.c
08017fd4 l     F .text	000000c4 alt_open_fd
00000000 l    df *ABS*	00000000 alt_irq_vars.c
00000000 l    df *ABS*	00000000 alt_open.c
08018110 l     F .text	000000dc alt_file_locked
08018374 l     F .text	00000060 alt_get_errno
00000000 l    df *ABS*	00000000 alt_tick.c
00000000 l    df *ABS*	00000000 altera_nios2_qsys_irq.c
00000000 l    df *ABS*	00000000 alt_find_file.c
00000000 l    df *ABS*	00000000 alt_get_fd.c
00000000 l    df *ABS*	00000000 alt_icache_flush.c
00000000 l    df *ABS*	00000000 atexit.c
00000000 l    df *ABS*	00000000 exit.c
00000000 l    df *ABS*	00000000 memcmp.c
00000000 l    df *ABS*	00000000 __atexit.c
00000000 l    df *ABS*	00000000 __call_atexit.c
080189f4 l     F .text	00000004 register_fini
00000000 l    df *ABS*	00000000 alt_exit.c
08018ba8 l     F .text	00000040 alt_sim_halt
0801cc50 g     O .bss	00000004 aux_status_register
08007418 g     F .text	0000001c putchar
08004b8c g     F .text	00000070 prg_test
0800c6b0 g     F .text	00000094 _mprec_log10
0800378c g     F .text	00000048 cpu_read
0800c79c g     F .text	00000088 __any_on
0800e170 g     F .text	00000070 _isatty_r
0801927c g     O .rodata	00000028 __mprec_tinytens
080039d0 g     F .text	000000c8 cpu_join_flags
08010d18 g     F .text	0000006c alt_main
08012bac g     F .text	000003d0 alt_up_pixel_buffer_dma_draw_vline
0800743c g     F .text	000000a0 _puts_r
0801cbec g     O .bss	00000004 CPU
0801d218 g     O .bss	00000100 alt_irq
0800e1e0 g     F .text	00000078 _lseek_r
080042b8 g     F .text	0000006c AND
0801b010 g       *ABS*	00000000 __flash_rwdata_start
0800f97c g     F .text	00000088 __eqdf2
0801385c g     F .text	000001b0 Check_for_Master_Boot_Record
0801d4a8 g       *ABS*	00000000 __alt_heap_start
08017704 g     F .text	000001cc alt_up_sd_card_fclose
080073a0 g     F .text	00000044 printf
0800daf0 g     F .text	00000068 __sseek
0800b09c g     F .text	000000a4 __sinit
0800dcf0 g     F .text	00000130 __swbuf_r
080040a4 g     F .text	00000098 XINDw
08004398 g     F .text	00000074 CMP
08003ed8 g     F .text	0000002c IMM
0800bd74 g     F .text	00000084 _setlocale_r
0800b19c g     F .text	00000068 __sfmoreglue
08010da4 g     F .text	00000020 __malloc_unlock
080048d4 g     F .text	000000d4 SBC
08004218 g     F .text	000000a0 ADC
0801cc74 g     O .bss	00000004 current_sector_modified
08004e40 g     F .text	00000200 write_ppu_reg
08004324 g     F .text	00000074 ASL
0801cbf0 g     O .bss	00000001 trainer
0800c12c g     F .text	000000e0 memmove
0800b18c g     F .text	00000010 _cleanup
0800c824 g     F .text	000000bc _Balloc
08003704 g     F .text	00000088 cpu_init
080162c4 g     F .text	000000c8 alt_up_sd_card_is_Present
08013574 g     F .text	00000050 Save_Modified_Sector
08011f80 g     F .text	000001a0 alt_up_pixel_buffer_dma_draw
0800fa8c g     F .text	00000088 __gtdf2
00000000  w      *UND*	00000000 __errno
08011f40 g     F .text	00000040 alt_up_pixel_buffer_dma_open_dev
0801cbf2 g     O .bss	00000002 temp2
08000000 g     F .entry	0000001c __reset
0801cc6c g     O .bss	00000004 fat_partition_size_in_512_byte_sectors
08000020 g       *ABS*	00000000 __flash_exceptions_start
0800e0fc g     F .text	00000074 _fstat_r
0801cc2c g     O .bss	00000004 errno
080045b4 g     F .text	00000060 LDA
0801cc40 g     O .bss	00000004 alt_argv
08022fd0 g       *ABS*	00000000 _gp
08016884 g     F .text	000003a8 alt_up_sd_card_fopen
08016400 g     F .text	000000d4 alt_up_sd_card_find_first
0801cc60 g     O .bss	00000004 command_argument_register
08012120 g     F .text	00000058 alt_up_pixel_buffer_dma_change_back_buffer_address
08006518 g     F .text	000003fc load_rom
0801cbf4 g     O .bss	00000001 cpu_sram_batt
08019d70 g     O .rwdata	00000180 alt_fd_list
08007434 g     F .text	00000008 _putchar_r
08015af4 g     F .text	0000012c find_first_empty_record_in_root_directory
08017c44 g     F .text	00000094 alt_find_dev
0800c08c g     F .text	000000a0 memcpy
0800b180 g     F .text	0000000c _cleanup_r
0800fc24 g     F .text	000000f8 __floatsidf
08018098 g     F .text	00000078 alt_io_redirect
0800fb9c g     F .text	00000088 __ltdf2
08018c0c g       *ABS*	00000000 __DTOR_END__
080074dc g     F .text	00000014 puts
08003f04 g     F .text	00000034 ZP
08015704 g     F .text	000001a4 find_first_empty_cluster
0800c600 g     F .text	000000b0 __ratio
08016200 g     F .text	000000c4 alt_up_sd_card_open_dev
080121d0 g     F .text	00000034 alt_up_pixel_buffer_dma_check_swap_buffers_status
08011adc g     F .text	00000224 altera_avalon_jtag_uart_read
08006c4c g     F .text	00000014 malloc
080073e4 g     F .text	00000034 _printf_r
08005098 g     F .text	00000220 ppu_exec
080100c4 g     F .text	00000008 __udivsi3
080109bc g     F .text	000000c0 isatty
0801918c g     O .rodata	000000c8 __mprec_tens
0801285c g     F .text	00000350 alt_up_pixel_buffer_dma_draw_hline
0800bd50 g     F .text	00000008 __locale_charset
0801cbf5 g     O .bss	00000001 prg_size
08018770 g     F .text	00000090 alt_icache_flush
080059bc g     F .text	0000035c attribute_offset_set
0801cc20 g     O .bss	00000004 __malloc_top_pad
0801afe0 g     O .rwdata	00000004 __mb_cur_max
0800bd58 g     F .text	0000000c _localeconv_r
08005d9c g     F .text	000000ec mask
0800cf1c g     F .text	0000003c __i2b
0800b734 g     F .text	0000049c __sfvwrite_r
080149e0 g     F .text	000000c0 get_dir_divider_location
080074f0 g     F .text	00000070 _sbrk_r
08013040 g     F .text	000000d0 helper_plot_pixel
08003dfc g     F .text	000000dc INDY
08014680 g     F .text	000000d0 filename_to_upper_case
08016c2c g     F .text	00000090 alt_up_sd_card_set_attributes
08004480 g     F .text	00000074 CPY
08013a0c g     F .text	00000284 Read_File_Record_At_Offset
0800e258 g     F .text	00000078 _read_r
0801cbf6 g     O .bss	00000002 l
08019d3c g     O .rwdata	0000000c __lc_ctype
080058b4 g     F .text	00000108 render_to_screen
0801aff8 g     O .rwdata	00000004 alt_max_fd
08010500 g     F .text	00000138 __unpack_d
080152a0 g     F .text	00000464 find_file_in_directory
0800dfd8 g     F .text	00000110 _fclose_r
0801cbf8 g     O .bss	00000002 t2
0800b000 g     F .text	00000034 fflush
0801cc24 g     O .bss	00000004 __malloc_max_sbrked_mem
0801cbfa g     O .bss	00000002 temp
0801638c g     F .text	00000074 alt_up_sd_card_is_FAT16
0800f2ec g     F .text	00000074 __adddf3
0800c4e0 g     F .text	00000120 __b2d
08006914 g     F .text	00000090 vga_init
08012204 g     F .text	00000164 alt_up_pixel_buffer_dma_clear_screen
0800e8ac g     F .text	000005b0 __umoddi3
08010bc8 g     F .text	000000f0 lseek
0801afdc g     O .rwdata	00000004 _global_impure_ptr
08014d8c g     F .text	00000514 get_home_directory_cluster_for_file
0800d484 g     F .text	000005f4 _realloc_r
0801d4a8 g       *ABS*	00000000 __bss_end
08017edc g     F .text	000000f8 alt_iic_isr_register
08012368 g     F .text	000004f4 alt_up_pixel_buffer_dma_draw_box
0801846c g     F .text	0000010c alt_tick
0800e2d0 g     F .text	000005dc __udivdi3
08019254 g     O .rodata	00000028 __mprec_bigtens
0800d178 g     F .text	00000120 __s2b
0800fdf4 g     F .text	00000194 __floatunsidf
0800413c g     F .text	00000098 INDYw
0800c400 g     F .text	00000060 __mcmp
0801cc78 g     O .bss	00000004 current_sector_index
08003b18 g     F .text	00000094 rel_page_boundary
0800b168 g     F .text	00000018 __fp_lock_all
08017e94 g     F .text	00000048 alt_ic_irq_enabled
0800440c g     F .text	00000074 CPX
080183d4 g     F .text	00000098 alt_alarm_stop
08005040 g     F .text	00000058 ppu_status
08013778 g     F .text	000000e4 mark_cluster
0801cbfc g     O .bss	00000001 operand
0801cc7c g     O .bss	00000004 alt_irq_active
080000ec g     F .exceptions	000000c8 alt_irq_handler
08019d48 g     O .rwdata	00000028 alt_dev_null
080069a4 g     F .text	00000294 vga_test
08015c20 g     F .text	000001b8 convert_filename_to_name_extension
08017a24 g     F .text	00000044 alt_dcache_flush_all
0800c2cc g     F .text	00000070 __hi0bits
0801cc4c g     O .bss	00000004 is_sd_card_formated_as_FAT16
08012f7c g     F .text	000000c4 alt_up_pixel_buffer_dma_draw_rectangle
0801cc00 g     O .bss	00000004 file_name
0800fd1c g     F .text	000000d8 __fixdfsi
080158a8 g     F .text	0000024c find_first_empty_record_in_a_subdirectory
0801b010 g       *ABS*	00000000 __ram_rwdata_end
0801aff0 g     O .rwdata	00000008 alt_dev_list
08011060 g     F .text	00000120 write
0800d39c g     F .text	000000e8 _putc_r
0801cc70 g     O .bss	00000004 device_pointer
08013110 g     F .text	0000039c alt_up_pixel_buffer_dma_draw_line
08019434 g       *ABS*	00000000 __ram_rodata_end
08010888 g     F .text	000000d4 fstat
08003bac g     F .text	0000005c ABS
0801cc04 g     O .bss	00000002 pb
0800d058 g     F .text	00000120 __pow5mult
0801cc30 g     O .bss	00000004 __nlocale_changed
080100cc g     F .text	00000008 __umodsi3
0801d4a8 g       *ABS*	00000000 end
08003f84 g     F .text	00000050 ABSw
08019434 g     O .rwdata	00000100 RGB
08003308 g     F .text	0000012c cpu_reset
080115dc g     F .text	000000c0 altera_avalon_jtag_uart_init
08018c08 g       *ABS*	00000000 __CTOR_LIST__
10000000 g       *ABS*	00000000 __alt_stack_pointer
0801016c g     F .text	00000080 __clzsi2
08011d00 g     F .text	00000240 altera_avalon_jtag_uart_write
08003434 g     F .text	0000016c cpu_nmi
0800b08c g     F .text	00000004 __sfp_lock_acquire
0800bfa8 g     F .text	000000e4 memchr
0800762c g     F .text	00001eac ___vfprintf_internal_r
0800b420 g     F .text	00000314 _free_r
080189f8 g     F .text	000001b0 __call_exitprocs
08003d5c g     F .text	000000a0 XIND
0801cc34 g     O .bss	00000004 __mlocale_changed
0801afd4 g     O .rwdata	00000004 __malloc_sbrk_base
080001b4 g     F .text	0000004c _start
0801cc80 g     O .bss	00000004 _alt_tick_rate
0800cbe8 g     F .text	0000014c __lshift
0801cc06 g     O .bss	00000002 temp_addr
0801cc84 g     O .bss	00000004 _alt_nticks
08010dc4 g     F .text	00000120 read
08011214 g     F .text	00000248 alt_sys_init
080038c0 g     F .text	00000110 cpu_mem_write
080188c0 g     F .text	00000134 __register_exitproc
0801cc08 g     O .bss	00000001 mirroring
0800cd34 g     F .text	000001e8 __multiply
08011974 g     F .text	00000074 altera_avalon_jtag_uart_close
08019434 g       *ABS*	00000000 __ram_rwdata_start
08018c0c g       *ABS*	00000000 __ram_rodata_start
0801cc88 g     O .bss	00000028 __malloc_current_mallinfo
0800c8e0 g     F .text	0000017c __d2b
0801cc48 g     O .bss	00000004 initialized
08003cb0 g     F .text	000000ac ABSY
080049a8 g     F .text	000001e4 cpu_status
0800637c g     F .text	0000019c UPDATE
08011494 g     F .text	00000058 altera_avalon_jtag_uart_read_fd
080186b8 g     F .text	000000b8 alt_get_fd
0801ccb0 g     O .bss	00000014 search_data
08010638 g     F .text	000000c8 __fpcmp_parts_d
0800df68 g     F .text	00000070 _close_r
0800555c g     F .text	00000358 draw_tile
0801884c g     F .text	00000074 memcmp
08011544 g     F .text	00000048 altera_avalon_jtag_uart_close_fd
0801d4a8 g       *ABS*	00000000 __alt_stack_base
0801158c g     F .text	00000050 altera_avalon_jtag_uart_ioctl_fd
080094fc g     F .text	0000013c __swsetup_r
0800f724 g     F .text	00000258 __divdf3
0800b204 g     F .text	000000f0 __sfp
0801ccc4 g     O .bss	00000054 boot_sector_data
0800c744 g     F .text	00000058 __copybits
08019534 g     O .rwdata	00000408 __malloc_av_
0800b098 g     F .text	00000004 __sinit_lock_release
0801cc09 g     O .bss	00000001 tv_system
0800f360 g     F .text	000003c4 __muldf3
0800dbd4 g     F .text	00000060 __sread
08018598 g     F .text	00000120 alt_find_file
08017a68 g     F .text	000000b4 alt_dev_llist_insert
08010d84 g     F .text	00000020 __malloc_lock
08010fa4 g     F .text	000000bc sbrk
0800ae04 g     F .text	000001fc _fflush_r
0800deb4 g     F .text	000000b4 _calloc_r
08004674 g     F .text	00000060 LDY
0801cc0a g     O .bss	00000002 t1
0801cbec g       *ABS*	00000000 __bss_start
0800c20c g     F .text	00000098 memset
08004bfc g     F .text	00000134 main
0801cc44 g     O .bss	00000004 alt_envp
0801cc28 g     O .bss	00000004 __malloc_max_total_mem
08012178 g     F .text	00000058 alt_up_pixel_buffer_dma_swap_buffers
080114ec g     F .text	00000058 altera_avalon_jtag_uart_write_fd
08004614 g     F .text	00000060 LDX
0800de20 g     F .text	0000001c __swbuf
0801cc0c g     O .bss	00000004 PPU
08016cbc g     F .text	0000008c alt_up_sd_card_get_attributes
080134ac g     F .text	000000c8 Write_Sector_Data
080170e4 g     F .text	00000620 alt_up_sd_card_write
0800dae8 g     F .text	00000008 __sclose
10000000 g       *ABS*	00000000 __alt_heap_limit
0800e0e8 g     F .text	00000014 fclose
0801d318 g     O .bss	00000190 _atexit0
08009850 g     F .text	000015b4 _dtoa_r
08006c60 g     F .text	00000740 _malloc_r
0801affc g     O .rwdata	00000004 alt_errno
0801cc10 g     O .bss	00000001 mapper
0800bc98 g     F .text	000000b8 _fwalk
0800d298 g     F .text	00000104 putc
08010004 g     F .text	00000060 __divsi3
080192b0 g     O .rodata	00000014 __thenan_df
0800b2f4 g     F .text	0000012c _malloc_trim_r
08018c0c g       *ABS*	00000000 __CTOR_END__
0801cc54 g     O .bss	00000004 status_register
0800dc34 g     F .text	000000bc strcmp
0801cc5c g     O .bss	00000004 command_register
080044f4 g     F .text	00000060 DEC
08018c0c g       *ABS*	00000000 __flash_rodata_start
08018c0c g       *ABS*	00000000 __DTOR_LIST__
080041d4 g     F .text	00000044 ZPXw
0800fa04 g     F .text	00000088 __nedf2
080111e0 g     F .text	00000034 alt_irq_init
08010f44 g     F .text	00000060 alt_release_fd
080136c0 g     F .text	000000b8 get_cluster_flag
08004730 g     F .text	0000006c ORA
080192c4 g     O .rodata	00000100 __clz_tab
08013c90 g     F .text	000002b8 Write_File_Record_At_Offset
0801cc38 g     O .bss	00000004 _PathLocale
08018800 g     F .text	00000014 atexit
0800de3c g     F .text	00000078 _write_r
0800bdf8 g     F .text	0000001c setlocale
080046d4 g     F .text	0000005c LSR
08003a98 g     F .text	00000080 cpu_split_flags
08013f48 g     F .text	00000640 Check_for_DOS_FAT
08015dd8 g     F .text	000002d4 create_file
0801afd8 g     O .rwdata	00000004 _impure_ptr
0801cc58 g     O .bss	00000004 CSD_register_w0
0801cc3c g     O .bss	00000004 alt_argc
08017be0 g     F .text	00000064 _do_dtors
0801cc12 g     O .bss	00000002 h
08000000 g       *ABS*	00000000 __alt_mem_sdram_0
0800479c g     F .text	00000094 ROL
08004d30 g     F .text	00000110 test_nametable
08000020 g       .exceptions	00000000 alt_irq_entry
0800c460 g     F .text	00000080 __ulp
0800da78 g     F .text	00000040 __isinfd
0800b150 g     F .text	00000018 __fp_unlock_all
0801cc14 g     O .bss	00000001 chr_size
0801afe8 g     O .rwdata	00000008 alt_fs_list
08014750 g     F .text	00000290 check_file_name_for_FAT16_compliance
08000200 g     F .text	00002920 cpu_exec
08002b20 g     F .text	000007e8 print_opcode
0801cc64 g     O .bss	00000004 buffer_memory
08005540 g     F .text	0000001c pallet_init
08000020 g       *ABS*	00000000 __ram_exceptions_start
0800bd64 g     F .text	00000010 localeconv
0801cc18 g     O .bss	00000004 pix_buffer
08017d08 g     F .text	00000050 alt_ic_isr_register
0801cc68 g     O .bss	00000004 fat_partition_offset_in_512_byte_sectors
080052b8 g     F .text	00000288 ppu_init
0801b010 g       *ABS*	00000000 _edata
0801d4a8 g       *ABS*	00000000 _end
0801cc1c g     O .bss	00000001 prg_ram_size
0801cd18 g     O .bss	00000500 active_files
080001b4 g       *ABS*	00000000 __ram_exceptions_end
080160ac g     F .text	00000154 copy_file_record_name_to_string
080119e8 g     F .text	000000f4 altera_avalon_jtag_uart_ioctl
08014588 g     F .text	000000f8 Look_for_FAT16
08017df4 g     F .text	000000a0 alt_ic_irq_disable
0800db58 g     F .text	0000007c __swrite
0801afd0 g     O .rwdata	00000004 __malloc_trim_threshold
08018578 g     F .text	00000020 altera_nios2_qsys_irq_init
08018814 g     F .text	00000038 exit
080164d4 g     F .text	000003b0 alt_up_sd_card_find_next
0800bbd0 g     F .text	000000c8 _fwalk_reent
0800ca5c g     F .text	0000018c __mdiff
08010064 g     F .text	00000060 __modsi3
080135c4 g     F .text	000000fc Read_Sector_Data
10000000 g       *ABS*	00000000 __alt_data_end
08000020 g     F .exceptions	00000000 alt_exception
0800b090 g     F .text	00000004 __sfp_lock_release
08003f38 g     F .text	0000004c ZPX
0800403c g     F .text	00000068 ABSYw
08018be8 g     F .text	00000020 _exit
0800dab8 g     F .text	00000030 __isnand
080178d0 g     F .text	00000154 alt_alarm_start
080100d4 g     F .text	00000098 __muldi3
08016d48 g     F .text	0000039c alt_up_sd_card_read
0800be14 g     F .text	00000194 __smakebuf_r
08005d18 g     F .text	00000084 pattern_lookout
08007560 g     F .text	00000074 strlen
08004554 g     F .text	00000060 INC
080181ec g     F .text	00000188 open
0800fb14 g     F .text	00000088 __gedf2
080035a0 g     F .text	00000164 cpu_irq
08003c08 g     F .text	000000a8 ABSX
08017cd8 g     F .text	00000030 alt_icache_flush_all
08005e88 g     F .text	0000009c tile_retrieval
08005f24 g     F .text	00000458 scanline_retireval
0801b004 g     O .rwdata	00000004 alt_priority_mask
08003fd4 g     F .text	00000068 ABSXw
08017d58 g     F .text	0000009c alt_ic_irq_enable
080094d8 g     F .text	00000024 __vfprintf_internal
08004830 g     F .text	000000a4 ROR
0800f26c g     F .text	00000080 __subdf3
0800c33c g     F .text	000000c4 __lo0bits
0801b008 g     O .rwdata	00000008 alt_alarm_list
08017b7c g     F .text	00000064 _do_ctors
08010700 g     F .text	000000fc close
0801cc1d g     O .bss	00000001 cpu_sram
08010adc g     F .text	00000080 alt_load
080101ec g     F .text	00000314 __pack_d
08014aa0 g     F .text	000002ec match_file_record_to_name_ext
08006c38 g     F .text	00000014 free
0800b094 g     F .text	00000004 __sinit_lock_acquire
080037d4 g     F .text	000000ec cpu_mem_read
0800cf58 g     F .text	00000100 __multadd
0800c2a4 g     F .text	00000028 _Bfree



Disassembly of section .entry:

08000000 <__reset>:
#if NIOS2_ICACHE_SIZE > 0 && defined(ALT_ALLOW_CODE_AT_RESET) && !defined(ALT_SIM_OPTIMIZE)
    /* Assume the instruction cache size is always a power of two. */
#if NIOS2_ICACHE_SIZE > 0x8000
    movhi r2, %hi(NIOS2_ICACHE_SIZE)
#else
    movui r2, NIOS2_ICACHE_SIZE
 8000000:	00900014 	movui	r2,16384
#endif

0:
    initi r2
 8000004:	1001483a 	initi	r2
    addi r2, r2, -NIOS2_ICACHE_LINE_SIZE
 8000008:	10bff804 	addi	r2,r2,-32
    bgt r2, zero, 0b
 800000c:	00bffd16 	blt	zero,r2,8000004 <__reset+0x4>
 * Jump to the _start entry point in the .text section if reset code
 * is allowed or if optimizing for RTL simulation.
 */
#if defined(ALT_ALLOW_CODE_AT_RESET) || defined(ALT_SIM_OPTIMIZE)
    /* Jump to the _start entry point in the .text section. */
    movhi r1, %hi(_start)
 8000010:	00420034 	movhi	at,2048
    ori r1, r1, %lo(_start)
 8000014:	08406d14 	ori	at,at,436
    jmp r1
 8000018:	0800683a 	jmp	at
 800001c:	00000000 	call	0 <__alt_mem_sdram_0-0x8000000>

Disassembly of section .exceptions:

08000020 <alt_exception>:
         * Process an exception.  For all exceptions we must preserve all
         * caller saved registers on the stack (See the Nios2 ABI
         * documentation for details).
         */

        addi  sp, sp, -76
 8000020:	deffed04 	addi	sp,sp,-76

#endif

#endif

        stw   ra,  0(sp)
 8000024:	dfc00015 	stw	ra,0(sp)
        /*
         * Leave a gap in the stack frame at 4(sp) for the muldiv handler to
         * store zero into.
         */

        stw   r1,   8(sp)
 8000028:	d8400215 	stw	at,8(sp)
        stw   r2,  12(sp)
 800002c:	d8800315 	stw	r2,12(sp)
        stw   r3,  16(sp)
 8000030:	d8c00415 	stw	r3,16(sp)
        stw   r4,  20(sp)
 8000034:	d9000515 	stw	r4,20(sp)
        stw   r5,  24(sp)
 8000038:	d9400615 	stw	r5,24(sp)
        stw   r6,  28(sp)
 800003c:	d9800715 	stw	r6,28(sp)
        stw   r7,  32(sp)
 8000040:	d9c00815 	stw	r7,32(sp)

        rdctl r5, estatus
 8000044:	000b307a 	rdctl	r5,estatus

        stw   r8,  36(sp)
 8000048:	da000915 	stw	r8,36(sp)
        stw   r9,  40(sp)
 800004c:	da400a15 	stw	r9,40(sp)
        stw   r10, 44(sp)
 8000050:	da800b15 	stw	r10,44(sp)
        stw   r11, 48(sp)
 8000054:	dac00c15 	stw	r11,48(sp)
        stw   r12, 52(sp)
 8000058:	db000d15 	stw	r12,52(sp)
        stw   r13, 56(sp)
 800005c:	db400e15 	stw	r13,56(sp)
        stw   r14, 60(sp)
 8000060:	db800f15 	stw	r14,60(sp)
        stw   r15, 64(sp)
 8000064:	dbc01015 	stw	r15,64(sp)
        /*
         * ea-4 contains the address of the instruction being executed
         * when the exception occured. For interrupt exceptions, we will
         * will be re-issue the isntruction. Store it in 72(sp)
         */
        stw   r5,  68(sp)  /* estatus */
 8000068:	d9401115 	stw	r5,68(sp)
        addi  r15, ea, -4  /* instruction that caused exception */
 800006c:	ebffff04 	addi	r15,ea,-4
        stw   r15,  72(sp)
 8000070:	dbc01215 	stw	r15,72(sp)
#else
        /*
         * Test to see if the exception was a software exception or caused 
         * by an external interrupt, and vector accordingly.
         */
        rdctl r4, ipending
 8000074:	0009313a 	rdctl	r4,ipending
        andi  r2, r5, 1
 8000078:	2880004c 	andi	r2,r5,1
        beq   r2, zero, .Lnot_irq
 800007c:	10000326 	beq	r2,zero,800008c <alt_exception+0x6c>
        beq   r4, zero, .Lnot_irq
 8000080:	20000226 	beq	r4,zero,800008c <alt_exception+0x6c>
        /*
         * Now that all necessary registers have been preserved, call 
         * alt_irq_handler() to process the interrupts.
         */

        call alt_irq_handler
 8000084:	80000ec0 	call	80000ec <alt_irq_handler>

        .section .exceptions.irqreturn, "xa"

        br    .Lexception_exit
 8000088:	00000306 	br	8000098 <alt_exception+0x78>
         * upon completion, so we write ea (address of instruction *after*
         * the one where the exception occured) into 72(sp). The actual
         * instruction that caused the exception is written in r2, which these
         * handlers will utilize.
         */
        stw   ea,  72(sp)  /* Don't re-issue */
 800008c:	df401215 	stw	ea,72(sp)
        ldw   r2, -4(ea)   /* Instruction that caused exception */
 8000090:	e8bfff17 	ldw	r2,-4(ea)
#ifdef NIOS2_HAS_DEBUG_STUB
       /*
        *  Either tell the user now (if there is a debugger attached) or go into
        *  the debug monitor which will loop until a debugger is attached.
        */
        break
 8000094:	003da03a 	break	0
        /* 
         * Restore the saved registers, so that all general purpose registers 
         * have been restored to their state at the time the interrupt occured.
         */

        ldw   r5,  68(sp)
 8000098:	d9401117 	ldw	r5,68(sp)
        ldw   ea,  72(sp)  /* This becomes the PC once eret is executed */
 800009c:	df401217 	ldw	ea,72(sp)
        ldw   ra,   0(sp)
 80000a0:	dfc00017 	ldw	ra,0(sp)

        wrctl estatus, r5
 80000a4:	2801707a 	wrctl	estatus,r5

        ldw   r1,   8(sp)
 80000a8:	d8400217 	ldw	at,8(sp)
        ldw   r2,  12(sp)
 80000ac:	d8800317 	ldw	r2,12(sp)
        ldw   r3,  16(sp)
 80000b0:	d8c00417 	ldw	r3,16(sp)
        ldw   r4,  20(sp)
 80000b4:	d9000517 	ldw	r4,20(sp)
        ldw   r5,  24(sp)
 80000b8:	d9400617 	ldw	r5,24(sp)
        ldw   r6,  28(sp)
 80000bc:	d9800717 	ldw	r6,28(sp)
        ldw   r7,  32(sp)
 80000c0:	d9c00817 	ldw	r7,32(sp)
#ifdef ALT_STACK_CHECK
        ldw   et, %gprel(alt_exception_old_stack_limit)(gp)
#endif
#endif

        ldw   r8,  36(sp)
 80000c4:	da000917 	ldw	r8,36(sp)
        ldw   r9,  40(sp)
 80000c8:	da400a17 	ldw	r9,40(sp)
        ldw   r10, 44(sp)
 80000cc:	da800b17 	ldw	r10,44(sp)
        ldw   r11, 48(sp)
 80000d0:	dac00c17 	ldw	r11,48(sp)
        ldw   r12, 52(sp)
 80000d4:	db000d17 	ldw	r12,52(sp)
        ldw   r13, 56(sp)
 80000d8:	db400e17 	ldw	r13,56(sp)
        ldw   r14, 60(sp)
 80000dc:	db800f17 	ldw	r14,60(sp)
        ldw   r15, 64(sp)
 80000e0:	dbc01017 	ldw	r15,64(sp)
#endif

        ldw   sp,  76(sp)

#else
        addi  sp, sp, 76
 80000e4:	dec01304 	addi	sp,sp,76

        /*
         * Return to the interrupted instruction.
         */

        eret
 80000e8:	ef80083a 	eret

080000ec <alt_irq_handler>:
 * instruction is present if the macro ALT_CI_INTERRUPT_VECTOR defined.
 */

void alt_irq_handler (void) __attribute__ ((section (".exceptions")));
void alt_irq_handler (void)
{
 80000ec:	defff904 	addi	sp,sp,-28
 80000f0:	dfc00615 	stw	ra,24(sp)
 80000f4:	df000515 	stw	fp,20(sp)
 80000f8:	df000504 	addi	fp,sp,20
#ifndef NIOS2_EIC_PRESENT
static ALT_INLINE alt_u32 ALT_ALWAYS_INLINE alt_irq_pending (void)
{
  alt_u32 active;

  NIOS2_READ_IPENDING (active);
 80000fc:	0005313a 	rdctl	r2,ipending
 8000100:	e0bffc15 	stw	r2,-16(fp)

  return active;
 8000104:	e0bffc17 	ldw	r2,-16(fp)
   * Consider the case where the high priority interupt is asserted during
   * the interrupt entry sequence for a lower priority interrupt to see why
   * this is the case.
   */

  active = alt_irq_pending ();
 8000108:	e0bfff15 	stw	r2,-4(fp)

  do
  {
    i = 0;
 800010c:	e03ffd15 	stw	zero,-12(fp)
    mask = 1;
 8000110:	00800044 	movi	r2,1
 8000114:	e0bffe15 	stw	r2,-8(fp)
     * called to clear the interrupt condition.
     */

    do
    {
      if (active & mask)
 8000118:	e0ffff17 	ldw	r3,-4(fp)
 800011c:	e0bffe17 	ldw	r2,-8(fp)
 8000120:	1884703a 	and	r2,r3,r2
 8000124:	1005003a 	cmpeq	r2,r2,zero
 8000128:	1000161e 	bne	r2,zero,8000184 <alt_irq_handler+0x98>
      { 
#ifdef ALT_ENHANCED_INTERRUPT_API_PRESENT
        alt_irq[i].handler(alt_irq[i].context); 
 800012c:	e0bffd17 	ldw	r2,-12(fp)
 8000130:	00c200b4 	movhi	r3,2050
 8000134:	18f48604 	addi	r3,r3,-11752
 8000138:	100490fa 	slli	r2,r2,3
 800013c:	10c5883a 	add	r2,r2,r3
 8000140:	11400017 	ldw	r5,0(r2)
 8000144:	e0bffd17 	ldw	r2,-12(fp)
 8000148:	00c200b4 	movhi	r3,2050
 800014c:	18f48604 	addi	r3,r3,-11752
 8000150:	100490fa 	slli	r2,r2,3
 8000154:	10c5883a 	add	r2,r2,r3
 8000158:	10800104 	addi	r2,r2,4
 800015c:	11000017 	ldw	r4,0(r2)
 8000160:	283ee83a 	callr	r5
#ifndef NIOS2_EIC_PRESENT
static ALT_INLINE alt_u32 ALT_ALWAYS_INLINE alt_irq_pending (void)
{
  alt_u32 active;

  NIOS2_READ_IPENDING (active);
 8000164:	0005313a 	rdctl	r2,ipending
 8000168:	e0bffb15 	stw	r2,-20(fp)

  return active;
 800016c:	e0bffb17 	ldw	r2,-20(fp)
      mask <<= 1;
      i++;

    } while (1);

    active = alt_irq_pending ();
 8000170:	e0bfff15 	stw	r2,-4(fp)
    
  } while (active);
 8000174:	e0bfff17 	ldw	r2,-4(fp)
 8000178:	1004c03a 	cmpne	r2,r2,zero
 800017c:	103fe31e 	bne	r2,zero,800010c <alt_irq_handler+0x20>
 8000180:	00000706 	br	80001a0 <alt_irq_handler+0xb4>
#else
        alt_irq[i].handler(alt_irq[i].context, i); 
#endif
        break;
      }
      mask <<= 1;
 8000184:	e0bffe17 	ldw	r2,-8(fp)
 8000188:	1085883a 	add	r2,r2,r2
 800018c:	e0bffe15 	stw	r2,-8(fp)
      i++;
 8000190:	e0bffd17 	ldw	r2,-12(fp)
 8000194:	10800044 	addi	r2,r2,1
 8000198:	e0bffd15 	stw	r2,-12(fp)

    } while (1);
 800019c:	003fde06 	br	8000118 <alt_irq_handler+0x2c>
  /*
   * Notify the operating system that interrupt processing is complete.
   */ 

  ALT_OS_INT_EXIT();
}
 80001a0:	e037883a 	mov	sp,fp
 80001a4:	dfc00117 	ldw	ra,4(sp)
 80001a8:	df000017 	ldw	fp,0(sp)
 80001ac:	dec00204 	addi	sp,sp,8
 80001b0:	f800283a 	ret

Disassembly of section .text:

080001b4 <_start>:

    /* Assume the data cache size is always a power of two. */
#if NIOS2_DCACHE_SIZE > 0x8000
    movhi r2, %hi(NIOS2_DCACHE_SIZE)
#else
    movui r2, NIOS2_DCACHE_SIZE
 80001b4:	00880014 	movui	r2,8192
#endif

0:
    initd 0(r2)
 80001b8:	10000033 	initd	0(r2)
    addi r2, r2, -NIOS2_DCACHE_LINE_SIZE
 80001bc:	10bff804 	addi	r2,r2,-32
    bgt r2, zero, 0b
 80001c0:	00bffd16 	blt	zero,r2,80001b8 <_start+0x4>
#if (NIOS2_NUM_OF_SHADOW_REG_SETS == 0)    
    /*
     * Now that the caches are initialized, set up the stack pointer.
     * The value provided by the linker is assumed to be correctly aligned.
     */
    movhi sp, %hi(__alt_stack_pointer)
 80001c4:	06c40034 	movhi	sp,4096
    ori sp, sp, %lo(__alt_stack_pointer)
 80001c8:	dec00014 	ori	sp,sp,0

    /* Set up the global pointer. */
    movhi gp, %hi(_gp)
 80001cc:	068200b4 	movhi	gp,2050
    ori gp, gp, %lo(_gp)
 80001d0:	d68bf414 	ori	gp,gp,12240
 */
#ifndef ALT_SIM_OPTIMIZE
    /* Log that the BSS is about to be cleared. */
    ALT_LOG_PUTS(alt_log_msg_bss)

    movhi r2, %hi(__bss_start)
 80001d4:	00820074 	movhi	r2,2049
    ori r2, r2, %lo(__bss_start)
 80001d8:	10b2fb14 	ori	r2,r2,52204

    movhi r3, %hi(__bss_end)
 80001dc:	00c20074 	movhi	r3,2049
    ori r3, r3, %lo(__bss_end)
 80001e0:	18f52a14 	ori	r3,r3,54440

    beq r2, r3, 1f
 80001e4:	10c00326 	beq	r2,r3,80001f4 <_start+0x40>

0:
    stw zero, (r2)
 80001e8:	10000015 	stw	zero,0(r2)
    addi r2, r2, 4
 80001ec:	10800104 	addi	r2,r2,4
    bltu r2, r3, 0b
 80001f0:	10fffd36 	bltu	r2,r3,80001e8 <_start+0x34>
     * section aren't defined until alt_load() has been called).
     */
    mov   et, zero
#endif

    call alt_load
 80001f4:	8010adc0 	call	8010adc <alt_load>

    /* Log that alt_main is about to be called. */
    ALT_LOG_PUTS(alt_log_msg_alt_main)

    /* Call the C entry point. It should never return. */
    call alt_main
 80001f8:	8010d180 	call	8010d18 <alt_main>

080001fc <alt_after_alt_main>:

    /* Wait in infinite loop in case alt_main does return. */
alt_after_alt_main:
    br alt_after_alt_main
 80001fc:	003fff06 	br	80001fc <alt_after_alt_main>

08000200 <cpu_exec>:
   Function: decode_instruction( byte )
   Description: Reads in byte to decode into corresponding
	  	instruction with addressing mode.
*/
void cpu_exec()
{
 8000200:	defffa04 	addi	sp,sp,-24
 8000204:	dfc00515 	stw	ra,20(sp)
 8000208:	df000415 	stw	fp,16(sp)
 800020c:	dc400315 	stw	r17,12(sp)
 8000210:	dc000215 	stw	r16,8(sp)
 8000214:	df000204 	addi	fp,sp,8
  // Execute OPCODE. Note: BCD-related actions are ignored.
  switch(CPU->IR)
 8000218:	d0a70717 	ldw	r2,-25572(gp)
 800021c:	10800443 	ldbu	r2,17(r2)
 8000220:	10803fcc 	andi	r2,r2,255
 8000224:	e0bfff15 	stw	r2,-4(fp)
 8000228:	e0ffff17 	ldw	r3,-4(fp)
 800022c:	18803fe8 	cmpgeui	r2,r3,255
 8000230:	100a121e 	bne	r2,zero,8002a7c <cpu_exec+0x287c>
 8000234:	e13fff17 	ldw	r4,-4(fp)
 8000238:	e13fff17 	ldw	r4,-4(fp)
 800023c:	2105883a 	add	r2,r4,r4
 8000240:	1087883a 	add	r3,r2,r2
 8000244:	00820034 	movhi	r2,2048
 8000248:	10809604 	addi	r2,r2,600
 800024c:	1885883a 	add	r2,r3,r2
 8000250:	10800017 	ldw	r2,0(r2)
 8000254:	1000683a 	jmp	r2
 8000258:	08000dc8 	cmpgei	zero,at,55
 800025c:	08001eb8 	rdprs	zero,at,122
 8000260:	08002a7c 	xorhi	zero,at,169
 8000264:	08002a7c 	xorhi	zero,at,169
 8000268:	08002a7c 	xorhi	zero,at,169
 800026c:	08001edc 	xori	zero,at,123
 8000270:	08000964 	muli	zero,at,37
 8000274:	08002a7c 	xorhi	zero,at,169
 8000278:	08001f68 	cmpgeui	zero,at,125
 800027c:	08001e70 	cmpltui	zero,at,121
 8000280:	0800093c 	xorhi	zero,at,36
 8000284:	08002a7c 	xorhi	zero,at,169
 8000288:	08002a7c 	xorhi	zero,at,169
 800028c:	08001df4 	orhi	zero,at,119
 8000290:	080008c4 	addi	zero,at,35
 8000294:	08002a7c 	xorhi	zero,at,169
 8000298:	08000d2c 	andhi	zero,at,52
 800029c:	08001e8c 	andi	zero,at,122
 80002a0:	08002a7c 	xorhi	zero,at,169
 80002a4:	08002a7c 	xorhi	zero,at,169
 80002a8:	08002a7c 	xorhi	zero,at,169
 80002ac:	08001f00 	call	8001f0 <__alt_mem_sdram_0-0x77ffe10>
 80002b0:	080009b8 	rdprs	zero,at,38
 80002b4:	08002a7c 	xorhi	zero,at,169
 80002b8:	08000fd0 	cmplti	zero,at,63
 80002bc:	08001e44 	addi	zero,at,121
 80002c0:	08002a7c 	xorhi	zero,at,169
 80002c4:	08002a7c 	xorhi	zero,at,169
 80002c8:	08002a7c 	xorhi	zero,at,169
 80002cc:	08001e18 	cmpnei	zero,at,120
 80002d0:	08000900 	call	800090 <__alt_mem_sdram_0-0x77fff70>
 80002d4:	08002a7c 	xorhi	zero,at,169
 80002d8:	080018c8 	cmpgei	zero,at,99
 80002dc:	08000858 	cmpnei	zero,at,33
 80002e0:	08002a7c 	xorhi	zero,at,169
 80002e4:	08002a7c 	xorhi	zero,at,169
 80002e8:	08001030 	cmpltui	zero,at,64
 80002ec:	0800087c 	xorhi	zero,at,33
 80002f0:	08002100 	call	800210 <__alt_mem_sdram_0-0x77ffdf0>
 80002f4:	08002a7c 	xorhi	zero,at,169
 80002f8:	08002020 	cmpeqi	zero,at,128
 80002fc:	08000808 	cmpgei	zero,at,32
 8000300:	080020d8 	cmpnei	zero,at,131
 8000304:	08002a7c 	xorhi	zero,at,169
 8000308:	080010a4 	muli	zero,at,66
 800030c:	0800078c 	andi	zero,at,30
 8000310:	08002060 	cmpeqi	zero,at,129
 8000314:	08002a7c 	xorhi	zero,at,169
 8000318:	08000bf4 	orhi	zero,at,47
 800031c:	0800082c 	andhi	zero,at,32
 8000320:	08002a7c 	xorhi	zero,at,169
 8000324:	08002a7c 	xorhi	zero,at,169
 8000328:	08002a7c 	xorhi	zero,at,169
 800032c:	080008a0 	cmpeqi	zero,at,34
 8000330:	08002154 	ori	zero,at,133
 8000334:	08002a7c 	xorhi	zero,at,169
 8000338:	080025d4 	ori	zero,at,151
 800033c:	080007dc 	xori	zero,at,31
 8000340:	08002a7c 	xorhi	zero,at,169
 8000344:	08002a7c 	xorhi	zero,at,169
 8000348:	08002a7c 	xorhi	zero,at,169
 800034c:	080007b0 	cmpltui	zero,at,30
 8000350:	0800209c 	xori	zero,at,130
 8000354:	08002a7c 	xorhi	zero,at,169
 8000358:	08002334 	orhi	zero,at,140
 800035c:	080015e8 	cmpgeui	zero,at,87
 8000360:	08002a7c 	xorhi	zero,at,169
 8000364:	08002a7c 	xorhi	zero,at,169
 8000368:	08002a7c 	xorhi	zero,at,169
 800036c:	08001610 	cmplti	zero,at,88
 8000370:	08001d28 	cmpgeui	zero,at,116
 8000374:	08002a7c 	xorhi	zero,at,169
 8000378:	08001f24 	muli	zero,at,124
 800037c:	08001590 	cmplti	zero,at,86
 8000380:	08001d00 	call	8001d0 <__alt_mem_sdram_0-0x77ffe30>
 8000384:	08002a7c 	xorhi	zero,at,169
 8000388:	0800183c 	xorhi	zero,at,96
 800038c:	08001508 	cmpgei	zero,at,84
 8000390:	08001c88 	cmpgei	zero,at,114
 8000394:	08002a7c 	xorhi	zero,at,169
 8000398:	08000ec8 	cmpgei	zero,at,59
 800039c:	080015b8 	rdprs	zero,at,86
 80003a0:	08002a7c 	xorhi	zero,at,169
 80003a4:	08002a7c 	xorhi	zero,at,169
 80003a8:	08002a7c 	xorhi	zero,at,169
 80003ac:	08001638 	rdprs	zero,at,88
 80003b0:	08001d7c 	xorhi	zero,at,117
 80003b4:	08002a7c 	xorhi	zero,at,169
 80003b8:	08001000 	call	800100 <__alt_mem_sdram_0-0x77fff00>
 80003bc:	08001560 	cmpeqi	zero,at,85
 80003c0:	08002a7c 	xorhi	zero,at,169
 80003c4:	08002a7c 	xorhi	zero,at,169
 80003c8:	08002a7c 	xorhi	zero,at,169
 80003cc:	08001530 	cmpltui	zero,at,84
 80003d0:	08001cc4 	addi	zero,at,115
 80003d4:	08002a7c 	xorhi	zero,at,169
 80003d8:	080023f0 	cmpltui	zero,at,143
 80003dc:	08000720 	cmpeqi	zero,at,28
 80003e0:	08002a7c 	xorhi	zero,at,169
 80003e4:	08002a7c 	xorhi	zero,at,169
 80003e8:	08002a7c 	xorhi	zero,at,169
 80003ec:	08000744 	addi	zero,at,29
 80003f0:	08002268 	cmpgeui	zero,at,137
 80003f4:	08002a7c 	xorhi	zero,at,169
 80003f8:	08001fac 	andhi	zero,at,126
 80003fc:	080006d0 	cmplti	zero,at,27
 8000400:	08002234 	orhi	zero,at,136
 8000404:	08002a7c 	xorhi	zero,at,169
 8000408:	08001858 	cmpnei	zero,at,97
 800040c:	08000654 	ori	zero,at,25
 8000410:	080021bc 	xorhi	zero,at,134
 8000414:	08002a7c 	xorhi	zero,at,169
 8000418:	08000f4c 	andi	zero,at,61
 800041c:	080006f4 	orhi	zero,at,27
 8000420:	08002a7c 	xorhi	zero,at,169
 8000424:	08002a7c 	xorhi	zero,at,169
 8000428:	08002a7c 	xorhi	zero,at,169
 800042c:	08000768 	cmpgeui	zero,at,29
 8000430:	080022bc 	xorhi	zero,at,138
 8000434:	08002a7c 	xorhi	zero,at,169
 8000438:	0800260c 	andi	zero,at,152
 800043c:	080006a4 	muli	zero,at,26
 8000440:	08002a7c 	xorhi	zero,at,169
 8000444:	08002a7c 	xorhi	zero,at,169
 8000448:	08002a7c 	xorhi	zero,at,169
 800044c:	08000678 	rdprs	zero,at,25
 8000450:	080021f8 	rdprs	zero,at,135
 8000454:	08002a7c 	xorhi	zero,at,169
 8000458:	08002a7c 	xorhi	zero,at,169
 800045c:	080026d8 	cmpnei	zero,at,155
 8000460:	08002a7c 	xorhi	zero,at,169
 8000464:	08002a7c 	xorhi	zero,at,169
 8000468:	08002844 	addi	zero,at,161
 800046c:	08002704 	addi	zero,at,156
 8000470:	080027a4 	muli	zero,at,158
 8000474:	08002a7c 	xorhi	zero,at,169
 8000478:	080014b4 	orhi	zero,at,82
 800047c:	08002a7c 	xorhi	zero,at,169
 8000480:	080029b4 	orhi	zero,at,166
 8000484:	08002a7c 	xorhi	zero,at,169
 8000488:	08002818 	cmpnei	zero,at,160
 800048c:	08002628 	cmpgeui	zero,at,152
 8000490:	08002778 	rdprs	zero,at,157
 8000494:	08002a7c 	xorhi	zero,at,169
 8000498:	08000a20 	cmpeqi	zero,at,40
 800049c:	080026ac 	andhi	zero,at,154
 80004a0:	08002a7c 	xorhi	zero,at,169
 80004a4:	08002a7c 	xorhi	zero,at,169
 80004a8:	08002874 	orhi	zero,at,161
 80004ac:	08002734 	orhi	zero,at,156
 80004b0:	080027d4 	ori	zero,at,159
 80004b4:	08002a7c 	xorhi	zero,at,169
 80004b8:	08002a28 	cmpgeui	zero,at,168
 80004bc:	08002680 	call	800268 <__alt_mem_sdram_0-0x77ffd98>
 80004c0:	08002a08 	cmpgei	zero,at,168
 80004c4:	08002a7c 	xorhi	zero,at,169
 80004c8:	08002a7c 	xorhi	zero,at,169
 80004cc:	08002654 	ori	zero,at,153
 80004d0:	08002a7c 	xorhi	zero,at,169
 80004d4:	08002a7c 	xorhi	zero,at,169
 80004d8:	08001c24 	muli	zero,at,112
 80004dc:	08001a68 	cmpgeui	zero,at,105
 80004e0:	08001b24 	muli	zero,at,108
 80004e4:	08002a7c 	xorhi	zero,at,169
 80004e8:	08001c40 	call	8001c4 <__alt_mem_sdram_0-0x77ffe3c>
 80004ec:	08001a8c 	andi	zero,at,106
 80004f0:	08001b64 	muli	zero,at,109
 80004f4:	08002a7c 	xorhi	zero,at,169
 80004f8:	0800290c 	andi	zero,at,164
 80004fc:	080019fc 	xorhi	zero,at,103
 8000500:	080028b8 	rdprs	zero,at,162
 8000504:	08002a7c 	xorhi	zero,at,169
 8000508:	08001bd4 	ori	zero,at,111
 800050c:	08001980 	call	800198 <__alt_mem_sdram_0-0x77ffe68>
 8000510:	08001ad4 	ori	zero,at,107
 8000514:	08002a7c 	xorhi	zero,at,169
 8000518:	08000abc 	xorhi	zero,at,42
 800051c:	08001a3c 	xorhi	zero,at,104
 8000520:	08002a7c 	xorhi	zero,at,169
 8000524:	08002a7c 	xorhi	zero,at,169
 8000528:	08001c64 	muli	zero,at,113
 800052c:	08001ab0 	cmpltui	zero,at,106
 8000530:	08001b88 	cmpgei	zero,at,110
 8000534:	08002a7c 	xorhi	zero,at,169
 8000538:	08001018 	cmpnei	zero,at,64
 800053c:	080019d0 	cmplti	zero,at,103
 8000540:	08002960 	cmpeqi	zero,at,165
 8000544:	08002a7c 	xorhi	zero,at,169
 8000548:	08001bf8 	rdprs	zero,at,111
 800054c:	080019a4 	muli	zero,at,102
 8000550:	08001af8 	rdprs	zero,at,107
 8000554:	08002a7c 	xorhi	zero,at,169
 8000558:	080012e4 	muli	zero,at,75
 800055c:	080011e8 	cmpgeui	zero,at,71
 8000560:	08002a7c 	xorhi	zero,at,169
 8000564:	08002a7c 	xorhi	zero,at,169
 8000568:	08001308 	cmpgei	zero,at,76
 800056c:	0800120c 	andi	zero,at,72
 8000570:	080013a4 	muli	zero,at,78
 8000574:	08002a7c 	xorhi	zero,at,169
 8000578:	080017e8 	cmpgeui	zero,at,95
 800057c:	08001198 	cmpnei	zero,at,70
 8000580:	08001460 	cmpeqi	zero,at,81
 8000584:	08002a7c 	xorhi	zero,at,169
 8000588:	080012c0 	call	80012c <__alt_mem_sdram_0-0x77ffed4>
 800058c:	0800111c 	xori	zero,at,68
 8000590:	0800132c 	andhi	zero,at,76
 8000594:	08002a7c 	xorhi	zero,at,169
 8000598:	08000c90 	cmplti	zero,at,50
 800059c:	080011bc 	xorhi	zero,at,70
 80005a0:	08002a7c 	xorhi	zero,at,169
 80005a4:	08002a7c 	xorhi	zero,at,169
 80005a8:	08002a7c 	xorhi	zero,at,169
 80005ac:	08001230 	cmpltui	zero,at,72
 80005b0:	080013f8 	rdprs	zero,at,79
 80005b4:	08002a7c 	xorhi	zero,at,169
 80005b8:	08000fe8 	cmpgeui	zero,at,63
 80005bc:	0800116c 	andhi	zero,at,69
 80005c0:	08002a7c 	xorhi	zero,at,169
 80005c4:	08002a7c 	xorhi	zero,at,169
 80005c8:	08002a7c 	xorhi	zero,at,169
 80005cc:	08001140 	call	800114 <__alt_mem_sdram_0-0x77ffeec>
 80005d0:	08001368 	cmpgeui	zero,at,77
 80005d4:	08002a7c 	xorhi	zero,at,169
 80005d8:	08001278 	rdprs	zero,at,73
 80005dc:	08002568 	cmpgeui	zero,at,149
 80005e0:	08002a7c 	xorhi	zero,at,169
 80005e4:	08002a7c 	xorhi	zero,at,169
 80005e8:	0800129c 	xori	zero,at,74
 80005ec:	0800258c 	andi	zero,at,150
 80005f0:	080016d8 	cmpnei	zero,at,91
 80005f4:	08002a7c 	xorhi	zero,at,169
 80005f8:	08001794 	ori	zero,at,94
 80005fc:	080024fc 	xorhi	zero,at,147
 8000600:	08001de4 	muli	zero,at,119
 8000604:	08002a7c 	xorhi	zero,at,169
 8000608:	08001254 	ori	zero,at,73
 800060c:	08002480 	call	800248 <__alt_mem_sdram_0-0x77ffdb8>
 8000610:	08001660 	cmpeqi	zero,at,89
 8000614:	08002a7c 	xorhi	zero,at,169
 8000618:	08000b58 	cmpnei	zero,at,45
 800061c:	0800253c 	xorhi	zero,at,148
 8000620:	08002a7c 	xorhi	zero,at,169
 8000624:	08002a7c 	xorhi	zero,at,169
 8000628:	08002a7c 	xorhi	zero,at,169
 800062c:	080025b0 	cmpltui	zero,at,150
 8000630:	0800172c 	andhi	zero,at,92
 8000634:	08002a7c 	xorhi	zero,at,169
 8000638:	080025f0 	cmpltui	zero,at,151
 800063c:	080024d0 	cmplti	zero,at,147
 8000640:	08002a7c 	xorhi	zero,at,169
 8000644:	08002a7c 	xorhi	zero,at,169
 8000648:	08002a7c 	xorhi	zero,at,169
 800064c:	080024a4 	muli	zero,at,146
 8000650:	0800169c 	xori	zero,at,90
  {
    // ###################### ADC #########################
  case 0x6D: // ABS
      operand = ABS();  ADC( operand ); CPU->T = 2; break;
 8000654:	8003bac0 	call	8003bac <ABS>
 8000658:	d0a70b05 	stb	r2,-25556(gp)
 800065c:	d0a70b03 	ldbu	r2,-25556(gp)
 8000660:	11003fcc 	andi	r4,r2,255
 8000664:	80042180 	call	8004218 <ADC>
 8000668:	d0e70717 	ldw	r3,-25572(gp)
 800066c:	00800084 	movi	r2,2
 8000670:	18800485 	stb	r2,18(r3)
 8000674:	00092306 	br	8002b04 <cpu_exec+0x2904>
  case 0x7D: // ABSX
      operand = ABSX(); ADC( operand ); CPU->T = 4 + CPU->page_boundary; break;
 8000678:	8003c080 	call	8003c08 <ABSX>
 800067c:	d0a70b05 	stb	r2,-25556(gp)
 8000680:	d0a70b03 	ldbu	r2,-25556(gp)
 8000684:	11003fcc 	andi	r4,r2,255
 8000688:	80042180 	call	8004218 <ADC>
 800068c:	d0e70717 	ldw	r3,-25572(gp)
 8000690:	d0a70717 	ldw	r2,-25572(gp)
 8000694:	108007c3 	ldbu	r2,31(r2)
 8000698:	10800104 	addi	r2,r2,4
 800069c:	18800485 	stb	r2,18(r3)
 80006a0:	00091806 	br	8002b04 <cpu_exec+0x2904>
  case 0x79: // ABSY
      operand = ABSY(); ADC( operand ); CPU->T = 4 + CPU->page_boundary; break;
 80006a4:	8003cb00 	call	8003cb0 <ABSY>
 80006a8:	d0a70b05 	stb	r2,-25556(gp)
 80006ac:	d0a70b03 	ldbu	r2,-25556(gp)
 80006b0:	11003fcc 	andi	r4,r2,255
 80006b4:	80042180 	call	8004218 <ADC>
 80006b8:	d0e70717 	ldw	r3,-25572(gp)
 80006bc:	d0a70717 	ldw	r2,-25572(gp)
 80006c0:	108007c3 	ldbu	r2,31(r2)
 80006c4:	10800104 	addi	r2,r2,4
 80006c8:	18800485 	stb	r2,18(r3)
 80006cc:	00090d06 	br	8002b04 <cpu_exec+0x2904>
  case 0x69: // IMM
    operand = IMM();    ADC( operand ); CPU->T = 2; break;
 80006d0:	8003ed80 	call	8003ed8 <IMM>
 80006d4:	d0a70b05 	stb	r2,-25556(gp)
 80006d8:	d0a70b03 	ldbu	r2,-25556(gp)
 80006dc:	11003fcc 	andi	r4,r2,255
 80006e0:	80042180 	call	8004218 <ADC>
 80006e4:	d0e70717 	ldw	r3,-25572(gp)
 80006e8:	00800084 	movi	r2,2
 80006ec:	18800485 	stb	r2,18(r3)
 80006f0:	00090406 	br	8002b04 <cpu_exec+0x2904>
  case 0x71: // INDY
    operand = INDY();   ADC( operand ); CPU->T = 5 + CPU->page_boundary; break;
 80006f4:	8003dfc0 	call	8003dfc <INDY>
 80006f8:	d0a70b05 	stb	r2,-25556(gp)
 80006fc:	d0a70b03 	ldbu	r2,-25556(gp)
 8000700:	11003fcc 	andi	r4,r2,255
 8000704:	80042180 	call	8004218 <ADC>
 8000708:	d0e70717 	ldw	r3,-25572(gp)
 800070c:	d0a70717 	ldw	r2,-25572(gp)
 8000710:	108007c3 	ldbu	r2,31(r2)
 8000714:	10800144 	addi	r2,r2,5
 8000718:	18800485 	stb	r2,18(r3)
 800071c:	0008f906 	br	8002b04 <cpu_exec+0x2904>
  case 0x61: // XIND
    operand = XIND();   ADC( operand ); CPU->T = 6; break;
 8000720:	8003d5c0 	call	8003d5c <XIND>
 8000724:	d0a70b05 	stb	r2,-25556(gp)
 8000728:	d0a70b03 	ldbu	r2,-25556(gp)
 800072c:	11003fcc 	andi	r4,r2,255
 8000730:	80042180 	call	8004218 <ADC>
 8000734:	d0e70717 	ldw	r3,-25572(gp)
 8000738:	00800184 	movi	r2,6
 800073c:	18800485 	stb	r2,18(r3)
 8000740:	0008f006 	br	8002b04 <cpu_exec+0x2904>
  case 0x65: // ZP
    operand = ZP();     ADC( operand ); CPU->T = 3; break;
 8000744:	8003f040 	call	8003f04 <ZP>
 8000748:	d0a70b05 	stb	r2,-25556(gp)
 800074c:	d0a70b03 	ldbu	r2,-25556(gp)
 8000750:	11003fcc 	andi	r4,r2,255
 8000754:	80042180 	call	8004218 <ADC>
 8000758:	d0e70717 	ldw	r3,-25572(gp)
 800075c:	008000c4 	movi	r2,3
 8000760:	18800485 	stb	r2,18(r3)
 8000764:	0008e706 	br	8002b04 <cpu_exec+0x2904>
  case 0x75: // ZPX
    operand = ZPX();    ADC( operand ); CPU->T = 4; break;
 8000768:	8003f380 	call	8003f38 <ZPX>
 800076c:	d0a70b05 	stb	r2,-25556(gp)
 8000770:	d0a70b03 	ldbu	r2,-25556(gp)
 8000774:	11003fcc 	andi	r4,r2,255
 8000778:	80042180 	call	8004218 <ADC>
 800077c:	d0e70717 	ldw	r3,-25572(gp)
 8000780:	00800104 	movi	r2,4
 8000784:	18800485 	stb	r2,18(r3)
 8000788:	0008de06 	br	8002b04 <cpu_exec+0x2904>

    // ###################### AND #########################
  case 0x2D: // ABS
    operand = ABS();  AND( operand ); CPU->T = 4; break;
 800078c:	8003bac0 	call	8003bac <ABS>
 8000790:	d0a70b05 	stb	r2,-25556(gp)
 8000794:	d0a70b03 	ldbu	r2,-25556(gp)
 8000798:	11003fcc 	andi	r4,r2,255
 800079c:	80042b80 	call	80042b8 <AND>
 80007a0:	d0e70717 	ldw	r3,-25572(gp)
 80007a4:	00800104 	movi	r2,4
 80007a8:	18800485 	stb	r2,18(r3)
 80007ac:	0008d506 	br	8002b04 <cpu_exec+0x2904>
  case 0x3D: // ABSX
    operand = ABSX(); AND( operand ); CPU->T = 4 + CPU->page_boundary; break;
 80007b0:	8003c080 	call	8003c08 <ABSX>
 80007b4:	d0a70b05 	stb	r2,-25556(gp)
 80007b8:	d0a70b03 	ldbu	r2,-25556(gp)
 80007bc:	11003fcc 	andi	r4,r2,255
 80007c0:	80042b80 	call	80042b8 <AND>
 80007c4:	d0e70717 	ldw	r3,-25572(gp)
 80007c8:	d0a70717 	ldw	r2,-25572(gp)
 80007cc:	108007c3 	ldbu	r2,31(r2)
 80007d0:	10800104 	addi	r2,r2,4
 80007d4:	18800485 	stb	r2,18(r3)
 80007d8:	0008ca06 	br	8002b04 <cpu_exec+0x2904>
  case 0x39: // ABSY
    operand = ABSY(); AND( operand ); CPU->T = 4 + CPU->page_boundary; break;
 80007dc:	8003cb00 	call	8003cb0 <ABSY>
 80007e0:	d0a70b05 	stb	r2,-25556(gp)
 80007e4:	d0a70b03 	ldbu	r2,-25556(gp)
 80007e8:	11003fcc 	andi	r4,r2,255
 80007ec:	80042b80 	call	80042b8 <AND>
 80007f0:	d0e70717 	ldw	r3,-25572(gp)
 80007f4:	d0a70717 	ldw	r2,-25572(gp)
 80007f8:	108007c3 	ldbu	r2,31(r2)
 80007fc:	10800104 	addi	r2,r2,4
 8000800:	18800485 	stb	r2,18(r3)
 8000804:	0008bf06 	br	8002b04 <cpu_exec+0x2904>
  case 0x29: // IMM
    operand = IMM();  AND( operand ); CPU->T = 2; break;
 8000808:	8003ed80 	call	8003ed8 <IMM>
 800080c:	d0a70b05 	stb	r2,-25556(gp)
 8000810:	d0a70b03 	ldbu	r2,-25556(gp)
 8000814:	11003fcc 	andi	r4,r2,255
 8000818:	80042b80 	call	80042b8 <AND>
 800081c:	d0e70717 	ldw	r3,-25572(gp)
 8000820:	00800084 	movi	r2,2
 8000824:	18800485 	stb	r2,18(r3)
 8000828:	0008b606 	br	8002b04 <cpu_exec+0x2904>
  case 0x31: // INDY
    operand = INDY(); AND( operand ); CPU->T = 5 + CPU->page_boundary; break;
 800082c:	8003dfc0 	call	8003dfc <INDY>
 8000830:	d0a70b05 	stb	r2,-25556(gp)
 8000834:	d0a70b03 	ldbu	r2,-25556(gp)
 8000838:	11003fcc 	andi	r4,r2,255
 800083c:	80042b80 	call	80042b8 <AND>
 8000840:	d0e70717 	ldw	r3,-25572(gp)
 8000844:	d0a70717 	ldw	r2,-25572(gp)
 8000848:	108007c3 	ldbu	r2,31(r2)
 800084c:	10800144 	addi	r2,r2,5
 8000850:	18800485 	stb	r2,18(r3)
 8000854:	0008ab06 	br	8002b04 <cpu_exec+0x2904>
  case 0x21: // XIND
    operand = XIND(); AND( operand ); CPU->T = 6; break;
 8000858:	8003d5c0 	call	8003d5c <XIND>
 800085c:	d0a70b05 	stb	r2,-25556(gp)
 8000860:	d0a70b03 	ldbu	r2,-25556(gp)
 8000864:	11003fcc 	andi	r4,r2,255
 8000868:	80042b80 	call	80042b8 <AND>
 800086c:	d0e70717 	ldw	r3,-25572(gp)
 8000870:	00800184 	movi	r2,6
 8000874:	18800485 	stb	r2,18(r3)
 8000878:	0008a206 	br	8002b04 <cpu_exec+0x2904>
  case 0x25: // ZP
    operand = ZP();   AND( operand ); CPU->T = 2; break;
 800087c:	8003f040 	call	8003f04 <ZP>
 8000880:	d0a70b05 	stb	r2,-25556(gp)
 8000884:	d0a70b03 	ldbu	r2,-25556(gp)
 8000888:	11003fcc 	andi	r4,r2,255
 800088c:	80042b80 	call	80042b8 <AND>
 8000890:	d0e70717 	ldw	r3,-25572(gp)
 8000894:	00800084 	movi	r2,2
 8000898:	18800485 	stb	r2,18(r3)
 800089c:	00089906 	br	8002b04 <cpu_exec+0x2904>
  case 0x35: // ZPX
    operand = ZPX();  AND( operand ); CPU->T = 3; break;
 80008a0:	8003f380 	call	8003f38 <ZPX>
 80008a4:	d0a70b05 	stb	r2,-25556(gp)
 80008a8:	d0a70b03 	ldbu	r2,-25556(gp)
 80008ac:	11003fcc 	andi	r4,r2,255
 80008b0:	80042b80 	call	80042b8 <AND>
 80008b4:	d0e70717 	ldw	r3,-25572(gp)
 80008b8:	008000c4 	movi	r2,3
 80008bc:	18800485 	stb	r2,18(r3)
 80008c0:	00089006 	br	8002b04 <cpu_exec+0x2904>

    // ###################### ASL #########################
  case 0x0E: // ABS
	t1 = ABSw(); cpu_mem_write( ASL( cpu_mem_read(t1) ), t1 );  CPU->T = 6; break; // Perform ASL, and update it in memory.
 80008c4:	8003f840 	call	8003f84 <ABSw>
 80008c8:	d0a70e8d 	sth	r2,-25542(gp)
 80008cc:	d0a70e8b 	ldhu	r2,-25542(gp)
 80008d0:	113fffcc 	andi	r4,r2,65535
 80008d4:	80037d40 	call	80037d4 <cpu_mem_read>
 80008d8:	11003fcc 	andi	r4,r2,255
 80008dc:	80043240 	call	8004324 <ASL>
 80008e0:	11003fcc 	andi	r4,r2,255
 80008e4:	d0a70e8b 	ldhu	r2,-25542(gp)
 80008e8:	117fffcc 	andi	r5,r2,65535
 80008ec:	80038c00 	call	80038c0 <cpu_mem_write>
 80008f0:	d0e70717 	ldw	r3,-25572(gp)
 80008f4:	00800184 	movi	r2,6
 80008f8:	18800485 	stb	r2,18(r3)
 80008fc:	00088106 	br	8002b04 <cpu_exec+0x2904>
  case 0x1E: // ABSX
	t1 = ABSXw(); cpu_mem_write( ASL( cpu_mem_read(t1) ), t1 ); CPU->T = 7; break;
 8000900:	8003fd40 	call	8003fd4 <ABSXw>
 8000904:	d0a70e8d 	sth	r2,-25542(gp)
 8000908:	d0a70e8b 	ldhu	r2,-25542(gp)
 800090c:	113fffcc 	andi	r4,r2,65535
 8000910:	80037d40 	call	80037d4 <cpu_mem_read>
 8000914:	11003fcc 	andi	r4,r2,255
 8000918:	80043240 	call	8004324 <ASL>
 800091c:	11003fcc 	andi	r4,r2,255
 8000920:	d0a70e8b 	ldhu	r2,-25542(gp)
 8000924:	117fffcc 	andi	r5,r2,65535
 8000928:	80038c00 	call	80038c0 <cpu_mem_write>
 800092c:	d0e70717 	ldw	r3,-25572(gp)
 8000930:	008001c4 	movi	r2,7
 8000934:	18800485 	stb	r2,18(r3)
 8000938:	00087206 	br	8002b04 <cpu_exec+0x2904>
  case 0x0A: // ACC
    CPU->A = ASL( CPU->A ); CPU->T = 2; break;
 800093c:	d4270717 	ldw	r16,-25572(gp)
 8000940:	d0a70717 	ldw	r2,-25572(gp)
 8000944:	10800283 	ldbu	r2,10(r2)
 8000948:	11003fcc 	andi	r4,r2,255
 800094c:	80043240 	call	8004324 <ASL>
 8000950:	80800285 	stb	r2,10(r16)
 8000954:	d0e70717 	ldw	r3,-25572(gp)
 8000958:	00800084 	movi	r2,2
 800095c:	18800485 	stb	r2,18(r3)
 8000960:	00086806 	br	8002b04 <cpu_exec+0x2904>
  case 0x06: // ZP
	t1 = cpu_read(); CPU->MEM[ t1 ] = ASL( CPU->MEM[ t1 ] ); CPU->T = 5; break;
 8000964:	800378c0 	call	800378c <cpu_read>
 8000968:	10803fcc 	andi	r2,r2,255
 800096c:	d0a70e8d 	sth	r2,-25542(gp)
 8000970:	d0a70717 	ldw	r2,-25572(gp)
 8000974:	10c00517 	ldw	r3,20(r2)
 8000978:	d0a70e8b 	ldhu	r2,-25542(gp)
 800097c:	10bfffcc 	andi	r2,r2,65535
 8000980:	18a1883a 	add	r16,r3,r2
 8000984:	d0a70717 	ldw	r2,-25572(gp)
 8000988:	10c00517 	ldw	r3,20(r2)
 800098c:	d0a70e8b 	ldhu	r2,-25542(gp)
 8000990:	10bfffcc 	andi	r2,r2,65535
 8000994:	1885883a 	add	r2,r3,r2
 8000998:	10800003 	ldbu	r2,0(r2)
 800099c:	11003fcc 	andi	r4,r2,255
 80009a0:	80043240 	call	8004324 <ASL>
 80009a4:	80800005 	stb	r2,0(r16)
 80009a8:	d0e70717 	ldw	r3,-25572(gp)
 80009ac:	00800144 	movi	r2,5
 80009b0:	18800485 	stb	r2,18(r3)
 80009b4:	00085306 	br	8002b04 <cpu_exec+0x2904>
  case 0x16: // ZPX
	temp = (cpu_read() + CPU->X) & 0xFF; CPU->MEM[ temp ] = ASL( CPU->MEM[ temp ] ); CPU->T = 6; break;
 80009b8:	800378c0 	call	800378c <cpu_read>
 80009bc:	10c03fcc 	andi	r3,r2,255
 80009c0:	d0a70717 	ldw	r2,-25572(gp)
 80009c4:	108002c3 	ldbu	r2,11(r2)
 80009c8:	10803fcc 	andi	r2,r2,255
 80009cc:	1885883a 	add	r2,r3,r2
 80009d0:	10803fcc 	andi	r2,r2,255
 80009d4:	d0a70a8d 	sth	r2,-25558(gp)
 80009d8:	d0a70717 	ldw	r2,-25572(gp)
 80009dc:	10c00517 	ldw	r3,20(r2)
 80009e0:	d0a70a8b 	ldhu	r2,-25558(gp)
 80009e4:	10bfffcc 	andi	r2,r2,65535
 80009e8:	18a1883a 	add	r16,r3,r2
 80009ec:	d0a70717 	ldw	r2,-25572(gp)
 80009f0:	10c00517 	ldw	r3,20(r2)
 80009f4:	d0a70a8b 	ldhu	r2,-25558(gp)
 80009f8:	10bfffcc 	andi	r2,r2,65535
 80009fc:	1885883a 	add	r2,r3,r2
 8000a00:	10800003 	ldbu	r2,0(r2)
 8000a04:	11003fcc 	andi	r4,r2,255
 8000a08:	80043240 	call	8004324 <ASL>
 8000a0c:	80800005 	stb	r2,0(r16)
 8000a10:	d0e70717 	ldw	r3,-25572(gp)
 8000a14:	00800184 	movi	r2,6
 8000a18:	18800485 	stb	r2,18(r3)
 8000a1c:	00083906 	br	8002b04 <cpu_exec+0x2904>


    // ########################## BCC #####################
  case 0x90: // REL
    if(CPU->P.C == 0)
 8000a20:	d0a70717 	ldw	r2,-25572(gp)
 8000a24:	108000c3 	ldbu	r2,3(r2)
 8000a28:	10803fcc 	andi	r2,r2,255
 8000a2c:	1004c03a 	cmpne	r2,r2,zero
 8000a30:	10001a1e 	bne	r2,zero,8000a9c <cpu_exec+0x89c>
    {
      t1 = CPU->MEM[CPU->PC] + 1;
 8000a34:	d0a70717 	ldw	r2,-25572(gp)
 8000a38:	10c00517 	ldw	r3,20(r2)
 8000a3c:	d0a70717 	ldw	r2,-25572(gp)
 8000a40:	1080000b 	ldhu	r2,0(r2)
 8000a44:	10bfffcc 	andi	r2,r2,65535
 8000a48:	1885883a 	add	r2,r3,r2
 8000a4c:	10800003 	ldbu	r2,0(r2)
 8000a50:	10803fcc 	andi	r2,r2,255
 8000a54:	10800044 	addi	r2,r2,1
 8000a58:	d0a70e8d 	sth	r2,-25542(gp)
      CPU->PC += (signed char) t1;
 8000a5c:	d1270717 	ldw	r4,-25572(gp)
 8000a60:	d0a70717 	ldw	r2,-25572(gp)
 8000a64:	10c0000b 	ldhu	r3,0(r2)
 8000a68:	d0a70e8b 	ldhu	r2,-25542(gp)
 8000a6c:	10803fcc 	andi	r2,r2,255
 8000a70:	1080201c 	xori	r2,r2,128
 8000a74:	10bfe004 	addi	r2,r2,-128
 8000a78:	1885883a 	add	r2,r3,r2
 8000a7c:	2080000d 	sth	r2,0(r4)
      CPU->T = 3 + rel_page_boundary( t1 );
 8000a80:	d4270717 	ldw	r16,-25572(gp)
 8000a84:	d0a70e8b 	ldhu	r2,-25542(gp)
 8000a88:	113fffcc 	andi	r4,r2,65535
 8000a8c:	8003b180 	call	8003b18 <rel_page_boundary>
 8000a90:	108000c4 	addi	r2,r2,3
 8000a94:	80800485 	stb	r2,18(r16)
 8000a98:	00081a06 	br	8002b04 <cpu_exec+0x2904>
    }
    else
    {
      ++CPU->PC;
 8000a9c:	d0e70717 	ldw	r3,-25572(gp)
 8000aa0:	1880000b 	ldhu	r2,0(r3)
 8000aa4:	10800044 	addi	r2,r2,1
 8000aa8:	1880000d 	sth	r2,0(r3)
      CPU->T = 2;
 8000aac:	d0e70717 	ldw	r3,-25572(gp)
 8000ab0:	00800084 	movi	r2,2
 8000ab4:	18800485 	stb	r2,18(r3)
    }
    break;
 8000ab8:	00081206 	br	8002b04 <cpu_exec+0x2904>

    // ####################### BCS ########################
  case 0xB0: // REL
    if(CPU->P.C == 1)
 8000abc:	d0a70717 	ldw	r2,-25572(gp)
 8000ac0:	108000c3 	ldbu	r2,3(r2)
 8000ac4:	10803fcc 	andi	r2,r2,255
 8000ac8:	10800058 	cmpnei	r2,r2,1
 8000acc:	10001a1e 	bne	r2,zero,8000b38 <cpu_exec+0x938>
    {
      t1 = CPU->MEM[CPU->PC] + 1;
 8000ad0:	d0a70717 	ldw	r2,-25572(gp)
 8000ad4:	10c00517 	ldw	r3,20(r2)
 8000ad8:	d0a70717 	ldw	r2,-25572(gp)
 8000adc:	1080000b 	ldhu	r2,0(r2)
 8000ae0:	10bfffcc 	andi	r2,r2,65535
 8000ae4:	1885883a 	add	r2,r3,r2
 8000ae8:	10800003 	ldbu	r2,0(r2)
 8000aec:	10803fcc 	andi	r2,r2,255
 8000af0:	10800044 	addi	r2,r2,1
 8000af4:	d0a70e8d 	sth	r2,-25542(gp)
      CPU->PC += (signed char) t1; // Added 1 because PC increments
 8000af8:	d1270717 	ldw	r4,-25572(gp)
 8000afc:	d0a70717 	ldw	r2,-25572(gp)
 8000b00:	10c0000b 	ldhu	r3,0(r2)
 8000b04:	d0a70e8b 	ldhu	r2,-25542(gp)
 8000b08:	10803fcc 	andi	r2,r2,255
 8000b0c:	1080201c 	xori	r2,r2,128
 8000b10:	10bfe004 	addi	r2,r2,-128
 8000b14:	1885883a 	add	r2,r3,r2
 8000b18:	2080000d 	sth	r2,0(r4)
      CPU->T = 3 + rel_page_boundary( t1 );
 8000b1c:	d4270717 	ldw	r16,-25572(gp)
 8000b20:	d0a70e8b 	ldhu	r2,-25542(gp)
 8000b24:	113fffcc 	andi	r4,r2,65535
 8000b28:	8003b180 	call	8003b18 <rel_page_boundary>
 8000b2c:	108000c4 	addi	r2,r2,3
 8000b30:	80800485 	stb	r2,18(r16)
 8000b34:	0007f306 	br	8002b04 <cpu_exec+0x2904>
    }
     else
     {
      ++CPU->PC;
 8000b38:	d0e70717 	ldw	r3,-25572(gp)
 8000b3c:	1880000b 	ldhu	r2,0(r3)
 8000b40:	10800044 	addi	r2,r2,1
 8000b44:	1880000d 	sth	r2,0(r3)
      CPU->T = 2;
 8000b48:	d0e70717 	ldw	r3,-25572(gp)
 8000b4c:	00800084 	movi	r2,2
 8000b50:	18800485 	stb	r2,18(r3)
     }
    break;
 8000b54:	0007eb06 	br	8002b04 <cpu_exec+0x2904>

    // ######################## BEQ #######################
  case 0xF0: // REL
    if(CPU->P.Z == 1)
 8000b58:	d0a70717 	ldw	r2,-25572(gp)
 8000b5c:	10800103 	ldbu	r2,4(r2)
 8000b60:	10803fcc 	andi	r2,r2,255
 8000b64:	10800058 	cmpnei	r2,r2,1
 8000b68:	10001a1e 	bne	r2,zero,8000bd4 <cpu_exec+0x9d4>
    {
        t1 = CPU->MEM[CPU->PC] + 1;
 8000b6c:	d0a70717 	ldw	r2,-25572(gp)
 8000b70:	10c00517 	ldw	r3,20(r2)
 8000b74:	d0a70717 	ldw	r2,-25572(gp)
 8000b78:	1080000b 	ldhu	r2,0(r2)
 8000b7c:	10bfffcc 	andi	r2,r2,65535
 8000b80:	1885883a 	add	r2,r3,r2
 8000b84:	10800003 	ldbu	r2,0(r2)
 8000b88:	10803fcc 	andi	r2,r2,255
 8000b8c:	10800044 	addi	r2,r2,1
 8000b90:	d0a70e8d 	sth	r2,-25542(gp)
        CPU->PC += (signed char) t1; // Added 1 because PC increments
 8000b94:	d1270717 	ldw	r4,-25572(gp)
 8000b98:	d0a70717 	ldw	r2,-25572(gp)
 8000b9c:	10c0000b 	ldhu	r3,0(r2)
 8000ba0:	d0a70e8b 	ldhu	r2,-25542(gp)
 8000ba4:	10803fcc 	andi	r2,r2,255
 8000ba8:	1080201c 	xori	r2,r2,128
 8000bac:	10bfe004 	addi	r2,r2,-128
 8000bb0:	1885883a 	add	r2,r3,r2
 8000bb4:	2080000d 	sth	r2,0(r4)
        CPU->T = 3 + rel_page_boundary( t1 );
 8000bb8:	d4270717 	ldw	r16,-25572(gp)
 8000bbc:	d0a70e8b 	ldhu	r2,-25542(gp)
 8000bc0:	113fffcc 	andi	r4,r2,65535
 8000bc4:	8003b180 	call	8003b18 <rel_page_boundary>
 8000bc8:	108000c4 	addi	r2,r2,3
 8000bcc:	80800485 	stb	r2,18(r16)
 8000bd0:	0007cc06 	br	8002b04 <cpu_exec+0x2904>
    }
    else
    {
    	++CPU->PC;
 8000bd4:	d0e70717 	ldw	r3,-25572(gp)
 8000bd8:	1880000b 	ldhu	r2,0(r3)
 8000bdc:	10800044 	addi	r2,r2,1
 8000be0:	1880000d 	sth	r2,0(r3)
    	CPU->T = 2;
 8000be4:	d0e70717 	ldw	r3,-25572(gp)
 8000be8:	00800084 	movi	r2,2
 8000bec:	18800485 	stb	r2,18(r3)
    }
    break;
 8000bf0:	0007c406 	br	8002b04 <cpu_exec+0x2904>

    // ########################## BMI #####################
  case 0x30: // REL
    if(CPU->P.N == 1)
 8000bf4:	d0a70717 	ldw	r2,-25572(gp)
 8000bf8:	10800243 	ldbu	r2,9(r2)
 8000bfc:	10803fcc 	andi	r2,r2,255
 8000c00:	10800058 	cmpnei	r2,r2,1
 8000c04:	10001a1e 	bne	r2,zero,8000c70 <cpu_exec+0xa70>
    {
        t1 = CPU->MEM[CPU->PC] + 1;
 8000c08:	d0a70717 	ldw	r2,-25572(gp)
 8000c0c:	10c00517 	ldw	r3,20(r2)
 8000c10:	d0a70717 	ldw	r2,-25572(gp)
 8000c14:	1080000b 	ldhu	r2,0(r2)
 8000c18:	10bfffcc 	andi	r2,r2,65535
 8000c1c:	1885883a 	add	r2,r3,r2
 8000c20:	10800003 	ldbu	r2,0(r2)
 8000c24:	10803fcc 	andi	r2,r2,255
 8000c28:	10800044 	addi	r2,r2,1
 8000c2c:	d0a70e8d 	sth	r2,-25542(gp)
        CPU->PC += (signed char) t1; // Added 1 because PC increments
 8000c30:	d1270717 	ldw	r4,-25572(gp)
 8000c34:	d0a70717 	ldw	r2,-25572(gp)
 8000c38:	10c0000b 	ldhu	r3,0(r2)
 8000c3c:	d0a70e8b 	ldhu	r2,-25542(gp)
 8000c40:	10803fcc 	andi	r2,r2,255
 8000c44:	1080201c 	xori	r2,r2,128
 8000c48:	10bfe004 	addi	r2,r2,-128
 8000c4c:	1885883a 	add	r2,r3,r2
 8000c50:	2080000d 	sth	r2,0(r4)
        CPU->T = 3 + rel_page_boundary( t1 );
 8000c54:	d4270717 	ldw	r16,-25572(gp)
 8000c58:	d0a70e8b 	ldhu	r2,-25542(gp)
 8000c5c:	113fffcc 	andi	r4,r2,65535
 8000c60:	8003b180 	call	8003b18 <rel_page_boundary>
 8000c64:	108000c4 	addi	r2,r2,3
 8000c68:	80800485 	stb	r2,18(r16)
 8000c6c:	0007a506 	br	8002b04 <cpu_exec+0x2904>
    }
    else
    {
      ++CPU->PC;
 8000c70:	d0e70717 	ldw	r3,-25572(gp)
 8000c74:	1880000b 	ldhu	r2,0(r3)
 8000c78:	10800044 	addi	r2,r2,1
 8000c7c:	1880000d 	sth	r2,0(r3)
      CPU->T = 2;
 8000c80:	d0e70717 	ldw	r3,-25572(gp)
 8000c84:	00800084 	movi	r2,2
 8000c88:	18800485 	stb	r2,18(r3)
    }
    break;
 8000c8c:	00079d06 	br	8002b04 <cpu_exec+0x2904>

    // ######################## BNE #######################
  case 0xD0: // REL
    if(CPU->P.Z == 0)
 8000c90:	d0a70717 	ldw	r2,-25572(gp)
 8000c94:	10800103 	ldbu	r2,4(r2)
 8000c98:	10803fcc 	andi	r2,r2,255
 8000c9c:	1004c03a 	cmpne	r2,r2,zero
 8000ca0:	10001a1e 	bne	r2,zero,8000d0c <cpu_exec+0xb0c>
    {
        t1 = CPU->MEM[CPU->PC] + 1;
 8000ca4:	d0a70717 	ldw	r2,-25572(gp)
 8000ca8:	10c00517 	ldw	r3,20(r2)
 8000cac:	d0a70717 	ldw	r2,-25572(gp)
 8000cb0:	1080000b 	ldhu	r2,0(r2)
 8000cb4:	10bfffcc 	andi	r2,r2,65535
 8000cb8:	1885883a 	add	r2,r3,r2
 8000cbc:	10800003 	ldbu	r2,0(r2)
 8000cc0:	10803fcc 	andi	r2,r2,255
 8000cc4:	10800044 	addi	r2,r2,1
 8000cc8:	d0a70e8d 	sth	r2,-25542(gp)
        CPU->PC += (signed char) t1; // Added 1 because PC increments
 8000ccc:	d1270717 	ldw	r4,-25572(gp)
 8000cd0:	d0a70717 	ldw	r2,-25572(gp)
 8000cd4:	10c0000b 	ldhu	r3,0(r2)
 8000cd8:	d0a70e8b 	ldhu	r2,-25542(gp)
 8000cdc:	10803fcc 	andi	r2,r2,255
 8000ce0:	1080201c 	xori	r2,r2,128
 8000ce4:	10bfe004 	addi	r2,r2,-128
 8000ce8:	1885883a 	add	r2,r3,r2
 8000cec:	2080000d 	sth	r2,0(r4)
        CPU->T = 3 + rel_page_boundary( t1 );
 8000cf0:	d4270717 	ldw	r16,-25572(gp)
 8000cf4:	d0a70e8b 	ldhu	r2,-25542(gp)
 8000cf8:	113fffcc 	andi	r4,r2,65535
 8000cfc:	8003b180 	call	8003b18 <rel_page_boundary>
 8000d00:	108000c4 	addi	r2,r2,3
 8000d04:	80800485 	stb	r2,18(r16)
 8000d08:	00077e06 	br	8002b04 <cpu_exec+0x2904>
    }
    else
    {
    	++CPU->PC;
 8000d0c:	d0e70717 	ldw	r3,-25572(gp)
 8000d10:	1880000b 	ldhu	r2,0(r3)
 8000d14:	10800044 	addi	r2,r2,1
 8000d18:	1880000d 	sth	r2,0(r3)
    	CPU->T = 2;
 8000d1c:	d0e70717 	ldw	r3,-25572(gp)
 8000d20:	00800084 	movi	r2,2
 8000d24:	18800485 	stb	r2,18(r3)
    }
    break;
 8000d28:	00077606 	br	8002b04 <cpu_exec+0x2904>

    // ####################### BPL ########################
  case 0x10: // REL
    if(CPU->P.N == 0)
 8000d2c:	d0a70717 	ldw	r2,-25572(gp)
 8000d30:	10800243 	ldbu	r2,9(r2)
 8000d34:	10803fcc 	andi	r2,r2,255
 8000d38:	1004c03a 	cmpne	r2,r2,zero
 8000d3c:	10001a1e 	bne	r2,zero,8000da8 <cpu_exec+0xba8>
    {
    	t1 = CPU->MEM[CPU->PC] + 1;
 8000d40:	d0a70717 	ldw	r2,-25572(gp)
 8000d44:	10c00517 	ldw	r3,20(r2)
 8000d48:	d0a70717 	ldw	r2,-25572(gp)
 8000d4c:	1080000b 	ldhu	r2,0(r2)
 8000d50:	10bfffcc 	andi	r2,r2,65535
 8000d54:	1885883a 	add	r2,r3,r2
 8000d58:	10800003 	ldbu	r2,0(r2)
 8000d5c:	10803fcc 	andi	r2,r2,255
 8000d60:	10800044 	addi	r2,r2,1
 8000d64:	d0a70e8d 	sth	r2,-25542(gp)
    	CPU->PC += (signed char) t1; // Added 1 because PC increments
 8000d68:	d1270717 	ldw	r4,-25572(gp)
 8000d6c:	d0a70717 	ldw	r2,-25572(gp)
 8000d70:	10c0000b 	ldhu	r3,0(r2)
 8000d74:	d0a70e8b 	ldhu	r2,-25542(gp)
 8000d78:	10803fcc 	andi	r2,r2,255
 8000d7c:	1080201c 	xori	r2,r2,128
 8000d80:	10bfe004 	addi	r2,r2,-128
 8000d84:	1885883a 	add	r2,r3,r2
 8000d88:	2080000d 	sth	r2,0(r4)
        CPU->T = 3 + rel_page_boundary( t1 );
 8000d8c:	d4270717 	ldw	r16,-25572(gp)
 8000d90:	d0a70e8b 	ldhu	r2,-25542(gp)
 8000d94:	113fffcc 	andi	r4,r2,65535
 8000d98:	8003b180 	call	8003b18 <rel_page_boundary>
 8000d9c:	108000c4 	addi	r2,r2,3
 8000da0:	80800485 	stb	r2,18(r16)
 8000da4:	00075706 	br	8002b04 <cpu_exec+0x2904>
    }
    else
    {
    	++CPU->PC;
 8000da8:	d0e70717 	ldw	r3,-25572(gp)
 8000dac:	1880000b 	ldhu	r2,0(r3)
 8000db0:	10800044 	addi	r2,r2,1
 8000db4:	1880000d 	sth	r2,0(r3)
    	CPU->T = 2;
 8000db8:	d0e70717 	ldw	r3,-25572(gp)
 8000dbc:	00800084 	movi	r2,2
 8000dc0:	18800485 	stb	r2,18(r3)
    }
    break;
 8000dc4:	00074f06 	br	8002b04 <cpu_exec+0x2904>
    // ######################### BRK ######################
    // TODO: Confirm that we are storing the right value of PC onto Stack
  case 0x00: // IMP
    /* Simulate Interrupt ReQuest (IRQ)
       Note: Do we increment PC at first? */
    ++CPU->PC; // This matters because we're saving PC in Stack
 8000dc8:	d0e70717 	ldw	r3,-25572(gp)
 8000dcc:	1880000b 	ldhu	r2,0(r3)
 8000dd0:	10800044 	addi	r2,r2,1
 8000dd4:	1880000d 	sth	r2,0(r3)
    cpu_mem_write( CPU->PC & 0xFF, STACK + CPU->S );
 8000dd8:	d0a70717 	ldw	r2,-25572(gp)
 8000ddc:	1080000b 	ldhu	r2,0(r2)
 8000de0:	11003fcc 	andi	r4,r2,255
 8000de4:	d0a70717 	ldw	r2,-25572(gp)
 8000de8:	10800083 	ldbu	r2,2(r2)
 8000dec:	10803fcc 	andi	r2,r2,255
 8000df0:	10804004 	addi	r2,r2,256
 8000df4:	117fffcc 	andi	r5,r2,65535
 8000df8:	80038c00 	call	80038c0 <cpu_mem_write>
    --CPU->S;
 8000dfc:	d0e70717 	ldw	r3,-25572(gp)
 8000e00:	18800083 	ldbu	r2,2(r3)
 8000e04:	10bfffc4 	addi	r2,r2,-1
 8000e08:	18800085 	stb	r2,2(r3)

    cpu_mem_write( (CPU->PC >> 8) & 0xFF, STACK + CPU->S );
 8000e0c:	d0a70717 	ldw	r2,-25572(gp)
 8000e10:	1080000b 	ldhu	r2,0(r2)
 8000e14:	10bfffcc 	andi	r2,r2,65535
 8000e18:	1004d23a 	srli	r2,r2,8
 8000e1c:	11003fcc 	andi	r4,r2,255
 8000e20:	d0a70717 	ldw	r2,-25572(gp)
 8000e24:	10800083 	ldbu	r2,2(r2)
 8000e28:	10803fcc 	andi	r2,r2,255
 8000e2c:	10804004 	addi	r2,r2,256
 8000e30:	117fffcc 	andi	r5,r2,65535
 8000e34:	80038c00 	call	80038c0 <cpu_mem_write>
    --CPU->S;
 8000e38:	d0e70717 	ldw	r3,-25572(gp)
 8000e3c:	18800083 	ldbu	r2,2(r3)
 8000e40:	10bfffc4 	addi	r2,r2,-1
 8000e44:	18800085 	stb	r2,2(r3)

    cpu_mem_write( cpu_join_flags(), STACK + CPU->S );
 8000e48:	80039d00 	call	80039d0 <cpu_join_flags>
 8000e4c:	11003fcc 	andi	r4,r2,255
 8000e50:	d0a70717 	ldw	r2,-25572(gp)
 8000e54:	10800083 	ldbu	r2,2(r2)
 8000e58:	10803fcc 	andi	r2,r2,255
 8000e5c:	10804004 	addi	r2,r2,256
 8000e60:	117fffcc 	andi	r5,r2,65535
 8000e64:	80038c00 	call	80038c0 <cpu_mem_write>
    --CPU->S;
 8000e68:	d0e70717 	ldw	r3,-25572(gp)
 8000e6c:	18800083 	ldbu	r2,2(r3)
 8000e70:	10bfffc4 	addi	r2,r2,-1
 8000e74:	18800085 	stb	r2,2(r3)

    CPU->PC = (CPU->MEM[0xFFFE]) | (CPU->MEM[0xFFFF] << 8);
 8000e78:	d1670717 	ldw	r5,-25572(gp)
 8000e7c:	d0a70717 	ldw	r2,-25572(gp)
 8000e80:	10c00517 	ldw	r3,20(r2)
 8000e84:	00bfff94 	movui	r2,65534
 8000e88:	1885883a 	add	r2,r3,r2
 8000e8c:	10800003 	ldbu	r2,0(r2)
 8000e90:	11003fcc 	andi	r4,r2,255
 8000e94:	d0a70717 	ldw	r2,-25572(gp)
 8000e98:	10c00517 	ldw	r3,20(r2)
 8000e9c:	00bfffd4 	movui	r2,65535
 8000ea0:	1885883a 	add	r2,r3,r2
 8000ea4:	10800003 	ldbu	r2,0(r2)
 8000ea8:	10803fcc 	andi	r2,r2,255
 8000eac:	1004923a 	slli	r2,r2,8
 8000eb0:	2084b03a 	or	r2,r4,r2
 8000eb4:	2880000d 	sth	r2,0(r5)
    CPU->T = 7;
 8000eb8:	d0e70717 	ldw	r3,-25572(gp)
 8000ebc:	008001c4 	movi	r2,7
 8000ec0:	18800485 	stb	r2,18(r3)
    break;
 8000ec4:	00070f06 	br	8002b04 <cpu_exec+0x2904>

    // ######################## BVC #######################
  case 0x50: // REL
    if(CPU->P.V == 0)
 8000ec8:	d0a70717 	ldw	r2,-25572(gp)
 8000ecc:	10800203 	ldbu	r2,8(r2)
 8000ed0:	10803fcc 	andi	r2,r2,255
 8000ed4:	1004c03a 	cmpne	r2,r2,zero
 8000ed8:	1000141e 	bne	r2,zero,8000f2c <cpu_exec+0xd2c>
    {
      CPU->PC += (signed char)CPU->MEM[CPU->PC] + 1;
 8000edc:	d1270717 	ldw	r4,-25572(gp)
 8000ee0:	d0a70717 	ldw	r2,-25572(gp)
 8000ee4:	1140000b 	ldhu	r5,0(r2)
 8000ee8:	d0a70717 	ldw	r2,-25572(gp)
 8000eec:	10c00517 	ldw	r3,20(r2)
 8000ef0:	d0a70717 	ldw	r2,-25572(gp)
 8000ef4:	1080000b 	ldhu	r2,0(r2)
 8000ef8:	10bfffcc 	andi	r2,r2,65535
 8000efc:	1885883a 	add	r2,r3,r2
 8000f00:	10800003 	ldbu	r2,0(r2)
 8000f04:	10803fcc 	andi	r2,r2,255
 8000f08:	1080201c 	xori	r2,r2,128
 8000f0c:	10bfe004 	addi	r2,r2,-128
 8000f10:	2885883a 	add	r2,r5,r2
 8000f14:	10800044 	addi	r2,r2,1
 8000f18:	2080000d 	sth	r2,0(r4)
      CPU->T = 3;
 8000f1c:	d0e70717 	ldw	r3,-25572(gp)
 8000f20:	008000c4 	movi	r2,3
 8000f24:	18800485 	stb	r2,18(r3)
 8000f28:	0006f606 	br	8002b04 <cpu_exec+0x2904>
    }
    else
    {
      ++CPU->PC;
 8000f2c:	d0e70717 	ldw	r3,-25572(gp)
 8000f30:	1880000b 	ldhu	r2,0(r3)
 8000f34:	10800044 	addi	r2,r2,1
 8000f38:	1880000d 	sth	r2,0(r3)
      CPU->T = 2;
 8000f3c:	d0e70717 	ldw	r3,-25572(gp)
 8000f40:	00800084 	movi	r2,2
 8000f44:	18800485 	stb	r2,18(r3)
    }
    break;
 8000f48:	0006ee06 	br	8002b04 <cpu_exec+0x2904>

    // ######################## BVS #######################
  case 0x70: // REL
    if(CPU->P.V == 1)
 8000f4c:	d0a70717 	ldw	r2,-25572(gp)
 8000f50:	10800203 	ldbu	r2,8(r2)
 8000f54:	10803fcc 	andi	r2,r2,255
 8000f58:	10800058 	cmpnei	r2,r2,1
 8000f5c:	1000141e 	bne	r2,zero,8000fb0 <cpu_exec+0xdb0>
    {
      CPU->PC += (signed char)CPU->MEM[CPU->PC] + 1;
 8000f60:	d1270717 	ldw	r4,-25572(gp)
 8000f64:	d0a70717 	ldw	r2,-25572(gp)
 8000f68:	1140000b 	ldhu	r5,0(r2)
 8000f6c:	d0a70717 	ldw	r2,-25572(gp)
 8000f70:	10c00517 	ldw	r3,20(r2)
 8000f74:	d0a70717 	ldw	r2,-25572(gp)
 8000f78:	1080000b 	ldhu	r2,0(r2)
 8000f7c:	10bfffcc 	andi	r2,r2,65535
 8000f80:	1885883a 	add	r2,r3,r2
 8000f84:	10800003 	ldbu	r2,0(r2)
 8000f88:	10803fcc 	andi	r2,r2,255
 8000f8c:	1080201c 	xori	r2,r2,128
 8000f90:	10bfe004 	addi	r2,r2,-128
 8000f94:	2885883a 	add	r2,r5,r2
 8000f98:	10800044 	addi	r2,r2,1
 8000f9c:	2080000d 	sth	r2,0(r4)
      CPU->T = 3;
 8000fa0:	d0e70717 	ldw	r3,-25572(gp)
 8000fa4:	008000c4 	movi	r2,3
 8000fa8:	18800485 	stb	r2,18(r3)
 8000fac:	0006d506 	br	8002b04 <cpu_exec+0x2904>
    }
    else
    {
      ++CPU->PC;
 8000fb0:	d0e70717 	ldw	r3,-25572(gp)
 8000fb4:	1880000b 	ldhu	r2,0(r3)
 8000fb8:	10800044 	addi	r2,r2,1
 8000fbc:	1880000d 	sth	r2,0(r3)
      CPU->T = 2;
 8000fc0:	d0e70717 	ldw	r3,-25572(gp)
 8000fc4:	00800084 	movi	r2,2
 8000fc8:	18800485 	stb	r2,18(r3)
    }
    break;
 8000fcc:	0006cd06 	br	8002b04 <cpu_exec+0x2904>

    // ######################### CLC ######################
  case 0x18: // IMP
    CPU->P.C = 0; CPU->T = 2; break;
 8000fd0:	d0a70717 	ldw	r2,-25572(gp)
 8000fd4:	100000c5 	stb	zero,3(r2)
 8000fd8:	d0e70717 	ldw	r3,-25572(gp)
 8000fdc:	00800084 	movi	r2,2
 8000fe0:	18800485 	stb	r2,18(r3)
 8000fe4:	0006c706 	br	8002b04 <cpu_exec+0x2904>

    // ######################### CLD ######################
  case 0xD8: // IMP
    CPU->P.D = 0; CPU->T = 2; break;
 8000fe8:	d0a70717 	ldw	r2,-25572(gp)
 8000fec:	10000185 	stb	zero,6(r2)
 8000ff0:	d0e70717 	ldw	r3,-25572(gp)
 8000ff4:	00800084 	movi	r2,2
 8000ff8:	18800485 	stb	r2,18(r3)
 8000ffc:	0006c106 	br	8002b04 <cpu_exec+0x2904>

    // ####################### CLI ########################
  case 0x58: // IMP
    CPU->P.I = 0; CPU->T = 2; break;
 8001000:	d0a70717 	ldw	r2,-25572(gp)
 8001004:	10000145 	stb	zero,5(r2)
 8001008:	d0e70717 	ldw	r3,-25572(gp)
 800100c:	00800084 	movi	r2,2
 8001010:	18800485 	stb	r2,18(r3)
 8001014:	0006bb06 	br	8002b04 <cpu_exec+0x2904>

    // ######################### CLV ######################
  case 0xB8: // IMP
    CPU->P.V = 0; CPU->T = 2; break;
 8001018:	d0a70717 	ldw	r2,-25572(gp)
 800101c:	10000205 	stb	zero,8(r2)
 8001020:	d0e70717 	ldw	r3,-25572(gp)
 8001024:	00800084 	movi	r2,2
 8001028:	18800485 	stb	r2,18(r3)
 800102c:	0006b506 	br	8002b04 <cpu_exec+0x2904>

    // ######################### BIT ######################
  case 0x24: // ZP
    temp = CPU->A & cpu_mem_read( cpu_read() );
 8001030:	d0a70717 	ldw	r2,-25572(gp)
 8001034:	14000283 	ldbu	r16,10(r2)
 8001038:	800378c0 	call	800378c <cpu_read>
 800103c:	11003fcc 	andi	r4,r2,255
 8001040:	80037d40 	call	80037d4 <cpu_mem_read>
 8001044:	8084703a 	and	r2,r16,r2
 8001048:	10803fcc 	andi	r2,r2,255
 800104c:	d0a70a8d 	sth	r2,-25558(gp)
    CPU->P.N = ((temp & 0x80) > 0) ? 1 : 0;
 8001050:	d0e70717 	ldw	r3,-25572(gp)
 8001054:	d0a70a8b 	ldhu	r2,-25558(gp)
 8001058:	10bfffcc 	andi	r2,r2,65535
 800105c:	1080200c 	andi	r2,r2,128
 8001060:	10800048 	cmpgei	r2,r2,1
 8001064:	18800245 	stb	r2,9(r3)
    CPU->P.V = ((temp & 0x40) > 0) ? 1 : 0;
 8001068:	d0e70717 	ldw	r3,-25572(gp)
 800106c:	d0a70a8b 	ldhu	r2,-25558(gp)
 8001070:	10bfffcc 	andi	r2,r2,65535
 8001074:	1080100c 	andi	r2,r2,64
 8001078:	10800048 	cmpgei	r2,r2,1
 800107c:	18800205 	stb	r2,8(r3)
    CPU->P.Z = (temp == 0) ? 1 : 0;
 8001080:	d0e70717 	ldw	r3,-25572(gp)
 8001084:	d0a70a8b 	ldhu	r2,-25558(gp)
 8001088:	10bfffcc 	andi	r2,r2,65535
 800108c:	1005003a 	cmpeq	r2,r2,zero
 8001090:	18800105 	stb	r2,4(r3)
    CPU->T = 3;
 8001094:	d0e70717 	ldw	r3,-25572(gp)
 8001098:	008000c4 	movi	r2,3
 800109c:	18800485 	stb	r2,18(r3)
    break;
 80010a0:	00069806 	br	8002b04 <cpu_exec+0x2904>
  case 0x2C: // ABS
	temp2 = ABS();
 80010a4:	8003bac0 	call	8003bac <ABS>
 80010a8:	10803fcc 	andi	r2,r2,255
 80010ac:	d0a7088d 	sth	r2,-25566(gp)
    temp = CPU->A & temp2;
 80010b0:	d0a70717 	ldw	r2,-25572(gp)
 80010b4:	10800283 	ldbu	r2,10(r2)
 80010b8:	10c03fcc 	andi	r3,r2,255
 80010bc:	d0a7088b 	ldhu	r2,-25566(gp)
 80010c0:	1884703a 	and	r2,r3,r2
 80010c4:	d0a70a8d 	sth	r2,-25558(gp)
    CPU->P.N = ((temp & 0x80) > 0) ? 1 : 0;
 80010c8:	d0e70717 	ldw	r3,-25572(gp)
 80010cc:	d0a70a8b 	ldhu	r2,-25558(gp)
 80010d0:	10bfffcc 	andi	r2,r2,65535
 80010d4:	1080200c 	andi	r2,r2,128
 80010d8:	10800048 	cmpgei	r2,r2,1
 80010dc:	18800245 	stb	r2,9(r3)
    CPU->P.V = ((temp & 0x40) > 0) ? 1 : 0;
 80010e0:	d0e70717 	ldw	r3,-25572(gp)
 80010e4:	d0a70a8b 	ldhu	r2,-25558(gp)
 80010e8:	10bfffcc 	andi	r2,r2,65535
 80010ec:	1080100c 	andi	r2,r2,64
 80010f0:	10800048 	cmpgei	r2,r2,1
 80010f4:	18800205 	stb	r2,8(r3)
    CPU->P.Z = (temp == 0) ? 1 : 0;
 80010f8:	d0e70717 	ldw	r3,-25572(gp)
 80010fc:	d0a70a8b 	ldhu	r2,-25558(gp)
 8001100:	10bfffcc 	andi	r2,r2,65535
 8001104:	1005003a 	cmpeq	r2,r2,zero
 8001108:	18800105 	stb	r2,4(r3)
    CPU->T = 4;
 800110c:	d0e70717 	ldw	r3,-25572(gp)
 8001110:	00800104 	movi	r2,4
 8001114:	18800485 	stb	r2,18(r3)
    break;
 8001118:	00067a06 	br	8002b04 <cpu_exec+0x2904>

    // ######################### CMP ######################
  case 0xCD: // ABS
    operand = ABS();  CMP(operand); CPU->T = 4; break;
 800111c:	8003bac0 	call	8003bac <ABS>
 8001120:	d0a70b05 	stb	r2,-25556(gp)
 8001124:	d0a70b03 	ldbu	r2,-25556(gp)
 8001128:	11003fcc 	andi	r4,r2,255
 800112c:	80043980 	call	8004398 <CMP>
 8001130:	d0e70717 	ldw	r3,-25572(gp)
 8001134:	00800104 	movi	r2,4
 8001138:	18800485 	stb	r2,18(r3)
 800113c:	00067106 	br	8002b04 <cpu_exec+0x2904>
  case 0xDD: // ABSX
    operand = ABSX(); CMP(operand); CPU->T = 4 + CPU->page_boundary; break;
 8001140:	8003c080 	call	8003c08 <ABSX>
 8001144:	d0a70b05 	stb	r2,-25556(gp)
 8001148:	d0a70b03 	ldbu	r2,-25556(gp)
 800114c:	11003fcc 	andi	r4,r2,255
 8001150:	80043980 	call	8004398 <CMP>
 8001154:	d0e70717 	ldw	r3,-25572(gp)
 8001158:	d0a70717 	ldw	r2,-25572(gp)
 800115c:	108007c3 	ldbu	r2,31(r2)
 8001160:	10800104 	addi	r2,r2,4
 8001164:	18800485 	stb	r2,18(r3)
 8001168:	00066606 	br	8002b04 <cpu_exec+0x2904>
  case 0xD9: // ABSY
    operand = ABSY(); CMP(operand); CPU->T = 4 + CPU->page_boundary; break;
 800116c:	8003cb00 	call	8003cb0 <ABSY>
 8001170:	d0a70b05 	stb	r2,-25556(gp)
 8001174:	d0a70b03 	ldbu	r2,-25556(gp)
 8001178:	11003fcc 	andi	r4,r2,255
 800117c:	80043980 	call	8004398 <CMP>
 8001180:	d0e70717 	ldw	r3,-25572(gp)
 8001184:	d0a70717 	ldw	r2,-25572(gp)
 8001188:	108007c3 	ldbu	r2,31(r2)
 800118c:	10800104 	addi	r2,r2,4
 8001190:	18800485 	stb	r2,18(r3)
 8001194:	00065b06 	br	8002b04 <cpu_exec+0x2904>
  case 0xC9: // IMM
    operand = IMM();  CMP(operand); CPU->T = 2; break;
 8001198:	8003ed80 	call	8003ed8 <IMM>
 800119c:	d0a70b05 	stb	r2,-25556(gp)
 80011a0:	d0a70b03 	ldbu	r2,-25556(gp)
 80011a4:	11003fcc 	andi	r4,r2,255
 80011a8:	80043980 	call	8004398 <CMP>
 80011ac:	d0e70717 	ldw	r3,-25572(gp)
 80011b0:	00800084 	movi	r2,2
 80011b4:	18800485 	stb	r2,18(r3)
 80011b8:	00065206 	br	8002b04 <cpu_exec+0x2904>
  case 0xD1: // INDY
    operand = INDY(); CMP(operand); CPU->T = 5 + CPU->page_boundary; break;
 80011bc:	8003dfc0 	call	8003dfc <INDY>
 80011c0:	d0a70b05 	stb	r2,-25556(gp)
 80011c4:	d0a70b03 	ldbu	r2,-25556(gp)
 80011c8:	11003fcc 	andi	r4,r2,255
 80011cc:	80043980 	call	8004398 <CMP>
 80011d0:	d0e70717 	ldw	r3,-25572(gp)
 80011d4:	d0a70717 	ldw	r2,-25572(gp)
 80011d8:	108007c3 	ldbu	r2,31(r2)
 80011dc:	10800144 	addi	r2,r2,5
 80011e0:	18800485 	stb	r2,18(r3)
 80011e4:	00064706 	br	8002b04 <cpu_exec+0x2904>
  case 0xC1: // XIND
    operand = XIND(); CMP(operand); CPU->T = 6; break;
 80011e8:	8003d5c0 	call	8003d5c <XIND>
 80011ec:	d0a70b05 	stb	r2,-25556(gp)
 80011f0:	d0a70b03 	ldbu	r2,-25556(gp)
 80011f4:	11003fcc 	andi	r4,r2,255
 80011f8:	80043980 	call	8004398 <CMP>
 80011fc:	d0e70717 	ldw	r3,-25572(gp)
 8001200:	00800184 	movi	r2,6
 8001204:	18800485 	stb	r2,18(r3)
 8001208:	00063e06 	br	8002b04 <cpu_exec+0x2904>
  case 0xC5: // ZP
    operand = ZP();   CMP(operand); CPU->T = 3; break;
 800120c:	8003f040 	call	8003f04 <ZP>
 8001210:	d0a70b05 	stb	r2,-25556(gp)
 8001214:	d0a70b03 	ldbu	r2,-25556(gp)
 8001218:	11003fcc 	andi	r4,r2,255
 800121c:	80043980 	call	8004398 <CMP>
 8001220:	d0e70717 	ldw	r3,-25572(gp)
 8001224:	008000c4 	movi	r2,3
 8001228:	18800485 	stb	r2,18(r3)
 800122c:	00063506 	br	8002b04 <cpu_exec+0x2904>
  case 0xD5: // ZPX
    operand = ZPX();  CMP(operand); CPU->T = 4; break;
 8001230:	8003f380 	call	8003f38 <ZPX>
 8001234:	d0a70b05 	stb	r2,-25556(gp)
 8001238:	d0a70b03 	ldbu	r2,-25556(gp)
 800123c:	11003fcc 	andi	r4,r2,255
 8001240:	80043980 	call	8004398 <CMP>
 8001244:	d0e70717 	ldw	r3,-25572(gp)
 8001248:	00800104 	movi	r2,4
 800124c:	18800485 	stb	r2,18(r3)
 8001250:	00062c06 	br	8002b04 <cpu_exec+0x2904>

    // ####################### CPX ########################
  case 0xEC: // ABS
    operand = ABS(); CPX(operand); CPU->T = 4; break;
 8001254:	8003bac0 	call	8003bac <ABS>
 8001258:	d0a70b05 	stb	r2,-25556(gp)
 800125c:	d0a70b03 	ldbu	r2,-25556(gp)
 8001260:	11003fcc 	andi	r4,r2,255
 8001264:	800440c0 	call	800440c <CPX>
 8001268:	d0e70717 	ldw	r3,-25572(gp)
 800126c:	00800104 	movi	r2,4
 8001270:	18800485 	stb	r2,18(r3)
 8001274:	00062306 	br	8002b04 <cpu_exec+0x2904>
  case 0xE0: // IMM
    operand = IMM(); CPX(operand); CPU->T = 2; break;
 8001278:	8003ed80 	call	8003ed8 <IMM>
 800127c:	d0a70b05 	stb	r2,-25556(gp)
 8001280:	d0a70b03 	ldbu	r2,-25556(gp)
 8001284:	11003fcc 	andi	r4,r2,255
 8001288:	800440c0 	call	800440c <CPX>
 800128c:	d0e70717 	ldw	r3,-25572(gp)
 8001290:	00800084 	movi	r2,2
 8001294:	18800485 	stb	r2,18(r3)
 8001298:	00061a06 	br	8002b04 <cpu_exec+0x2904>
  case 0xE4: // ZP
    operand = ZP();  CPX(operand); CPU->T = 3; break;
 800129c:	8003f040 	call	8003f04 <ZP>
 80012a0:	d0a70b05 	stb	r2,-25556(gp)
 80012a4:	d0a70b03 	ldbu	r2,-25556(gp)
 80012a8:	11003fcc 	andi	r4,r2,255
 80012ac:	800440c0 	call	800440c <CPX>
 80012b0:	d0e70717 	ldw	r3,-25572(gp)
 80012b4:	008000c4 	movi	r2,3
 80012b8:	18800485 	stb	r2,18(r3)
 80012bc:	00061106 	br	8002b04 <cpu_exec+0x2904>

    // ###################### CPY #########################
  case 0xCC: // ABS
    operand = ABS(); CPY(operand); CPU->T = 4; break;
 80012c0:	8003bac0 	call	8003bac <ABS>
 80012c4:	d0a70b05 	stb	r2,-25556(gp)
 80012c8:	d0a70b03 	ldbu	r2,-25556(gp)
 80012cc:	11003fcc 	andi	r4,r2,255
 80012d0:	80044800 	call	8004480 <CPY>
 80012d4:	d0e70717 	ldw	r3,-25572(gp)
 80012d8:	00800104 	movi	r2,4
 80012dc:	18800485 	stb	r2,18(r3)
 80012e0:	00060806 	br	8002b04 <cpu_exec+0x2904>
  case 0xC0: // IMM
    operand = IMM(); CPY(operand); CPU->T = 2; break;
 80012e4:	8003ed80 	call	8003ed8 <IMM>
 80012e8:	d0a70b05 	stb	r2,-25556(gp)
 80012ec:	d0a70b03 	ldbu	r2,-25556(gp)
 80012f0:	11003fcc 	andi	r4,r2,255
 80012f4:	80044800 	call	8004480 <CPY>
 80012f8:	d0e70717 	ldw	r3,-25572(gp)
 80012fc:	00800084 	movi	r2,2
 8001300:	18800485 	stb	r2,18(r3)
 8001304:	0005ff06 	br	8002b04 <cpu_exec+0x2904>
  case 0xC4: // ZP
    operand = ZP();  CPY(operand); CPU->T = 3; break;
 8001308:	8003f040 	call	8003f04 <ZP>
 800130c:	d0a70b05 	stb	r2,-25556(gp)
 8001310:	d0a70b03 	ldbu	r2,-25556(gp)
 8001314:	11003fcc 	andi	r4,r2,255
 8001318:	80044800 	call	8004480 <CPY>
 800131c:	d0e70717 	ldw	r3,-25572(gp)
 8001320:	008000c4 	movi	r2,3
 8001324:	18800485 	stb	r2,18(r3)
 8001328:	0005f606 	br	8002b04 <cpu_exec+0x2904>

    // ########################### DEC ####################
  case 0xCE: // ABS
	t1 = ABSw();  cpu_mem_write( DEC( cpu_mem_read(t1) ), t1 ); CPU->T = 6; break;
 800132c:	8003f840 	call	8003f84 <ABSw>
 8001330:	d0a70e8d 	sth	r2,-25542(gp)
 8001334:	d0a70e8b 	ldhu	r2,-25542(gp)
 8001338:	113fffcc 	andi	r4,r2,65535
 800133c:	80037d40 	call	80037d4 <cpu_mem_read>
 8001340:	11003fcc 	andi	r4,r2,255
 8001344:	80044f40 	call	80044f4 <DEC>
 8001348:	11003fcc 	andi	r4,r2,255
 800134c:	d0a70e8b 	ldhu	r2,-25542(gp)
 8001350:	117fffcc 	andi	r5,r2,65535
 8001354:	80038c00 	call	80038c0 <cpu_mem_write>
 8001358:	d0e70717 	ldw	r3,-25572(gp)
 800135c:	00800184 	movi	r2,6
 8001360:	18800485 	stb	r2,18(r3)
 8001364:	0005e706 	br	8002b04 <cpu_exec+0x2904>
  case 0xDE: // ABSX
	t1 = ABSXw(); cpu_mem_write( DEC( cpu_mem_read(t1) ), t1 ); CPU->T = 7; break;
 8001368:	8003fd40 	call	8003fd4 <ABSXw>
 800136c:	d0a70e8d 	sth	r2,-25542(gp)
 8001370:	d0a70e8b 	ldhu	r2,-25542(gp)
 8001374:	113fffcc 	andi	r4,r2,65535
 8001378:	80037d40 	call	80037d4 <cpu_mem_read>
 800137c:	11003fcc 	andi	r4,r2,255
 8001380:	80044f40 	call	80044f4 <DEC>
 8001384:	11003fcc 	andi	r4,r2,255
 8001388:	d0a70e8b 	ldhu	r2,-25542(gp)
 800138c:	117fffcc 	andi	r5,r2,65535
 8001390:	80038c00 	call	80038c0 <cpu_mem_write>
 8001394:	d0e70717 	ldw	r3,-25572(gp)
 8001398:	008001c4 	movi	r2,7
 800139c:	18800485 	stb	r2,18(r3)
 80013a0:	0005d806 	br	8002b04 <cpu_exec+0x2904>
  case 0xC6: // ZP
	t1 = cpu_read();
 80013a4:	800378c0 	call	800378c <cpu_read>
 80013a8:	10803fcc 	andi	r2,r2,255
 80013ac:	d0a70e8d 	sth	r2,-25542(gp)
	CPU->MEM[ t1 ] = DEC( CPU->MEM[ t1 ] ); CPU->T = 5; break;
 80013b0:	d0a70717 	ldw	r2,-25572(gp)
 80013b4:	10c00517 	ldw	r3,20(r2)
 80013b8:	d0a70e8b 	ldhu	r2,-25542(gp)
 80013bc:	10bfffcc 	andi	r2,r2,65535
 80013c0:	18a1883a 	add	r16,r3,r2
 80013c4:	d0a70717 	ldw	r2,-25572(gp)
 80013c8:	10c00517 	ldw	r3,20(r2)
 80013cc:	d0a70e8b 	ldhu	r2,-25542(gp)
 80013d0:	10bfffcc 	andi	r2,r2,65535
 80013d4:	1885883a 	add	r2,r3,r2
 80013d8:	10800003 	ldbu	r2,0(r2)
 80013dc:	11003fcc 	andi	r4,r2,255
 80013e0:	80044f40 	call	80044f4 <DEC>
 80013e4:	80800005 	stb	r2,0(r16)
 80013e8:	d0e70717 	ldw	r3,-25572(gp)
 80013ec:	00800144 	movi	r2,5
 80013f0:	18800485 	stb	r2,18(r3)
 80013f4:	0005c306 	br	8002b04 <cpu_exec+0x2904>
  case 0xD6: // ZPX
    temp = (cpu_read() + CPU->X) & 0xFF;
 80013f8:	800378c0 	call	800378c <cpu_read>
 80013fc:	10c03fcc 	andi	r3,r2,255
 8001400:	d0a70717 	ldw	r2,-25572(gp)
 8001404:	108002c3 	ldbu	r2,11(r2)
 8001408:	10803fcc 	andi	r2,r2,255
 800140c:	1885883a 	add	r2,r3,r2
 8001410:	10803fcc 	andi	r2,r2,255
 8001414:	d0a70a8d 	sth	r2,-25558(gp)
    CPU->MEM[ temp ] = DEC( CPU->MEM[ temp] ); CPU->T = 6; break;
 8001418:	d0a70717 	ldw	r2,-25572(gp)
 800141c:	10c00517 	ldw	r3,20(r2)
 8001420:	d0a70a8b 	ldhu	r2,-25558(gp)
 8001424:	10bfffcc 	andi	r2,r2,65535
 8001428:	18a1883a 	add	r16,r3,r2
 800142c:	d0a70717 	ldw	r2,-25572(gp)
 8001430:	10c00517 	ldw	r3,20(r2)
 8001434:	d0a70a8b 	ldhu	r2,-25558(gp)
 8001438:	10bfffcc 	andi	r2,r2,65535
 800143c:	1885883a 	add	r2,r3,r2
 8001440:	10800003 	ldbu	r2,0(r2)
 8001444:	11003fcc 	andi	r4,r2,255
 8001448:	80044f40 	call	80044f4 <DEC>
 800144c:	80800005 	stb	r2,0(r16)
 8001450:	d0e70717 	ldw	r3,-25572(gp)
 8001454:	00800184 	movi	r2,6
 8001458:	18800485 	stb	r2,18(r3)
 800145c:	0005a906 	br	8002b04 <cpu_exec+0x2904>

    // ############################ DEX ###################
  case 0xCA: // IMP
    --CPU->X;
 8001460:	d0e70717 	ldw	r3,-25572(gp)
 8001464:	188002c3 	ldbu	r2,11(r3)
 8001468:	10bfffc4 	addi	r2,r2,-1
 800146c:	188002c5 	stb	r2,11(r3)
    CPU->P.Z = (CPU->X == 0) ? 1 : 0;
 8001470:	d0e70717 	ldw	r3,-25572(gp)
 8001474:	d0a70717 	ldw	r2,-25572(gp)
 8001478:	108002c3 	ldbu	r2,11(r2)
 800147c:	10803fcc 	andi	r2,r2,255
 8001480:	1005003a 	cmpeq	r2,r2,zero
 8001484:	18800105 	stb	r2,4(r3)
    CPU->P.N = ((CPU->X & 0x80) > 0) ? 1 : 0;
 8001488:	d0e70717 	ldw	r3,-25572(gp)
 800148c:	d0a70717 	ldw	r2,-25572(gp)
 8001490:	108002c3 	ldbu	r2,11(r2)
 8001494:	10803fcc 	andi	r2,r2,255
 8001498:	1080200c 	andi	r2,r2,128
 800149c:	10800048 	cmpgei	r2,r2,1
 80014a0:	18800245 	stb	r2,9(r3)
    CPU->T = 2;
 80014a4:	d0e70717 	ldw	r3,-25572(gp)
 80014a8:	00800084 	movi	r2,2
 80014ac:	18800485 	stb	r2,18(r3)
    break;
 80014b0:	00059406 	br	8002b04 <cpu_exec+0x2904>

    // ########################## DEY #####################
  case 0x88:
    --CPU->Y;
 80014b4:	d0e70717 	ldw	r3,-25572(gp)
 80014b8:	18800303 	ldbu	r2,12(r3)
 80014bc:	10bfffc4 	addi	r2,r2,-1
 80014c0:	18800305 	stb	r2,12(r3)
    CPU->P.Z = (CPU->Y == 0) ? 1 : 0;
 80014c4:	d0e70717 	ldw	r3,-25572(gp)
 80014c8:	d0a70717 	ldw	r2,-25572(gp)
 80014cc:	10800303 	ldbu	r2,12(r2)
 80014d0:	10803fcc 	andi	r2,r2,255
 80014d4:	1005003a 	cmpeq	r2,r2,zero
 80014d8:	18800105 	stb	r2,4(r3)
    CPU->P.N = ((CPU->Y & 0x80) > 0) ? 1 : 0;
 80014dc:	d0e70717 	ldw	r3,-25572(gp)
 80014e0:	d0a70717 	ldw	r2,-25572(gp)
 80014e4:	10800303 	ldbu	r2,12(r2)
 80014e8:	10803fcc 	andi	r2,r2,255
 80014ec:	1080200c 	andi	r2,r2,128
 80014f0:	10800048 	cmpgei	r2,r2,1
 80014f4:	18800245 	stb	r2,9(r3)
    CPU->T = 2;
 80014f8:	d0e70717 	ldw	r3,-25572(gp)
 80014fc:	00800084 	movi	r2,2
 8001500:	18800485 	stb	r2,18(r3)
    break;
 8001504:	00057f06 	br	8002b04 <cpu_exec+0x2904>

    // ######################## EOR #######################
  case 0x4D: // ABS
    CPU->A = CPU->A ^ ABS();  CPU->T = 4; break;
 8001508:	d4670717 	ldw	r17,-25572(gp)
 800150c:	d0a70717 	ldw	r2,-25572(gp)
 8001510:	14000283 	ldbu	r16,10(r2)
 8001514:	8003bac0 	call	8003bac <ABS>
 8001518:	8084f03a 	xor	r2,r16,r2
 800151c:	88800285 	stb	r2,10(r17)
 8001520:	d0e70717 	ldw	r3,-25572(gp)
 8001524:	00800104 	movi	r2,4
 8001528:	18800485 	stb	r2,18(r3)
 800152c:	00057506 	br	8002b04 <cpu_exec+0x2904>
  case 0x5D: // ABSX
    CPU->A = CPU->A ^ ABSX(); CPU->T = 4 + CPU->page_boundary; break;
 8001530:	d4670717 	ldw	r17,-25572(gp)
 8001534:	d0a70717 	ldw	r2,-25572(gp)
 8001538:	14000283 	ldbu	r16,10(r2)
 800153c:	8003c080 	call	8003c08 <ABSX>
 8001540:	8084f03a 	xor	r2,r16,r2
 8001544:	88800285 	stb	r2,10(r17)
 8001548:	d0e70717 	ldw	r3,-25572(gp)
 800154c:	d0a70717 	ldw	r2,-25572(gp)
 8001550:	108007c3 	ldbu	r2,31(r2)
 8001554:	10800104 	addi	r2,r2,4
 8001558:	18800485 	stb	r2,18(r3)
 800155c:	00056906 	br	8002b04 <cpu_exec+0x2904>
  case 0x59: // ABSY
    CPU->A = CPU->A ^ ABSY(); CPU->T = 4 + CPU->page_boundary; break;
 8001560:	d4670717 	ldw	r17,-25572(gp)
 8001564:	d0a70717 	ldw	r2,-25572(gp)
 8001568:	14000283 	ldbu	r16,10(r2)
 800156c:	8003cb00 	call	8003cb0 <ABSY>
 8001570:	8084f03a 	xor	r2,r16,r2
 8001574:	88800285 	stb	r2,10(r17)
 8001578:	d0e70717 	ldw	r3,-25572(gp)
 800157c:	d0a70717 	ldw	r2,-25572(gp)
 8001580:	108007c3 	ldbu	r2,31(r2)
 8001584:	10800104 	addi	r2,r2,4
 8001588:	18800485 	stb	r2,18(r3)
 800158c:	00055d06 	br	8002b04 <cpu_exec+0x2904>
  case 0x49: // IMM
    CPU->A = CPU->A ^ IMM();  CPU->T = 2; break;
 8001590:	d4670717 	ldw	r17,-25572(gp)
 8001594:	d0a70717 	ldw	r2,-25572(gp)
 8001598:	14000283 	ldbu	r16,10(r2)
 800159c:	8003ed80 	call	8003ed8 <IMM>
 80015a0:	8084f03a 	xor	r2,r16,r2
 80015a4:	88800285 	stb	r2,10(r17)
 80015a8:	d0e70717 	ldw	r3,-25572(gp)
 80015ac:	00800084 	movi	r2,2
 80015b0:	18800485 	stb	r2,18(r3)
 80015b4:	00055306 	br	8002b04 <cpu_exec+0x2904>
  case 0x51: // INDY
    CPU->A = CPU->A ^ INDY(); CPU->T = 5 + CPU->page_boundary; break;
 80015b8:	d4670717 	ldw	r17,-25572(gp)
 80015bc:	d0a70717 	ldw	r2,-25572(gp)
 80015c0:	14000283 	ldbu	r16,10(r2)
 80015c4:	8003dfc0 	call	8003dfc <INDY>
 80015c8:	8084f03a 	xor	r2,r16,r2
 80015cc:	88800285 	stb	r2,10(r17)
 80015d0:	d0e70717 	ldw	r3,-25572(gp)
 80015d4:	d0a70717 	ldw	r2,-25572(gp)
 80015d8:	108007c3 	ldbu	r2,31(r2)
 80015dc:	10800144 	addi	r2,r2,5
 80015e0:	18800485 	stb	r2,18(r3)
 80015e4:	00054706 	br	8002b04 <cpu_exec+0x2904>
  case 0x41: // XIND
    CPU->A = CPU->A ^ XIND(); CPU->T = 6; break;
 80015e8:	d4670717 	ldw	r17,-25572(gp)
 80015ec:	d0a70717 	ldw	r2,-25572(gp)
 80015f0:	14000283 	ldbu	r16,10(r2)
 80015f4:	8003d5c0 	call	8003d5c <XIND>
 80015f8:	8084f03a 	xor	r2,r16,r2
 80015fc:	88800285 	stb	r2,10(r17)
 8001600:	d0e70717 	ldw	r3,-25572(gp)
 8001604:	00800184 	movi	r2,6
 8001608:	18800485 	stb	r2,18(r3)
 800160c:	00053d06 	br	8002b04 <cpu_exec+0x2904>
  case 0x45: // ZP
    CPU->A = CPU->A ^ ZP(); CPU->T = 3; break;
 8001610:	d4670717 	ldw	r17,-25572(gp)
 8001614:	d0a70717 	ldw	r2,-25572(gp)
 8001618:	14000283 	ldbu	r16,10(r2)
 800161c:	8003f040 	call	8003f04 <ZP>
 8001620:	8084f03a 	xor	r2,r16,r2
 8001624:	88800285 	stb	r2,10(r17)
 8001628:	d0e70717 	ldw	r3,-25572(gp)
 800162c:	008000c4 	movi	r2,3
 8001630:	18800485 	stb	r2,18(r3)
 8001634:	00053306 	br	8002b04 <cpu_exec+0x2904>
  case 0x55: // ZPX
    CPU->A = CPU->A ^ ZPX(); CPU->T = 4; break;
 8001638:	d4670717 	ldw	r17,-25572(gp)
 800163c:	d0a70717 	ldw	r2,-25572(gp)
 8001640:	14000283 	ldbu	r16,10(r2)
 8001644:	8003f380 	call	8003f38 <ZPX>
 8001648:	8084f03a 	xor	r2,r16,r2
 800164c:	88800285 	stb	r2,10(r17)
 8001650:	d0e70717 	ldw	r3,-25572(gp)
 8001654:	00800104 	movi	r2,4
 8001658:	18800485 	stb	r2,18(r3)
 800165c:	00052906 	br	8002b04 <cpu_exec+0x2904>

    // ######################## INC #######################
  case 0xEE: // ABS
	t1 = ABSw();  cpu_mem_write( INC( cpu_mem_read(t1) ), t1 ); CPU->T = 6; break;
 8001660:	8003f840 	call	8003f84 <ABSw>
 8001664:	d0a70e8d 	sth	r2,-25542(gp)
 8001668:	d0a70e8b 	ldhu	r2,-25542(gp)
 800166c:	113fffcc 	andi	r4,r2,65535
 8001670:	80037d40 	call	80037d4 <cpu_mem_read>
 8001674:	11003fcc 	andi	r4,r2,255
 8001678:	80045540 	call	8004554 <INC>
 800167c:	11003fcc 	andi	r4,r2,255
 8001680:	d0a70e8b 	ldhu	r2,-25542(gp)
 8001684:	117fffcc 	andi	r5,r2,65535
 8001688:	80038c00 	call	80038c0 <cpu_mem_write>
 800168c:	d0e70717 	ldw	r3,-25572(gp)
 8001690:	00800184 	movi	r2,6
 8001694:	18800485 	stb	r2,18(r3)
 8001698:	00051a06 	br	8002b04 <cpu_exec+0x2904>
  case 0xFE: // ABSX
	t1 = ABSXw(); cpu_mem_write( INC( cpu_mem_read(t1) ), t1 ); CPU->T = 7; break;
 800169c:	8003fd40 	call	8003fd4 <ABSXw>
 80016a0:	d0a70e8d 	sth	r2,-25542(gp)
 80016a4:	d0a70e8b 	ldhu	r2,-25542(gp)
 80016a8:	113fffcc 	andi	r4,r2,65535
 80016ac:	80037d40 	call	80037d4 <cpu_mem_read>
 80016b0:	11003fcc 	andi	r4,r2,255
 80016b4:	80045540 	call	8004554 <INC>
 80016b8:	11003fcc 	andi	r4,r2,255
 80016bc:	d0a70e8b 	ldhu	r2,-25542(gp)
 80016c0:	117fffcc 	andi	r5,r2,65535
 80016c4:	80038c00 	call	80038c0 <cpu_mem_write>
 80016c8:	d0e70717 	ldw	r3,-25572(gp)
 80016cc:	008001c4 	movi	r2,7
 80016d0:	18800485 	stb	r2,18(r3)
 80016d4:	00050b06 	br	8002b04 <cpu_exec+0x2904>
  case 0xE6: // ZP
	t1 = cpu_read();
 80016d8:	800378c0 	call	800378c <cpu_read>
 80016dc:	10803fcc 	andi	r2,r2,255
 80016e0:	d0a70e8d 	sth	r2,-25542(gp)
	CPU->MEM[ t1 ] = INC( CPU->MEM[ t1 ] ); CPU->T = 5; break;
 80016e4:	d0a70717 	ldw	r2,-25572(gp)
 80016e8:	10c00517 	ldw	r3,20(r2)
 80016ec:	d0a70e8b 	ldhu	r2,-25542(gp)
 80016f0:	10bfffcc 	andi	r2,r2,65535
 80016f4:	18a1883a 	add	r16,r3,r2
 80016f8:	d0a70717 	ldw	r2,-25572(gp)
 80016fc:	10c00517 	ldw	r3,20(r2)
 8001700:	d0a70e8b 	ldhu	r2,-25542(gp)
 8001704:	10bfffcc 	andi	r2,r2,65535
 8001708:	1885883a 	add	r2,r3,r2
 800170c:	10800003 	ldbu	r2,0(r2)
 8001710:	11003fcc 	andi	r4,r2,255
 8001714:	80045540 	call	8004554 <INC>
 8001718:	80800005 	stb	r2,0(r16)
 800171c:	d0e70717 	ldw	r3,-25572(gp)
 8001720:	00800144 	movi	r2,5
 8001724:	18800485 	stb	r2,18(r3)
 8001728:	0004f606 	br	8002b04 <cpu_exec+0x2904>
  case 0xF6: // ZPX
	t1 = (cpu_read() + CPU->X) & 0xFF;
 800172c:	800378c0 	call	800378c <cpu_read>
 8001730:	10c03fcc 	andi	r3,r2,255
 8001734:	d0a70717 	ldw	r2,-25572(gp)
 8001738:	108002c3 	ldbu	r2,11(r2)
 800173c:	10803fcc 	andi	r2,r2,255
 8001740:	1885883a 	add	r2,r3,r2
 8001744:	10803fcc 	andi	r2,r2,255
 8001748:	d0a70e8d 	sth	r2,-25542(gp)
    CPU->MEM[ t1 ] = INC( CPU->MEM[ t1 ] ); CPU->T = 6; break;
 800174c:	d0a70717 	ldw	r2,-25572(gp)
 8001750:	10c00517 	ldw	r3,20(r2)
 8001754:	d0a70e8b 	ldhu	r2,-25542(gp)
 8001758:	10bfffcc 	andi	r2,r2,65535
 800175c:	18a1883a 	add	r16,r3,r2
 8001760:	d0a70717 	ldw	r2,-25572(gp)
 8001764:	10c00517 	ldw	r3,20(r2)
 8001768:	d0a70e8b 	ldhu	r2,-25542(gp)
 800176c:	10bfffcc 	andi	r2,r2,65535
 8001770:	1885883a 	add	r2,r3,r2
 8001774:	10800003 	ldbu	r2,0(r2)
 8001778:	11003fcc 	andi	r4,r2,255
 800177c:	80045540 	call	8004554 <INC>
 8001780:	80800005 	stb	r2,0(r16)
 8001784:	d0e70717 	ldw	r3,-25572(gp)
 8001788:	00800184 	movi	r2,6
 800178c:	18800485 	stb	r2,18(r3)
 8001790:	0004dc06 	br	8002b04 <cpu_exec+0x2904>

    // ########################### INX #####################
  case 0xE8:
    ++CPU->X;
 8001794:	d0e70717 	ldw	r3,-25572(gp)
 8001798:	188002c3 	ldbu	r2,11(r3)
 800179c:	10800044 	addi	r2,r2,1
 80017a0:	188002c5 	stb	r2,11(r3)
    CPU->P.Z = (CPU->X == 0) ? 1 : 0;
 80017a4:	d0e70717 	ldw	r3,-25572(gp)
 80017a8:	d0a70717 	ldw	r2,-25572(gp)
 80017ac:	108002c3 	ldbu	r2,11(r2)
 80017b0:	10803fcc 	andi	r2,r2,255
 80017b4:	1005003a 	cmpeq	r2,r2,zero
 80017b8:	18800105 	stb	r2,4(r3)
    CPU->P.N = ((CPU->X & 0x80) > 0) ? 1 : 0;
 80017bc:	d0e70717 	ldw	r3,-25572(gp)
 80017c0:	d0a70717 	ldw	r2,-25572(gp)
 80017c4:	108002c3 	ldbu	r2,11(r2)
 80017c8:	10803fcc 	andi	r2,r2,255
 80017cc:	1080200c 	andi	r2,r2,128
 80017d0:	10800048 	cmpgei	r2,r2,1
 80017d4:	18800245 	stb	r2,9(r3)
    CPU->T = 2;
 80017d8:	d0e70717 	ldw	r3,-25572(gp)
 80017dc:	00800084 	movi	r2,2
 80017e0:	18800485 	stb	r2,18(r3)
    break;
 80017e4:	0004c706 	br	8002b04 <cpu_exec+0x2904>

    // ############################### INY ###################
  case 0xC8:
    ++CPU->Y;
 80017e8:	d0e70717 	ldw	r3,-25572(gp)
 80017ec:	18800303 	ldbu	r2,12(r3)
 80017f0:	10800044 	addi	r2,r2,1
 80017f4:	18800305 	stb	r2,12(r3)
    CPU->P.Z = (CPU->Y == 0) ? 1 : 0;
 80017f8:	d0e70717 	ldw	r3,-25572(gp)
 80017fc:	d0a70717 	ldw	r2,-25572(gp)
 8001800:	10800303 	ldbu	r2,12(r2)
 8001804:	10803fcc 	andi	r2,r2,255
 8001808:	1005003a 	cmpeq	r2,r2,zero
 800180c:	18800105 	stb	r2,4(r3)
    CPU->P.N = ((CPU->Y & 0x80) > 0) ? 1 : 0;
 8001810:	d0e70717 	ldw	r3,-25572(gp)
 8001814:	d0a70717 	ldw	r2,-25572(gp)
 8001818:	10800303 	ldbu	r2,12(r2)
 800181c:	10803fcc 	andi	r2,r2,255
 8001820:	1080200c 	andi	r2,r2,128
 8001824:	10800048 	cmpgei	r2,r2,1
 8001828:	18800245 	stb	r2,9(r3)
    CPU->T = 2;
 800182c:	d0e70717 	ldw	r3,-25572(gp)
 8001830:	00800084 	movi	r2,2
 8001834:	18800485 	stb	r2,18(r3)
    break;
 8001838:	0004b206 	br	8002b04 <cpu_exec+0x2904>

    // ############################## JMP #####################
  case 0x4C: // ABS
    CPU->PC = ABSw(); CPU->T = 3; break;
 800183c:	d4270717 	ldw	r16,-25572(gp)
 8001840:	8003f840 	call	8003f84 <ABSw>
 8001844:	8080000d 	sth	r2,0(r16)
 8001848:	d0e70717 	ldw	r3,-25572(gp)
 800184c:	008000c4 	movi	r2,3
 8001850:	18800485 	stb	r2,18(r3)
 8001854:	0004ab06 	br	8002b04 <cpu_exec+0x2904>
  case 0x6C: // IND
    temp = cpu_read();	// Fetch operand byte
 8001858:	800378c0 	call	800378c <cpu_read>
 800185c:	10803fcc 	andi	r2,r2,255
 8001860:	d0a70a8d 	sth	r2,-25558(gp)
    l = cpu_mem_read( temp ); // Fetch lower byte address
 8001864:	d0a70a8b 	ldhu	r2,-25558(gp)
 8001868:	113fffcc 	andi	r4,r2,65535
 800186c:	80037d40 	call	80037d4 <cpu_mem_read>
 8001870:	10803fcc 	andi	r2,r2,255
 8001874:	d0a7098d 	sth	r2,-25562(gp)
    h = cpu_mem_read( (temp + 1) & 0xFF ) << 8;
 8001878:	d0a70a8b 	ldhu	r2,-25558(gp)
 800187c:	10800044 	addi	r2,r2,1
 8001880:	10bfffcc 	andi	r2,r2,65535
 8001884:	11003fcc 	andi	r4,r2,255
 8001888:	80037d40 	call	80037d4 <cpu_mem_read>
 800188c:	10803fcc 	andi	r2,r2,255
 8001890:	1004923a 	slli	r2,r2,8
 8001894:	d0a7108d 	sth	r2,-25534(gp)
    CPU->PC = cpu_mem_read( l | h );
 8001898:	d4270717 	ldw	r16,-25572(gp)
 800189c:	d0e7098b 	ldhu	r3,-25562(gp)
 80018a0:	d0a7108b 	ldhu	r2,-25534(gp)
 80018a4:	1884b03a 	or	r2,r3,r2
 80018a8:	113fffcc 	andi	r4,r2,65535
 80018ac:	80037d40 	call	80037d4 <cpu_mem_read>
 80018b0:	10803fcc 	andi	r2,r2,255
 80018b4:	8080000d 	sth	r2,0(r16)
    CPU->T = 5;
 80018b8:	d0e70717 	ldw	r3,-25572(gp)
 80018bc:	00800144 	movi	r2,5
 80018c0:	18800485 	stb	r2,18(r3)
    break;
 80018c4:	00048f06 	br	8002b04 <cpu_exec+0x2904>
    /* Jump to subroutine:
       Push PC + 1 to stack and set the PC to the operand. PC + 1
       is pushed to the STACK becuase and previous two bytes are
       from the operands of JSR, and we wish to return to the next
       opcode when we Return from Subroutine (RTS)*/
	l = cpu_read();				// Fetch lower byte address
 80018c8:	800378c0 	call	800378c <cpu_read>
 80018cc:	10803fcc 	andi	r2,r2,255
 80018d0:	d0a7098d 	sth	r2,-25562(gp)
	h = (cpu_read()) << 8;		// Fetch higher byte address
 80018d4:	800378c0 	call	800378c <cpu_read>
 80018d8:	10803fcc 	andi	r2,r2,255
 80018dc:	1004923a 	slli	r2,r2,8
 80018e0:	d0a7108d 	sth	r2,-25534(gp)

    temp_addr = CPU->PC - 1;  // The address to be pushed to Stack
 80018e4:	d0a70717 	ldw	r2,-25572(gp)
 80018e8:	1080000b 	ldhu	r2,0(r2)
 80018ec:	10bfffc4 	addi	r2,r2,-1
 80018f0:	d0a70d8d 	sth	r2,-25546(gp)
    cpu_mem_write( (temp_addr >> 8) & 0xFF, STACK + CPU->S); // Push PCh
 80018f4:	d0a70d8b 	ldhu	r2,-25546(gp)
 80018f8:	10bfffcc 	andi	r2,r2,65535
 80018fc:	1004d23a 	srli	r2,r2,8
 8001900:	11003fcc 	andi	r4,r2,255
 8001904:	d0a70717 	ldw	r2,-25572(gp)
 8001908:	10800083 	ldbu	r2,2(r2)
 800190c:	10803fcc 	andi	r2,r2,255
 8001910:	10804004 	addi	r2,r2,256
 8001914:	117fffcc 	andi	r5,r2,65535
 8001918:	80038c00 	call	80038c0 <cpu_mem_write>
    --CPU->S;
 800191c:	d0e70717 	ldw	r3,-25572(gp)
 8001920:	18800083 	ldbu	r2,2(r3)
 8001924:	10bfffc4 	addi	r2,r2,-1
 8001928:	18800085 	stb	r2,2(r3)
    cpu_mem_write( (temp_addr & 0xFF), STACK + CPU->S);      // Push PCl
 800192c:	d0a70d8b 	ldhu	r2,-25546(gp)
 8001930:	11003fcc 	andi	r4,r2,255
 8001934:	d0a70717 	ldw	r2,-25572(gp)
 8001938:	10800083 	ldbu	r2,2(r2)
 800193c:	10803fcc 	andi	r2,r2,255
 8001940:	10804004 	addi	r2,r2,256
 8001944:	117fffcc 	andi	r5,r2,65535
 8001948:	80038c00 	call	80038c0 <cpu_mem_write>
    --CPU->S;
 800194c:	d0e70717 	ldw	r3,-25572(gp)
 8001950:	18800083 	ldbu	r2,2(r3)
 8001954:	10bfffc4 	addi	r2,r2,-1
 8001958:	18800085 	stb	r2,2(r3)
    CPU->PC = l | h;
 800195c:	d1270717 	ldw	r4,-25572(gp)
 8001960:	d0e7098b 	ldhu	r3,-25562(gp)
 8001964:	d0a7108b 	ldhu	r2,-25534(gp)
 8001968:	1884b03a 	or	r2,r3,r2
 800196c:	2080000d 	sth	r2,0(r4)
    CPU->T = 6;
 8001970:	d0e70717 	ldw	r3,-25572(gp)
 8001974:	00800184 	movi	r2,6
 8001978:	18800485 	stb	r2,18(r3)
    break;
 800197c:	00046106 	br	8002b04 <cpu_exec+0x2904>

    // ########################## LDA #######################
  case 0xAD: // ABS
    operand = ABS();  LDA( operand ); CPU->T = 4; break;
 8001980:	8003bac0 	call	8003bac <ABS>
 8001984:	d0a70b05 	stb	r2,-25556(gp)
 8001988:	d0a70b03 	ldbu	r2,-25556(gp)
 800198c:	11003fcc 	andi	r4,r2,255
 8001990:	80045b40 	call	80045b4 <LDA>
 8001994:	d0e70717 	ldw	r3,-25572(gp)
 8001998:	00800104 	movi	r2,4
 800199c:	18800485 	stb	r2,18(r3)
 80019a0:	00045806 	br	8002b04 <cpu_exec+0x2904>
  case 0xBD: // ABSX
    operand = ABSX(); LDA( operand ); CPU->T = 4 + CPU->page_boundary; break;
 80019a4:	8003c080 	call	8003c08 <ABSX>
 80019a8:	d0a70b05 	stb	r2,-25556(gp)
 80019ac:	d0a70b03 	ldbu	r2,-25556(gp)
 80019b0:	11003fcc 	andi	r4,r2,255
 80019b4:	80045b40 	call	80045b4 <LDA>
 80019b8:	d0e70717 	ldw	r3,-25572(gp)
 80019bc:	d0a70717 	ldw	r2,-25572(gp)
 80019c0:	108007c3 	ldbu	r2,31(r2)
 80019c4:	10800104 	addi	r2,r2,4
 80019c8:	18800485 	stb	r2,18(r3)
 80019cc:	00044d06 	br	8002b04 <cpu_exec+0x2904>
  case 0xB9: // ABSY
    operand = ABSY(); LDA( operand ); CPU->T = 4 + CPU->page_boundary; break;
 80019d0:	8003cb00 	call	8003cb0 <ABSY>
 80019d4:	d0a70b05 	stb	r2,-25556(gp)
 80019d8:	d0a70b03 	ldbu	r2,-25556(gp)
 80019dc:	11003fcc 	andi	r4,r2,255
 80019e0:	80045b40 	call	80045b4 <LDA>
 80019e4:	d0e70717 	ldw	r3,-25572(gp)
 80019e8:	d0a70717 	ldw	r2,-25572(gp)
 80019ec:	108007c3 	ldbu	r2,31(r2)
 80019f0:	10800104 	addi	r2,r2,4
 80019f4:	18800485 	stb	r2,18(r3)
 80019f8:	00044206 	br	8002b04 <cpu_exec+0x2904>
  case 0xA9: // IMM
    LDA ( CPU->MEM[ CPU->PC++] );     CPU->T = 2; break;
 80019fc:	d0a70717 	ldw	r2,-25572(gp)
 8001a00:	10c00517 	ldw	r3,20(r2)
 8001a04:	d1670717 	ldw	r5,-25572(gp)
 8001a08:	2900000b 	ldhu	r4,0(r5)
 8001a0c:	20bfffcc 	andi	r2,r4,65535
 8001a10:	1885883a 	add	r2,r3,r2
 8001a14:	10800003 	ldbu	r2,0(r2)
 8001a18:	10c03fcc 	andi	r3,r2,255
 8001a1c:	20800044 	addi	r2,r4,1
 8001a20:	2880000d 	sth	r2,0(r5)
 8001a24:	1809883a 	mov	r4,r3
 8001a28:	80045b40 	call	80045b4 <LDA>
 8001a2c:	d0e70717 	ldw	r3,-25572(gp)
 8001a30:	00800084 	movi	r2,2
 8001a34:	18800485 	stb	r2,18(r3)
 8001a38:	00043206 	br	8002b04 <cpu_exec+0x2904>
  case 0xB1: // INDY
    operand = INDY(); LDA( operand ); CPU->T = 5 + CPU->page_boundary; break;
 8001a3c:	8003dfc0 	call	8003dfc <INDY>
 8001a40:	d0a70b05 	stb	r2,-25556(gp)
 8001a44:	d0a70b03 	ldbu	r2,-25556(gp)
 8001a48:	11003fcc 	andi	r4,r2,255
 8001a4c:	80045b40 	call	80045b4 <LDA>
 8001a50:	d0e70717 	ldw	r3,-25572(gp)
 8001a54:	d0a70717 	ldw	r2,-25572(gp)
 8001a58:	108007c3 	ldbu	r2,31(r2)
 8001a5c:	10800144 	addi	r2,r2,5
 8001a60:	18800485 	stb	r2,18(r3)
 8001a64:	00042706 	br	8002b04 <cpu_exec+0x2904>
  case 0xA1: // XIND
    operand = XIND(); LDA( operand ); CPU->T = 6; break;
 8001a68:	8003d5c0 	call	8003d5c <XIND>
 8001a6c:	d0a70b05 	stb	r2,-25556(gp)
 8001a70:	d0a70b03 	ldbu	r2,-25556(gp)
 8001a74:	11003fcc 	andi	r4,r2,255
 8001a78:	80045b40 	call	80045b4 <LDA>
 8001a7c:	d0e70717 	ldw	r3,-25572(gp)
 8001a80:	00800184 	movi	r2,6
 8001a84:	18800485 	stb	r2,18(r3)
 8001a88:	00041e06 	br	8002b04 <cpu_exec+0x2904>
  case 0xA5: // ZP
    operand = ZP();   LDA( operand ); CPU->T = 3; break;
 8001a8c:	8003f040 	call	8003f04 <ZP>
 8001a90:	d0a70b05 	stb	r2,-25556(gp)
 8001a94:	d0a70b03 	ldbu	r2,-25556(gp)
 8001a98:	11003fcc 	andi	r4,r2,255
 8001a9c:	80045b40 	call	80045b4 <LDA>
 8001aa0:	d0e70717 	ldw	r3,-25572(gp)
 8001aa4:	008000c4 	movi	r2,3
 8001aa8:	18800485 	stb	r2,18(r3)
 8001aac:	00041506 	br	8002b04 <cpu_exec+0x2904>
  case 0xB5: // ZPX
    operand = ZPX();  LDA( operand ); CPU->T = 4; break;
 8001ab0:	8003f380 	call	8003f38 <ZPX>
 8001ab4:	d0a70b05 	stb	r2,-25556(gp)
 8001ab8:	d0a70b03 	ldbu	r2,-25556(gp)
 8001abc:	11003fcc 	andi	r4,r2,255
 8001ac0:	80045b40 	call	80045b4 <LDA>
 8001ac4:	d0e70717 	ldw	r3,-25572(gp)
 8001ac8:	00800104 	movi	r2,4
 8001acc:	18800485 	stb	r2,18(r3)
 8001ad0:	00040c06 	br	8002b04 <cpu_exec+0x2904>

    // ########################## LDX #######################
  case 0xAE: // ABS
    operand = ABS(); LDX( operand ); CPU->T = 4; break;
 8001ad4:	8003bac0 	call	8003bac <ABS>
 8001ad8:	d0a70b05 	stb	r2,-25556(gp)
 8001adc:	d0a70b03 	ldbu	r2,-25556(gp)
 8001ae0:	11003fcc 	andi	r4,r2,255
 8001ae4:	80046140 	call	8004614 <LDX>
 8001ae8:	d0e70717 	ldw	r3,-25572(gp)
 8001aec:	00800104 	movi	r2,4
 8001af0:	18800485 	stb	r2,18(r3)
 8001af4:	00040306 	br	8002b04 <cpu_exec+0x2904>
  case 0xBE: // ABSY
    operand = ABS(); LDX( operand ); CPU->T = 4 + CPU->page_boundary; break;
 8001af8:	8003bac0 	call	8003bac <ABS>
 8001afc:	d0a70b05 	stb	r2,-25556(gp)
 8001b00:	d0a70b03 	ldbu	r2,-25556(gp)
 8001b04:	11003fcc 	andi	r4,r2,255
 8001b08:	80046140 	call	8004614 <LDX>
 8001b0c:	d0e70717 	ldw	r3,-25572(gp)
 8001b10:	d0a70717 	ldw	r2,-25572(gp)
 8001b14:	108007c3 	ldbu	r2,31(r2)
 8001b18:	10800104 	addi	r2,r2,4
 8001b1c:	18800485 	stb	r2,18(r3)
 8001b20:	0003f806 	br	8002b04 <cpu_exec+0x2904>
  case 0xA2: // IMM
    LDX( CPU->MEM[ CPU->PC++ ] );    CPU->T = 2; break;
 8001b24:	d0a70717 	ldw	r2,-25572(gp)
 8001b28:	10c00517 	ldw	r3,20(r2)
 8001b2c:	d1670717 	ldw	r5,-25572(gp)
 8001b30:	2900000b 	ldhu	r4,0(r5)
 8001b34:	20bfffcc 	andi	r2,r4,65535
 8001b38:	1885883a 	add	r2,r3,r2
 8001b3c:	10800003 	ldbu	r2,0(r2)
 8001b40:	10c03fcc 	andi	r3,r2,255
 8001b44:	20800044 	addi	r2,r4,1
 8001b48:	2880000d 	sth	r2,0(r5)
 8001b4c:	1809883a 	mov	r4,r3
 8001b50:	80046140 	call	8004614 <LDX>
 8001b54:	d0e70717 	ldw	r3,-25572(gp)
 8001b58:	00800084 	movi	r2,2
 8001b5c:	18800485 	stb	r2,18(r3)
 8001b60:	0003e806 	br	8002b04 <cpu_exec+0x2904>
  case 0xA6: // ZP
    operand = ZP();  LDX( operand ); CPU->T = 3; break;
 8001b64:	8003f040 	call	8003f04 <ZP>
 8001b68:	d0a70b05 	stb	r2,-25556(gp)
 8001b6c:	d0a70b03 	ldbu	r2,-25556(gp)
 8001b70:	11003fcc 	andi	r4,r2,255
 8001b74:	80046140 	call	8004614 <LDX>
 8001b78:	d0e70717 	ldw	r3,-25572(gp)
 8001b7c:	008000c4 	movi	r2,3
 8001b80:	18800485 	stb	r2,18(r3)
 8001b84:	0003df06 	br	8002b04 <cpu_exec+0x2904>
  case 0xB6: // ZPY
    operand = CPU->MEM[ ( cpu_read() + CPU->Y) & 0xFF ]; LDX( operand ); CPU->T = 4; break;
 8001b88:	d0a70717 	ldw	r2,-25572(gp)
 8001b8c:	14000517 	ldw	r16,20(r2)
 8001b90:	800378c0 	call	800378c <cpu_read>
 8001b94:	10c03fcc 	andi	r3,r2,255
 8001b98:	d0a70717 	ldw	r2,-25572(gp)
 8001b9c:	10800303 	ldbu	r2,12(r2)
 8001ba0:	10803fcc 	andi	r2,r2,255
 8001ba4:	1885883a 	add	r2,r3,r2
 8001ba8:	10803fcc 	andi	r2,r2,255
 8001bac:	8085883a 	add	r2,r16,r2
 8001bb0:	10800003 	ldbu	r2,0(r2)
 8001bb4:	d0a70b05 	stb	r2,-25556(gp)
 8001bb8:	d0a70b03 	ldbu	r2,-25556(gp)
 8001bbc:	11003fcc 	andi	r4,r2,255
 8001bc0:	80046140 	call	8004614 <LDX>
 8001bc4:	d0e70717 	ldw	r3,-25572(gp)
 8001bc8:	00800104 	movi	r2,4
 8001bcc:	18800485 	stb	r2,18(r3)
 8001bd0:	0003cc06 	br	8002b04 <cpu_exec+0x2904>

    // ########################## LDY ######################
  case 0xAC: // ABS
    operand = ABS();  LDY( operand ); CPU->T = 4; break;
 8001bd4:	8003bac0 	call	8003bac <ABS>
 8001bd8:	d0a70b05 	stb	r2,-25556(gp)
 8001bdc:	d0a70b03 	ldbu	r2,-25556(gp)
 8001be0:	11003fcc 	andi	r4,r2,255
 8001be4:	80046740 	call	8004674 <LDY>
 8001be8:	d0e70717 	ldw	r3,-25572(gp)
 8001bec:	00800104 	movi	r2,4
 8001bf0:	18800485 	stb	r2,18(r3)
 8001bf4:	0003c306 	br	8002b04 <cpu_exec+0x2904>
  case 0xBC: // ABSX
    operand = ABSX(); LDY( operand ); CPU->T = 4 + CPU->page_boundary; break;
 8001bf8:	8003c080 	call	8003c08 <ABSX>
 8001bfc:	d0a70b05 	stb	r2,-25556(gp)
 8001c00:	d0a70b03 	ldbu	r2,-25556(gp)
 8001c04:	11003fcc 	andi	r4,r2,255
 8001c08:	80046740 	call	8004674 <LDY>
 8001c0c:	d0e70717 	ldw	r3,-25572(gp)
 8001c10:	d0a70717 	ldw	r2,-25572(gp)
 8001c14:	108007c3 	ldbu	r2,31(r2)
 8001c18:	10800104 	addi	r2,r2,4
 8001c1c:	18800485 	stb	r2,18(r3)
 8001c20:	0003b806 	br	8002b04 <cpu_exec+0x2904>
  case 0xA0: // IMM
    LDY( cpu_read() );                CPU->T = 2; break;
 8001c24:	800378c0 	call	800378c <cpu_read>
 8001c28:	11003fcc 	andi	r4,r2,255
 8001c2c:	80046740 	call	8004674 <LDY>
 8001c30:	d0e70717 	ldw	r3,-25572(gp)
 8001c34:	00800084 	movi	r2,2
 8001c38:	18800485 	stb	r2,18(r3)
 8001c3c:	0003b106 	br	8002b04 <cpu_exec+0x2904>
  case 0xA4: // ZP
    operand = ZP();   LDY( operand ); CPU->T = 3; break;
 8001c40:	8003f040 	call	8003f04 <ZP>
 8001c44:	d0a70b05 	stb	r2,-25556(gp)
 8001c48:	d0a70b03 	ldbu	r2,-25556(gp)
 8001c4c:	11003fcc 	andi	r4,r2,255
 8001c50:	80046740 	call	8004674 <LDY>
 8001c54:	d0e70717 	ldw	r3,-25572(gp)
 8001c58:	008000c4 	movi	r2,3
 8001c5c:	18800485 	stb	r2,18(r3)
 8001c60:	0003a806 	br	8002b04 <cpu_exec+0x2904>
  case 0xB4: // ZPX
    operand = ZPX();  LDY( operand ); CPU->T = 4; break;
 8001c64:	8003f380 	call	8003f38 <ZPX>
 8001c68:	d0a70b05 	stb	r2,-25556(gp)
 8001c6c:	d0a70b03 	ldbu	r2,-25556(gp)
 8001c70:	11003fcc 	andi	r4,r2,255
 8001c74:	80046740 	call	8004674 <LDY>
 8001c78:	d0e70717 	ldw	r3,-25572(gp)
 8001c7c:	00800104 	movi	r2,4
 8001c80:	18800485 	stb	r2,18(r3)
 8001c84:	00039f06 	br	8002b04 <cpu_exec+0x2904>

    // ####################### LSR #########################
  case 0x4E: // ABS
	t1 = ABSw();  cpu_mem_write( LSR( cpu_mem_read(t1) ), t1 ); CPU->T = 6; break;
 8001c88:	8003f840 	call	8003f84 <ABSw>
 8001c8c:	d0a70e8d 	sth	r2,-25542(gp)
 8001c90:	d0a70e8b 	ldhu	r2,-25542(gp)
 8001c94:	113fffcc 	andi	r4,r2,65535
 8001c98:	80037d40 	call	80037d4 <cpu_mem_read>
 8001c9c:	11003fcc 	andi	r4,r2,255
 8001ca0:	80046d40 	call	80046d4 <LSR>
 8001ca4:	11003fcc 	andi	r4,r2,255
 8001ca8:	d0a70e8b 	ldhu	r2,-25542(gp)
 8001cac:	117fffcc 	andi	r5,r2,65535
 8001cb0:	80038c00 	call	80038c0 <cpu_mem_write>
 8001cb4:	d0e70717 	ldw	r3,-25572(gp)
 8001cb8:	00800184 	movi	r2,6
 8001cbc:	18800485 	stb	r2,18(r3)
 8001cc0:	00039006 	br	8002b04 <cpu_exec+0x2904>
  case 0x5E: // ABSX
	t1 = ABSXw(); cpu_mem_write( LSR( cpu_mem_read(t1) ), t1 ); CPU->T = 7;
 8001cc4:	8003fd40 	call	8003fd4 <ABSXw>
 8001cc8:	d0a70e8d 	sth	r2,-25542(gp)
 8001ccc:	d0a70e8b 	ldhu	r2,-25542(gp)
 8001cd0:	113fffcc 	andi	r4,r2,65535
 8001cd4:	80037d40 	call	80037d4 <cpu_mem_read>
 8001cd8:	11003fcc 	andi	r4,r2,255
 8001cdc:	80046d40 	call	80046d4 <LSR>
 8001ce0:	11003fcc 	andi	r4,r2,255
 8001ce4:	d0a70e8b 	ldhu	r2,-25542(gp)
 8001ce8:	117fffcc 	andi	r5,r2,65535
 8001cec:	80038c00 	call	80038c0 <cpu_mem_write>
 8001cf0:	d0e70717 	ldw	r3,-25572(gp)
 8001cf4:	008001c4 	movi	r2,7
 8001cf8:	18800485 	stb	r2,18(r3)
    break;
 8001cfc:	00038106 	br	8002b04 <cpu_exec+0x2904>
  case 0x4A: // ACC
    CPU->A = LSR( CPU->A ); CPU->T = 2; break;
 8001d00:	d4270717 	ldw	r16,-25572(gp)
 8001d04:	d0a70717 	ldw	r2,-25572(gp)
 8001d08:	10800283 	ldbu	r2,10(r2)
 8001d0c:	11003fcc 	andi	r4,r2,255
 8001d10:	80046d40 	call	80046d4 <LSR>
 8001d14:	80800285 	stb	r2,10(r16)
 8001d18:	d0e70717 	ldw	r3,-25572(gp)
 8001d1c:	00800084 	movi	r2,2
 8001d20:	18800485 	stb	r2,18(r3)
 8001d24:	00037706 	br	8002b04 <cpu_exec+0x2904>
  case 0x46: // ZP
	t1 = cpu_read();
 8001d28:	800378c0 	call	800378c <cpu_read>
 8001d2c:	10803fcc 	andi	r2,r2,255
 8001d30:	d0a70e8d 	sth	r2,-25542(gp)
    CPU->MEM[ t1 ] = LSR( CPU->MEM[ t1 ] ); CPU->T = 5; break;
 8001d34:	d0a70717 	ldw	r2,-25572(gp)
 8001d38:	10c00517 	ldw	r3,20(r2)
 8001d3c:	d0a70e8b 	ldhu	r2,-25542(gp)
 8001d40:	10bfffcc 	andi	r2,r2,65535
 8001d44:	18a1883a 	add	r16,r3,r2
 8001d48:	d0a70717 	ldw	r2,-25572(gp)
 8001d4c:	10c00517 	ldw	r3,20(r2)
 8001d50:	d0a70e8b 	ldhu	r2,-25542(gp)
 8001d54:	10bfffcc 	andi	r2,r2,65535
 8001d58:	1885883a 	add	r2,r3,r2
 8001d5c:	10800003 	ldbu	r2,0(r2)
 8001d60:	11003fcc 	andi	r4,r2,255
 8001d64:	80046d40 	call	80046d4 <LSR>
 8001d68:	80800005 	stb	r2,0(r16)
 8001d6c:	d0e70717 	ldw	r3,-25572(gp)
 8001d70:	00800144 	movi	r2,5
 8001d74:	18800485 	stb	r2,18(r3)
 8001d78:	00036206 	br	8002b04 <cpu_exec+0x2904>
  case 0x56: // ZPX
	t1 = (cpu_read() + CPU->X) & 0xFF;
 8001d7c:	800378c0 	call	800378c <cpu_read>
 8001d80:	10c03fcc 	andi	r3,r2,255
 8001d84:	d0a70717 	ldw	r2,-25572(gp)
 8001d88:	108002c3 	ldbu	r2,11(r2)
 8001d8c:	10803fcc 	andi	r2,r2,255
 8001d90:	1885883a 	add	r2,r3,r2
 8001d94:	10803fcc 	andi	r2,r2,255
 8001d98:	d0a70e8d 	sth	r2,-25542(gp)
    CPU->MEM[ t1 ] = LSR( CPU->MEM[ t1 ] ); CPU->T = 6; break;
 8001d9c:	d0a70717 	ldw	r2,-25572(gp)
 8001da0:	10c00517 	ldw	r3,20(r2)
 8001da4:	d0a70e8b 	ldhu	r2,-25542(gp)
 8001da8:	10bfffcc 	andi	r2,r2,65535
 8001dac:	18a1883a 	add	r16,r3,r2
 8001db0:	d0a70717 	ldw	r2,-25572(gp)
 8001db4:	10c00517 	ldw	r3,20(r2)
 8001db8:	d0a70e8b 	ldhu	r2,-25542(gp)
 8001dbc:	10bfffcc 	andi	r2,r2,65535
 8001dc0:	1885883a 	add	r2,r3,r2
 8001dc4:	10800003 	ldbu	r2,0(r2)
 8001dc8:	11003fcc 	andi	r4,r2,255
 8001dcc:	80046d40 	call	80046d4 <LSR>
 8001dd0:	80800005 	stb	r2,0(r16)
 8001dd4:	d0e70717 	ldw	r3,-25572(gp)
 8001dd8:	00800184 	movi	r2,6
 8001ddc:	18800485 	stb	r2,18(r3)
 8001de0:	00034806 	br	8002b04 <cpu_exec+0x2904>

    // ######################### NOP #######################
  case 0xEA:
    CPU->T = 2; break;
 8001de4:	d0e70717 	ldw	r3,-25572(gp)
 8001de8:	00800084 	movi	r2,2
 8001dec:	18800485 	stb	r2,18(r3)
 8001df0:	00034406 	br	8002b04 <cpu_exec+0x2904>

    // ########################## ORA ######################
  case 0x0D: // ABS
    operand = ABS();  ORA( operand ); CPU->T = 4; break;
 8001df4:	8003bac0 	call	8003bac <ABS>
 8001df8:	d0a70b05 	stb	r2,-25556(gp)
 8001dfc:	d0a70b03 	ldbu	r2,-25556(gp)
 8001e00:	11003fcc 	andi	r4,r2,255
 8001e04:	80047300 	call	8004730 <ORA>
 8001e08:	d0e70717 	ldw	r3,-25572(gp)
 8001e0c:	00800104 	movi	r2,4
 8001e10:	18800485 	stb	r2,18(r3)
 8001e14:	00033b06 	br	8002b04 <cpu_exec+0x2904>
  case 0x1D: // ABSX
    operand = ABSX(); ORA( operand ); CPU->T = 4 + CPU->page_boundary; break;
 8001e18:	8003c080 	call	8003c08 <ABSX>
 8001e1c:	d0a70b05 	stb	r2,-25556(gp)
 8001e20:	d0a70b03 	ldbu	r2,-25556(gp)
 8001e24:	11003fcc 	andi	r4,r2,255
 8001e28:	80047300 	call	8004730 <ORA>
 8001e2c:	d0e70717 	ldw	r3,-25572(gp)
 8001e30:	d0a70717 	ldw	r2,-25572(gp)
 8001e34:	108007c3 	ldbu	r2,31(r2)
 8001e38:	10800104 	addi	r2,r2,4
 8001e3c:	18800485 	stb	r2,18(r3)
 8001e40:	00033006 	br	8002b04 <cpu_exec+0x2904>
  case 0x19: // ABSY
    operand = ABSY(); ORA( operand ); CPU->T = 4 + CPU->page_boundary; break;
 8001e44:	8003cb00 	call	8003cb0 <ABSY>
 8001e48:	d0a70b05 	stb	r2,-25556(gp)
 8001e4c:	d0a70b03 	ldbu	r2,-25556(gp)
 8001e50:	11003fcc 	andi	r4,r2,255
 8001e54:	80047300 	call	8004730 <ORA>
 8001e58:	d0e70717 	ldw	r3,-25572(gp)
 8001e5c:	d0a70717 	ldw	r2,-25572(gp)
 8001e60:	108007c3 	ldbu	r2,31(r2)
 8001e64:	10800104 	addi	r2,r2,4
 8001e68:	18800485 	stb	r2,18(r3)
 8001e6c:	00032506 	br	8002b04 <cpu_exec+0x2904>
  case 0x09: // IMM
   ORA( cpu_read() );                 CPU->T = 2; break;
 8001e70:	800378c0 	call	800378c <cpu_read>
 8001e74:	11003fcc 	andi	r4,r2,255
 8001e78:	80047300 	call	8004730 <ORA>
 8001e7c:	d0e70717 	ldw	r3,-25572(gp)
 8001e80:	00800084 	movi	r2,2
 8001e84:	18800485 	stb	r2,18(r3)
 8001e88:	00031e06 	br	8002b04 <cpu_exec+0x2904>
  case 0x11: // INDY
    operand = INDY(); ORA( operand ); CPU->T = 5 + CPU->page_boundary; break;
 8001e8c:	8003dfc0 	call	8003dfc <INDY>
 8001e90:	d0a70b05 	stb	r2,-25556(gp)
 8001e94:	d0a70b03 	ldbu	r2,-25556(gp)
 8001e98:	11003fcc 	andi	r4,r2,255
 8001e9c:	80047300 	call	8004730 <ORA>
 8001ea0:	d0e70717 	ldw	r3,-25572(gp)
 8001ea4:	d0a70717 	ldw	r2,-25572(gp)
 8001ea8:	108007c3 	ldbu	r2,31(r2)
 8001eac:	10800144 	addi	r2,r2,5
 8001eb0:	18800485 	stb	r2,18(r3)
 8001eb4:	00031306 	br	8002b04 <cpu_exec+0x2904>
  case 0x01: // XIND
    operand = XIND(); ORA( operand ); CPU->T = 6; break;
 8001eb8:	8003d5c0 	call	8003d5c <XIND>
 8001ebc:	d0a70b05 	stb	r2,-25556(gp)
 8001ec0:	d0a70b03 	ldbu	r2,-25556(gp)
 8001ec4:	11003fcc 	andi	r4,r2,255
 8001ec8:	80047300 	call	8004730 <ORA>
 8001ecc:	d0e70717 	ldw	r3,-25572(gp)
 8001ed0:	00800184 	movi	r2,6
 8001ed4:	18800485 	stb	r2,18(r3)
 8001ed8:	00030a06 	br	8002b04 <cpu_exec+0x2904>
  case 0x05: // ZP
    operand = ZP();   ORA( operand ); CPU->T = 2; break;
 8001edc:	8003f040 	call	8003f04 <ZP>
 8001ee0:	d0a70b05 	stb	r2,-25556(gp)
 8001ee4:	d0a70b03 	ldbu	r2,-25556(gp)
 8001ee8:	11003fcc 	andi	r4,r2,255
 8001eec:	80047300 	call	8004730 <ORA>
 8001ef0:	d0e70717 	ldw	r3,-25572(gp)
 8001ef4:	00800084 	movi	r2,2
 8001ef8:	18800485 	stb	r2,18(r3)
 8001efc:	00030106 	br	8002b04 <cpu_exec+0x2904>
  case 0x15: // ZPX
    operand = ZPX();  ORA( operand ); CPU->T = 3; break;
 8001f00:	8003f380 	call	8003f38 <ZPX>
 8001f04:	d0a70b05 	stb	r2,-25556(gp)
 8001f08:	d0a70b03 	ldbu	r2,-25556(gp)
 8001f0c:	11003fcc 	andi	r4,r2,255
 8001f10:	80047300 	call	8004730 <ORA>
 8001f14:	d0e70717 	ldw	r3,-25572(gp)
 8001f18:	008000c4 	movi	r2,3
 8001f1c:	18800485 	stb	r2,18(r3)
 8001f20:	0002f806 	br	8002b04 <cpu_exec+0x2904>

    // ######################### PHA #######################
  case 0x48: // IMP
	cpu_mem_write( CPU->A, STACK + CPU->S );
 8001f24:	d0a70717 	ldw	r2,-25572(gp)
 8001f28:	10800283 	ldbu	r2,10(r2)
 8001f2c:	11003fcc 	andi	r4,r2,255
 8001f30:	d0a70717 	ldw	r2,-25572(gp)
 8001f34:	10800083 	ldbu	r2,2(r2)
 8001f38:	10803fcc 	andi	r2,r2,255
 8001f3c:	10804004 	addi	r2,r2,256
 8001f40:	117fffcc 	andi	r5,r2,65535
 8001f44:	80038c00 	call	80038c0 <cpu_mem_write>
    --CPU->S;
 8001f48:	d0e70717 	ldw	r3,-25572(gp)
 8001f4c:	18800083 	ldbu	r2,2(r3)
 8001f50:	10bfffc4 	addi	r2,r2,-1
 8001f54:	18800085 	stb	r2,2(r3)
    CPU->T = 3;
 8001f58:	d0e70717 	ldw	r3,-25572(gp)
 8001f5c:	008000c4 	movi	r2,3
 8001f60:	18800485 	stb	r2,18(r3)
    break;
 8001f64:	0002e706 	br	8002b04 <cpu_exec+0x2904>

    // ########################### PHP #####################
  case 0x08: // IMP
    /* Pushes P (Status Register) onto the Stack, thus decremented it after. Fixed wrong push bug. */
    CPU->MEM[ STACK + CPU->S ] = cpu_join_flags();
 8001f68:	d0a70717 	ldw	r2,-25572(gp)
 8001f6c:	10c00517 	ldw	r3,20(r2)
 8001f70:	d0a70717 	ldw	r2,-25572(gp)
 8001f74:	10800083 	ldbu	r2,2(r2)
 8001f78:	10803fcc 	andi	r2,r2,255
 8001f7c:	1885883a 	add	r2,r3,r2
 8001f80:	14004004 	addi	r16,r2,256
 8001f84:	80039d00 	call	80039d0 <cpu_join_flags>
 8001f88:	80800005 	stb	r2,0(r16)
    --CPU->S;
 8001f8c:	d0e70717 	ldw	r3,-25572(gp)
 8001f90:	18800083 	ldbu	r2,2(r3)
 8001f94:	10bfffc4 	addi	r2,r2,-1
 8001f98:	18800085 	stb	r2,2(r3)
    CPU->T = 3;
 8001f9c:	d0e70717 	ldw	r3,-25572(gp)
 8001fa0:	008000c4 	movi	r2,3
 8001fa4:	18800485 	stb	r2,18(r3)
    break;
 8001fa8:	0002d606 	br	8002b04 <cpu_exec+0x2904>

    // ########################## PLA ######################
  case 0x68: // IMP
    /* Pulls Accumulator from the stack, which is incremented after. Fixed wrong pulling bug. */
    ++CPU->S;
 8001fac:	d0e70717 	ldw	r3,-25572(gp)
 8001fb0:	18800083 	ldbu	r2,2(r3)
 8001fb4:	10800044 	addi	r2,r2,1
 8001fb8:	18800085 	stb	r2,2(r3)
    CPU->A = cpu_mem_read( STACK + CPU->S );
 8001fbc:	d4270717 	ldw	r16,-25572(gp)
 8001fc0:	d0a70717 	ldw	r2,-25572(gp)
 8001fc4:	10800083 	ldbu	r2,2(r2)
 8001fc8:	10803fcc 	andi	r2,r2,255
 8001fcc:	10804004 	addi	r2,r2,256
 8001fd0:	113fffcc 	andi	r4,r2,65535
 8001fd4:	80037d40 	call	80037d4 <cpu_mem_read>
 8001fd8:	80800285 	stb	r2,10(r16)
    CPU->P.N = ((CPU->A & 0x80) > 0) ? 1 : 0;
 8001fdc:	d0e70717 	ldw	r3,-25572(gp)
 8001fe0:	d0a70717 	ldw	r2,-25572(gp)
 8001fe4:	10800283 	ldbu	r2,10(r2)
 8001fe8:	10803fcc 	andi	r2,r2,255
 8001fec:	1080200c 	andi	r2,r2,128
 8001ff0:	10800048 	cmpgei	r2,r2,1
 8001ff4:	18800245 	stb	r2,9(r3)
    CPU->P.Z = (CPU->A == 0) ? 1 : 0;
 8001ff8:	d0e70717 	ldw	r3,-25572(gp)
 8001ffc:	d0a70717 	ldw	r2,-25572(gp)
 8002000:	10800283 	ldbu	r2,10(r2)
 8002004:	10803fcc 	andi	r2,r2,255
 8002008:	1005003a 	cmpeq	r2,r2,zero
 800200c:	18800105 	stb	r2,4(r3)
    CPU->T = 4;
 8002010:	d0e70717 	ldw	r3,-25572(gp)
 8002014:	00800104 	movi	r2,4
 8002018:	18800485 	stb	r2,18(r3)
    break;
 800201c:	0002b906 	br	8002b04 <cpu_exec+0x2904>

    // ########################## PLP ########################
  case 0x28:
    /* Pulls P (Status Register) from the Stack. Note B flag is not
       copied after, since it only exists on Stack. Fixed wrong flag pulling bug. */
    ++CPU->S;
 8002020:	d0e70717 	ldw	r3,-25572(gp)
 8002024:	18800083 	ldbu	r2,2(r3)
 8002028:	10800044 	addi	r2,r2,1
 800202c:	18800085 	stb	r2,2(r3)
    cpu_split_flags( cpu_mem_read( STACK + CPU->S ) );
 8002030:	d0a70717 	ldw	r2,-25572(gp)
 8002034:	10800083 	ldbu	r2,2(r2)
 8002038:	10803fcc 	andi	r2,r2,255
 800203c:	10804004 	addi	r2,r2,256
 8002040:	113fffcc 	andi	r4,r2,65535
 8002044:	80037d40 	call	80037d4 <cpu_mem_read>
 8002048:	11003fcc 	andi	r4,r2,255
 800204c:	8003a980 	call	8003a98 <cpu_split_flags>
    CPU->T = 4;
 8002050:	d0e70717 	ldw	r3,-25572(gp)
 8002054:	00800104 	movi	r2,4
 8002058:	18800485 	stb	r2,18(r3)
    break;
 800205c:	0002a906 	br	8002b04 <cpu_exec+0x2904>

    // ######################## ROL #######################
  case 0x2E: // ABS
	t1 = ABSw();  cpu_mem_write( ROL( cpu_mem_read(t1) ), t1); CPU->T = 6; break;
 8002060:	8003f840 	call	8003f84 <ABSw>
 8002064:	d0a70e8d 	sth	r2,-25542(gp)
 8002068:	d0a70e8b 	ldhu	r2,-25542(gp)
 800206c:	113fffcc 	andi	r4,r2,65535
 8002070:	80037d40 	call	80037d4 <cpu_mem_read>
 8002074:	11003fcc 	andi	r4,r2,255
 8002078:	800479c0 	call	800479c <ROL>
 800207c:	11003fcc 	andi	r4,r2,255
 8002080:	d0a70e8b 	ldhu	r2,-25542(gp)
 8002084:	117fffcc 	andi	r5,r2,65535
 8002088:	80038c00 	call	80038c0 <cpu_mem_write>
 800208c:	d0e70717 	ldw	r3,-25572(gp)
 8002090:	00800184 	movi	r2,6
 8002094:	18800485 	stb	r2,18(r3)
 8002098:	00029a06 	br	8002b04 <cpu_exec+0x2904>
  case 0x3E: // ABSX
	t1 = ABSXw(); cpu_mem_write( ROL( cpu_mem_read(t1) ), t1);  CPU->T = 7; break;
 800209c:	8003fd40 	call	8003fd4 <ABSXw>
 80020a0:	d0a70e8d 	sth	r2,-25542(gp)
 80020a4:	d0a70e8b 	ldhu	r2,-25542(gp)
 80020a8:	113fffcc 	andi	r4,r2,65535
 80020ac:	80037d40 	call	80037d4 <cpu_mem_read>
 80020b0:	11003fcc 	andi	r4,r2,255
 80020b4:	800479c0 	call	800479c <ROL>
 80020b8:	11003fcc 	andi	r4,r2,255
 80020bc:	d0a70e8b 	ldhu	r2,-25542(gp)
 80020c0:	117fffcc 	andi	r5,r2,65535
 80020c4:	80038c00 	call	80038c0 <cpu_mem_write>
 80020c8:	d0e70717 	ldw	r3,-25572(gp)
 80020cc:	008001c4 	movi	r2,7
 80020d0:	18800485 	stb	r2,18(r3)
 80020d4:	00028b06 	br	8002b04 <cpu_exec+0x2904>
  case 0x2A: // ACC
    CPU->A = ROL( CPU->A ); CPU->T = 2; break;
 80020d8:	d4270717 	ldw	r16,-25572(gp)
 80020dc:	d0a70717 	ldw	r2,-25572(gp)
 80020e0:	10800283 	ldbu	r2,10(r2)
 80020e4:	11003fcc 	andi	r4,r2,255
 80020e8:	800479c0 	call	800479c <ROL>
 80020ec:	80800285 	stb	r2,10(r16)
 80020f0:	d0e70717 	ldw	r3,-25572(gp)
 80020f4:	00800084 	movi	r2,2
 80020f8:	18800485 	stb	r2,18(r3)
 80020fc:	00028106 	br	8002b04 <cpu_exec+0x2904>
  case 0x26: // ZP
	t1 = cpu_read();
 8002100:	800378c0 	call	800378c <cpu_read>
 8002104:	10803fcc 	andi	r2,r2,255
 8002108:	d0a70e8d 	sth	r2,-25542(gp)
	CPU->MEM[ t1 ] = ROL( CPU->MEM[ t1 ] ); CPU->T = 5; break;
 800210c:	d0a70717 	ldw	r2,-25572(gp)
 8002110:	10c00517 	ldw	r3,20(r2)
 8002114:	d0a70e8b 	ldhu	r2,-25542(gp)
 8002118:	10bfffcc 	andi	r2,r2,65535
 800211c:	18a1883a 	add	r16,r3,r2
 8002120:	d0a70717 	ldw	r2,-25572(gp)
 8002124:	10c00517 	ldw	r3,20(r2)
 8002128:	d0a70e8b 	ldhu	r2,-25542(gp)
 800212c:	10bfffcc 	andi	r2,r2,65535
 8002130:	1885883a 	add	r2,r3,r2
 8002134:	10800003 	ldbu	r2,0(r2)
 8002138:	11003fcc 	andi	r4,r2,255
 800213c:	800479c0 	call	800479c <ROL>
 8002140:	80800005 	stb	r2,0(r16)
 8002144:	d0e70717 	ldw	r3,-25572(gp)
 8002148:	00800144 	movi	r2,5
 800214c:	18800485 	stb	r2,18(r3)
 8002150:	00026c06 	br	8002b04 <cpu_exec+0x2904>
  case 0x36: // ZPX
	t1 = (cpu_read() + CPU->X) & 0xFF;
 8002154:	800378c0 	call	800378c <cpu_read>
 8002158:	10c03fcc 	andi	r3,r2,255
 800215c:	d0a70717 	ldw	r2,-25572(gp)
 8002160:	108002c3 	ldbu	r2,11(r2)
 8002164:	10803fcc 	andi	r2,r2,255
 8002168:	1885883a 	add	r2,r3,r2
 800216c:	10803fcc 	andi	r2,r2,255
 8002170:	d0a70e8d 	sth	r2,-25542(gp)
	CPU->MEM[ t1 ] = ROL( CPU->MEM[ t1 ] ); CPU->T = 6; break;
 8002174:	d0a70717 	ldw	r2,-25572(gp)
 8002178:	10c00517 	ldw	r3,20(r2)
 800217c:	d0a70e8b 	ldhu	r2,-25542(gp)
 8002180:	10bfffcc 	andi	r2,r2,65535
 8002184:	18a1883a 	add	r16,r3,r2
 8002188:	d0a70717 	ldw	r2,-25572(gp)
 800218c:	10c00517 	ldw	r3,20(r2)
 8002190:	d0a70e8b 	ldhu	r2,-25542(gp)
 8002194:	10bfffcc 	andi	r2,r2,65535
 8002198:	1885883a 	add	r2,r3,r2
 800219c:	10800003 	ldbu	r2,0(r2)
 80021a0:	11003fcc 	andi	r4,r2,255
 80021a4:	800479c0 	call	800479c <ROL>
 80021a8:	80800005 	stb	r2,0(r16)
 80021ac:	d0e70717 	ldw	r3,-25572(gp)
 80021b0:	00800184 	movi	r2,6
 80021b4:	18800485 	stb	r2,18(r3)
 80021b8:	00025206 	br	8002b04 <cpu_exec+0x2904>

    // ########################## ROR ########################
  case 0x6E: // ABS
	t1 = ABSw();
 80021bc:	8003f840 	call	8003f84 <ABSw>
 80021c0:	d0a70e8d 	sth	r2,-25542(gp)
	cpu_mem_write( ROR( cpu_mem_read(t1) ), t1 ); CPU->T = 6; break;
 80021c4:	d0a70e8b 	ldhu	r2,-25542(gp)
 80021c8:	113fffcc 	andi	r4,r2,65535
 80021cc:	80037d40 	call	80037d4 <cpu_mem_read>
 80021d0:	11003fcc 	andi	r4,r2,255
 80021d4:	80048300 	call	8004830 <ROR>
 80021d8:	11003fcc 	andi	r4,r2,255
 80021dc:	d0a70e8b 	ldhu	r2,-25542(gp)
 80021e0:	117fffcc 	andi	r5,r2,65535
 80021e4:	80038c00 	call	80038c0 <cpu_mem_write>
 80021e8:	d0e70717 	ldw	r3,-25572(gp)
 80021ec:	00800184 	movi	r2,6
 80021f0:	18800485 	stb	r2,18(r3)
 80021f4:	00024306 	br	8002b04 <cpu_exec+0x2904>
  case 0x7E: // ABSX
   t1 = ABSXw();
 80021f8:	8003fd40 	call	8003fd4 <ABSXw>
 80021fc:	d0a70e8d 	sth	r2,-25542(gp)
   cpu_mem_write( ROR( cpu_mem_read(t1) ), t1 ); CPU->T = 7; break;
 8002200:	d0a70e8b 	ldhu	r2,-25542(gp)
 8002204:	113fffcc 	andi	r4,r2,65535
 8002208:	80037d40 	call	80037d4 <cpu_mem_read>
 800220c:	11003fcc 	andi	r4,r2,255
 8002210:	80048300 	call	8004830 <ROR>
 8002214:	11003fcc 	andi	r4,r2,255
 8002218:	d0a70e8b 	ldhu	r2,-25542(gp)
 800221c:	117fffcc 	andi	r5,r2,65535
 8002220:	80038c00 	call	80038c0 <cpu_mem_write>
 8002224:	d0e70717 	ldw	r3,-25572(gp)
 8002228:	008001c4 	movi	r2,7
 800222c:	18800485 	stb	r2,18(r3)
 8002230:	00023406 	br	8002b04 <cpu_exec+0x2904>
  case 0x6A: // ACC
    CPU->A = ROR( CPU->A ); CPU->T = 2; CPU->T = 2; break;
 8002234:	d4270717 	ldw	r16,-25572(gp)
 8002238:	d0a70717 	ldw	r2,-25572(gp)
 800223c:	10800283 	ldbu	r2,10(r2)
 8002240:	11003fcc 	andi	r4,r2,255
 8002244:	80048300 	call	8004830 <ROR>
 8002248:	80800285 	stb	r2,10(r16)
 800224c:	d0e70717 	ldw	r3,-25572(gp)
 8002250:	00800084 	movi	r2,2
 8002254:	18800485 	stb	r2,18(r3)
 8002258:	d0e70717 	ldw	r3,-25572(gp)
 800225c:	00800084 	movi	r2,2
 8002260:	18800485 	stb	r2,18(r3)
 8002264:	00022706 	br	8002b04 <cpu_exec+0x2904>
  case 0x66: // ZP
	t1 = cpu_read();
 8002268:	800378c0 	call	800378c <cpu_read>
 800226c:	10803fcc 	andi	r2,r2,255
 8002270:	d0a70e8d 	sth	r2,-25542(gp)
	CPU->MEM[ t1 ] = ROR( CPU->MEM[ t1 ]); CPU->T = 5; break;
 8002274:	d0a70717 	ldw	r2,-25572(gp)
 8002278:	10c00517 	ldw	r3,20(r2)
 800227c:	d0a70e8b 	ldhu	r2,-25542(gp)
 8002280:	10bfffcc 	andi	r2,r2,65535
 8002284:	18a1883a 	add	r16,r3,r2
 8002288:	d0a70717 	ldw	r2,-25572(gp)
 800228c:	10c00517 	ldw	r3,20(r2)
 8002290:	d0a70e8b 	ldhu	r2,-25542(gp)
 8002294:	10bfffcc 	andi	r2,r2,65535
 8002298:	1885883a 	add	r2,r3,r2
 800229c:	10800003 	ldbu	r2,0(r2)
 80022a0:	11003fcc 	andi	r4,r2,255
 80022a4:	80048300 	call	8004830 <ROR>
 80022a8:	80800005 	stb	r2,0(r16)
 80022ac:	d0e70717 	ldw	r3,-25572(gp)
 80022b0:	00800144 	movi	r2,5
 80022b4:	18800485 	stb	r2,18(r3)
 80022b8:	00021206 	br	8002b04 <cpu_exec+0x2904>
  case 0x76: // ZPX
	t1 = (CPU->PC + CPU->X) & 0xFF;
 80022bc:	d0a70717 	ldw	r2,-25572(gp)
 80022c0:	10c0000b 	ldhu	r3,0(r2)
 80022c4:	d0a70717 	ldw	r2,-25572(gp)
 80022c8:	108002c3 	ldbu	r2,11(r2)
 80022cc:	10803fcc 	andi	r2,r2,255
 80022d0:	1885883a 	add	r2,r3,r2
 80022d4:	10803fcc 	andi	r2,r2,255
 80022d8:	d0a70e8d 	sth	r2,-25542(gp)
    CPU->MEM[ t1 ] = ROR( CPU->MEM[ t1 ] ); ++CPU->PC; CPU->T = 6; break;
 80022dc:	d0a70717 	ldw	r2,-25572(gp)
 80022e0:	10c00517 	ldw	r3,20(r2)
 80022e4:	d0a70e8b 	ldhu	r2,-25542(gp)
 80022e8:	10bfffcc 	andi	r2,r2,65535
 80022ec:	18a1883a 	add	r16,r3,r2
 80022f0:	d0a70717 	ldw	r2,-25572(gp)
 80022f4:	10c00517 	ldw	r3,20(r2)
 80022f8:	d0a70e8b 	ldhu	r2,-25542(gp)
 80022fc:	10bfffcc 	andi	r2,r2,65535
 8002300:	1885883a 	add	r2,r3,r2
 8002304:	10800003 	ldbu	r2,0(r2)
 8002308:	11003fcc 	andi	r4,r2,255
 800230c:	80048300 	call	8004830 <ROR>
 8002310:	80800005 	stb	r2,0(r16)
 8002314:	d0e70717 	ldw	r3,-25572(gp)
 8002318:	1880000b 	ldhu	r2,0(r3)
 800231c:	10800044 	addi	r2,r2,1
 8002320:	1880000d 	sth	r2,0(r3)
 8002324:	d0e70717 	ldw	r3,-25572(gp)
 8002328:	00800184 	movi	r2,6
 800232c:	18800485 	stb	r2,18(r3)
 8002330:	0001f406 	br	8002b04 <cpu_exec+0x2904>


    // ######################## RTI ##########################
  case 0x40:
    ++CPU->S;
 8002334:	d0e70717 	ldw	r3,-25572(gp)
 8002338:	18800083 	ldbu	r2,2(r3)
 800233c:	10800044 	addi	r2,r2,1
 8002340:	18800085 	stb	r2,2(r3)
    cpu_split_flags( cpu_mem_read( STACK + CPU->S ) );
 8002344:	d0a70717 	ldw	r2,-25572(gp)
 8002348:	10800083 	ldbu	r2,2(r2)
 800234c:	10803fcc 	andi	r2,r2,255
 8002350:	10804004 	addi	r2,r2,256
 8002354:	113fffcc 	andi	r4,r2,65535
 8002358:	80037d40 	call	80037d4 <cpu_mem_read>
 800235c:	11003fcc 	andi	r4,r2,255
 8002360:	8003a980 	call	8003a98 <cpu_split_flags>

    ++CPU->S;
 8002364:	d0e70717 	ldw	r3,-25572(gp)
 8002368:	18800083 	ldbu	r2,2(r3)
 800236c:	10800044 	addi	r2,r2,1
 8002370:	18800085 	stb	r2,2(r3)
    CPU->PC = cpu_mem_read( STACK + CPU->S );
 8002374:	d4270717 	ldw	r16,-25572(gp)
 8002378:	d0a70717 	ldw	r2,-25572(gp)
 800237c:	10800083 	ldbu	r2,2(r2)
 8002380:	10803fcc 	andi	r2,r2,255
 8002384:	10804004 	addi	r2,r2,256
 8002388:	113fffcc 	andi	r4,r2,65535
 800238c:	80037d40 	call	80037d4 <cpu_mem_read>
 8002390:	10803fcc 	andi	r2,r2,255
 8002394:	8080000d 	sth	r2,0(r16)

    ++CPU->S;
 8002398:	d0e70717 	ldw	r3,-25572(gp)
 800239c:	18800083 	ldbu	r2,2(r3)
 80023a0:	10800044 	addi	r2,r2,1
 80023a4:	18800085 	stb	r2,2(r3)
    CPU->PC = CPU->PC | (cpu_mem_read( STACK + CPU->S ) << 8);
 80023a8:	d4270717 	ldw	r16,-25572(gp)
 80023ac:	d0a70717 	ldw	r2,-25572(gp)
 80023b0:	1080000b 	ldhu	r2,0(r2)
 80023b4:	1023883a 	mov	r17,r2
 80023b8:	d0a70717 	ldw	r2,-25572(gp)
 80023bc:	10800083 	ldbu	r2,2(r2)
 80023c0:	10803fcc 	andi	r2,r2,255
 80023c4:	10804004 	addi	r2,r2,256
 80023c8:	113fffcc 	andi	r4,r2,65535
 80023cc:	80037d40 	call	80037d4 <cpu_mem_read>
 80023d0:	10803fcc 	andi	r2,r2,255
 80023d4:	1004923a 	slli	r2,r2,8
 80023d8:	8884b03a 	or	r2,r17,r2
 80023dc:	8080000d 	sth	r2,0(r16)
    CPU->T = 6;
 80023e0:	d0e70717 	ldw	r3,-25572(gp)
 80023e4:	00800184 	movi	r2,6
 80023e8:	18800485 	stb	r2,18(r3)
    break;
 80023ec:	0001c506 	br	8002b04 <cpu_exec+0x2904>

    // ############################# RTS #######################
  case 0x60:
    ++CPU->S;
 80023f0:	d0e70717 	ldw	r3,-25572(gp)
 80023f4:	18800083 	ldbu	r2,2(r3)
 80023f8:	10800044 	addi	r2,r2,1
 80023fc:	18800085 	stb	r2,2(r3)
    CPU->PC = cpu_mem_read( STACK + CPU->S );
 8002400:	d4270717 	ldw	r16,-25572(gp)
 8002404:	d0a70717 	ldw	r2,-25572(gp)
 8002408:	10800083 	ldbu	r2,2(r2)
 800240c:	10803fcc 	andi	r2,r2,255
 8002410:	10804004 	addi	r2,r2,256
 8002414:	113fffcc 	andi	r4,r2,65535
 8002418:	80037d40 	call	80037d4 <cpu_mem_read>
 800241c:	10803fcc 	andi	r2,r2,255
 8002420:	8080000d 	sth	r2,0(r16)

    ++CPU->S;
 8002424:	d0e70717 	ldw	r3,-25572(gp)
 8002428:	18800083 	ldbu	r2,2(r3)
 800242c:	10800044 	addi	r2,r2,1
 8002430:	18800085 	stb	r2,2(r3)
    CPU->PC = (CPU->PC | ( cpu_mem_read( STACK + CPU->S ) << 8 )) + 1;
 8002434:	d4270717 	ldw	r16,-25572(gp)
 8002438:	d0a70717 	ldw	r2,-25572(gp)
 800243c:	1080000b 	ldhu	r2,0(r2)
 8002440:	1023883a 	mov	r17,r2
 8002444:	d0a70717 	ldw	r2,-25572(gp)
 8002448:	10800083 	ldbu	r2,2(r2)
 800244c:	10803fcc 	andi	r2,r2,255
 8002450:	10804004 	addi	r2,r2,256
 8002454:	113fffcc 	andi	r4,r2,65535
 8002458:	80037d40 	call	80037d4 <cpu_mem_read>
 800245c:	10803fcc 	andi	r2,r2,255
 8002460:	1004923a 	slli	r2,r2,8
 8002464:	8884b03a 	or	r2,r17,r2
 8002468:	10800044 	addi	r2,r2,1
 800246c:	8080000d 	sth	r2,0(r16)
    CPU->T = 6;
 8002470:	d0e70717 	ldw	r3,-25572(gp)
 8002474:	00800184 	movi	r2,6
 8002478:	18800485 	stb	r2,18(r3)
    break;
 800247c:	0001a106 	br	8002b04 <cpu_exec+0x2904>

    // ####################### SBC ############################
  case 0xED: // ABS
    operand = ABS();  SBC( operand ); CPU->T = 4; break;
 8002480:	8003bac0 	call	8003bac <ABS>
 8002484:	d0a70b05 	stb	r2,-25556(gp)
 8002488:	d0a70b03 	ldbu	r2,-25556(gp)
 800248c:	11003fcc 	andi	r4,r2,255
 8002490:	80048d40 	call	80048d4 <SBC>
 8002494:	d0e70717 	ldw	r3,-25572(gp)
 8002498:	00800104 	movi	r2,4
 800249c:	18800485 	stb	r2,18(r3)
 80024a0:	00019806 	br	8002b04 <cpu_exec+0x2904>
  case 0xFD: // ABSX
    operand = ABSX(); SBC( operand ); CPU->T = 4 + CPU->page_boundary; break;
 80024a4:	8003c080 	call	8003c08 <ABSX>
 80024a8:	d0a70b05 	stb	r2,-25556(gp)
 80024ac:	d0a70b03 	ldbu	r2,-25556(gp)
 80024b0:	11003fcc 	andi	r4,r2,255
 80024b4:	80048d40 	call	80048d4 <SBC>
 80024b8:	d0e70717 	ldw	r3,-25572(gp)
 80024bc:	d0a70717 	ldw	r2,-25572(gp)
 80024c0:	108007c3 	ldbu	r2,31(r2)
 80024c4:	10800104 	addi	r2,r2,4
 80024c8:	18800485 	stb	r2,18(r3)
 80024cc:	00018d06 	br	8002b04 <cpu_exec+0x2904>
  case 0xF9: // ABSY
    operand = ABSY(); SBC( operand ); CPU->T = 4 + CPU->page_boundary; break;
 80024d0:	8003cb00 	call	8003cb0 <ABSY>
 80024d4:	d0a70b05 	stb	r2,-25556(gp)
 80024d8:	d0a70b03 	ldbu	r2,-25556(gp)
 80024dc:	11003fcc 	andi	r4,r2,255
 80024e0:	80048d40 	call	80048d4 <SBC>
 80024e4:	d0e70717 	ldw	r3,-25572(gp)
 80024e8:	d0a70717 	ldw	r2,-25572(gp)
 80024ec:	108007c3 	ldbu	r2,31(r2)
 80024f0:	10800104 	addi	r2,r2,4
 80024f4:	18800485 	stb	r2,18(r3)
 80024f8:	00018206 	br	8002b04 <cpu_exec+0x2904>
  case 0xE9: // IMM
    SBC( CPU->MEM[ CPU->PC++ ] );     CPU->T = 2; break;
 80024fc:	d0a70717 	ldw	r2,-25572(gp)
 8002500:	10c00517 	ldw	r3,20(r2)
 8002504:	d1670717 	ldw	r5,-25572(gp)
 8002508:	2900000b 	ldhu	r4,0(r5)
 800250c:	20bfffcc 	andi	r2,r4,65535
 8002510:	1885883a 	add	r2,r3,r2
 8002514:	10800003 	ldbu	r2,0(r2)
 8002518:	10c03fcc 	andi	r3,r2,255
 800251c:	20800044 	addi	r2,r4,1
 8002520:	2880000d 	sth	r2,0(r5)
 8002524:	1809883a 	mov	r4,r3
 8002528:	80048d40 	call	80048d4 <SBC>
 800252c:	d0e70717 	ldw	r3,-25572(gp)
 8002530:	00800084 	movi	r2,2
 8002534:	18800485 	stb	r2,18(r3)
 8002538:	00017206 	br	8002b04 <cpu_exec+0x2904>
  case 0xF1: // INDY
    operand = INDY(); SBC( operand ); CPU->T = 5 + CPU->page_boundary; break;
 800253c:	8003dfc0 	call	8003dfc <INDY>
 8002540:	d0a70b05 	stb	r2,-25556(gp)
 8002544:	d0a70b03 	ldbu	r2,-25556(gp)
 8002548:	11003fcc 	andi	r4,r2,255
 800254c:	80048d40 	call	80048d4 <SBC>
 8002550:	d0e70717 	ldw	r3,-25572(gp)
 8002554:	d0a70717 	ldw	r2,-25572(gp)
 8002558:	108007c3 	ldbu	r2,31(r2)
 800255c:	10800144 	addi	r2,r2,5
 8002560:	18800485 	stb	r2,18(r3)
 8002564:	00016706 	br	8002b04 <cpu_exec+0x2904>
  case 0xE1: // XIND
    operand = XIND(); SBC( operand ); CPU->T = 6; break;
 8002568:	8003d5c0 	call	8003d5c <XIND>
 800256c:	d0a70b05 	stb	r2,-25556(gp)
 8002570:	d0a70b03 	ldbu	r2,-25556(gp)
 8002574:	11003fcc 	andi	r4,r2,255
 8002578:	80048d40 	call	80048d4 <SBC>
 800257c:	d0e70717 	ldw	r3,-25572(gp)
 8002580:	00800184 	movi	r2,6
 8002584:	18800485 	stb	r2,18(r3)
 8002588:	00015e06 	br	8002b04 <cpu_exec+0x2904>
  case 0xE5: // ZP
    operand = ZP();   SBC( operand ); CPU->T = 3; break;
 800258c:	8003f040 	call	8003f04 <ZP>
 8002590:	d0a70b05 	stb	r2,-25556(gp)
 8002594:	d0a70b03 	ldbu	r2,-25556(gp)
 8002598:	11003fcc 	andi	r4,r2,255
 800259c:	80048d40 	call	80048d4 <SBC>
 80025a0:	d0e70717 	ldw	r3,-25572(gp)
 80025a4:	008000c4 	movi	r2,3
 80025a8:	18800485 	stb	r2,18(r3)
 80025ac:	00015506 	br	8002b04 <cpu_exec+0x2904>
  case 0xF5: // ZPX
    operand = ZPX();  SBC( operand ); CPU->T = 4; break;
 80025b0:	8003f380 	call	8003f38 <ZPX>
 80025b4:	d0a70b05 	stb	r2,-25556(gp)
 80025b8:	d0a70b03 	ldbu	r2,-25556(gp)
 80025bc:	11003fcc 	andi	r4,r2,255
 80025c0:	80048d40 	call	80048d4 <SBC>
 80025c4:	d0e70717 	ldw	r3,-25572(gp)
 80025c8:	00800104 	movi	r2,4
 80025cc:	18800485 	stb	r2,18(r3)
 80025d0:	00014c06 	br	8002b04 <cpu_exec+0x2904>

    // ############################ SEC ########################
  case 0x38: // IMP
    CPU->P.C = 1;
 80025d4:	d0e70717 	ldw	r3,-25572(gp)
 80025d8:	00800044 	movi	r2,1
 80025dc:	188000c5 	stb	r2,3(r3)
    CPU->T = 2;
 80025e0:	d0e70717 	ldw	r3,-25572(gp)
 80025e4:	00800084 	movi	r2,2
 80025e8:	18800485 	stb	r2,18(r3)
    break;
 80025ec:	00014506 	br	8002b04 <cpu_exec+0x2904>

    // ############################ SED ########################
  case 0xF8: // IMP
    CPU->P.D = 1;
 80025f0:	d0e70717 	ldw	r3,-25572(gp)
 80025f4:	00800044 	movi	r2,1
 80025f8:	18800185 	stb	r2,6(r3)
    CPU->T = 2;
 80025fc:	d0e70717 	ldw	r3,-25572(gp)
 8002600:	00800084 	movi	r2,2
 8002604:	18800485 	stb	r2,18(r3)
    break;
 8002608:	00013e06 	br	8002b04 <cpu_exec+0x2904>

    // ############################ SEI #########################
  case 0x78:
    CPU->P.I = 1;
 800260c:	d0e70717 	ldw	r3,-25572(gp)
 8002610:	00800044 	movi	r2,1
 8002614:	18800145 	stb	r2,5(r3)
    CPU->T = 2;
 8002618:	d0e70717 	ldw	r3,-25572(gp)
 800261c:	00800084 	movi	r2,2
 8002620:	18800485 	stb	r2,18(r3)
    break;
 8002624:	00013706 	br	8002b04 <cpu_exec+0x2904>

    // ############################## STA ########################
  case 0x8D: // ABS
	cpu_mem_write( CPU->A, ABSw() );   CPU->T = 4; break;
 8002628:	d0a70717 	ldw	r2,-25572(gp)
 800262c:	10800283 	ldbu	r2,10(r2)
 8002630:	14003fcc 	andi	r16,r2,255
 8002634:	8003f840 	call	8003f84 <ABSw>
 8002638:	117fffcc 	andi	r5,r2,65535
 800263c:	8009883a 	mov	r4,r16
 8002640:	80038c00 	call	80038c0 <cpu_mem_write>
 8002644:	d0e70717 	ldw	r3,-25572(gp)
 8002648:	00800104 	movi	r2,4
 800264c:	18800485 	stb	r2,18(r3)
 8002650:	00012c06 	br	8002b04 <cpu_exec+0x2904>
  case 0x9D: // ABSX
	cpu_mem_write( CPU->A, ABSXw());   CPU->T = 5; break;
 8002654:	d0a70717 	ldw	r2,-25572(gp)
 8002658:	10800283 	ldbu	r2,10(r2)
 800265c:	14003fcc 	andi	r16,r2,255
 8002660:	8003fd40 	call	8003fd4 <ABSXw>
 8002664:	117fffcc 	andi	r5,r2,65535
 8002668:	8009883a 	mov	r4,r16
 800266c:	80038c00 	call	80038c0 <cpu_mem_write>
 8002670:	d0e70717 	ldw	r3,-25572(gp)
 8002674:	00800144 	movi	r2,5
 8002678:	18800485 	stb	r2,18(r3)
 800267c:	00012106 	br	8002b04 <cpu_exec+0x2904>
  case 0x99: // ABSY
	cpu_mem_write( CPU->A, ABSYw() );  CPU->T = 5; break;
 8002680:	d0a70717 	ldw	r2,-25572(gp)
 8002684:	10800283 	ldbu	r2,10(r2)
 8002688:	14003fcc 	andi	r16,r2,255
 800268c:	800403c0 	call	800403c <ABSYw>
 8002690:	117fffcc 	andi	r5,r2,65535
 8002694:	8009883a 	mov	r4,r16
 8002698:	80038c00 	call	80038c0 <cpu_mem_write>
 800269c:	d0e70717 	ldw	r3,-25572(gp)
 80026a0:	00800144 	movi	r2,5
 80026a4:	18800485 	stb	r2,18(r3)
 80026a8:	00011606 	br	8002b04 <cpu_exec+0x2904>
  case 0x91: // INDY
    cpu_mem_write( CPU->A,  INDYw() ); CPU->T = 6; break;
 80026ac:	d0a70717 	ldw	r2,-25572(gp)
 80026b0:	10800283 	ldbu	r2,10(r2)
 80026b4:	14003fcc 	andi	r16,r2,255
 80026b8:	800413c0 	call	800413c <INDYw>
 80026bc:	117fffcc 	andi	r5,r2,65535
 80026c0:	8009883a 	mov	r4,r16
 80026c4:	80038c00 	call	80038c0 <cpu_mem_write>
 80026c8:	d0e70717 	ldw	r3,-25572(gp)
 80026cc:	00800184 	movi	r2,6
 80026d0:	18800485 	stb	r2,18(r3)
 80026d4:	00010b06 	br	8002b04 <cpu_exec+0x2904>
  case 0x81: // XIND
	cpu_mem_write( CPU->A, XINDw() );  CPU->T = 6; break;
 80026d8:	d0a70717 	ldw	r2,-25572(gp)
 80026dc:	10800283 	ldbu	r2,10(r2)
 80026e0:	14003fcc 	andi	r16,r2,255
 80026e4:	80040a40 	call	80040a4 <XINDw>
 80026e8:	117fffcc 	andi	r5,r2,65535
 80026ec:	8009883a 	mov	r4,r16
 80026f0:	80038c00 	call	80038c0 <cpu_mem_write>
 80026f4:	d0e70717 	ldw	r3,-25572(gp)
 80026f8:	00800184 	movi	r2,6
 80026fc:	18800485 	stb	r2,18(r3)
 8002700:	00010006 	br	8002b04 <cpu_exec+0x2904>
  case 0x85: // ZP
    CPU->MEM[ cpu_read() ] = CPU->A;   CPU->T = 3; break;
 8002704:	d0a70717 	ldw	r2,-25572(gp)
 8002708:	14000517 	ldw	r16,20(r2)
 800270c:	800378c0 	call	800378c <cpu_read>
 8002710:	10803fcc 	andi	r2,r2,255
 8002714:	8087883a 	add	r3,r16,r2
 8002718:	d0a70717 	ldw	r2,-25572(gp)
 800271c:	10800283 	ldbu	r2,10(r2)
 8002720:	18800005 	stb	r2,0(r3)
 8002724:	d0e70717 	ldw	r3,-25572(gp)
 8002728:	008000c4 	movi	r2,3
 800272c:	18800485 	stb	r2,18(r3)
 8002730:	0000f406 	br	8002b04 <cpu_exec+0x2904>
  case 0x95: // ZPX
    CPU->MEM[ ( cpu_read() + CPU->X) & 0xFF ] = CPU->A; CPU->T = 4; break;
 8002734:	d0a70717 	ldw	r2,-25572(gp)
 8002738:	14000517 	ldw	r16,20(r2)
 800273c:	800378c0 	call	800378c <cpu_read>
 8002740:	10c03fcc 	andi	r3,r2,255
 8002744:	d0a70717 	ldw	r2,-25572(gp)
 8002748:	108002c3 	ldbu	r2,11(r2)
 800274c:	10803fcc 	andi	r2,r2,255
 8002750:	1885883a 	add	r2,r3,r2
 8002754:	10803fcc 	andi	r2,r2,255
 8002758:	8087883a 	add	r3,r16,r2
 800275c:	d0a70717 	ldw	r2,-25572(gp)
 8002760:	10800283 	ldbu	r2,10(r2)
 8002764:	18800005 	stb	r2,0(r3)
 8002768:	d0e70717 	ldw	r3,-25572(gp)
 800276c:	00800104 	movi	r2,4
 8002770:	18800485 	stb	r2,18(r3)
 8002774:	0000e306 	br	8002b04 <cpu_exec+0x2904>

    // ############################### STX ###########################
  case 0x8E: // ABS
    cpu_mem_write( CPU->X, ABSw() ); CPU->T = 4; break;
 8002778:	d0a70717 	ldw	r2,-25572(gp)
 800277c:	108002c3 	ldbu	r2,11(r2)
 8002780:	14003fcc 	andi	r16,r2,255
 8002784:	8003f840 	call	8003f84 <ABSw>
 8002788:	117fffcc 	andi	r5,r2,65535
 800278c:	8009883a 	mov	r4,r16
 8002790:	80038c00 	call	80038c0 <cpu_mem_write>
 8002794:	d0e70717 	ldw	r3,-25572(gp)
 8002798:	00800104 	movi	r2,4
 800279c:	18800485 	stb	r2,18(r3)
 80027a0:	0000d806 	br	8002b04 <cpu_exec+0x2904>
  case 0x86: // ZP
    CPU->MEM[ cpu_read() ] = CPU->X; CPU->T = 3; break;
 80027a4:	d0a70717 	ldw	r2,-25572(gp)
 80027a8:	14000517 	ldw	r16,20(r2)
 80027ac:	800378c0 	call	800378c <cpu_read>
 80027b0:	10803fcc 	andi	r2,r2,255
 80027b4:	8087883a 	add	r3,r16,r2
 80027b8:	d0a70717 	ldw	r2,-25572(gp)
 80027bc:	108002c3 	ldbu	r2,11(r2)
 80027c0:	18800005 	stb	r2,0(r3)
 80027c4:	d0e70717 	ldw	r3,-25572(gp)
 80027c8:	008000c4 	movi	r2,3
 80027cc:	18800485 	stb	r2,18(r3)
 80027d0:	0000cc06 	br	8002b04 <cpu_exec+0x2904>
  case 0x96: // ZPY
    CPU->MEM[ (cpu_read() + CPU->Y) & 0xFF ] = CPU->X; CPU->T = 4; break;
 80027d4:	d0a70717 	ldw	r2,-25572(gp)
 80027d8:	14000517 	ldw	r16,20(r2)
 80027dc:	800378c0 	call	800378c <cpu_read>
 80027e0:	10c03fcc 	andi	r3,r2,255
 80027e4:	d0a70717 	ldw	r2,-25572(gp)
 80027e8:	10800303 	ldbu	r2,12(r2)
 80027ec:	10803fcc 	andi	r2,r2,255
 80027f0:	1885883a 	add	r2,r3,r2
 80027f4:	10803fcc 	andi	r2,r2,255
 80027f8:	8087883a 	add	r3,r16,r2
 80027fc:	d0a70717 	ldw	r2,-25572(gp)
 8002800:	108002c3 	ldbu	r2,11(r2)
 8002804:	18800005 	stb	r2,0(r3)
 8002808:	d0e70717 	ldw	r3,-25572(gp)
 800280c:	00800104 	movi	r2,4
 8002810:	18800485 	stb	r2,18(r3)
 8002814:	0000bb06 	br	8002b04 <cpu_exec+0x2904>

    // ############################ STY ################################
  case 0x8C: // ABS
	cpu_mem_write( CPU->Y, ABSw() ); CPU->T = 4; break;
 8002818:	d0a70717 	ldw	r2,-25572(gp)
 800281c:	10800303 	ldbu	r2,12(r2)
 8002820:	14003fcc 	andi	r16,r2,255
 8002824:	8003f840 	call	8003f84 <ABSw>
 8002828:	117fffcc 	andi	r5,r2,65535
 800282c:	8009883a 	mov	r4,r16
 8002830:	80038c00 	call	80038c0 <cpu_mem_write>
 8002834:	d0e70717 	ldw	r3,-25572(gp)
 8002838:	00800104 	movi	r2,4
 800283c:	18800485 	stb	r2,18(r3)
 8002840:	0000b006 	br	8002b04 <cpu_exec+0x2904>
  case 0x84: // ZP
    CPU->MEM[ cpu_read() ] = CPU->Y; CPU->T = 3; break;
 8002844:	d0a70717 	ldw	r2,-25572(gp)
 8002848:	14000517 	ldw	r16,20(r2)
 800284c:	800378c0 	call	800378c <cpu_read>
 8002850:	10803fcc 	andi	r2,r2,255
 8002854:	8087883a 	add	r3,r16,r2
 8002858:	d0a70717 	ldw	r2,-25572(gp)
 800285c:	10800303 	ldbu	r2,12(r2)
 8002860:	18800005 	stb	r2,0(r3)
 8002864:	d0e70717 	ldw	r3,-25572(gp)
 8002868:	008000c4 	movi	r2,3
 800286c:	18800485 	stb	r2,18(r3)
 8002870:	0000a406 	br	8002b04 <cpu_exec+0x2904>
  case 0x94: // ZPX
    CPU->MEM[ (cpu_read() + CPU->X) & 0xFF ] = CPU->Y; CPU->T = 4; break;
 8002874:	d0a70717 	ldw	r2,-25572(gp)
 8002878:	14000517 	ldw	r16,20(r2)
 800287c:	800378c0 	call	800378c <cpu_read>
 8002880:	10c03fcc 	andi	r3,r2,255
 8002884:	d0a70717 	ldw	r2,-25572(gp)
 8002888:	108002c3 	ldbu	r2,11(r2)
 800288c:	10803fcc 	andi	r2,r2,255
 8002890:	1885883a 	add	r2,r3,r2
 8002894:	10803fcc 	andi	r2,r2,255
 8002898:	8087883a 	add	r3,r16,r2
 800289c:	d0a70717 	ldw	r2,-25572(gp)
 80028a0:	10800303 	ldbu	r2,12(r2)
 80028a4:	18800005 	stb	r2,0(r3)
 80028a8:	d0e70717 	ldw	r3,-25572(gp)
 80028ac:	00800104 	movi	r2,4
 80028b0:	18800485 	stb	r2,18(r3)
 80028b4:	00009306 	br	8002b04 <cpu_exec+0x2904>

    // ########################## TAX #################################
  case 0xAA: // IMP
    CPU->X = CPU->A;
 80028b8:	d0e70717 	ldw	r3,-25572(gp)
 80028bc:	d0a70717 	ldw	r2,-25572(gp)
 80028c0:	10800283 	ldbu	r2,10(r2)
 80028c4:	188002c5 	stb	r2,11(r3)
    CPU->P.N = ((CPU->X & 0x80) > 0) ? 1 : 0;
 80028c8:	d0e70717 	ldw	r3,-25572(gp)
 80028cc:	d0a70717 	ldw	r2,-25572(gp)
 80028d0:	108002c3 	ldbu	r2,11(r2)
 80028d4:	10803fcc 	andi	r2,r2,255
 80028d8:	1080200c 	andi	r2,r2,128
 80028dc:	10800048 	cmpgei	r2,r2,1
 80028e0:	18800245 	stb	r2,9(r3)
    CPU->P.Z = (CPU->X == 0) ? 1 : 0;
 80028e4:	d0e70717 	ldw	r3,-25572(gp)
 80028e8:	d0a70717 	ldw	r2,-25572(gp)
 80028ec:	108002c3 	ldbu	r2,11(r2)
 80028f0:	10803fcc 	andi	r2,r2,255
 80028f4:	1005003a 	cmpeq	r2,r2,zero
 80028f8:	18800105 	stb	r2,4(r3)
    CPU->T = 2;
 80028fc:	d0e70717 	ldw	r3,-25572(gp)
 8002900:	00800084 	movi	r2,2
 8002904:	18800485 	stb	r2,18(r3)
    break;
 8002908:	00007e06 	br	8002b04 <cpu_exec+0x2904>

    // ########################### TAY ################################
  case 0xA8: // IMP
    CPU->Y = CPU->A;
 800290c:	d0e70717 	ldw	r3,-25572(gp)
 8002910:	d0a70717 	ldw	r2,-25572(gp)
 8002914:	10800283 	ldbu	r2,10(r2)
 8002918:	18800305 	stb	r2,12(r3)
    CPU->P.N = ((CPU->Y & 0x80) > 0) ? 1 : 0;
 800291c:	d0e70717 	ldw	r3,-25572(gp)
 8002920:	d0a70717 	ldw	r2,-25572(gp)
 8002924:	10800303 	ldbu	r2,12(r2)
 8002928:	10803fcc 	andi	r2,r2,255
 800292c:	1080200c 	andi	r2,r2,128
 8002930:	10800048 	cmpgei	r2,r2,1
 8002934:	18800245 	stb	r2,9(r3)
    CPU->P.Z = (CPU->Y == 0) ? 1 : 0;
 8002938:	d0e70717 	ldw	r3,-25572(gp)
 800293c:	d0a70717 	ldw	r2,-25572(gp)
 8002940:	10800303 	ldbu	r2,12(r2)
 8002944:	10803fcc 	andi	r2,r2,255
 8002948:	1005003a 	cmpeq	r2,r2,zero
 800294c:	18800105 	stb	r2,4(r3)
    CPU->T = 2;
 8002950:	d0e70717 	ldw	r3,-25572(gp)
 8002954:	00800084 	movi	r2,2
 8002958:	18800485 	stb	r2,18(r3)
    break;
 800295c:	00006906 	br	8002b04 <cpu_exec+0x2904>


    // ############################# TSX ##############################
  case 0xBA:
    CPU->X = CPU->S;
 8002960:	d0e70717 	ldw	r3,-25572(gp)
 8002964:	d0a70717 	ldw	r2,-25572(gp)
 8002968:	10800083 	ldbu	r2,2(r2)
 800296c:	188002c5 	stb	r2,11(r3)
    CPU->P.N = ((CPU->X & 0x80) > 0) ? 1 : 0;
 8002970:	d0e70717 	ldw	r3,-25572(gp)
 8002974:	d0a70717 	ldw	r2,-25572(gp)
 8002978:	108002c3 	ldbu	r2,11(r2)
 800297c:	10803fcc 	andi	r2,r2,255
 8002980:	1080200c 	andi	r2,r2,128
 8002984:	10800048 	cmpgei	r2,r2,1
 8002988:	18800245 	stb	r2,9(r3)
    CPU->P.Z = (CPU->X == 0) ? 1 : 0;
 800298c:	d0e70717 	ldw	r3,-25572(gp)
 8002990:	d0a70717 	ldw	r2,-25572(gp)
 8002994:	108002c3 	ldbu	r2,11(r2)
 8002998:	10803fcc 	andi	r2,r2,255
 800299c:	1005003a 	cmpeq	r2,r2,zero
 80029a0:	18800105 	stb	r2,4(r3)
    CPU->T = 2;
 80029a4:	d0e70717 	ldw	r3,-25572(gp)
 80029a8:	00800084 	movi	r2,2
 80029ac:	18800485 	stb	r2,18(r3)
    break;
 80029b0:	00005406 	br	8002b04 <cpu_exec+0x2904>

    // ########################## TXA ################################
  case 0x8A:
    CPU->A = CPU->X;
 80029b4:	d0e70717 	ldw	r3,-25572(gp)
 80029b8:	d0a70717 	ldw	r2,-25572(gp)
 80029bc:	108002c3 	ldbu	r2,11(r2)
 80029c0:	18800285 	stb	r2,10(r3)
    CPU->P.N = ((CPU->A & 0x80) > 0) ? 1 : 0;
 80029c4:	d0e70717 	ldw	r3,-25572(gp)
 80029c8:	d0a70717 	ldw	r2,-25572(gp)
 80029cc:	10800283 	ldbu	r2,10(r2)
 80029d0:	10803fcc 	andi	r2,r2,255
 80029d4:	1080200c 	andi	r2,r2,128
 80029d8:	10800048 	cmpgei	r2,r2,1
 80029dc:	18800245 	stb	r2,9(r3)
    CPU->P.Z = (CPU->A == 0) ? 1 : 0;
 80029e0:	d0e70717 	ldw	r3,-25572(gp)
 80029e4:	d0a70717 	ldw	r2,-25572(gp)
 80029e8:	10800283 	ldbu	r2,10(r2)
 80029ec:	10803fcc 	andi	r2,r2,255
 80029f0:	1005003a 	cmpeq	r2,r2,zero
 80029f4:	18800105 	stb	r2,4(r3)
    CPU->T = 2;
 80029f8:	d0e70717 	ldw	r3,-25572(gp)
 80029fc:	00800084 	movi	r2,2
 8002a00:	18800485 	stb	r2,18(r3)
    break;
 8002a04:	00003f06 	br	8002b04 <cpu_exec+0x2904>

    // ############################# TXS ################################
  case 0x9A:
    CPU->S = CPU->X;
 8002a08:	d0e70717 	ldw	r3,-25572(gp)
 8002a0c:	d0a70717 	ldw	r2,-25572(gp)
 8002a10:	108002c3 	ldbu	r2,11(r2)
 8002a14:	18800085 	stb	r2,2(r3)
    CPU->T = 2;
 8002a18:	d0e70717 	ldw	r3,-25572(gp)
 8002a1c:	00800084 	movi	r2,2
 8002a20:	18800485 	stb	r2,18(r3)
    break;
 8002a24:	00003706 	br	8002b04 <cpu_exec+0x2904>

    // ############################### TYA ##############################
  case 0x98:
    /* Transfer Y register to Accumulator. Fixed opcode bug. */
    CPU->A = CPU->Y;
 8002a28:	d0e70717 	ldw	r3,-25572(gp)
 8002a2c:	d0a70717 	ldw	r2,-25572(gp)
 8002a30:	10800303 	ldbu	r2,12(r2)
 8002a34:	18800285 	stb	r2,10(r3)
    CPU->P.N = ((CPU->A & 0x80) > 0) ? 1 : 0;
 8002a38:	d0e70717 	ldw	r3,-25572(gp)
 8002a3c:	d0a70717 	ldw	r2,-25572(gp)
 8002a40:	10800283 	ldbu	r2,10(r2)
 8002a44:	10803fcc 	andi	r2,r2,255
 8002a48:	1080200c 	andi	r2,r2,128
 8002a4c:	10800048 	cmpgei	r2,r2,1
 8002a50:	18800245 	stb	r2,9(r3)
    CPU->P.Z = (CPU->A == 0) ? 1 : 0;
 8002a54:	d0e70717 	ldw	r3,-25572(gp)
 8002a58:	d0a70717 	ldw	r2,-25572(gp)
 8002a5c:	10800283 	ldbu	r2,10(r2)
 8002a60:	10803fcc 	andi	r2,r2,255
 8002a64:	1005003a 	cmpeq	r2,r2,zero
 8002a68:	18800105 	stb	r2,4(r3)
    CPU->T = 2;
 8002a6c:	d0e70717 	ldw	r3,-25572(gp)
 8002a70:	00800084 	movi	r2,2
 8002a74:	18800485 	stb	r2,18(r3)
    break;
 8002a78:	00002206 	br	8002b04 <cpu_exec+0x2904>


  default:
    printf("Invalid opcode!\n");
 8002a7c:	010200b4 	movhi	r4,2050
 8002a80:	21230304 	addi	r4,r4,-29684
 8002a84:	80074dc0 	call	80074dc <puts>
    CPU->exit = 1;
 8002a88:	d0e70717 	ldw	r3,-25572(gp)
 8002a8c:	00800044 	movi	r2,1
 8002a90:	18800805 	stb	r2,32(r3)
    cpu_status();
 8002a94:	80049a80 	call	80049a8 <cpu_status>
    ppu_status();
 8002a98:	80050400 	call	8005040 <ppu_status>
    printf("Disassembly: \n");
 8002a9c:	010200b4 	movhi	r4,2050
 8002aa0:	21230704 	addi	r4,r4,-29668
 8002aa4:	80074dc0 	call	80074dc <puts>
    int i = 0;
 8002aa8:	e03ffe15 	stw	zero,-8(fp)
    for( i = 0; i < 30; ++i)
 8002aac:	e03ffe15 	stw	zero,-8(fp)
 8002ab0:	00001106 	br	8002af8 <cpu_exec+0x28f8>
    {
    	printf("%x ", CPU->MEM[CPU->PC+i-5]);
 8002ab4:	d0a70717 	ldw	r2,-25572(gp)
 8002ab8:	11000517 	ldw	r4,20(r2)
 8002abc:	d0a70717 	ldw	r2,-25572(gp)
 8002ac0:	1080000b 	ldhu	r2,0(r2)
 8002ac4:	10ffffcc 	andi	r3,r2,65535
 8002ac8:	e0bffe17 	ldw	r2,-8(fp)
 8002acc:	1885883a 	add	r2,r3,r2
 8002ad0:	2085883a 	add	r2,r4,r2
 8002ad4:	10bffec4 	addi	r2,r2,-5
 8002ad8:	10800003 	ldbu	r2,0(r2)
 8002adc:	11403fcc 	andi	r5,r2,255
 8002ae0:	010200b4 	movhi	r4,2050
 8002ae4:	21230b04 	addi	r4,r4,-29652
 8002ae8:	80073a00 	call	80073a0 <printf>
    CPU->exit = 1;
    cpu_status();
    ppu_status();
    printf("Disassembly: \n");
    int i = 0;
    for( i = 0; i < 30; ++i)
 8002aec:	e0bffe17 	ldw	r2,-8(fp)
 8002af0:	10800044 	addi	r2,r2,1
 8002af4:	e0bffe15 	stw	r2,-8(fp)
 8002af8:	e0bffe17 	ldw	r2,-8(fp)
 8002afc:	10800790 	cmplti	r2,r2,30
 8002b00:	103fec1e 	bne	r2,zero,8002ab4 <cpu_exec+0x28b4>
    }
    break;
  }

  return;
}
 8002b04:	e037883a 	mov	sp,fp
 8002b08:	dfc00317 	ldw	ra,12(sp)
 8002b0c:	df000217 	ldw	fp,8(sp)
 8002b10:	dc400117 	ldw	r17,4(sp)
 8002b14:	dc000017 	ldw	r16,0(sp)
 8002b18:	dec00404 	addi	sp,sp,16
 8002b1c:	f800283a 	ret

08002b20 <print_opcode>:


void print_opcode()
{
 8002b20:	defffd04 	addi	sp,sp,-12
 8002b24:	dfc00215 	stw	ra,8(sp)
 8002b28:	df000115 	stw	fp,4(sp)
 8002b2c:	df000104 	addi	fp,sp,4
	 switch(CPU->IR)
 8002b30:	d0a70717 	ldw	r2,-25572(gp)
 8002b34:	10800443 	ldbu	r2,17(r2)
 8002b38:	10803fcc 	andi	r2,r2,255
 8002b3c:	e0bfff15 	stw	r2,-4(fp)
 8002b40:	e0ffff17 	ldw	r3,-4(fp)
 8002b44:	18803fe8 	cmpgeui	r2,r3,255
 8002b48:	1001e81e 	bne	r2,zero,80032ec <print_opcode+0x7cc>
 8002b4c:	e13fff17 	ldw	r4,-4(fp)
 8002b50:	e13fff17 	ldw	r4,-4(fp)
 8002b54:	2105883a 	add	r2,r4,r4
 8002b58:	1087883a 	add	r3,r2,r2
 8002b5c:	00820034 	movhi	r2,2048
 8002b60:	108adc04 	addi	r2,r2,11120
 8002b64:	1885883a 	add	r2,r3,r2
 8002b68:	10800017 	ldw	r2,0(r2)
 8002b6c:	1000683a 	jmp	r2
 8002b70:	08002ffc 	xorhi	zero,at,191
 8002b74:	0800318c 	andi	zero,at,198
 8002b78:	080032ec 	andhi	zero,at,203
 8002b7c:	080032ec 	andhi	zero,at,203
 8002b80:	080032ec 	andhi	zero,at,203
 8002b84:	0800318c 	andi	zero,at,198
 8002b88:	08002f8c 	andi	zero,at,190
 8002b8c:	080032ec 	andhi	zero,at,203
 8002b90:	080031ac 	andhi	zero,at,198
 8002b94:	0800318c 	andi	zero,at,198
 8002b98:	08002f8c 	andi	zero,at,190
 8002b9c:	080032ec 	andhi	zero,at,203
 8002ba0:	080032ec 	andhi	zero,at,203
 8002ba4:	0800318c 	andi	zero,at,198
 8002ba8:	08002f8c 	andi	zero,at,190
 8002bac:	080032ec 	andhi	zero,at,203
 8002bb0:	08002fec 	andhi	zero,at,191
 8002bb4:	0800318c 	andi	zero,at,198
 8002bb8:	080032ec 	andhi	zero,at,203
 8002bbc:	080032ec 	andhi	zero,at,203
 8002bc0:	080032ec 	andhi	zero,at,203
 8002bc4:	0800318c 	andi	zero,at,198
 8002bc8:	08002f8c 	andi	zero,at,190
 8002bcc:	080032ec 	andhi	zero,at,203
 8002bd0:	0800302c 	andhi	zero,at,192
 8002bd4:	0800318c 	andi	zero,at,198
 8002bd8:	080032ec 	andhi	zero,at,203
 8002bdc:	080032ec 	andhi	zero,at,203
 8002be0:	080032ec 	andhi	zero,at,203
 8002be4:	0800318c 	andi	zero,at,198
 8002be8:	08002f8c 	andi	zero,at,190
 8002bec:	080032ec 	andhi	zero,at,203
 8002bf0:	0800312c 	andhi	zero,at,196
 8002bf4:	08002f7c 	xorhi	zero,at,189
 8002bf8:	080032ec 	andhi	zero,at,203
 8002bfc:	080032ec 	andhi	zero,at,203
 8002c00:	0800306c 	andhi	zero,at,193
 8002c04:	08002f7c 	xorhi	zero,at,189
 8002c08:	080031dc 	xori	zero,at,199
 8002c0c:	080032ec 	andhi	zero,at,203
 8002c10:	080031cc 	andi	zero,at,199
 8002c14:	08002f7c 	xorhi	zero,at,189
 8002c18:	080031dc 	xori	zero,at,199
 8002c1c:	080032ec 	andhi	zero,at,203
 8002c20:	0800306c 	andhi	zero,at,193
 8002c24:	08002f7c 	xorhi	zero,at,189
 8002c28:	080031dc 	xori	zero,at,199
 8002c2c:	080032ec 	andhi	zero,at,203
 8002c30:	08002fcc 	andi	zero,at,191
 8002c34:	08002f7c 	xorhi	zero,at,189
 8002c38:	080032ec 	andhi	zero,at,203
 8002c3c:	080032ec 	andhi	zero,at,203
 8002c40:	080032ec 	andhi	zero,at,203
 8002c44:	08002f7c 	xorhi	zero,at,189
 8002c48:	080031dc 	xori	zero,at,199
 8002c4c:	080032ec 	andhi	zero,at,203
 8002c50:	0800322c 	andhi	zero,at,200
 8002c54:	08002f7c 	xorhi	zero,at,189
 8002c58:	080032ec 	andhi	zero,at,203
 8002c5c:	080032ec 	andhi	zero,at,203
 8002c60:	080032ec 	andhi	zero,at,203
 8002c64:	08002f7c 	xorhi	zero,at,189
 8002c68:	080031dc 	xori	zero,at,199
 8002c6c:	080032ec 	andhi	zero,at,203
 8002c70:	080031fc 	xorhi	zero,at,199
 8002c74:	080030dc 	xori	zero,at,195
 8002c78:	080032ec 	andhi	zero,at,203
 8002c7c:	080032ec 	andhi	zero,at,203
 8002c80:	080032ec 	andhi	zero,at,203
 8002c84:	080030dc 	xori	zero,at,195
 8002c88:	0800316c 	andhi	zero,at,197
 8002c8c:	080032ec 	andhi	zero,at,203
 8002c90:	0800319c 	xori	zero,at,198
 8002c94:	080030dc 	xori	zero,at,195
 8002c98:	0800316c 	andhi	zero,at,197
 8002c9c:	080032ec 	andhi	zero,at,203
 8002ca0:	0800311c 	xori	zero,at,196
 8002ca4:	080030dc 	xori	zero,at,195
 8002ca8:	0800316c 	andhi	zero,at,197
 8002cac:	080032ec 	andhi	zero,at,203
 8002cb0:	0800300c 	andi	zero,at,192
 8002cb4:	080030dc 	xori	zero,at,195
 8002cb8:	080032ec 	andhi	zero,at,203
 8002cbc:	080032ec 	andhi	zero,at,203
 8002cc0:	080032ec 	andhi	zero,at,203
 8002cc4:	080030dc 	xori	zero,at,195
 8002cc8:	0800316c 	andhi	zero,at,197
 8002ccc:	080032ec 	andhi	zero,at,203
 8002cd0:	0800304c 	andi	zero,at,193
 8002cd4:	080030dc 	xori	zero,at,195
 8002cd8:	080032ec 	andhi	zero,at,203
 8002cdc:	080032ec 	andhi	zero,at,203
 8002ce0:	080032ec 	andhi	zero,at,203
 8002ce4:	080030dc 	xori	zero,at,195
 8002ce8:	0800316c 	andhi	zero,at,197
 8002cec:	080032ec 	andhi	zero,at,203
 8002cf0:	0800320c 	andi	zero,at,200
 8002cf4:	08002f6c 	andhi	zero,at,189
 8002cf8:	080032ec 	andhi	zero,at,203
 8002cfc:	080032ec 	andhi	zero,at,203
 8002d00:	080032ec 	andhi	zero,at,203
 8002d04:	08002f6c 	andhi	zero,at,189
 8002d08:	080031ec 	andhi	zero,at,199
 8002d0c:	080032ec 	andhi	zero,at,203
 8002d10:	080031bc 	xorhi	zero,at,198
 8002d14:	08002f6c 	andhi	zero,at,189
 8002d18:	080031ec 	andhi	zero,at,199
 8002d1c:	080032ec 	andhi	zero,at,203
 8002d20:	0800311c 	xori	zero,at,196
 8002d24:	08002f6c 	andhi	zero,at,189
 8002d28:	080031ec 	andhi	zero,at,199
 8002d2c:	080032ec 	andhi	zero,at,203
 8002d30:	0800301c 	xori	zero,at,192
 8002d34:	08002f6c 	andhi	zero,at,189
 8002d38:	080032ec 	andhi	zero,at,203
 8002d3c:	080032ec 	andhi	zero,at,203
 8002d40:	080032ec 	andhi	zero,at,203
 8002d44:	08002f6c 	andhi	zero,at,189
 8002d48:	080031ec 	andhi	zero,at,199
 8002d4c:	080032ec 	andhi	zero,at,203
 8002d50:	0800324c 	andi	zero,at,201
 8002d54:	08002f6c 	andhi	zero,at,189
 8002d58:	080032ec 	andhi	zero,at,203
 8002d5c:	080032ec 	andhi	zero,at,203
 8002d60:	080032ec 	andhi	zero,at,203
 8002d64:	08002f6c 	andhi	zero,at,189
 8002d68:	080031ec 	andhi	zero,at,199
 8002d6c:	080032ec 	andhi	zero,at,203
 8002d70:	080032ec 	andhi	zero,at,203
 8002d74:	0800325c 	xori	zero,at,201
 8002d78:	080032ec 	andhi	zero,at,203
 8002d7c:	080032ec 	andhi	zero,at,203
 8002d80:	0800327c 	xorhi	zero,at,201
 8002d84:	0800325c 	xori	zero,at,201
 8002d88:	0800326c 	andhi	zero,at,201
 8002d8c:	080032ec 	andhi	zero,at,203
 8002d90:	080030cc 	andi	zero,at,195
 8002d94:	080032ec 	andhi	zero,at,203
 8002d98:	080032bc 	xorhi	zero,at,202
 8002d9c:	080032ec 	andhi	zero,at,203
 8002da0:	0800327c 	xorhi	zero,at,201
 8002da4:	0800325c 	xori	zero,at,201
 8002da8:	0800326c 	andhi	zero,at,201
 8002dac:	080032ec 	andhi	zero,at,203
 8002db0:	08002f9c 	xori	zero,at,190
 8002db4:	0800325c 	xori	zero,at,201
 8002db8:	080032ec 	andhi	zero,at,203
 8002dbc:	080032ec 	andhi	zero,at,203
 8002dc0:	0800327c 	xorhi	zero,at,201
 8002dc4:	0800325c 	xori	zero,at,201
 8002dc8:	0800326c 	andhi	zero,at,201
 8002dcc:	080032ec 	andhi	zero,at,203
 8002dd0:	080032dc 	xori	zero,at,203
 8002dd4:	0800325c 	xori	zero,at,201
 8002dd8:	080032cc 	andi	zero,at,203
 8002ddc:	080032ec 	andhi	zero,at,203
 8002de0:	080032ec 	andhi	zero,at,203
 8002de4:	0800325c 	xori	zero,at,201
 8002de8:	080032ec 	andhi	zero,at,203
 8002dec:	080032ec 	andhi	zero,at,203
 8002df0:	0800315c 	xori	zero,at,197
 8002df4:	0800313c 	xorhi	zero,at,196
 8002df8:	0800314c 	andi	zero,at,197
 8002dfc:	080032ec 	andhi	zero,at,203
 8002e00:	0800315c 	xori	zero,at,197
 8002e04:	0800313c 	xorhi	zero,at,196
 8002e08:	0800314c 	andi	zero,at,197
 8002e0c:	080032ec 	andhi	zero,at,203
 8002e10:	0800329c 	xori	zero,at,202
 8002e14:	0800313c 	xorhi	zero,at,196
 8002e18:	0800328c 	andi	zero,at,202
 8002e1c:	080032ec 	andhi	zero,at,203
 8002e20:	0800315c 	xori	zero,at,197
 8002e24:	0800313c 	xorhi	zero,at,196
 8002e28:	0800314c 	andi	zero,at,197
 8002e2c:	080032ec 	andhi	zero,at,203
 8002e30:	08002fac 	andhi	zero,at,190
 8002e34:	0800313c 	xorhi	zero,at,196
 8002e38:	080032ec 	andhi	zero,at,203
 8002e3c:	080032ec 	andhi	zero,at,203
 8002e40:	0800315c 	xori	zero,at,197
 8002e44:	0800313c 	xorhi	zero,at,196
 8002e48:	0800314c 	andi	zero,at,197
 8002e4c:	080032ec 	andhi	zero,at,203
 8002e50:	0800305c 	xori	zero,at,193
 8002e54:	0800313c 	xorhi	zero,at,196
 8002e58:	080032ac 	andhi	zero,at,202
 8002e5c:	080032ec 	andhi	zero,at,203
 8002e60:	0800315c 	xori	zero,at,197
 8002e64:	0800313c 	xorhi	zero,at,196
 8002e68:	0800314c 	andi	zero,at,197
 8002e6c:	080032ec 	andhi	zero,at,203
 8002e70:	0800309c 	xori	zero,at,194
 8002e74:	0800307c 	xorhi	zero,at,193
 8002e78:	080032ec 	andhi	zero,at,203
 8002e7c:	080032ec 	andhi	zero,at,203
 8002e80:	0800309c 	xori	zero,at,194
 8002e84:	0800307c 	xorhi	zero,at,193
 8002e88:	080030ac 	andhi	zero,at,194
 8002e8c:	080032ec 	andhi	zero,at,203
 8002e90:	0800310c 	andi	zero,at,196
 8002e94:	0800307c 	xorhi	zero,at,193
 8002e98:	080030bc 	xorhi	zero,at,194
 8002e9c:	080032ec 	andhi	zero,at,203
 8002ea0:	0800309c 	xori	zero,at,194
 8002ea4:	0800307c 	xorhi	zero,at,193
 8002ea8:	080030ac 	andhi	zero,at,194
 8002eac:	080032ec 	andhi	zero,at,203
 8002eb0:	08002fdc 	xori	zero,at,191
 8002eb4:	0800307c 	xorhi	zero,at,193
 8002eb8:	080032ec 	andhi	zero,at,203
 8002ebc:	080032ec 	andhi	zero,at,203
 8002ec0:	080032ec 	andhi	zero,at,203
 8002ec4:	0800307c 	xorhi	zero,at,193
 8002ec8:	080030ac 	andhi	zero,at,194
 8002ecc:	080032ec 	andhi	zero,at,203
 8002ed0:	0800303c 	xorhi	zero,at,192
 8002ed4:	0800307c 	xorhi	zero,at,193
 8002ed8:	080032ec 	andhi	zero,at,203
 8002edc:	080032ec 	andhi	zero,at,203
 8002ee0:	080032ec 	andhi	zero,at,203
 8002ee4:	0800307c 	xorhi	zero,at,193
 8002ee8:	080030ac 	andhi	zero,at,194
 8002eec:	080032ec 	andhi	zero,at,203
 8002ef0:	0800308c 	andi	zero,at,194
 8002ef4:	0800321c 	xori	zero,at,200
 8002ef8:	080032ec 	andhi	zero,at,203
 8002efc:	080032ec 	andhi	zero,at,203
 8002f00:	0800308c 	andi	zero,at,194
 8002f04:	0800321c 	xori	zero,at,200
 8002f08:	080030ec 	andhi	zero,at,195
 8002f0c:	080032ec 	andhi	zero,at,203
 8002f10:	080030fc 	xorhi	zero,at,195
 8002f14:	0800321c 	xori	zero,at,200
 8002f18:	0800317c 	xorhi	zero,at,197
 8002f1c:	080032ec 	andhi	zero,at,203
 8002f20:	0800308c 	andi	zero,at,194
 8002f24:	0800321c 	xori	zero,at,200
 8002f28:	080030ec 	andhi	zero,at,195
 8002f2c:	080032ec 	andhi	zero,at,203
 8002f30:	08002fbc 	xorhi	zero,at,190
 8002f34:	0800321c 	xori	zero,at,200
 8002f38:	080032ec 	andhi	zero,at,203
 8002f3c:	080032ec 	andhi	zero,at,203
 8002f40:	080032ec 	andhi	zero,at,203
 8002f44:	0800321c 	xori	zero,at,200
 8002f48:	080030ec 	andhi	zero,at,195
 8002f4c:	080032ec 	andhi	zero,at,203
 8002f50:	0800323c 	xorhi	zero,at,200
 8002f54:	0800321c 	xori	zero,at,200
 8002f58:	080032ec 	andhi	zero,at,203
 8002f5c:	080032ec 	andhi	zero,at,203
 8002f60:	080032ec 	andhi	zero,at,203
 8002f64:	0800321c 	xori	zero,at,200
 8002f68:	080030ec 	andhi	zero,at,195
	 case 0x69: // IMM
	 case 0x71: // INDY
	 case 0x61: // XIND
	 case 0x65: // ZP
	 case 0x75: // ZPX
		 printf("ADC!\n"); break;
 8002f6c:	010200b4 	movhi	r4,2050
 8002f70:	21230c04 	addi	r4,r4,-29648
 8002f74:	80074dc0 	call	80074dc <puts>
 8002f78:	0000de06 	br	80032f4 <print_opcode+0x7d4>
	 case 0x29: // IMM
	 case 0x31: // INDY
	 case 0x21: // XIND
	 case 0x25: // ZP
	 case 0x35: // ZPX
		 printf("AND!\n"); break;
 8002f7c:	010200b4 	movhi	r4,2050
 8002f80:	21230e04 	addi	r4,r4,-29640
 8002f84:	80074dc0 	call	80074dc <puts>
 8002f88:	0000da06 	br	80032f4 <print_opcode+0x7d4>
	 case 0x0E: // ABS
	 case 0x1E: // ABSX
	 case 0x0A: // ACC
	 case 0x06: // ZP
	 case 0x16: // ZPX
		 printf("ASL!\n"); break;
 8002f8c:	010200b4 	movhi	r4,2050
 8002f90:	21231004 	addi	r4,r4,-29632
 8002f94:	80074dc0 	call	80074dc <puts>
 8002f98:	0000d606 	br	80032f4 <print_opcode+0x7d4>

	 case 0x90: // REL
		printf("BCC!\n"); break;
 8002f9c:	010200b4 	movhi	r4,2050
 8002fa0:	21231204 	addi	r4,r4,-29624
 8002fa4:	80074dc0 	call	80074dc <puts>
 8002fa8:	0000d206 	br	80032f4 <print_opcode+0x7d4>

	 case 0xB0: // REL
	   printf("BCS!\n"); break;
 8002fac:	010200b4 	movhi	r4,2050
 8002fb0:	21231404 	addi	r4,r4,-29616
 8002fb4:	80074dc0 	call	80074dc <puts>
 8002fb8:	0000ce06 	br	80032f4 <print_opcode+0x7d4>

	 case 0xF0: // REL
	   printf("BEQ!\n"); break;
 8002fbc:	010200b4 	movhi	r4,2050
 8002fc0:	21231604 	addi	r4,r4,-29608
 8002fc4:	80074dc0 	call	80074dc <puts>
 8002fc8:	0000ca06 	br	80032f4 <print_opcode+0x7d4>

	 case 0x30: // REL
	   printf("BMI!\n"); break;
 8002fcc:	010200b4 	movhi	r4,2050
 8002fd0:	21231804 	addi	r4,r4,-29600
 8002fd4:	80074dc0 	call	80074dc <puts>
 8002fd8:	0000c606 	br	80032f4 <print_opcode+0x7d4>

	 case 0xD0: // REL
	   printf("BNE!\n"); break;
 8002fdc:	010200b4 	movhi	r4,2050
 8002fe0:	21231a04 	addi	r4,r4,-29592
 8002fe4:	80074dc0 	call	80074dc <puts>
 8002fe8:	0000c206 	br	80032f4 <print_opcode+0x7d4>

	 case 0x10: // REL
	   printf("BPL!\n"); break;
 8002fec:	010200b4 	movhi	r4,2050
 8002ff0:	21231c04 	addi	r4,r4,-29584
 8002ff4:	80074dc0 	call	80074dc <puts>
 8002ff8:	0000be06 	br	80032f4 <print_opcode+0x7d4>

	 case 0x00: // IMP
	   printf("BRK!\n"); break;
 8002ffc:	010200b4 	movhi	r4,2050
 8003000:	21231e04 	addi	r4,r4,-29576
 8003004:	80074dc0 	call	80074dc <puts>
 8003008:	0000ba06 	br	80032f4 <print_opcode+0x7d4>

	 case 0x50: // REL
	   printf("BCV!\n"); break;
 800300c:	010200b4 	movhi	r4,2050
 8003010:	21232004 	addi	r4,r4,-29568
 8003014:	80074dc0 	call	80074dc <puts>
 8003018:	0000b606 	br	80032f4 <print_opcode+0x7d4>

	 case 0x70: // REL
	   printf("BVS!\n"); break;
 800301c:	010200b4 	movhi	r4,2050
 8003020:	21232204 	addi	r4,r4,-29560
 8003024:	80074dc0 	call	80074dc <puts>
 8003028:	0000b206 	br	80032f4 <print_opcode+0x7d4>

	 case 0x18: // IMP
	   printf("CLC!\n"); break;
 800302c:	010200b4 	movhi	r4,2050
 8003030:	21232404 	addi	r4,r4,-29552
 8003034:	80074dc0 	call	80074dc <puts>
 8003038:	0000ae06 	br	80032f4 <print_opcode+0x7d4>

	 case 0xD8: // IMP
	   printf("CLD!\n"); break;
 800303c:	010200b4 	movhi	r4,2050
 8003040:	21232604 	addi	r4,r4,-29544
 8003044:	80074dc0 	call	80074dc <puts>
 8003048:	0000aa06 	br	80032f4 <print_opcode+0x7d4>

	 case 0x58: // IMP
	   printf("CLI!\n"); break;
 800304c:	010200b4 	movhi	r4,2050
 8003050:	21232804 	addi	r4,r4,-29536
 8003054:	80074dc0 	call	80074dc <puts>
 8003058:	0000a606 	br	80032f4 <print_opcode+0x7d4>

	 case 0xB8: // IMP
	   printf("CLV!\n"); break;
 800305c:	010200b4 	movhi	r4,2050
 8003060:	21232a04 	addi	r4,r4,-29528
 8003064:	80074dc0 	call	80074dc <puts>
 8003068:	0000a206 	br	80032f4 <print_opcode+0x7d4>

	 case 0x24: // ZP
	 case 0x2C: // ABS
	   printf("BIT!\n"); break;
 800306c:	010200b4 	movhi	r4,2050
 8003070:	21232c04 	addi	r4,r4,-29520
 8003074:	80074dc0 	call	80074dc <puts>
 8003078:	00009e06 	br	80032f4 <print_opcode+0x7d4>
	 case 0xC9: // IMM
	 case 0xD1: // INDY
	 case 0xC1: // XIND
	 case 0xC5: // ZP
	 case 0xD5: // ZPX
		printf("CMP!\n"); break;
 800307c:	010200b4 	movhi	r4,2050
 8003080:	21232e04 	addi	r4,r4,-29512
 8003084:	80074dc0 	call	80074dc <puts>
 8003088:	00009a06 	br	80032f4 <print_opcode+0x7d4>
	 case 0xEC: // ABS
	 case 0xE0: // IMM
	 case 0xE4: // ZP
		 printf("CPX!\n"); break;
 800308c:	010200b4 	movhi	r4,2050
 8003090:	21233004 	addi	r4,r4,-29504
 8003094:	80074dc0 	call	80074dc <puts>
 8003098:	00009606 	br	80032f4 <print_opcode+0x7d4>
	 case 0xCC: // ABS
	 case 0xC0: // IMM
	 case 0xC4: // ZP
		 printf("CPY!\n"); break;
 800309c:	010200b4 	movhi	r4,2050
 80030a0:	21233204 	addi	r4,r4,-29496
 80030a4:	80074dc0 	call	80074dc <puts>
 80030a8:	00009206 	br	80032f4 <print_opcode+0x7d4>
	 case 0xCE: // ABS
	 case 0xDE: // ABSX
	 case 0xC6: // ZP
	 case 0xD6: // ZPX
		 printf("DEC!\n"); break;
 80030ac:	010200b4 	movhi	r4,2050
 80030b0:	21233404 	addi	r4,r4,-29488
 80030b4:	80074dc0 	call	80074dc <puts>
 80030b8:	00008e06 	br	80032f4 <print_opcode+0x7d4>

	 case 0xCA: // IMP
	   printf("DEX!\n");
 80030bc:	010200b4 	movhi	r4,2050
 80030c0:	21233604 	addi	r4,r4,-29480
 80030c4:	80074dc0 	call	80074dc <puts>
	   break;
 80030c8:	00008a06 	br	80032f4 <print_opcode+0x7d4>

	 case 0x88:
	   printf("DEY!\n");
 80030cc:	010200b4 	movhi	r4,2050
 80030d0:	21233804 	addi	r4,r4,-29472
 80030d4:	80074dc0 	call	80074dc <puts>
	   break;
 80030d8:	00008606 	br	80032f4 <print_opcode+0x7d4>
	 case 0x49: // IMM
	 case 0x51: // INDY
	 case 0x41: // XIND
	 case 0x45: // ZP
	 case 0x55: // ZPX
		 printf("EOR!\n"); break;
 80030dc:	010200b4 	movhi	r4,2050
 80030e0:	21233a04 	addi	r4,r4,-29464
 80030e4:	80074dc0 	call	80074dc <puts>
 80030e8:	00008206 	br	80032f4 <print_opcode+0x7d4>

	 case 0xEE: // ABS
	 case 0xFE: // ABSX
	 case 0xE6: // ZP
	 case 0xF6: // ZPX
		 printf("INC!\n"); break;
 80030ec:	010200b4 	movhi	r4,2050
 80030f0:	21233c04 	addi	r4,r4,-29456
 80030f4:	80074dc0 	call	80074dc <puts>
 80030f8:	00007e06 	br	80032f4 <print_opcode+0x7d4>

	 case 0xE8:
	   printf("INX!\n"); break;
 80030fc:	010200b4 	movhi	r4,2050
 8003100:	21233e04 	addi	r4,r4,-29448
 8003104:	80074dc0 	call	80074dc <puts>
 8003108:	00007a06 	br	80032f4 <print_opcode+0x7d4>

	 case 0xC8:
	   printf("INY!\n"); break;
 800310c:	010200b4 	movhi	r4,2050
 8003110:	21234004 	addi	r4,r4,-29440
 8003114:	80074dc0 	call	80074dc <puts>
 8003118:	00007606 	br	80032f4 <print_opcode+0x7d4>

	 case 0x4C: // ABS
	 case 0x6C: // IND
		 printf("JMP!\n"); break;
 800311c:	010200b4 	movhi	r4,2050
 8003120:	21234204 	addi	r4,r4,-29432
 8003124:	80074dc0 	call	80074dc <puts>
 8003128:	00007206 	br	80032f4 <print_opcode+0x7d4>

	 case 0x20: // ABS
	   printf("JSR!\n"); break;
 800312c:	010200b4 	movhi	r4,2050
 8003130:	21234404 	addi	r4,r4,-29424
 8003134:	80074dc0 	call	80074dc <puts>
 8003138:	00006e06 	br	80032f4 <print_opcode+0x7d4>
	 case 0xA9: // IMM
	 case 0xB1: // INDY
	 case 0xA1: // XIND
	 case 0xA5: // ZP
	 case 0xB5: // ZPX
		 printf("LDA!\n"); break;
 800313c:	010200b4 	movhi	r4,2050
 8003140:	21234604 	addi	r4,r4,-29416
 8003144:	80074dc0 	call	80074dc <puts>
 8003148:	00006a06 	br	80032f4 <print_opcode+0x7d4>
	 case 0xAE: // ABS
	 case 0xBE: // ABSY
	 case 0xA2: // IMM
	 case 0xA6: // ZP
	 case 0xB6: // ZPY
		 printf("LDX!\n"); break;
 800314c:	010200b4 	movhi	r4,2050
 8003150:	21234804 	addi	r4,r4,-29408
 8003154:	80074dc0 	call	80074dc <puts>
 8003158:	00006606 	br	80032f4 <print_opcode+0x7d4>
	 case 0xAC: // ABS
	 case 0xBC: // ABSX
	 case 0xA0: // IMM
	 case 0xA4: // ZP
	 case 0xB4: // ZPX
		 printf("LDY!\n"); break;
 800315c:	010200b4 	movhi	r4,2050
 8003160:	21234a04 	addi	r4,r4,-29400
 8003164:	80074dc0 	call	80074dc <puts>
 8003168:	00006206 	br	80032f4 <print_opcode+0x7d4>
	 case 0x4E: // ABS
	 case 0x5E: // ABSX
	 case 0x4A: // ACC
	 case 0x46: // ZP
	 case 0x56: // ZPX
		 printf("LSR!\n"); break;
 800316c:	010200b4 	movhi	r4,2050
 8003170:	21234c04 	addi	r4,r4,-29392
 8003174:	80074dc0 	call	80074dc <puts>
 8003178:	00005e06 	br	80032f4 <print_opcode+0x7d4>

	 case 0xEA:
	   printf("NOP!\n"); break;
 800317c:	010200b4 	movhi	r4,2050
 8003180:	21234e04 	addi	r4,r4,-29384
 8003184:	80074dc0 	call	80074dc <puts>
 8003188:	00005a06 	br	80032f4 <print_opcode+0x7d4>
	 case 0x09: // IMM
	 case 0x11: // INDY
	 case 0x01: // XIND
	 case 0x05: // ZP
	 case 0x15: // ZPX
		 printf("ORA!\n"); break;
 800318c:	010200b4 	movhi	r4,2050
 8003190:	21235004 	addi	r4,r4,-29376
 8003194:	80074dc0 	call	80074dc <puts>
 8003198:	00005606 	br	80032f4 <print_opcode+0x7d4>

	 case 0x48: // IMP
	   printf("PHA!\n"); break;
 800319c:	010200b4 	movhi	r4,2050
 80031a0:	21235204 	addi	r4,r4,-29368
 80031a4:	80074dc0 	call	80074dc <puts>
 80031a8:	00005206 	br	80032f4 <print_opcode+0x7d4>

	 case 0x08: // IMP
	   printf("PHP!\n"); break;
 80031ac:	010200b4 	movhi	r4,2050
 80031b0:	21235404 	addi	r4,r4,-29360
 80031b4:	80074dc0 	call	80074dc <puts>
 80031b8:	00004e06 	br	80032f4 <print_opcode+0x7d4>

	 case 0x68: // IMP
	   printf("PLA!\n"); break;
 80031bc:	010200b4 	movhi	r4,2050
 80031c0:	21235604 	addi	r4,r4,-29352
 80031c4:	80074dc0 	call	80074dc <puts>
 80031c8:	00004a06 	br	80032f4 <print_opcode+0x7d4>

	 case 0x28:
	   printf("PLP!\n"); break;
 80031cc:	010200b4 	movhi	r4,2050
 80031d0:	21235804 	addi	r4,r4,-29344
 80031d4:	80074dc0 	call	80074dc <puts>
 80031d8:	00004606 	br	80032f4 <print_opcode+0x7d4>
	 case 0x2E: // ABS
	 case 0x3E: // ABSX
	 case 0x2A: // ACC
	 case 0x26: // ZP
	 case 0x36: // ZPX
		 printf("ROL!\n"); break;
 80031dc:	010200b4 	movhi	r4,2050
 80031e0:	21235a04 	addi	r4,r4,-29336
 80031e4:	80074dc0 	call	80074dc <puts>
 80031e8:	00004206 	br	80032f4 <print_opcode+0x7d4>
	 case 0x6E: // ABS
	 case 0x7E: // ABSX
	 case 0x6A: // ACC
	 case 0x66: // ZP
	 case 0x76: // ZPX
		 printf("ROR!\n"); break;
 80031ec:	010200b4 	movhi	r4,2050
 80031f0:	21235c04 	addi	r4,r4,-29328
 80031f4:	80074dc0 	call	80074dc <puts>
 80031f8:	00003e06 	br	80032f4 <print_opcode+0x7d4>

	 case 0x40:
	   printf("RTI!\n");
 80031fc:	010200b4 	movhi	r4,2050
 8003200:	21235e04 	addi	r4,r4,-29320
 8003204:	80074dc0 	call	80074dc <puts>
	   break;
 8003208:	00003a06 	br	80032f4 <print_opcode+0x7d4>

	 case 0x60:
	   printf("RTS!\n");
 800320c:	010200b4 	movhi	r4,2050
 8003210:	21236004 	addi	r4,r4,-29312
 8003214:	80074dc0 	call	80074dc <puts>
	   break;
 8003218:	00003606 	br	80032f4 <print_opcode+0x7d4>
	 case 0xE9: // IMM
	 case 0xF1: // INDY
	 case 0xE1: // XIND
	 case 0xE5: // ZP
	 case 0xF5: // ZPX
		 printf("SBC!\n"); break;
 800321c:	010200b4 	movhi	r4,2050
 8003220:	21236204 	addi	r4,r4,-29304
 8003224:	80074dc0 	call	80074dc <puts>
 8003228:	00003206 	br	80032f4 <print_opcode+0x7d4>

	 case 0x38: // IMP
	   printf("SEC!\n");
 800322c:	010200b4 	movhi	r4,2050
 8003230:	21236404 	addi	r4,r4,-29296
 8003234:	80074dc0 	call	80074dc <puts>
	   break;
 8003238:	00002e06 	br	80032f4 <print_opcode+0x7d4>

	 case 0xF8: // IMP
	   printf("SED!\n");
 800323c:	010200b4 	movhi	r4,2050
 8003240:	21236604 	addi	r4,r4,-29288
 8003244:	80074dc0 	call	80074dc <puts>
	   break;
 8003248:	00002a06 	br	80032f4 <print_opcode+0x7d4>

	 case 0x78:
		printf("SEI!\n");
 800324c:	010200b4 	movhi	r4,2050
 8003250:	21236804 	addi	r4,r4,-29280
 8003254:	80074dc0 	call	80074dc <puts>
		 break;
 8003258:	00002606 	br	80032f4 <print_opcode+0x7d4>
	 case 0x99: // ABSY
	 case 0x91: // INDY
	 case 0x81: // XIND
	 case 0x85: // ZP
	 case 0x95: // ZPX
	   printf("STA!\n");
 800325c:	010200b4 	movhi	r4,2050
 8003260:	21236a04 	addi	r4,r4,-29272
 8003264:	80074dc0 	call	80074dc <puts>
	   break;
 8003268:	00002206 	br	80032f4 <print_opcode+0x7d4>

	 case 0x8E: // ABS
	 case 0x86: // ZP
	 case 0x96: // ZPY
	   printf("STX!\n");
 800326c:	010200b4 	movhi	r4,2050
 8003270:	21236c04 	addi	r4,r4,-29264
 8003274:	80074dc0 	call	80074dc <puts>
	   break;
 8003278:	00001e06 	br	80032f4 <print_opcode+0x7d4>

	 case 0x8C: // ABS
	 case 0x84: // ZP
	 case 0x94: // ZPX
	   printf("STY!\n");
 800327c:	010200b4 	movhi	r4,2050
 8003280:	21236e04 	addi	r4,r4,-29256
 8003284:	80074dc0 	call	80074dc <puts>
	   break;
 8003288:	00001a06 	br	80032f4 <print_opcode+0x7d4>

	 case 0xAA: // IMP
	   printf("TAX!\n");
 800328c:	010200b4 	movhi	r4,2050
 8003290:	21237004 	addi	r4,r4,-29248
 8003294:	80074dc0 	call	80074dc <puts>
	   break;
 8003298:	00001606 	br	80032f4 <print_opcode+0x7d4>

	 case 0xA8: // IMP
	   printf("TAY!\n");
 800329c:	010200b4 	movhi	r4,2050
 80032a0:	21237204 	addi	r4,r4,-29240
 80032a4:	80074dc0 	call	80074dc <puts>
	   break;
 80032a8:	00001206 	br	80032f4 <print_opcode+0x7d4>


	 case 0xBA:
	   printf("TSX!\n");
 80032ac:	010200b4 	movhi	r4,2050
 80032b0:	21237404 	addi	r4,r4,-29232
 80032b4:	80074dc0 	call	80074dc <puts>
	   break;
 80032b8:	00000e06 	br	80032f4 <print_opcode+0x7d4>

	 case 0x8A:
	   printf("TXA!\n");
 80032bc:	010200b4 	movhi	r4,2050
 80032c0:	21237604 	addi	r4,r4,-29224
 80032c4:	80074dc0 	call	80074dc <puts>
	   break;
 80032c8:	00000a06 	br	80032f4 <print_opcode+0x7d4>

	 case 0x9A:
	   printf("TXS!\n");
 80032cc:	010200b4 	movhi	r4,2050
 80032d0:	21237804 	addi	r4,r4,-29216
 80032d4:	80074dc0 	call	80074dc <puts>
	   break;
 80032d8:	00000606 	br	80032f4 <print_opcode+0x7d4>

	 case 0x98:
	   printf("TYA!\n");
 80032dc:	010200b4 	movhi	r4,2050
 80032e0:	21237a04 	addi	r4,r4,-29208
 80032e4:	80074dc0 	call	80074dc <puts>
	   break;
 80032e8:	00000206 	br	80032f4 <print_opcode+0x7d4>


	 default:
	   printf("-");
 80032ec:	01000b44 	movi	r4,45
 80032f0:	80074180 	call	8007418 <putchar>
	   break;
	 }

	 return;
}
 80032f4:	e037883a 	mov	sp,fp
 80032f8:	dfc00117 	ldw	ra,4(sp)
 80032fc:	df000017 	ldw	fp,0(sp)
 8003300:	dec00204 	addi	sp,sp,8
 8003304:	f800283a 	ret

08003308 <cpu_reset>:

// CPU Reset interrupt handler
inline void cpu_reset()
{
 8003308:	deffff04 	addi	sp,sp,-4
 800330c:	df000015 	stw	fp,0(sp)
 8003310:	d839883a 	mov	fp,sp
	// Set all registers to initial states
	CPU->S = 0xFD;
 8003314:	d0e70717 	ldw	r3,-25572(gp)
 8003318:	00bfff44 	movi	r2,-3
 800331c:	18800085 	stb	r2,2(r3)
	CPU->P.N = 0x00;
 8003320:	d0a70717 	ldw	r2,-25572(gp)
 8003324:	10000245 	stb	zero,9(r2)
	CPU->P.V = 0x00;
 8003328:	d0a70717 	ldw	r2,-25572(gp)
 800332c:	10000205 	stb	zero,8(r2)
	CPU->P.B = 0x00;
 8003330:	d0a70717 	ldw	r2,-25572(gp)
 8003334:	100001c5 	stb	zero,7(r2)
	CPU->P.D = 0x00;
 8003338:	d0a70717 	ldw	r2,-25572(gp)
 800333c:	10000185 	stb	zero,6(r2)
	CPU->P.I = 0x01; // Interrupt Disable is on
 8003340:	d0e70717 	ldw	r3,-25572(gp)
 8003344:	00800044 	movi	r2,1
 8003348:	18800145 	stb	r2,5(r3)
	CPU->P.C = 0x00;
 800334c:	d0a70717 	ldw	r2,-25572(gp)
 8003350:	100000c5 	stb	zero,3(r2)
	CPU->P.Z = 0x00;
 8003354:	d0a70717 	ldw	r2,-25572(gp)
 8003358:	10000105 	stb	zero,4(r2)
	CPU->A = 0x00;
 800335c:	d0a70717 	ldw	r2,-25572(gp)
 8003360:	10000285 	stb	zero,10(r2)
	CPU->X = 0x00;
 8003364:	d0a70717 	ldw	r2,-25572(gp)
 8003368:	100002c5 	stb	zero,11(r2)
	CPU->Y = 0x00;
 800336c:	d0a70717 	ldw	r2,-25572(gp)
 8003370:	10000305 	stb	zero,12(r2)
	CPU->AB = 0x0000;
 8003374:	d0a70717 	ldw	r2,-25572(gp)
 8003378:	1000038d 	sth	zero,14(r2)
	CPU->DB = 0x00;
 800337c:	d0a70717 	ldw	r2,-25572(gp)
 8003380:	10000405 	stb	zero,16(r2)
	CPU->IR = 0x00;
 8003384:	d0a70717 	ldw	r2,-25572(gp)
 8003388:	10000445 	stb	zero,17(r2)
	CPU->RES = 0;
 800338c:	d0a70717 	ldw	r2,-25572(gp)
 8003390:	10000745 	stb	zero,29(r2)
	CPU->NMI = 0;
 8003394:	d0a70717 	ldw	r2,-25572(gp)
 8003398:	10000705 	stb	zero,28(r2)
	CPU->IRQ = 0;
 800339c:	d0a70717 	ldw	r2,-25572(gp)
 80033a0:	10000785 	stb	zero,30(r2)
	CPU->T = 0;
 80033a4:	d0a70717 	ldw	r2,-25572(gp)
 80033a8:	10000485 	stb	zero,18(r2)
	CPU->instructions = 0;
 80033ac:	d0a70717 	ldw	r2,-25572(gp)
 80033b0:	10000615 	stw	zero,24(r2)
	CPU->page_boundary = 0;
 80033b4:	d0a70717 	ldw	r2,-25572(gp)
 80033b8:	100007c5 	stb	zero,31(r2)
	CPU->exit = 0;
 80033bc:	d0a70717 	ldw	r2,-25572(gp)
 80033c0:	10000805 	stb	zero,32(r2)

	// Initialize temp variables
	t1 = 0;
 80033c4:	d0270e8d 	sth	zero,-25542(gp)
	t2 = 0;
 80033c8:	d0270a0d 	sth	zero,-25560(gp)
	l = 0;
 80033cc:	d027098d 	sth	zero,-25562(gp)
	h = 0;
 80033d0:	d027108d 	sth	zero,-25534(gp)
	temp = 0;
 80033d4:	d0270a8d 	sth	zero,-25558(gp)
	temp2 = 0;
 80033d8:	d027088d 	sth	zero,-25566(gp)
	temp_addr = 0;
 80033dc:	d0270d8d 	sth	zero,-25546(gp)
	pb = 0;
 80033e0:	d0270d0d 	sth	zero,-25548(gp)

	// Finally, push RESET vector to PC to start Reset handler (AKA when you 'turn on' the NES)
	CPU->PC = CPU->MEM[RESL] | (CPU->MEM[ RESH ] << 8);
 80033e4:	d1670717 	ldw	r5,-25572(gp)
 80033e8:	d0a70717 	ldw	r2,-25572(gp)
 80033ec:	10c00517 	ldw	r3,20(r2)
 80033f0:	00bfff14 	movui	r2,65532
 80033f4:	1885883a 	add	r2,r3,r2
 80033f8:	10800003 	ldbu	r2,0(r2)
 80033fc:	11003fcc 	andi	r4,r2,255
 8003400:	d0a70717 	ldw	r2,-25572(gp)
 8003404:	10c00517 	ldw	r3,20(r2)
 8003408:	00bfff54 	movui	r2,65533
 800340c:	1885883a 	add	r2,r3,r2
 8003410:	10800003 	ldbu	r2,0(r2)
 8003414:	10803fcc 	andi	r2,r2,255
 8003418:	1004923a 	slli	r2,r2,8
 800341c:	2084b03a 	or	r2,r4,r2
 8003420:	2880000d 	sth	r2,0(r5)
	return;
}
 8003424:	e037883a 	mov	sp,fp
 8003428:	df000017 	ldw	fp,0(sp)
 800342c:	dec00104 	addi	sp,sp,4
 8003430:	f800283a 	ret

08003434 <cpu_nmi>:

// CPU Non-maskable Interrupt handler
inline void cpu_nmi()
{
 8003434:	defffd04 	addi	sp,sp,-12
 8003438:	dfc00215 	stw	ra,8(sp)
 800343c:	df000115 	stw	fp,4(sp)
 8003440:	dc000015 	stw	r16,0(sp)
 8003444:	d839883a 	mov	fp,sp
	// Throw away next opcodes
	++CPU->PC; ++CPU->PC;
 8003448:	d0e70717 	ldw	r3,-25572(gp)
 800344c:	1880000b 	ldhu	r2,0(r3)
 8003450:	10800044 	addi	r2,r2,1
 8003454:	1880000d 	sth	r2,0(r3)
 8003458:	d0e70717 	ldw	r3,-25572(gp)
 800345c:	1880000b 	ldhu	r2,0(r3)
 8003460:	10800044 	addi	r2,r2,1
 8003464:	1880000d 	sth	r2,0(r3)
	CPU->P.B = 0;
 8003468:	d0a70717 	ldw	r2,-25572(gp)
 800346c:	100001c5 	stb	zero,7(r2)

	// Push PC onto Stack
	cpu_mem_write( CPU->PC >> 8, STACK + CPU->S );
 8003470:	d0a70717 	ldw	r2,-25572(gp)
 8003474:	1080000b 	ldhu	r2,0(r2)
 8003478:	10bfffcc 	andi	r2,r2,65535
 800347c:	1004d23a 	srli	r2,r2,8
 8003480:	11003fcc 	andi	r4,r2,255
 8003484:	d0a70717 	ldw	r2,-25572(gp)
 8003488:	10800083 	ldbu	r2,2(r2)
 800348c:	10803fcc 	andi	r2,r2,255
 8003490:	10804004 	addi	r2,r2,256
 8003494:	117fffcc 	andi	r5,r2,65535
 8003498:	80038c00 	call	80038c0 <cpu_mem_write>
	--CPU->S;
 800349c:	d0e70717 	ldw	r3,-25572(gp)
 80034a0:	18800083 	ldbu	r2,2(r3)
 80034a4:	10bfffc4 	addi	r2,r2,-1
 80034a8:	18800085 	stb	r2,2(r3)
	cpu_mem_write( CPU->PC & 0xFF, STACK + CPU->S );
 80034ac:	d0a70717 	ldw	r2,-25572(gp)
 80034b0:	1080000b 	ldhu	r2,0(r2)
 80034b4:	11003fcc 	andi	r4,r2,255
 80034b8:	d0a70717 	ldw	r2,-25572(gp)
 80034bc:	10800083 	ldbu	r2,2(r2)
 80034c0:	10803fcc 	andi	r2,r2,255
 80034c4:	10804004 	addi	r2,r2,256
 80034c8:	117fffcc 	andi	r5,r2,65535
 80034cc:	80038c00 	call	80038c0 <cpu_mem_write>
	--CPU->S;
 80034d0:	d0e70717 	ldw	r3,-25572(gp)
 80034d4:	18800083 	ldbu	r2,2(r3)
 80034d8:	10bfffc4 	addi	r2,r2,-1
 80034dc:	18800085 	stb	r2,2(r3)

	// Push P onto Stack
    CPU->MEM[ STACK + CPU->S ] = cpu_join_flags();
 80034e0:	d0a70717 	ldw	r2,-25572(gp)
 80034e4:	10c00517 	ldw	r3,20(r2)
 80034e8:	d0a70717 	ldw	r2,-25572(gp)
 80034ec:	10800083 	ldbu	r2,2(r2)
 80034f0:	10803fcc 	andi	r2,r2,255
 80034f4:	1885883a 	add	r2,r3,r2
 80034f8:	14004004 	addi	r16,r2,256
 80034fc:	80039d00 	call	80039d0 <cpu_join_flags>
 8003500:	80800005 	stb	r2,0(r16)
    --CPU->S;
 8003504:	d0e70717 	ldw	r3,-25572(gp)
 8003508:	18800083 	ldbu	r2,2(r3)
 800350c:	10bfffc4 	addi	r2,r2,-1
 8003510:	18800085 	stb	r2,2(r3)

    // Interrupt
    CPU->P.I = 1;
 8003514:	d0e70717 	ldw	r3,-25572(gp)
 8003518:	00800044 	movi	r2,1
 800351c:	18800145 	stb	r2,5(r3)
    CPU->PC = CPU->MEM[ NMIL ];
 8003520:	d1270717 	ldw	r4,-25572(gp)
 8003524:	d0a70717 	ldw	r2,-25572(gp)
 8003528:	10c00517 	ldw	r3,20(r2)
 800352c:	00bffe94 	movui	r2,65530
 8003530:	1885883a 	add	r2,r3,r2
 8003534:	10800003 	ldbu	r2,0(r2)
 8003538:	10803fcc 	andi	r2,r2,255
 800353c:	2080000d 	sth	r2,0(r4)
    CPU->PC = CPU->PC | (CPU->MEM[ NMIH] << 8);
 8003540:	d1670717 	ldw	r5,-25572(gp)
 8003544:	d0a70717 	ldw	r2,-25572(gp)
 8003548:	1080000b 	ldhu	r2,0(r2)
 800354c:	1009883a 	mov	r4,r2
 8003550:	d0a70717 	ldw	r2,-25572(gp)
 8003554:	10c00517 	ldw	r3,20(r2)
 8003558:	00bffed4 	movui	r2,65531
 800355c:	1885883a 	add	r2,r3,r2
 8003560:	10800003 	ldbu	r2,0(r2)
 8003564:	10803fcc 	andi	r2,r2,255
 8003568:	1004923a 	slli	r2,r2,8
 800356c:	2084b03a 	or	r2,r4,r2
 8003570:	2880000d 	sth	r2,0(r5)

    // Turn off NMI after, as the system is supposed to automatically flip NMI off.
    CPU->NMI = 0;
 8003574:	d0a70717 	ldw	r2,-25572(gp)
 8003578:	10000705 	stb	zero,28(r2)

    printf("NMI!\n");
 800357c:	010200b4 	movhi	r4,2050
 8003580:	21237c04 	addi	r4,r4,-29200
 8003584:	80074dc0 	call	80074dc <puts>
}
 8003588:	e037883a 	mov	sp,fp
 800358c:	dfc00217 	ldw	ra,8(sp)
 8003590:	df000117 	ldw	fp,4(sp)
 8003594:	dc000017 	ldw	r16,0(sp)
 8003598:	dec00304 	addi	sp,sp,12
 800359c:	f800283a 	ret

080035a0 <cpu_irq>:

// CPU Interrupt Request handler
inline void cpu_irq()
{
 80035a0:	defffd04 	addi	sp,sp,-12
 80035a4:	dfc00215 	stw	ra,8(sp)
 80035a8:	df000115 	stw	fp,4(sp)
 80035ac:	dc000015 	stw	r16,0(sp)
 80035b0:	d839883a 	mov	fp,sp
	// Note: Similar process to NMI, except that it's up to the
	//		 game to disable IRQ themselves. Else, IRQ will continue
	//		 to be called.
	// Throw away next opcodes
	++CPU->PC; ++CPU->PC;
 80035b4:	d0e70717 	ldw	r3,-25572(gp)
 80035b8:	1880000b 	ldhu	r2,0(r3)
 80035bc:	10800044 	addi	r2,r2,1
 80035c0:	1880000d 	sth	r2,0(r3)
 80035c4:	d0e70717 	ldw	r3,-25572(gp)
 80035c8:	1880000b 	ldhu	r2,0(r3)
 80035cc:	10800044 	addi	r2,r2,1
 80035d0:	1880000d 	sth	r2,0(r3)
	CPU->P.B = 0;
 80035d4:	d0a70717 	ldw	r2,-25572(gp)
 80035d8:	100001c5 	stb	zero,7(r2)

	// Push PC onto Stack
	cpu_mem_write( CPU->PC >> 8, STACK + CPU->S );
 80035dc:	d0a70717 	ldw	r2,-25572(gp)
 80035e0:	1080000b 	ldhu	r2,0(r2)
 80035e4:	10bfffcc 	andi	r2,r2,65535
 80035e8:	1004d23a 	srli	r2,r2,8
 80035ec:	11003fcc 	andi	r4,r2,255
 80035f0:	d0a70717 	ldw	r2,-25572(gp)
 80035f4:	10800083 	ldbu	r2,2(r2)
 80035f8:	10803fcc 	andi	r2,r2,255
 80035fc:	10804004 	addi	r2,r2,256
 8003600:	117fffcc 	andi	r5,r2,65535
 8003604:	80038c00 	call	80038c0 <cpu_mem_write>
	--CPU->S;
 8003608:	d0e70717 	ldw	r3,-25572(gp)
 800360c:	18800083 	ldbu	r2,2(r3)
 8003610:	10bfffc4 	addi	r2,r2,-1
 8003614:	18800085 	stb	r2,2(r3)
	cpu_mem_write( CPU->PC & 0xFF, STACK + CPU->S );
 8003618:	d0a70717 	ldw	r2,-25572(gp)
 800361c:	1080000b 	ldhu	r2,0(r2)
 8003620:	11003fcc 	andi	r4,r2,255
 8003624:	d0a70717 	ldw	r2,-25572(gp)
 8003628:	10800083 	ldbu	r2,2(r2)
 800362c:	10803fcc 	andi	r2,r2,255
 8003630:	10804004 	addi	r2,r2,256
 8003634:	117fffcc 	andi	r5,r2,65535
 8003638:	80038c00 	call	80038c0 <cpu_mem_write>
	--CPU->S;
 800363c:	d0e70717 	ldw	r3,-25572(gp)
 8003640:	18800083 	ldbu	r2,2(r3)
 8003644:	10bfffc4 	addi	r2,r2,-1
 8003648:	18800085 	stb	r2,2(r3)

	// Push P onto Stack
    CPU->MEM[ STACK + CPU->S ] = cpu_join_flags();
 800364c:	d0a70717 	ldw	r2,-25572(gp)
 8003650:	10c00517 	ldw	r3,20(r2)
 8003654:	d0a70717 	ldw	r2,-25572(gp)
 8003658:	10800083 	ldbu	r2,2(r2)
 800365c:	10803fcc 	andi	r2,r2,255
 8003660:	1885883a 	add	r2,r3,r2
 8003664:	14004004 	addi	r16,r2,256
 8003668:	80039d00 	call	80039d0 <cpu_join_flags>
 800366c:	80800005 	stb	r2,0(r16)
    --CPU->S;
 8003670:	d0e70717 	ldw	r3,-25572(gp)
 8003674:	18800083 	ldbu	r2,2(r3)
 8003678:	10bfffc4 	addi	r2,r2,-1
 800367c:	18800085 	stb	r2,2(r3)

    // Interrupt
    CPU->P.I = 1;
 8003680:	d0e70717 	ldw	r3,-25572(gp)
 8003684:	00800044 	movi	r2,1
 8003688:	18800145 	stb	r2,5(r3)
    CPU->PC = CPU->MEM[ IRQL ];
 800368c:	d1270717 	ldw	r4,-25572(gp)
 8003690:	d0a70717 	ldw	r2,-25572(gp)
 8003694:	10c00517 	ldw	r3,20(r2)
 8003698:	00bfff94 	movui	r2,65534
 800369c:	1885883a 	add	r2,r3,r2
 80036a0:	10800003 	ldbu	r2,0(r2)
 80036a4:	10803fcc 	andi	r2,r2,255
 80036a8:	2080000d 	sth	r2,0(r4)
    CPU->PC = CPU->PC | (CPU->MEM[ IRQH] << 8);
 80036ac:	d1670717 	ldw	r5,-25572(gp)
 80036b0:	d0a70717 	ldw	r2,-25572(gp)
 80036b4:	1080000b 	ldhu	r2,0(r2)
 80036b8:	1009883a 	mov	r4,r2
 80036bc:	d0a70717 	ldw	r2,-25572(gp)
 80036c0:	10c00517 	ldw	r3,20(r2)
 80036c4:	00bfffd4 	movui	r2,65535
 80036c8:	1885883a 	add	r2,r3,r2
 80036cc:	10800003 	ldbu	r2,0(r2)
 80036d0:	10803fcc 	andi	r2,r2,255
 80036d4:	1004923a 	slli	r2,r2,8
 80036d8:	2084b03a 	or	r2,r4,r2
 80036dc:	2880000d 	sth	r2,0(r5)

    printf("IRQ!\n");
 80036e0:	010200b4 	movhi	r4,2050
 80036e4:	21237e04 	addi	r4,r4,-29192
 80036e8:	80074dc0 	call	80074dc <puts>
}
 80036ec:	e037883a 	mov	sp,fp
 80036f0:	dfc00217 	ldw	ra,8(sp)
 80036f4:	df000117 	ldw	fp,4(sp)
 80036f8:	dc000017 	ldw	r16,0(sp)
 80036fc:	dec00304 	addi	sp,sp,12
 8003700:	f800283a 	ret

08003704 <cpu_init>:


// Initializes all registers and memory.
inline void cpu_init()
{
 8003704:	defffc04 	addi	sp,sp,-16
 8003708:	dfc00315 	stw	ra,12(sp)
 800370c:	df000215 	stw	fp,8(sp)
 8003710:	dc000115 	stw	r16,4(sp)
 8003714:	df000104 	addi	fp,sp,4
  CPU = (RP2A03*) malloc(sizeof(RP2A03));
 8003718:	01000904 	movi	r4,36
 800371c:	8006c4c0 	call	8006c4c <malloc>
 8003720:	d0a70715 	stw	r2,-25572(gp)
  CPU->MEM = (byte*) malloc(sizeof(byte)*64*1024); // Allocate memory
 8003724:	d4270717 	ldw	r16,-25572(gp)
 8003728:	01000074 	movhi	r4,1
 800372c:	8006c4c0 	call	8006c4c <malloc>
 8003730:	80800515 	stw	r2,20(r16)
  CPU->RES = 1;
 8003734:	d0e70717 	ldw	r3,-25572(gp)
 8003738:	00800044 	movi	r2,1
 800373c:	18800745 	stb	r2,29(r3)

  // Initialize CPU Memory
  int i;
  for(i = 0; i < 0xFFFF+1; ++i)
 8003740:	e03fff15 	stw	zero,-4(fp)
 8003744:	00000806 	br	8003768 <cpu_init+0x64>
	  CPU->MEM[i] = 0;
 8003748:	d0a70717 	ldw	r2,-25572(gp)
 800374c:	10c00517 	ldw	r3,20(r2)
 8003750:	e0bfff17 	ldw	r2,-4(fp)
 8003754:	1885883a 	add	r2,r3,r2
 8003758:	10000005 	stb	zero,0(r2)
  CPU->MEM = (byte*) malloc(sizeof(byte)*64*1024); // Allocate memory
  CPU->RES = 1;

  // Initialize CPU Memory
  int i;
  for(i = 0; i < 0xFFFF+1; ++i)
 800375c:	e0bfff17 	ldw	r2,-4(fp)
 8003760:	10800044 	addi	r2,r2,1
 8003764:	e0bfff15 	stw	r2,-4(fp)
 8003768:	e0ffff17 	ldw	r3,-4(fp)
 800376c:	00bfffd4 	movui	r2,65535
 8003770:	10fff50e 	bge	r2,r3,8003748 <cpu_init+0x44>
	  CPU->MEM[i] = 0;

  return;
}
 8003774:	e037883a 	mov	sp,fp
 8003778:	dfc00217 	ldw	ra,8(sp)
 800377c:	df000117 	ldw	fp,4(sp)
 8003780:	dc000017 	ldw	r16,0(sp)
 8003784:	dec00304 	addi	sp,sp,12
 8003788:	f800283a 	ret

0800378c <cpu_read>:

// Read the contents of PC, then increment it */
inline byte cpu_read()
{
 800378c:	deffff04 	addi	sp,sp,-4
 8003790:	df000015 	stw	fp,0(sp)
 8003794:	d839883a 	mov	fp,sp
	return (CPU->MEM[CPU->PC++]);
 8003798:	d0a70717 	ldw	r2,-25572(gp)
 800379c:	10c00517 	ldw	r3,20(r2)
 80037a0:	d1670717 	ldw	r5,-25572(gp)
 80037a4:	2900000b 	ldhu	r4,0(r5)
 80037a8:	20bfffcc 	andi	r2,r4,65535
 80037ac:	1885883a 	add	r2,r3,r2
 80037b0:	10800003 	ldbu	r2,0(r2)
 80037b4:	10c03fcc 	andi	r3,r2,255
 80037b8:	20800044 	addi	r2,r4,1
 80037bc:	2880000d 	sth	r2,0(r5)
 80037c0:	1805883a 	mov	r2,r3
}
 80037c4:	e037883a 	mov	sp,fp
 80037c8:	df000017 	ldw	fp,0(sp)
 80037cc:	dec00104 	addi	sp,sp,4
 80037d0:	f800283a 	ret

080037d4 <cpu_mem_read>:

// Read the contents of the address in CPU memory */
inline byte cpu_mem_read( word addr )
{
 80037d4:	defffd04 	addi	sp,sp,-12
 80037d8:	df000215 	stw	fp,8(sp)
 80037dc:	df000204 	addi	fp,sp,8
 80037e0:	e13ffe0d 	sth	r4,-8(fp)
	//printf("\n$%x => ", addr);

	// Addresses within $0800 - $1FFF are RAM mirrors
	if( (addr > 0x07FF) && ( addr < 0x2000))
 80037e4:	e0bffe0b 	ldhu	r2,-8(fp)
 80037e8:	10820030 	cmpltui	r2,r2,2048
 80037ec:	10000f1e 	bne	r2,zero,800382c <cpu_mem_read+0x58>
 80037f0:	e0bffe0b 	ldhu	r2,-8(fp)
 80037f4:	10880028 	cmpgeui	r2,r2,8192
 80037f8:	10000c1e 	bne	r2,zero,800382c <cpu_mem_read+0x58>
	{
		t1 = (CPU->MEM[ (addr & 0x07FF) ]);
 80037fc:	d0a70717 	ldw	r2,-25572(gp)
 8003800:	10c00517 	ldw	r3,20(r2)
 8003804:	e0bffe0b 	ldhu	r2,-8(fp)
 8003808:	1081ffcc 	andi	r2,r2,2047
 800380c:	1885883a 	add	r2,r3,r2
 8003810:	10800003 	ldbu	r2,0(r2)
 8003814:	10803fcc 	andi	r2,r2,255
 8003818:	d0a70e8d 	sth	r2,-25542(gp)
		//printf( "%x ", t1);
		return t1;
 800381c:	d0a70e8b 	ldhu	r2,-25542(gp)
 8003820:	10803fcc 	andi	r2,r2,255
 8003824:	e0bfff15 	stw	r2,-4(fp)
 8003828:	00002006 	br	80038ac <cpu_mem_read+0xd8>
	}
	// Addresses within $2008 - $4000 are PPU Register mirrors
	else if( (addr > 0x2007) && ( addr < 0x4000) )
 800382c:	e0bffe0b 	ldhu	r2,-8(fp)
 8003830:	10880230 	cmpltui	r2,r2,8200
 8003834:	1000131e 	bne	r2,zero,8003884 <cpu_mem_read+0xb0>
 8003838:	e0bffe0b 	ldhu	r2,-8(fp)
 800383c:	10900028 	cmpgeui	r2,r2,16384
 8003840:	1000101e 	bne	r2,zero,8003884 <cpu_mem_read+0xb0>
	{
		t1 = PPUREG + (addr & 0x07);
 8003844:	e0bffe0b 	ldhu	r2,-8(fp)
 8003848:	108001cc 	andi	r2,r2,7
 800384c:	10880004 	addi	r2,r2,8192
 8003850:	d0a70e8d 	sth	r2,-25542(gp)
		// TODO Make sure VBlank flag staying on will not affect anything
		// Reads to $2002 clears the VBlank flag. THIS IS WRONG
		//if( t1 == 0x2002 )
			//PPUSTATUS &= 0x7F;

		t2 = (CPU->MEM[ t1 ] );
 8003854:	d0a70717 	ldw	r2,-25572(gp)
 8003858:	10c00517 	ldw	r3,20(r2)
 800385c:	d0a70e8b 	ldhu	r2,-25542(gp)
 8003860:	10bfffcc 	andi	r2,r2,65535
 8003864:	1885883a 	add	r2,r3,r2
 8003868:	10800003 	ldbu	r2,0(r2)
 800386c:	10803fcc 	andi	r2,r2,255
 8003870:	d0a70a0d 	sth	r2,-25560(gp)
		//printf("%x ", t2);
		return t2;
 8003874:	d0a70a0b 	ldhu	r2,-25560(gp)
 8003878:	10803fcc 	andi	r2,r2,255
 800387c:	e0bfff15 	stw	r2,-4(fp)
 8003880:	00000a06 	br	80038ac <cpu_mem_read+0xd8>
	{
		// Reads to $2002 clears the VBlank flag. THIS IS WRONG
		//if( addr == 0x2002 )
			//PPUSTATUS &= 0x7F;

		t1 = (CPU->MEM[ addr ]);
 8003884:	d0a70717 	ldw	r2,-25572(gp)
 8003888:	10c00517 	ldw	r3,20(r2)
 800388c:	e0bffe0b 	ldhu	r2,-8(fp)
 8003890:	1885883a 	add	r2,r3,r2
 8003894:	10800003 	ldbu	r2,0(r2)
 8003898:	10803fcc 	andi	r2,r2,255
 800389c:	d0a70e8d 	sth	r2,-25542(gp)
		//printf("%x ", t1);
		return t1;
 80038a0:	d0a70e8b 	ldhu	r2,-25542(gp)
 80038a4:	10803fcc 	andi	r2,r2,255
 80038a8:	e0bfff15 	stw	r2,-4(fp)
 80038ac:	e0bfff17 	ldw	r2,-4(fp)
	}
}
 80038b0:	e037883a 	mov	sp,fp
 80038b4:	df000017 	ldw	fp,0(sp)
 80038b8:	dec00104 	addi	sp,sp,4
 80038bc:	f800283a 	ret

080038c0 <cpu_mem_write>:

// Write contents to address in CPU memory */
inline void cpu_mem_write( byte data, word addr )
{
 80038c0:	defffc04 	addi	sp,sp,-16
 80038c4:	dfc00315 	stw	ra,12(sp)
 80038c8:	df000215 	stw	fp,8(sp)
 80038cc:	df000204 	addi	fp,sp,8
 80038d0:	e13ffe05 	stb	r4,-8(fp)
 80038d4:	e17fff0d 	sth	r5,-4(fp)
	//printf("\n$%x <= %x ", addr, data);

	// Addresses within $0800 - $1FFF are RAM mirrors
	if( (addr > 0x07FF) && ( addr < 0x2000) )
 80038d8:	e0bfff0b 	ldhu	r2,-4(fp)
 80038dc:	10820030 	cmpltui	r2,r2,2048
 80038e0:	10000b1e 	bne	r2,zero,8003910 <cpu_mem_write+0x50>
 80038e4:	e0bfff0b 	ldhu	r2,-4(fp)
 80038e8:	10880028 	cmpgeui	r2,r2,8192
 80038ec:	1000081e 	bne	r2,zero,8003910 <cpu_mem_write+0x50>
	{
		CPU->MEM[ (addr & 0x07FF) ] = data;
 80038f0:	d0a70717 	ldw	r2,-25572(gp)
 80038f4:	10c00517 	ldw	r3,20(r2)
 80038f8:	e0bfff0b 	ldhu	r2,-4(fp)
 80038fc:	1081ffcc 	andi	r2,r2,2047
 8003900:	1887883a 	add	r3,r3,r2
 8003904:	e0bffe03 	ldbu	r2,-8(fp)
 8003908:	18800005 	stb	r2,0(r3)
inline void cpu_mem_write( byte data, word addr )
{
	//printf("\n$%x <= %x ", addr, data);

	// Addresses within $0800 - $1FFF are RAM mirrors
	if( (addr > 0x07FF) && ( addr < 0x2000) )
 800390c:	00002b06 	br	80039bc <cpu_mem_write+0xfc>
	{
		CPU->MEM[ (addr & 0x07FF) ] = data;
	}
	// Addresses within $2008 - $4000 are PPU Register mirrors
	else if( (addr > 0x2007) && ( addr < 0x4000) )
 8003910:	e0bfff0b 	ldhu	r2,-4(fp)
 8003914:	10880230 	cmpltui	r2,r2,8200
 8003918:	1000181e 	bne	r2,zero,800397c <cpu_mem_write+0xbc>
 800391c:	e0bfff0b 	ldhu	r2,-4(fp)
 8003920:	10900028 	cmpgeui	r2,r2,16384
 8003924:	1000151e 	bne	r2,zero,800397c <cpu_mem_write+0xbc>
	{
		t1 = (PPUREG + (addr & 0x07));
 8003928:	e0bfff0b 	ldhu	r2,-4(fp)
 800392c:	108001cc 	andi	r2,r2,7
 8003930:	10880004 	addi	r2,r2,8192
 8003934:	d0a70e8d 	sth	r2,-25542(gp)
		if( t1 > 0x2003 )
 8003938:	d0a70e8b 	ldhu	r2,-25542(gp)
 800393c:	10bfffcc 	andi	r2,r2,65535
 8003940:	10880130 	cmpltui	r2,r2,8196
 8003944:	1000051e 	bne	r2,zero,800395c <cpu_mem_write+0x9c>
			write_ppu_reg( data, t1);
 8003948:	e13ffe03 	ldbu	r4,-8(fp)
 800394c:	d0a70e8b 	ldhu	r2,-25542(gp)
 8003950:	117fffcc 	andi	r5,r2,65535
 8003954:	8004e400 	call	8004e40 <write_ppu_reg>
 8003958:	00001806 	br	80039bc <cpu_mem_write+0xfc>
		else
			CPU->MEM[ t1 ] = data;
 800395c:	d0a70717 	ldw	r2,-25572(gp)
 8003960:	10c00517 	ldw	r3,20(r2)
 8003964:	d0a70e8b 	ldhu	r2,-25542(gp)
 8003968:	10bfffcc 	andi	r2,r2,65535
 800396c:	1887883a 	add	r3,r3,r2
 8003970:	e0bffe03 	ldbu	r2,-8(fp)
 8003974:	18800005 	stb	r2,0(r3)
	if( (addr > 0x07FF) && ( addr < 0x2000) )
	{
		CPU->MEM[ (addr & 0x07FF) ] = data;
	}
	// Addresses within $2008 - $4000 are PPU Register mirrors
	else if( (addr > 0x2007) && ( addr < 0x4000) )
 8003978:	00001006 	br	80039bc <cpu_mem_write+0xfc>
			CPU->MEM[ t1 ] = data;
	}
	// Regular, non-mirrored memory write
	else
	{
		if( addr > 0x2003 && addr < 0x2008 )
 800397c:	e0bfff0b 	ldhu	r2,-4(fp)
 8003980:	10880130 	cmpltui	r2,r2,8196
 8003984:	1000071e 	bne	r2,zero,80039a4 <cpu_mem_write+0xe4>
 8003988:	e0bfff0b 	ldhu	r2,-4(fp)
 800398c:	10880228 	cmpgeui	r2,r2,8200
 8003990:	1000041e 	bne	r2,zero,80039a4 <cpu_mem_write+0xe4>
			write_ppu_reg( data, addr );
 8003994:	e13ffe03 	ldbu	r4,-8(fp)
 8003998:	e17fff0b 	ldhu	r5,-4(fp)
 800399c:	8004e400 	call	8004e40 <write_ppu_reg>
			CPU->MEM[ t1 ] = data;
	}
	// Regular, non-mirrored memory write
	else
	{
		if( addr > 0x2003 && addr < 0x2008 )
 80039a0:	00000606 	br	80039bc <cpu_mem_write+0xfc>
			write_ppu_reg( data, addr );
		else
			CPU->MEM[ addr ] = data;
 80039a4:	d0a70717 	ldw	r2,-25572(gp)
 80039a8:	10c00517 	ldw	r3,20(r2)
 80039ac:	e0bfff0b 	ldhu	r2,-4(fp)
 80039b0:	1887883a 	add	r3,r3,r2
 80039b4:	e0bffe03 	ldbu	r2,-8(fp)
 80039b8:	18800005 	stb	r2,0(r3)

	}
	return;
}
 80039bc:	e037883a 	mov	sp,fp
 80039c0:	dfc00117 	ldw	ra,4(sp)
 80039c4:	df000017 	ldw	fp,0(sp)
 80039c8:	dec00204 	addi	sp,sp,8
 80039cc:	f800283a 	ret

080039d0 <cpu_join_flags>:

// Returns P/Status registers as one byte
inline byte cpu_join_flags()
{
 80039d0:	deffff04 	addi	sp,sp,-4
 80039d4:	df000015 	stw	fp,0(sp)
 80039d8:	d839883a 	mov	fp,sp
	return (((CPU->P.N << 7) & 0x80) | ((CPU->P.V << 6) & 0x40) |
 80039dc:	d0a70717 	ldw	r2,-25572(gp)
 80039e0:	10800243 	ldbu	r2,9(r2)
 80039e4:	10803fcc 	andi	r2,r2,255
 80039e8:	100491fa 	slli	r2,r2,7
 80039ec:	1007883a 	mov	r3,r2
 80039f0:	00bfe004 	movi	r2,-128
 80039f4:	1884703a 	and	r2,r3,r2
 80039f8:	1007883a 	mov	r3,r2
 80039fc:	d0a70717 	ldw	r2,-25572(gp)
 8003a00:	10800203 	ldbu	r2,8(r2)
 8003a04:	10803fcc 	andi	r2,r2,255
 8003a08:	100491ba 	slli	r2,r2,6
 8003a0c:	1080100c 	andi	r2,r2,64
 8003a10:	1884b03a 	or	r2,r3,r2
 8003a14:	1007883a 	mov	r3,r2
 8003a18:	d0a70717 	ldw	r2,-25572(gp)
 8003a1c:	10800183 	ldbu	r2,6(r2)
 8003a20:	10803fcc 	andi	r2,r2,255
 8003a24:	100490fa 	slli	r2,r2,3
 8003a28:	1080020c 	andi	r2,r2,8
 8003a2c:	1884b03a 	or	r2,r3,r2
 8003a30:	1007883a 	mov	r3,r2
 8003a34:	d0a70717 	ldw	r2,-25572(gp)
 8003a38:	10800143 	ldbu	r2,5(r2)
 8003a3c:	10803fcc 	andi	r2,r2,255
 8003a40:	1085883a 	add	r2,r2,r2
 8003a44:	1085883a 	add	r2,r2,r2
 8003a48:	1080010c 	andi	r2,r2,4
 8003a4c:	1884b03a 	or	r2,r3,r2
 8003a50:	1007883a 	mov	r3,r2
 8003a54:	d0a70717 	ldw	r2,-25572(gp)
 8003a58:	10800103 	ldbu	r2,4(r2)
 8003a5c:	10803fcc 	andi	r2,r2,255
 8003a60:	1085883a 	add	r2,r2,r2
 8003a64:	1080008c 	andi	r2,r2,2
 8003a68:	1884b03a 	or	r2,r3,r2
 8003a6c:	1007883a 	mov	r3,r2
 8003a70:	d0a70717 	ldw	r2,-25572(gp)
 8003a74:	108000c3 	ldbu	r2,3(r2)
 8003a78:	1080004c 	andi	r2,r2,1
 8003a7c:	1884b03a 	or	r2,r3,r2
 8003a80:	10800c14 	ori	r2,r2,48
 8003a84:	10803fcc 	andi	r2,r2,255
			((0x01 << 5)) | ((0x01 << 4) & 0x10) | ((CPU->P.D << 3) & 0x08) |
			((CPU->P.I << 2) & 0x04) | ((CPU->P.Z << 1) & 0x02) | ((CPU->P.C) & 0x01));
}
 8003a88:	e037883a 	mov	sp,fp
 8003a8c:	df000017 	ldw	fp,0(sp)
 8003a90:	dec00104 	addi	sp,sp,4
 8003a94:	f800283a 	ret

08003a98 <cpu_split_flags>:


// Retrieves flags as a byte, splits them, and returns to flag registers.
inline void cpu_split_flags( byte operand )
{
 8003a98:	defffe04 	addi	sp,sp,-8
 8003a9c:	df000115 	stw	fp,4(sp)
 8003aa0:	df000104 	addi	fp,sp,4
 8003aa4:	e13fff05 	stb	r4,-4(fp)
    CPU->P.N = (operand >> 7) & 0x01;
 8003aa8:	d0e70717 	ldw	r3,-25572(gp)
 8003aac:	e0bfff03 	ldbu	r2,-4(fp)
 8003ab0:	1004d1fa 	srli	r2,r2,7
 8003ab4:	1080004c 	andi	r2,r2,1
 8003ab8:	18800245 	stb	r2,9(r3)
    CPU->P.V = (operand >> 6) & 0x01;
 8003abc:	d0e70717 	ldw	r3,-25572(gp)
 8003ac0:	e0bfff03 	ldbu	r2,-4(fp)
 8003ac4:	1004d1ba 	srli	r2,r2,6
 8003ac8:	1080004c 	andi	r2,r2,1
 8003acc:	18800205 	stb	r2,8(r3)
    // Note: 5th bit doesn't exist.
    //CPU->P.B = (operand >> 4) & 0x01;
    //CPU->P.D = (operand >> 3) & 0x01;
    CPU->P.I = (operand >> 2) & 0x01;
 8003ad0:	d0e70717 	ldw	r3,-25572(gp)
 8003ad4:	e0bfff03 	ldbu	r2,-4(fp)
 8003ad8:	1004d0ba 	srli	r2,r2,2
 8003adc:	1080004c 	andi	r2,r2,1
 8003ae0:	18800145 	stb	r2,5(r3)
    CPU->P.Z = (operand >> 1) & 0x01;
 8003ae4:	d0e70717 	ldw	r3,-25572(gp)
 8003ae8:	e0bfff03 	ldbu	r2,-4(fp)
 8003aec:	1004d07a 	srli	r2,r2,1
 8003af0:	1080004c 	andi	r2,r2,1
 8003af4:	18800105 	stb	r2,4(r3)
    CPU->P.C = (operand) & 0x01;
 8003af8:	d0e70717 	ldw	r3,-25572(gp)
 8003afc:	e0bfff03 	ldbu	r2,-4(fp)
 8003b00:	1080004c 	andi	r2,r2,1
 8003b04:	188000c5 	stb	r2,3(r3)

    return;
}
 8003b08:	e037883a 	mov	sp,fp
 8003b0c:	df000017 	ldw	fp,0(sp)
 8003b10:	dec00104 	addi	sp,sp,4
 8003b14:	f800283a 	ret

08003b18 <rel_page_boundary>:

// Checks if instruction would cause a page boundary
inline byte rel_page_boundary( word carry )
{
 8003b18:	defffd04 	addi	sp,sp,-12
 8003b1c:	df000215 	stw	fp,8(sp)
 8003b20:	df000204 	addi	fp,sp,8
 8003b24:	e13ffe0d 	sth	r4,-8(fp)
    pb = ((CPU->PC & 0xFF) + (signed char) carry); // Check if adding the operand to lower byte of PC causes a carry
 8003b28:	d0a70717 	ldw	r2,-25572(gp)
 8003b2c:	1080000b 	ldhu	r2,0(r2)
 8003b30:	10803fcc 	andi	r2,r2,255
 8003b34:	1007883a 	mov	r3,r2
 8003b38:	e0bffe0b 	ldhu	r2,-8(fp)
 8003b3c:	10803fcc 	andi	r2,r2,255
 8003b40:	1080201c 	xori	r2,r2,128
 8003b44:	10bfe004 	addi	r2,r2,-128
 8003b48:	1885883a 	add	r2,r3,r2
 8003b4c:	d0a70d0d 	sth	r2,-25548(gp)
    return (( pb < 0 ) || (pb > 0xFF)) ? 1 : 0;
 8003b50:	d0a70d0b 	ldhu	r2,-25548(gp)
 8003b54:	10bfffcc 	andi	r2,r2,65535
 8003b58:	10a0001c 	xori	r2,r2,32768
 8003b5c:	10a00004 	addi	r2,r2,-32768
 8003b60:	1004803a 	cmplt	r2,r2,zero
 8003b64:	1000061e 	bne	r2,zero,8003b80 <rel_page_boundary+0x68>
 8003b68:	d0a70d0b 	ldhu	r2,-25548(gp)
 8003b6c:	10bfffcc 	andi	r2,r2,65535
 8003b70:	10a0001c 	xori	r2,r2,32768
 8003b74:	10a00004 	addi	r2,r2,-32768
 8003b78:	10804010 	cmplti	r2,r2,256
 8003b7c:	1000031e 	bne	r2,zero,8003b8c <rel_page_boundary+0x74>
 8003b80:	00800044 	movi	r2,1
 8003b84:	e0bfff15 	stw	r2,-4(fp)
 8003b88:	00000106 	br	8003b90 <rel_page_boundary+0x78>
 8003b8c:	e03fff15 	stw	zero,-4(fp)
 8003b90:	e0ffff17 	ldw	r3,-4(fp)
 8003b94:	1805883a 	mov	r2,r3
 8003b98:	10803fcc 	andi	r2,r2,255
}
 8003b9c:	e037883a 	mov	sp,fp
 8003ba0:	df000017 	ldw	fp,0(sp)
 8003ba4:	dec00104 	addi	sp,sp,4
 8003ba8:	f800283a 	ret

08003bac <ABS>:
// ======================= Addressing Modes (reading) ===================================
inline byte ABS()	// Absolute read
{
 8003bac:	defffd04 	addi	sp,sp,-12
 8003bb0:	dfc00215 	stw	ra,8(sp)
 8003bb4:	df000115 	stw	fp,4(sp)
 8003bb8:	df000104 	addi	fp,sp,4
  t1 = (cpu_read());
 8003bbc:	800378c0 	call	800378c <cpu_read>
 8003bc0:	10803fcc 	andi	r2,r2,255
 8003bc4:	d0a70e8d 	sth	r2,-25542(gp)
  t2 = (cpu_read()) << 8;
 8003bc8:	800378c0 	call	800378c <cpu_read>
 8003bcc:	10803fcc 	andi	r2,r2,255
 8003bd0:	1004923a 	slli	r2,r2,8
 8003bd4:	d0a70a0d 	sth	r2,-25560(gp)
  word temp_addr = t1 | t2;  // Grab lower and upper byte
 8003bd8:	d0e70e8b 	ldhu	r3,-25542(gp)
 8003bdc:	d0a70a0b 	ldhu	r2,-25560(gp)
 8003be0:	1884b03a 	or	r2,r3,r2
 8003be4:	e0bfff0d 	sth	r2,-4(fp)
  return cpu_mem_read( temp_addr );
 8003be8:	e13fff0b 	ldhu	r4,-4(fp)
 8003bec:	80037d40 	call	80037d4 <cpu_mem_read>
 8003bf0:	10803fcc 	andi	r2,r2,255
}
 8003bf4:	e037883a 	mov	sp,fp
 8003bf8:	dfc00117 	ldw	ra,4(sp)
 8003bfc:	df000017 	ldw	fp,0(sp)
 8003c00:	dec00204 	addi	sp,sp,8
 8003c04:	f800283a 	ret

08003c08 <ABSX>:

inline byte ABSX() // Absolute X read
{
 8003c08:	defffd04 	addi	sp,sp,-12
 8003c0c:	dfc00215 	stw	ra,8(sp)
 8003c10:	df000115 	stw	fp,4(sp)
 8003c14:	df000104 	addi	fp,sp,4
  t1 = (cpu_read());
 8003c18:	800378c0 	call	800378c <cpu_read>
 8003c1c:	10803fcc 	andi	r2,r2,255
 8003c20:	d0a70e8d 	sth	r2,-25542(gp)
  t2 = (cpu_read()) << 8;
 8003c24:	800378c0 	call	800378c <cpu_read>
 8003c28:	10803fcc 	andi	r2,r2,255
 8003c2c:	1004923a 	slli	r2,r2,8
 8003c30:	d0a70a0d 	sth	r2,-25560(gp)
  word temp_addr = t1 | t2;  // Grab lower and upper byte
 8003c34:	d0e70e8b 	ldhu	r3,-25542(gp)
 8003c38:	d0a70a0b 	ldhu	r2,-25560(gp)
 8003c3c:	1884b03a 	or	r2,r3,r2
 8003c40:	e0bfff0d 	sth	r2,-4(fp)

  if( ((temp_addr & 0xFF) + CPU->X) > 0xFF ) CPU->page_boundary = 1; // Only used for some opcodes!! Adds extra clock cycles
 8003c44:	e0bfff0b 	ldhu	r2,-4(fp)
 8003c48:	10c03fcc 	andi	r3,r2,255
 8003c4c:	d0a70717 	ldw	r2,-25572(gp)
 8003c50:	108002c3 	ldbu	r2,11(r2)
 8003c54:	10803fcc 	andi	r2,r2,255
 8003c58:	1885883a 	add	r2,r3,r2
 8003c5c:	10804010 	cmplti	r2,r2,256
 8003c60:	1000041e 	bne	r2,zero,8003c74 <ABSX+0x6c>
 8003c64:	d0e70717 	ldw	r3,-25572(gp)
 8003c68:	00800044 	movi	r2,1
 8003c6c:	188007c5 	stb	r2,31(r3)
 8003c70:	00000206 	br	8003c7c <ABSX+0x74>
  else CPU->page_boundary = 0;
 8003c74:	d0a70717 	ldw	r2,-25572(gp)
 8003c78:	100007c5 	stb	zero,31(r2)

  return cpu_mem_read( (temp_addr + CPU->X) & 0xFFFF ); // Wrap occurs if base + X > 0xFFFF
 8003c7c:	d0a70717 	ldw	r2,-25572(gp)
 8003c80:	108002c3 	ldbu	r2,11(r2)
 8003c84:	10c03fcc 	andi	r3,r2,255
 8003c88:	e0bfff0b 	ldhu	r2,-4(fp)
 8003c8c:	1885883a 	add	r2,r3,r2
 8003c90:	113fffcc 	andi	r4,r2,65535
 8003c94:	80037d40 	call	80037d4 <cpu_mem_read>
 8003c98:	10803fcc 	andi	r2,r2,255
}
 8003c9c:	e037883a 	mov	sp,fp
 8003ca0:	dfc00117 	ldw	ra,4(sp)
 8003ca4:	df000017 	ldw	fp,0(sp)
 8003ca8:	dec00204 	addi	sp,sp,8
 8003cac:	f800283a 	ret

08003cb0 <ABSY>:

inline byte ABSY() // Absolute Y read
{
 8003cb0:	defffe04 	addi	sp,sp,-8
 8003cb4:	dfc00115 	stw	ra,4(sp)
 8003cb8:	df000015 	stw	fp,0(sp)
 8003cbc:	d839883a 	mov	fp,sp
  l = (cpu_read());
 8003cc0:	800378c0 	call	800378c <cpu_read>
 8003cc4:	10803fcc 	andi	r2,r2,255
 8003cc8:	d0a7098d 	sth	r2,-25562(gp)
  h = (cpu_read()) << 8;
 8003ccc:	800378c0 	call	800378c <cpu_read>
 8003cd0:	10803fcc 	andi	r2,r2,255
 8003cd4:	1004923a 	slli	r2,r2,8
 8003cd8:	d0a7108d 	sth	r2,-25534(gp)
  t1 = l | h;  // Grab lower and upper byte
 8003cdc:	d0e7098b 	ldhu	r3,-25562(gp)
 8003ce0:	d0a7108b 	ldhu	r2,-25534(gp)
 8003ce4:	1884b03a 	or	r2,r3,r2
 8003ce8:	d0a70e8d 	sth	r2,-25542(gp)

  if( ((temp_addr & 0xFF) + CPU->X) > 0xFF ) CPU->page_boundary = 1; // Only used for some opcodes!! Adds extra clock cycles
 8003cec:	d0a70d8b 	ldhu	r2,-25546(gp)
 8003cf0:	10bfffcc 	andi	r2,r2,65535
 8003cf4:	10c03fcc 	andi	r3,r2,255
 8003cf8:	d0a70717 	ldw	r2,-25572(gp)
 8003cfc:	108002c3 	ldbu	r2,11(r2)
 8003d00:	10803fcc 	andi	r2,r2,255
 8003d04:	1885883a 	add	r2,r3,r2
 8003d08:	10804010 	cmplti	r2,r2,256
 8003d0c:	1000041e 	bne	r2,zero,8003d20 <ABSY+0x70>
 8003d10:	d0e70717 	ldw	r3,-25572(gp)
 8003d14:	00800044 	movi	r2,1
 8003d18:	188007c5 	stb	r2,31(r3)
 8003d1c:	00000206 	br	8003d28 <ABSY+0x78>
  else CPU->page_boundary = 0;
 8003d20:	d0a70717 	ldw	r2,-25572(gp)
 8003d24:	100007c5 	stb	zero,31(r2)

  return cpu_mem_read( ( t1 + CPU->Y) & 0xFFFF );
 8003d28:	d0a70717 	ldw	r2,-25572(gp)
 8003d2c:	10800303 	ldbu	r2,12(r2)
 8003d30:	10c03fcc 	andi	r3,r2,255
 8003d34:	d0a70e8b 	ldhu	r2,-25542(gp)
 8003d38:	1885883a 	add	r2,r3,r2
 8003d3c:	113fffcc 	andi	r4,r2,65535
 8003d40:	80037d40 	call	80037d4 <cpu_mem_read>
 8003d44:	10803fcc 	andi	r2,r2,255
}
 8003d48:	e037883a 	mov	sp,fp
 8003d4c:	dfc00117 	ldw	ra,4(sp)
 8003d50:	df000017 	ldw	fp,0(sp)
 8003d54:	dec00204 	addi	sp,sp,8
 8003d58:	f800283a 	ret

08003d5c <XIND>:

inline byte XIND() // [ Indirect, x ] read
{
 8003d5c:	defffe04 	addi	sp,sp,-8
 8003d60:	dfc00115 	stw	ra,4(sp)
 8003d64:	df000015 	stw	fp,0(sp)
 8003d68:	d839883a 	mov	fp,sp
  t1 = cpu_read();			// Fetch operand byte
 8003d6c:	800378c0 	call	800378c <cpu_read>
 8003d70:	10803fcc 	andi	r2,r2,255
 8003d74:	d0a70e8d 	sth	r2,-25542(gp)
  l = cpu_mem_read( (t1 + CPU->X) & 0xFF );				// Fetch lower byte of address
 8003d78:	d0a70717 	ldw	r2,-25572(gp)
 8003d7c:	108002c3 	ldbu	r2,11(r2)
 8003d80:	10c03fcc 	andi	r3,r2,255
 8003d84:	d0a70e8b 	ldhu	r2,-25542(gp)
 8003d88:	1885883a 	add	r2,r3,r2
 8003d8c:	10bfffcc 	andi	r2,r2,65535
 8003d90:	11003fcc 	andi	r4,r2,255
 8003d94:	80037d40 	call	80037d4 <cpu_mem_read>
 8003d98:	10803fcc 	andi	r2,r2,255
 8003d9c:	d0a7098d 	sth	r2,-25562(gp)
  h = cpu_mem_read( (t1 + 1 + CPU->X) & 0xFF ) << 8; 	// Fetch higher byte of address
 8003da0:	d0a70717 	ldw	r2,-25572(gp)
 8003da4:	108002c3 	ldbu	r2,11(r2)
 8003da8:	10c03fcc 	andi	r3,r2,255
 8003dac:	d0a70e8b 	ldhu	r2,-25542(gp)
 8003db0:	1885883a 	add	r2,r3,r2
 8003db4:	10800044 	addi	r2,r2,1
 8003db8:	10bfffcc 	andi	r2,r2,65535
 8003dbc:	11003fcc 	andi	r4,r2,255
 8003dc0:	80037d40 	call	80037d4 <cpu_mem_read>
 8003dc4:	10803fcc 	andi	r2,r2,255
 8003dc8:	1004923a 	slli	r2,r2,8
 8003dcc:	d0a7108d 	sth	r2,-25534(gp)

  return cpu_mem_read( l | h );							// Get contents of address
 8003dd0:	d0e7098b 	ldhu	r3,-25562(gp)
 8003dd4:	d0a7108b 	ldhu	r2,-25534(gp)
 8003dd8:	1884b03a 	or	r2,r3,r2
 8003ddc:	113fffcc 	andi	r4,r2,65535
 8003de0:	80037d40 	call	80037d4 <cpu_mem_read>
 8003de4:	10803fcc 	andi	r2,r2,255
}
 8003de8:	e037883a 	mov	sp,fp
 8003dec:	dfc00117 	ldw	ra,4(sp)
 8003df0:	df000017 	ldw	fp,0(sp)
 8003df4:	dec00204 	addi	sp,sp,8
 8003df8:	f800283a 	ret

08003dfc <INDY>:

inline byte INDY() // [ Indirect ], Y read
{
 8003dfc:	defffe04 	addi	sp,sp,-8
 8003e00:	dfc00115 	stw	ra,4(sp)
 8003e04:	df000015 	stw	fp,0(sp)
 8003e08:	d839883a 	mov	fp,sp
  t1 = cpu_read(); 		  					 // Fetch operand byte
 8003e0c:	800378c0 	call	800378c <cpu_read>
 8003e10:	10803fcc 	andi	r2,r2,255
 8003e14:	d0a70e8d 	sth	r2,-25542(gp)
  l = cpu_mem_read( t1 ); 					 // Fetch lower byte of address
 8003e18:	d0a70e8b 	ldhu	r2,-25542(gp)
 8003e1c:	113fffcc 	andi	r4,r2,65535
 8003e20:	80037d40 	call	80037d4 <cpu_mem_read>
 8003e24:	10803fcc 	andi	r2,r2,255
 8003e28:	d0a7098d 	sth	r2,-25562(gp)
  h = cpu_mem_read( (t1 + 1) && 0xFF ) << 8; // Fetch higher byte of address
 8003e2c:	d0a70e8b 	ldhu	r2,-25542(gp)
 8003e30:	10bfffcc 	andi	r2,r2,65535
 8003e34:	113fffd8 	cmpnei	r4,r2,-1
 8003e38:	80037d40 	call	80037d4 <cpu_mem_read>
 8003e3c:	10803fcc 	andi	r2,r2,255
 8003e40:	1004923a 	slli	r2,r2,8
 8003e44:	d0a7108d 	sth	r2,-25534(gp)
  t2 = ((l | h) + CPU->Y) & 0xFFFF;			 // Calculate address with Y register, taking into account adress wrapping.
 8003e48:	d0e7098b 	ldhu	r3,-25562(gp)
 8003e4c:	d0a7108b 	ldhu	r2,-25534(gp)
 8003e50:	1884b03a 	or	r2,r3,r2
 8003e54:	1007883a 	mov	r3,r2
 8003e58:	d0a70717 	ldw	r2,-25572(gp)
 8003e5c:	10800303 	ldbu	r2,12(r2)
 8003e60:	10803fcc 	andi	r2,r2,255
 8003e64:	1885883a 	add	r2,r3,r2
 8003e68:	1007883a 	mov	r3,r2
 8003e6c:	00bfffc4 	movi	r2,-1
 8003e70:	1884703a 	and	r2,r3,r2
 8003e74:	d0a70a0d 	sth	r2,-25560(gp)

  if( ((temp_addr & 0xFF) + CPU->X) > 0xFF ) CPU->page_boundary = 1; // Only used for some opcodes!! Adds extra clock cycles
 8003e78:	d0a70d8b 	ldhu	r2,-25546(gp)
 8003e7c:	10bfffcc 	andi	r2,r2,65535
 8003e80:	10c03fcc 	andi	r3,r2,255
 8003e84:	d0a70717 	ldw	r2,-25572(gp)
 8003e88:	108002c3 	ldbu	r2,11(r2)
 8003e8c:	10803fcc 	andi	r2,r2,255
 8003e90:	1885883a 	add	r2,r3,r2
 8003e94:	10804010 	cmplti	r2,r2,256
 8003e98:	1000041e 	bne	r2,zero,8003eac <INDY+0xb0>
 8003e9c:	d0e70717 	ldw	r3,-25572(gp)
 8003ea0:	00800044 	movi	r2,1
 8003ea4:	188007c5 	stb	r2,31(r3)
 8003ea8:	00000206 	br	8003eb4 <INDY+0xb8>
  else CPU->page_boundary = 0;
 8003eac:	d0a70717 	ldw	r2,-25572(gp)
 8003eb0:	100007c5 	stb	zero,31(r2)

  return cpu_mem_read( t2 );  				 // Get contents of address
 8003eb4:	d0a70a0b 	ldhu	r2,-25560(gp)
 8003eb8:	113fffcc 	andi	r4,r2,65535
 8003ebc:	80037d40 	call	80037d4 <cpu_mem_read>
 8003ec0:	10803fcc 	andi	r2,r2,255
}
 8003ec4:	e037883a 	mov	sp,fp
 8003ec8:	dfc00117 	ldw	ra,4(sp)
 8003ecc:	df000017 	ldw	fp,0(sp)
 8003ed0:	dec00204 	addi	sp,sp,8
 8003ed4:	f800283a 	ret

08003ed8 <IMM>:

inline byte IMM()	// Immediate
{
 8003ed8:	defffe04 	addi	sp,sp,-8
 8003edc:	dfc00115 	stw	ra,4(sp)
 8003ee0:	df000015 	stw	fp,0(sp)
 8003ee4:	d839883a 	mov	fp,sp
  return cpu_read(); // operand = #$MEM[PC]
 8003ee8:	800378c0 	call	800378c <cpu_read>
 8003eec:	10803fcc 	andi	r2,r2,255
}
 8003ef0:	e037883a 	mov	sp,fp
 8003ef4:	dfc00117 	ldw	ra,4(sp)
 8003ef8:	df000017 	ldw	fp,0(sp)
 8003efc:	dec00204 	addi	sp,sp,8
 8003f00:	f800283a 	ret

08003f04 <ZP>:

inline byte ZP()	// Zeropage read. Note: Only 1 byte required, since ZP is $0000 - $00FF
{
 8003f04:	defffe04 	addi	sp,sp,-8
 8003f08:	dfc00115 	stw	ra,4(sp)
 8003f0c:	df000015 	stw	fp,0(sp)
 8003f10:	d839883a 	mov	fp,sp
  return cpu_mem_read( (cpu_read()) ); // operand = $(MEM[PC])
 8003f14:	800378c0 	call	800378c <cpu_read>
 8003f18:	11003fcc 	andi	r4,r2,255
 8003f1c:	80037d40 	call	80037d4 <cpu_mem_read>
 8003f20:	10803fcc 	andi	r2,r2,255
}
 8003f24:	e037883a 	mov	sp,fp
 8003f28:	dfc00117 	ldw	ra,4(sp)
 8003f2c:	df000017 	ldw	fp,0(sp)
 8003f30:	dec00204 	addi	sp,sp,8
 8003f34:	f800283a 	ret

08003f38 <ZPX>:

inline byte ZPX() // Zeropage, X read. Note: Wrap-around occurs if +X > $00FF
{
 8003f38:	defffe04 	addi	sp,sp,-8
 8003f3c:	dfc00115 	stw	ra,4(sp)
 8003f40:	df000015 	stw	fp,0(sp)
 8003f44:	d839883a 	mov	fp,sp
  return cpu_mem_read( ((cpu_read()) + CPU->X) & 0xFF ); // operand = $(MEM[PC])
 8003f48:	800378c0 	call	800378c <cpu_read>
 8003f4c:	10c03fcc 	andi	r3,r2,255
 8003f50:	d0a70717 	ldw	r2,-25572(gp)
 8003f54:	108002c3 	ldbu	r2,11(r2)
 8003f58:	10803fcc 	andi	r2,r2,255
 8003f5c:	1885883a 	add	r2,r3,r2
 8003f60:	10bfffcc 	andi	r2,r2,65535
 8003f64:	11003fcc 	andi	r4,r2,255
 8003f68:	80037d40 	call	80037d4 <cpu_mem_read>
 8003f6c:	10803fcc 	andi	r2,r2,255
}
 8003f70:	e037883a 	mov	sp,fp
 8003f74:	dfc00117 	ldw	ra,4(sp)
 8003f78:	df000017 	ldw	fp,0(sp)
 8003f7c:	dec00204 	addi	sp,sp,8
 8003f80:	f800283a 	ret

08003f84 <ABSw>:

// ======================= Addressing Modes (writing) ===================================
inline word ABSw() // Absolute write
{
 8003f84:	defffe04 	addi	sp,sp,-8
 8003f88:	dfc00115 	stw	ra,4(sp)
 8003f8c:	df000015 	stw	fp,0(sp)
 8003f90:	d839883a 	mov	fp,sp
  l = cpu_read();
 8003f94:	800378c0 	call	800378c <cpu_read>
 8003f98:	10803fcc 	andi	r2,r2,255
 8003f9c:	d0a7098d 	sth	r2,-25562(gp)
  h = cpu_read() << 8;
 8003fa0:	800378c0 	call	800378c <cpu_read>
 8003fa4:	10803fcc 	andi	r2,r2,255
 8003fa8:	1004923a 	slli	r2,r2,8
 8003fac:	d0a7108d 	sth	r2,-25534(gp)
  return l | h;
 8003fb0:	d0e7098b 	ldhu	r3,-25562(gp)
 8003fb4:	d0a7108b 	ldhu	r2,-25534(gp)
 8003fb8:	1884b03a 	or	r2,r3,r2
 8003fbc:	10bfffcc 	andi	r2,r2,65535
}
 8003fc0:	e037883a 	mov	sp,fp
 8003fc4:	dfc00117 	ldw	ra,4(sp)
 8003fc8:	df000017 	ldw	fp,0(sp)
 8003fcc:	dec00204 	addi	sp,sp,8
 8003fd0:	f800283a 	ret

08003fd4 <ABSXw>:

inline word ABSXw() // Absolute X write
{
 8003fd4:	defffd04 	addi	sp,sp,-12
 8003fd8:	dfc00215 	stw	ra,8(sp)
 8003fdc:	df000115 	stw	fp,4(sp)
 8003fe0:	df000104 	addi	fp,sp,4
  t1 = (cpu_read());
 8003fe4:	800378c0 	call	800378c <cpu_read>
 8003fe8:	10803fcc 	andi	r2,r2,255
 8003fec:	d0a70e8d 	sth	r2,-25542(gp)
  t2 = (cpu_read()) << 8;
 8003ff0:	800378c0 	call	800378c <cpu_read>
 8003ff4:	10803fcc 	andi	r2,r2,255
 8003ff8:	1004923a 	slli	r2,r2,8
 8003ffc:	d0a70a0d 	sth	r2,-25560(gp)
  word temp_addr = t1 | t2;  // Grab lower and upper byte
 8004000:	d0e70e8b 	ldhu	r3,-25542(gp)
 8004004:	d0a70a0b 	ldhu	r2,-25560(gp)
 8004008:	1884b03a 	or	r2,r3,r2
 800400c:	e0bfff0d 	sth	r2,-4(fp)
  return (temp_addr + CPU->X) & 0xFFFF; // Wrap occurs if base + X > 0xFFFF
 8004010:	d0a70717 	ldw	r2,-25572(gp)
 8004014:	108002c3 	ldbu	r2,11(r2)
 8004018:	10c03fcc 	andi	r3,r2,255
 800401c:	e0bfff0b 	ldhu	r2,-4(fp)
 8004020:	1885883a 	add	r2,r3,r2
 8004024:	10bfffcc 	andi	r2,r2,65535
}
 8004028:	e037883a 	mov	sp,fp
 800402c:	dfc00117 	ldw	ra,4(sp)
 8004030:	df000017 	ldw	fp,0(sp)
 8004034:	dec00204 	addi	sp,sp,8
 8004038:	f800283a 	ret

0800403c <ABSYw>:

inline word ABSYw() // Absolute Y write
{
 800403c:	defffe04 	addi	sp,sp,-8
 8004040:	dfc00115 	stw	ra,4(sp)
 8004044:	df000015 	stw	fp,0(sp)
 8004048:	d839883a 	mov	fp,sp
  l = (cpu_read());
 800404c:	800378c0 	call	800378c <cpu_read>
 8004050:	10803fcc 	andi	r2,r2,255
 8004054:	d0a7098d 	sth	r2,-25562(gp)
  h = (cpu_read()) << 8;
 8004058:	800378c0 	call	800378c <cpu_read>
 800405c:	10803fcc 	andi	r2,r2,255
 8004060:	1004923a 	slli	r2,r2,8
 8004064:	d0a7108d 	sth	r2,-25534(gp)
  t1 = l | h;  // Grab lower and upper byte
 8004068:	d0e7098b 	ldhu	r3,-25562(gp)
 800406c:	d0a7108b 	ldhu	r2,-25534(gp)
 8004070:	1884b03a 	or	r2,r3,r2
 8004074:	d0a70e8d 	sth	r2,-25542(gp)

  return ( t1 + CPU->Y) & 0xFFFF;
 8004078:	d0a70717 	ldw	r2,-25572(gp)
 800407c:	10800303 	ldbu	r2,12(r2)
 8004080:	10c03fcc 	andi	r3,r2,255
 8004084:	d0a70e8b 	ldhu	r2,-25542(gp)
 8004088:	1885883a 	add	r2,r3,r2
 800408c:	10bfffcc 	andi	r2,r2,65535
}
 8004090:	e037883a 	mov	sp,fp
 8004094:	dfc00117 	ldw	ra,4(sp)
 8004098:	df000017 	ldw	fp,0(sp)
 800409c:	dec00204 	addi	sp,sp,8
 80040a0:	f800283a 	ret

080040a4 <XINDw>:

inline word XINDw() // [ Indirect, x ] write
{
 80040a4:	defffe04 	addi	sp,sp,-8
 80040a8:	dfc00115 	stw	ra,4(sp)
 80040ac:	df000015 	stw	fp,0(sp)
 80040b0:	d839883a 	mov	fp,sp
  t1 = cpu_read();			// Fetch operand byte
 80040b4:	800378c0 	call	800378c <cpu_read>
 80040b8:	10803fcc 	andi	r2,r2,255
 80040bc:	d0a70e8d 	sth	r2,-25542(gp)
  l = cpu_mem_read( (t1 + CPU->X) & 0xFF );				// Fetch lower byte of address
 80040c0:	d0a70717 	ldw	r2,-25572(gp)
 80040c4:	108002c3 	ldbu	r2,11(r2)
 80040c8:	10c03fcc 	andi	r3,r2,255
 80040cc:	d0a70e8b 	ldhu	r2,-25542(gp)
 80040d0:	1885883a 	add	r2,r3,r2
 80040d4:	10bfffcc 	andi	r2,r2,65535
 80040d8:	11003fcc 	andi	r4,r2,255
 80040dc:	80037d40 	call	80037d4 <cpu_mem_read>
 80040e0:	10803fcc 	andi	r2,r2,255
 80040e4:	d0a7098d 	sth	r2,-25562(gp)
  h = cpu_mem_read( (t1 + 1 + CPU->X) & 0xFF ) << 8; 	// Fetch higher byte of address
 80040e8:	d0a70717 	ldw	r2,-25572(gp)
 80040ec:	108002c3 	ldbu	r2,11(r2)
 80040f0:	10c03fcc 	andi	r3,r2,255
 80040f4:	d0a70e8b 	ldhu	r2,-25542(gp)
 80040f8:	1885883a 	add	r2,r3,r2
 80040fc:	10800044 	addi	r2,r2,1
 8004100:	10bfffcc 	andi	r2,r2,65535
 8004104:	11003fcc 	andi	r4,r2,255
 8004108:	80037d40 	call	80037d4 <cpu_mem_read>
 800410c:	10803fcc 	andi	r2,r2,255
 8004110:	1004923a 	slli	r2,r2,8
 8004114:	d0a7108d 	sth	r2,-25534(gp)

  return l | h ;
 8004118:	d0e7098b 	ldhu	r3,-25562(gp)
 800411c:	d0a7108b 	ldhu	r2,-25534(gp)
 8004120:	1884b03a 	or	r2,r3,r2
 8004124:	10bfffcc 	andi	r2,r2,65535
}
 8004128:	e037883a 	mov	sp,fp
 800412c:	dfc00117 	ldw	ra,4(sp)
 8004130:	df000017 	ldw	fp,0(sp)
 8004134:	dec00204 	addi	sp,sp,8
 8004138:	f800283a 	ret

0800413c <INDYw>:

inline word INDYw() // [ Indirect ], Y write
{
 800413c:	defffe04 	addi	sp,sp,-8
 8004140:	dfc00115 	stw	ra,4(sp)
 8004144:	df000015 	stw	fp,0(sp)
 8004148:	d839883a 	mov	fp,sp
  t1 = cpu_read(); 		  					 // Fetch operand byte
 800414c:	800378c0 	call	800378c <cpu_read>
 8004150:	10803fcc 	andi	r2,r2,255
 8004154:	d0a70e8d 	sth	r2,-25542(gp)
  l = cpu_mem_read( t1 ); 					 // Fetch lower byte of address
 8004158:	d0a70e8b 	ldhu	r2,-25542(gp)
 800415c:	113fffcc 	andi	r4,r2,65535
 8004160:	80037d40 	call	80037d4 <cpu_mem_read>
 8004164:	10803fcc 	andi	r2,r2,255
 8004168:	d0a7098d 	sth	r2,-25562(gp)
  h = cpu_mem_read( (t1 + 1) && 0xFF ) << 8; // Fetch higher byte of address
 800416c:	d0a70e8b 	ldhu	r2,-25542(gp)
 8004170:	10bfffcc 	andi	r2,r2,65535
 8004174:	113fffd8 	cmpnei	r4,r2,-1
 8004178:	80037d40 	call	80037d4 <cpu_mem_read>
 800417c:	10803fcc 	andi	r2,r2,255
 8004180:	1004923a 	slli	r2,r2,8
 8004184:	d0a7108d 	sth	r2,-25534(gp)
  t2 = ((l | h) + CPU->Y) & 0xFFFF;			 // Calculate address with Y register, taking into account adress wrapping.
 8004188:	d0e7098b 	ldhu	r3,-25562(gp)
 800418c:	d0a7108b 	ldhu	r2,-25534(gp)
 8004190:	1884b03a 	or	r2,r3,r2
 8004194:	1007883a 	mov	r3,r2
 8004198:	d0a70717 	ldw	r2,-25572(gp)
 800419c:	10800303 	ldbu	r2,12(r2)
 80041a0:	10803fcc 	andi	r2,r2,255
 80041a4:	1885883a 	add	r2,r3,r2
 80041a8:	1007883a 	mov	r3,r2
 80041ac:	00bfffc4 	movi	r2,-1
 80041b0:	1884703a 	and	r2,r3,r2
 80041b4:	d0a70a0d 	sth	r2,-25560(gp)

  return t2;
 80041b8:	d0a70a0b 	ldhu	r2,-25560(gp)
 80041bc:	10bfffcc 	andi	r2,r2,65535
}
 80041c0:	e037883a 	mov	sp,fp
 80041c4:	dfc00117 	ldw	ra,4(sp)
 80041c8:	df000017 	ldw	fp,0(sp)
 80041cc:	dec00204 	addi	sp,sp,8
 80041d0:	f800283a 	ret

080041d4 <ZPXw>:

inline word ZPXw() // Zeropage, X write. Note: Wrap-around occurs if +X > $00FF
{
 80041d4:	defffe04 	addi	sp,sp,-8
 80041d8:	dfc00115 	stw	ra,4(sp)
 80041dc:	df000015 	stw	fp,0(sp)
 80041e0:	d839883a 	mov	fp,sp
  return ( cpu_read() + CPU->X) & 0xFF;
 80041e4:	800378c0 	call	800378c <cpu_read>
 80041e8:	10c03fcc 	andi	r3,r2,255
 80041ec:	d0a70717 	ldw	r2,-25572(gp)
 80041f0:	108002c3 	ldbu	r2,11(r2)
 80041f4:	10803fcc 	andi	r2,r2,255
 80041f8:	1885883a 	add	r2,r3,r2
 80041fc:	10bfffcc 	andi	r2,r2,65535
 8004200:	10803fcc 	andi	r2,r2,255
}
 8004204:	e037883a 	mov	sp,fp
 8004208:	dfc00117 	ldw	ra,4(sp)
 800420c:	df000017 	ldw	fp,0(sp)
 8004210:	dec00204 	addi	sp,sp,8
 8004214:	f800283a 	ret

08004218 <ADC>:

// ======================= Instructions ===================================
inline void ADC(byte operand) // Add w/ Carry
{
 8004218:	defffd04 	addi	sp,sp,-12
 800421c:	df000215 	stw	fp,8(sp)
 8004220:	df000204 	addi	fp,sp,8
 8004224:	e13fff05 	stb	r4,-4(fp)
  byte temp = CPU->A + operand + CPU->P.C;
 8004228:	d0a70717 	ldw	r2,-25572(gp)
 800422c:	10c00283 	ldbu	r3,10(r2)
 8004230:	e0bfff03 	ldbu	r2,-4(fp)
 8004234:	1885883a 	add	r2,r3,r2
 8004238:	1007883a 	mov	r3,r2
 800423c:	d0a70717 	ldw	r2,-25572(gp)
 8004240:	108000c3 	ldbu	r2,3(r2)
 8004244:	1885883a 	add	r2,r3,r2
 8004248:	e0bffe05 	stb	r2,-8(fp)
  CPU->P.V = ((CPU->A & 0x80) != (temp & 0x80)) ? 1 : 0;
 800424c:	d1270717 	ldw	r4,-25572(gp)
 8004250:	d0a70717 	ldw	r2,-25572(gp)
 8004254:	10800283 	ldbu	r2,10(r2)
 8004258:	10803fcc 	andi	r2,r2,255
 800425c:	10c0200c 	andi	r3,r2,128
 8004260:	e0bffe03 	ldbu	r2,-8(fp)
 8004264:	1080200c 	andi	r2,r2,128
 8004268:	1884c03a 	cmpne	r2,r3,r2
 800426c:	20800205 	stb	r2,8(r4)
  CPU->P.N = (((CPU->A & 0x80)) > 0) ? 1 : 0;
 8004270:	d0e70717 	ldw	r3,-25572(gp)
 8004274:	d0a70717 	ldw	r2,-25572(gp)
 8004278:	10800283 	ldbu	r2,10(r2)
 800427c:	10803fcc 	andi	r2,r2,255
 8004280:	1080200c 	andi	r2,r2,128
 8004284:	10800048 	cmpgei	r2,r2,1
 8004288:	18800245 	stb	r2,9(r3)
  CPU->P.Z = (temp == 0) ? 1 : 0;
 800428c:	d0e70717 	ldw	r3,-25572(gp)
 8004290:	e0bffe03 	ldbu	r2,-8(fp)
 8004294:	1005003a 	cmpeq	r2,r2,zero
 8004298:	18800105 	stb	r2,4(r3)
  CPU->A = temp & 0xFF;
 800429c:	d0e70717 	ldw	r3,-25572(gp)
 80042a0:	e0bffe03 	ldbu	r2,-8(fp)
 80042a4:	18800285 	stb	r2,10(r3)
  return;
}
 80042a8:	e037883a 	mov	sp,fp
 80042ac:	df000017 	ldw	fp,0(sp)
 80042b0:	dec00104 	addi	sp,sp,4
 80042b4:	f800283a 	ret

080042b8 <AND>:

inline void AND(byte operand) // AND
{
 80042b8:	defffe04 	addi	sp,sp,-8
 80042bc:	df000115 	stw	fp,4(sp)
 80042c0:	df000104 	addi	fp,sp,4
 80042c4:	e13fff05 	stb	r4,-4(fp)
  ////printf(" AND #%x with %x ", operand, CPU->A);
  CPU->A = CPU->A & operand;
 80042c8:	d1270717 	ldw	r4,-25572(gp)
 80042cc:	d0a70717 	ldw	r2,-25572(gp)
 80042d0:	10c00283 	ldbu	r3,10(r2)
 80042d4:	e0bfff03 	ldbu	r2,-4(fp)
 80042d8:	1884703a 	and	r2,r3,r2
 80042dc:	20800285 	stb	r2,10(r4)
  CPU->P.N = (((CPU->A & 0x80)) > 0) ? 1 : 0;
 80042e0:	d0e70717 	ldw	r3,-25572(gp)
 80042e4:	d0a70717 	ldw	r2,-25572(gp)
 80042e8:	10800283 	ldbu	r2,10(r2)
 80042ec:	10803fcc 	andi	r2,r2,255
 80042f0:	1080200c 	andi	r2,r2,128
 80042f4:	10800048 	cmpgei	r2,r2,1
 80042f8:	18800245 	stb	r2,9(r3)
  CPU->P.Z = (CPU->A == 0) ? 1 : 0;
 80042fc:	d0e70717 	ldw	r3,-25572(gp)
 8004300:	d0a70717 	ldw	r2,-25572(gp)
 8004304:	10800283 	ldbu	r2,10(r2)
 8004308:	10803fcc 	andi	r2,r2,255
 800430c:	1005003a 	cmpeq	r2,r2,zero
 8004310:	18800105 	stb	r2,4(r3)
  return;
}
 8004314:	e037883a 	mov	sp,fp
 8004318:	df000017 	ldw	fp,0(sp)
 800431c:	dec00104 	addi	sp,sp,4
 8004320:	f800283a 	ret

08004324 <ASL>:

inline byte ASL(byte operand) // Arithmetic Shift Left
{
 8004324:	defffe04 	addi	sp,sp,-8
 8004328:	df000115 	stw	fp,4(sp)
 800432c:	df000104 	addi	fp,sp,4
 8004330:	e13fff05 	stb	r4,-4(fp)
  CPU->P.C = (operand) & 0x80;
 8004334:	d1270717 	ldw	r4,-25572(gp)
 8004338:	00ffe004 	movi	r3,-128
 800433c:	e0bfff03 	ldbu	r2,-4(fp)
 8004340:	1884703a 	and	r2,r3,r2
 8004344:	208000c5 	stb	r2,3(r4)
  (operand) = ((operand) << 1) & 0xFE;
 8004348:	e0bfff03 	ldbu	r2,-4(fp)
 800434c:	1085883a 	add	r2,r2,r2
 8004350:	1007883a 	mov	r3,r2
 8004354:	00bfff84 	movi	r2,-2
 8004358:	1884703a 	and	r2,r3,r2
 800435c:	e0bfff05 	stb	r2,-4(fp)
  CPU->P.N = (((operand) & 0x80) > 0) ? 1 : 0;
 8004360:	d0e70717 	ldw	r3,-25572(gp)
 8004364:	e0bfff03 	ldbu	r2,-4(fp)
 8004368:	1080200c 	andi	r2,r2,128
 800436c:	10800048 	cmpgei	r2,r2,1
 8004370:	18800245 	stb	r2,9(r3)
  CPU->P.Z = ((operand) == 0) ? 1 : 0;
 8004374:	d0e70717 	ldw	r3,-25572(gp)
 8004378:	e0bfff03 	ldbu	r2,-4(fp)
 800437c:	1005003a 	cmpeq	r2,r2,zero
 8004380:	18800105 	stb	r2,4(r3)
  return operand;
 8004384:	e0bfff03 	ldbu	r2,-4(fp)
}
 8004388:	e037883a 	mov	sp,fp
 800438c:	df000017 	ldw	fp,0(sp)
 8004390:	dec00104 	addi	sp,sp,4
 8004394:	f800283a 	ret

08004398 <CMP>:

inline void CMP( byte operand ) // Compare bits with A
{
 8004398:	defffd04 	addi	sp,sp,-12
 800439c:	df000215 	stw	fp,8(sp)
 80043a0:	df000204 	addi	fp,sp,8
 80043a4:	e13fff05 	stb	r4,-4(fp)
  byte temp = CPU->A - operand;
 80043a8:	d0a70717 	ldw	r2,-25572(gp)
 80043ac:	10c00283 	ldbu	r3,10(r2)
 80043b0:	e0bfff03 	ldbu	r2,-4(fp)
 80043b4:	1885c83a 	sub	r2,r3,r2
 80043b8:	e0bffe05 	stb	r2,-8(fp)
  CPU->P.N = ((temp & 0x80) > 0) ? 1 : 0;
 80043bc:	d0e70717 	ldw	r3,-25572(gp)
 80043c0:	e0bffe03 	ldbu	r2,-8(fp)
 80043c4:	1080200c 	andi	r2,r2,128
 80043c8:	10800048 	cmpgei	r2,r2,1
 80043cc:	18800245 	stb	r2,9(r3)
  CPU->P.C = (CPU->A >= operand) ? 1 : 0;
 80043d0:	d1270717 	ldw	r4,-25572(gp)
 80043d4:	d0a70717 	ldw	r2,-25572(gp)
 80043d8:	10800283 	ldbu	r2,10(r2)
 80043dc:	10c03fcc 	andi	r3,r2,255
 80043e0:	e0bfff03 	ldbu	r2,-4(fp)
 80043e4:	1885403a 	cmpgeu	r2,r3,r2
 80043e8:	208000c5 	stb	r2,3(r4)
  CPU->P.Z = (temp == 0) ? 1 : 0;
 80043ec:	d0e70717 	ldw	r3,-25572(gp)
 80043f0:	e0bffe03 	ldbu	r2,-8(fp)
 80043f4:	1005003a 	cmpeq	r2,r2,zero
 80043f8:	18800105 	stb	r2,4(r3)
  return;
}
 80043fc:	e037883a 	mov	sp,fp
 8004400:	df000017 	ldw	fp,0(sp)
 8004404:	dec00104 	addi	sp,sp,4
 8004408:	f800283a 	ret

0800440c <CPX>:

inline void CPX( byte operand ) // Compare X
{
 800440c:	defffd04 	addi	sp,sp,-12
 8004410:	df000215 	stw	fp,8(sp)
 8004414:	df000204 	addi	fp,sp,8
 8004418:	e13fff05 	stb	r4,-4(fp)
  byte temp = CPU->X - operand;
 800441c:	d0a70717 	ldw	r2,-25572(gp)
 8004420:	10c002c3 	ldbu	r3,11(r2)
 8004424:	e0bfff03 	ldbu	r2,-4(fp)
 8004428:	1885c83a 	sub	r2,r3,r2
 800442c:	e0bffe05 	stb	r2,-8(fp)
  CPU->P.N = ((temp & 0x80) > 0) ? 1 : 0;
 8004430:	d0e70717 	ldw	r3,-25572(gp)
 8004434:	e0bffe03 	ldbu	r2,-8(fp)
 8004438:	1080200c 	andi	r2,r2,128
 800443c:	10800048 	cmpgei	r2,r2,1
 8004440:	18800245 	stb	r2,9(r3)
  CPU->P.C = (CPU->X >= operand) ? 1 : 0;
 8004444:	d1270717 	ldw	r4,-25572(gp)
 8004448:	d0a70717 	ldw	r2,-25572(gp)
 800444c:	108002c3 	ldbu	r2,11(r2)
 8004450:	10c03fcc 	andi	r3,r2,255
 8004454:	e0bfff03 	ldbu	r2,-4(fp)
 8004458:	1885403a 	cmpgeu	r2,r3,r2
 800445c:	208000c5 	stb	r2,3(r4)
  CPU->P.Z = (temp == 0) ? 1 : 0;
 8004460:	d0e70717 	ldw	r3,-25572(gp)
 8004464:	e0bffe03 	ldbu	r2,-8(fp)
 8004468:	1005003a 	cmpeq	r2,r2,zero
 800446c:	18800105 	stb	r2,4(r3)
  return;
}
 8004470:	e037883a 	mov	sp,fp
 8004474:	df000017 	ldw	fp,0(sp)
 8004478:	dec00104 	addi	sp,sp,4
 800447c:	f800283a 	ret

08004480 <CPY>:

inline void CPY( byte operand ) // Compare Y
{
 8004480:	defffd04 	addi	sp,sp,-12
 8004484:	df000215 	stw	fp,8(sp)
 8004488:	df000204 	addi	fp,sp,8
 800448c:	e13fff05 	stb	r4,-4(fp)
  byte temp = CPU->Y - operand;
 8004490:	d0a70717 	ldw	r2,-25572(gp)
 8004494:	10c00303 	ldbu	r3,12(r2)
 8004498:	e0bfff03 	ldbu	r2,-4(fp)
 800449c:	1885c83a 	sub	r2,r3,r2
 80044a0:	e0bffe05 	stb	r2,-8(fp)
  CPU->P.N = ((temp & 0x80) > 0) ? 1 : 0;
 80044a4:	d0e70717 	ldw	r3,-25572(gp)
 80044a8:	e0bffe03 	ldbu	r2,-8(fp)
 80044ac:	1080200c 	andi	r2,r2,128
 80044b0:	10800048 	cmpgei	r2,r2,1
 80044b4:	18800245 	stb	r2,9(r3)
  CPU->P.C = (CPU->Y >= operand) ? 1 : 0;
 80044b8:	d1270717 	ldw	r4,-25572(gp)
 80044bc:	d0a70717 	ldw	r2,-25572(gp)
 80044c0:	10800303 	ldbu	r2,12(r2)
 80044c4:	10c03fcc 	andi	r3,r2,255
 80044c8:	e0bfff03 	ldbu	r2,-4(fp)
 80044cc:	1885403a 	cmpgeu	r2,r3,r2
 80044d0:	208000c5 	stb	r2,3(r4)
  CPU->P.Z = (temp == 0) ? 1 : 0;
 80044d4:	d0e70717 	ldw	r3,-25572(gp)
 80044d8:	e0bffe03 	ldbu	r2,-8(fp)
 80044dc:	1005003a 	cmpeq	r2,r2,zero
 80044e0:	18800105 	stb	r2,4(r3)
  return;
}
 80044e4:	e037883a 	mov	sp,fp
 80044e8:	df000017 	ldw	fp,0(sp)
 80044ec:	dec00104 	addi	sp,sp,4
 80044f0:	f800283a 	ret

080044f4 <DEC>:


inline byte DEC( byte operand ) // Decrement
{
 80044f4:	defffe04 	addi	sp,sp,-8
 80044f8:	df000115 	stw	fp,4(sp)
 80044fc:	df000104 	addi	fp,sp,4
 8004500:	e13fff05 	stb	r4,-4(fp)
  (operand) = ((operand)-1) & 0xFF;
 8004504:	e0bfff03 	ldbu	r2,-4(fp)
 8004508:	10bfffc4 	addi	r2,r2,-1
 800450c:	1007883a 	mov	r3,r2
 8004510:	00bfffc4 	movi	r2,-1
 8004514:	1884703a 	and	r2,r3,r2
 8004518:	e0bfff05 	stb	r2,-4(fp)
  CPU->P.N = (operand) & 0x80;
 800451c:	d1270717 	ldw	r4,-25572(gp)
 8004520:	00ffe004 	movi	r3,-128
 8004524:	e0bfff03 	ldbu	r2,-4(fp)
 8004528:	1884703a 	and	r2,r3,r2
 800452c:	20800245 	stb	r2,9(r4)
  CPU->P.Z = ((operand) == 0) ? 1 : 0;
 8004530:	d0e70717 	ldw	r3,-25572(gp)
 8004534:	e0bfff03 	ldbu	r2,-4(fp)
 8004538:	1005003a 	cmpeq	r2,r2,zero
 800453c:	18800105 	stb	r2,4(r3)
  return operand;
 8004540:	e0bfff03 	ldbu	r2,-4(fp)
}
 8004544:	e037883a 	mov	sp,fp
 8004548:	df000017 	ldw	fp,0(sp)
 800454c:	dec00104 	addi	sp,sp,4
 8004550:	f800283a 	ret

08004554 <INC>:


inline byte INC( byte operand ) // Increment
{
 8004554:	defffe04 	addi	sp,sp,-8
 8004558:	df000115 	stw	fp,4(sp)
 800455c:	df000104 	addi	fp,sp,4
 8004560:	e13fff05 	stb	r4,-4(fp)
  (operand) = ((operand)+1) & 0xFF;
 8004564:	e0bfff03 	ldbu	r2,-4(fp)
 8004568:	10800044 	addi	r2,r2,1
 800456c:	1007883a 	mov	r3,r2
 8004570:	00bfffc4 	movi	r2,-1
 8004574:	1884703a 	and	r2,r3,r2
 8004578:	e0bfff05 	stb	r2,-4(fp)
  CPU->P.N = (((operand) & 0x80) > 0) ? 1 :0;
 800457c:	d0e70717 	ldw	r3,-25572(gp)
 8004580:	e0bfff03 	ldbu	r2,-4(fp)
 8004584:	1080200c 	andi	r2,r2,128
 8004588:	10800048 	cmpgei	r2,r2,1
 800458c:	18800245 	stb	r2,9(r3)
  CPU->P.Z = ((operand) == 0) ? 1 : 0;
 8004590:	d0e70717 	ldw	r3,-25572(gp)
 8004594:	e0bfff03 	ldbu	r2,-4(fp)
 8004598:	1005003a 	cmpeq	r2,r2,zero
 800459c:	18800105 	stb	r2,4(r3)
  return operand;
 80045a0:	e0bfff03 	ldbu	r2,-4(fp)
}
 80045a4:	e037883a 	mov	sp,fp
 80045a8:	df000017 	ldw	fp,0(sp)
 80045ac:	dec00104 	addi	sp,sp,4
 80045b0:	f800283a 	ret

080045b4 <LDA>:

inline void LDA( byte operand ) // Load into A
{
 80045b4:	defffe04 	addi	sp,sp,-8
 80045b8:	df000115 	stw	fp,4(sp)
 80045bc:	df000104 	addi	fp,sp,4
 80045c0:	e13fff05 	stb	r4,-4(fp)
  CPU->A = operand;
 80045c4:	d0e70717 	ldw	r3,-25572(gp)
 80045c8:	e0bfff03 	ldbu	r2,-4(fp)
 80045cc:	18800285 	stb	r2,10(r3)
  CPU->P.N = ((CPU->A & 0x80) > 0) ? 1 : 0;
 80045d0:	d0e70717 	ldw	r3,-25572(gp)
 80045d4:	d0a70717 	ldw	r2,-25572(gp)
 80045d8:	10800283 	ldbu	r2,10(r2)
 80045dc:	10803fcc 	andi	r2,r2,255
 80045e0:	1080200c 	andi	r2,r2,128
 80045e4:	10800048 	cmpgei	r2,r2,1
 80045e8:	18800245 	stb	r2,9(r3)
  CPU->P.Z = (CPU->A == 0) ? 1 :0;
 80045ec:	d0e70717 	ldw	r3,-25572(gp)
 80045f0:	d0a70717 	ldw	r2,-25572(gp)
 80045f4:	10800283 	ldbu	r2,10(r2)
 80045f8:	10803fcc 	andi	r2,r2,255
 80045fc:	1005003a 	cmpeq	r2,r2,zero
 8004600:	18800105 	stb	r2,4(r3)
  return;
}
 8004604:	e037883a 	mov	sp,fp
 8004608:	df000017 	ldw	fp,0(sp)
 800460c:	dec00104 	addi	sp,sp,4
 8004610:	f800283a 	ret

08004614 <LDX>:

inline void LDX( byte operand ) // Load into X
{
 8004614:	defffe04 	addi	sp,sp,-8
 8004618:	df000115 	stw	fp,4(sp)
 800461c:	df000104 	addi	fp,sp,4
 8004620:	e13fff05 	stb	r4,-4(fp)
  CPU->X = operand;
 8004624:	d0e70717 	ldw	r3,-25572(gp)
 8004628:	e0bfff03 	ldbu	r2,-4(fp)
 800462c:	188002c5 	stb	r2,11(r3)
  CPU->P.N = ((CPU->X & 0x80) > 0) ? 1 : 0;
 8004630:	d0e70717 	ldw	r3,-25572(gp)
 8004634:	d0a70717 	ldw	r2,-25572(gp)
 8004638:	108002c3 	ldbu	r2,11(r2)
 800463c:	10803fcc 	andi	r2,r2,255
 8004640:	1080200c 	andi	r2,r2,128
 8004644:	10800048 	cmpgei	r2,r2,1
 8004648:	18800245 	stb	r2,9(r3)
  CPU->P.Z = (CPU->X == 0) ? 1 :0;
 800464c:	d0e70717 	ldw	r3,-25572(gp)
 8004650:	d0a70717 	ldw	r2,-25572(gp)
 8004654:	108002c3 	ldbu	r2,11(r2)
 8004658:	10803fcc 	andi	r2,r2,255
 800465c:	1005003a 	cmpeq	r2,r2,zero
 8004660:	18800105 	stb	r2,4(r3)
  return;
}
 8004664:	e037883a 	mov	sp,fp
 8004668:	df000017 	ldw	fp,0(sp)
 800466c:	dec00104 	addi	sp,sp,4
 8004670:	f800283a 	ret

08004674 <LDY>:

inline void LDY( byte operand ) // Load into Y
{
 8004674:	defffe04 	addi	sp,sp,-8
 8004678:	df000115 	stw	fp,4(sp)
 800467c:	df000104 	addi	fp,sp,4
 8004680:	e13fff05 	stb	r4,-4(fp)
  CPU->Y = operand;
 8004684:	d0e70717 	ldw	r3,-25572(gp)
 8004688:	e0bfff03 	ldbu	r2,-4(fp)
 800468c:	18800305 	stb	r2,12(r3)
  CPU->P.N = ((CPU->Y & 0x80) > 0) ? 1 : 0;
 8004690:	d0e70717 	ldw	r3,-25572(gp)
 8004694:	d0a70717 	ldw	r2,-25572(gp)
 8004698:	10800303 	ldbu	r2,12(r2)
 800469c:	10803fcc 	andi	r2,r2,255
 80046a0:	1080200c 	andi	r2,r2,128
 80046a4:	10800048 	cmpgei	r2,r2,1
 80046a8:	18800245 	stb	r2,9(r3)
  CPU->P.Z = (CPU->Y == 0) ? 1 :0;
 80046ac:	d0e70717 	ldw	r3,-25572(gp)
 80046b0:	d0a70717 	ldw	r2,-25572(gp)
 80046b4:	10800303 	ldbu	r2,12(r2)
 80046b8:	10803fcc 	andi	r2,r2,255
 80046bc:	1005003a 	cmpeq	r2,r2,zero
 80046c0:	18800105 	stb	r2,4(r3)
  return;
}
 80046c4:	e037883a 	mov	sp,fp
 80046c8:	df000017 	ldw	fp,0(sp)
 80046cc:	dec00104 	addi	sp,sp,4
 80046d0:	f800283a 	ret

080046d4 <LSR>:

inline byte LSR( byte operand ) // Logical Shift Right
{
 80046d4:	defffe04 	addi	sp,sp,-8
 80046d8:	df000115 	stw	fp,4(sp)
 80046dc:	df000104 	addi	fp,sp,4
 80046e0:	e13fff05 	stb	r4,-4(fp)
  CPU->P.N = 0x00;
 80046e4:	d0a70717 	ldw	r2,-25572(gp)
 80046e8:	10000245 	stb	zero,9(r2)
  CPU->P.C = (operand) & 0x01;
 80046ec:	d0e70717 	ldw	r3,-25572(gp)
 80046f0:	e0bfff03 	ldbu	r2,-4(fp)
 80046f4:	1080004c 	andi	r2,r2,1
 80046f8:	188000c5 	stb	r2,3(r3)
  (operand) = ((operand) >> 1) & 0x7F;
 80046fc:	e0bfff03 	ldbu	r2,-4(fp)
 8004700:	1004d07a 	srli	r2,r2,1
 8004704:	10801fcc 	andi	r2,r2,127
 8004708:	e0bfff05 	stb	r2,-4(fp)
  CPU->P.Z = ((operand) == 0) ? 1 : 0;
 800470c:	d0e70717 	ldw	r3,-25572(gp)
 8004710:	e0bfff03 	ldbu	r2,-4(fp)
 8004714:	1005003a 	cmpeq	r2,r2,zero
 8004718:	18800105 	stb	r2,4(r3)
  return operand;
 800471c:	e0bfff03 	ldbu	r2,-4(fp)
}
 8004720:	e037883a 	mov	sp,fp
 8004724:	df000017 	ldw	fp,0(sp)
 8004728:	dec00104 	addi	sp,sp,4
 800472c:	f800283a 	ret

08004730 <ORA>:

inline void ORA( byte operand ) // OR with A
{
 8004730:	defffe04 	addi	sp,sp,-8
 8004734:	df000115 	stw	fp,4(sp)
 8004738:	df000104 	addi	fp,sp,4
 800473c:	e13fff05 	stb	r4,-4(fp)
  CPU->A = CPU->A | (operand);
 8004740:	d1270717 	ldw	r4,-25572(gp)
 8004744:	d0a70717 	ldw	r2,-25572(gp)
 8004748:	10c00283 	ldbu	r3,10(r2)
 800474c:	e0bfff03 	ldbu	r2,-4(fp)
 8004750:	1884b03a 	or	r2,r3,r2
 8004754:	20800285 	stb	r2,10(r4)
  CPU->P.N = ((CPU->A & 0x80) > 0) ? 1 : 0;
 8004758:	d0e70717 	ldw	r3,-25572(gp)
 800475c:	d0a70717 	ldw	r2,-25572(gp)
 8004760:	10800283 	ldbu	r2,10(r2)
 8004764:	10803fcc 	andi	r2,r2,255
 8004768:	1080200c 	andi	r2,r2,128
 800476c:	10800048 	cmpgei	r2,r2,1
 8004770:	18800245 	stb	r2,9(r3)
  CPU->P.Z = (CPU->A == 0 ) ? 1 : 0;
 8004774:	d0e70717 	ldw	r3,-25572(gp)
 8004778:	d0a70717 	ldw	r2,-25572(gp)
 800477c:	10800283 	ldbu	r2,10(r2)
 8004780:	10803fcc 	andi	r2,r2,255
 8004784:	1005003a 	cmpeq	r2,r2,zero
 8004788:	18800105 	stb	r2,4(r3)
  return;
}
 800478c:	e037883a 	mov	sp,fp
 8004790:	df000017 	ldw	fp,0(sp)
 8004794:	dec00104 	addi	sp,sp,4
 8004798:	f800283a 	ret

0800479c <ROL>:


inline byte ROL( byte operand ) // Rotate on Left
{
 800479c:	defffd04 	addi	sp,sp,-12
 80047a0:	df000215 	stw	fp,8(sp)
 80047a4:	df000204 	addi	fp,sp,8
 80047a8:	e13fff05 	stb	r4,-4(fp)
  byte temp = (operand) & 0x80;
 80047ac:	00ffe004 	movi	r3,-128
 80047b0:	e0bfff03 	ldbu	r2,-4(fp)
 80047b4:	10c4703a 	and	r2,r2,r3
 80047b8:	e0bffe05 	stb	r2,-8(fp)
  (operand) = ((operand) << 1) & 0xFE;
 80047bc:	e0bfff03 	ldbu	r2,-4(fp)
 80047c0:	1085883a 	add	r2,r2,r2
 80047c4:	1007883a 	mov	r3,r2
 80047c8:	00bfff84 	movi	r2,-2
 80047cc:	1884703a 	and	r2,r3,r2
 80047d0:	e0bfff05 	stb	r2,-4(fp)
  (operand) = (operand) | CPU->P.C;
 80047d4:	d0a70717 	ldw	r2,-25572(gp)
 80047d8:	10c000c3 	ldbu	r3,3(r2)
 80047dc:	e0bfff03 	ldbu	r2,-4(fp)
 80047e0:	10c4b03a 	or	r2,r2,r3
 80047e4:	e0bfff05 	stb	r2,-4(fp)
  CPU->P.C = (temp > 0) ? 1 : 0;
 80047e8:	d0e70717 	ldw	r3,-25572(gp)
 80047ec:	e0bffe03 	ldbu	r2,-8(fp)
 80047f0:	1004c03a 	cmpne	r2,r2,zero
 80047f4:	188000c5 	stb	r2,3(r3)
  CPU->P.Z = ((operand) == 0) ? 1 : 0;
 80047f8:	d0e70717 	ldw	r3,-25572(gp)
 80047fc:	e0bfff03 	ldbu	r2,-4(fp)
 8004800:	1005003a 	cmpeq	r2,r2,zero
 8004804:	18800105 	stb	r2,4(r3)
  CPU->P.N = (((operand) & 0x80) > 0) ? 1 : 0;
 8004808:	d0e70717 	ldw	r3,-25572(gp)
 800480c:	e0bfff03 	ldbu	r2,-4(fp)
 8004810:	1080200c 	andi	r2,r2,128
 8004814:	10800048 	cmpgei	r2,r2,1
 8004818:	18800245 	stb	r2,9(r3)
  return operand;
 800481c:	e0bfff03 	ldbu	r2,-4(fp)
}
 8004820:	e037883a 	mov	sp,fp
 8004824:	df000017 	ldw	fp,0(sp)
 8004828:	dec00104 	addi	sp,sp,4
 800482c:	f800283a 	ret

08004830 <ROR>:

inline byte ROR( byte operand ) // Rotate on Right
{
 8004830:	defffc04 	addi	sp,sp,-16
 8004834:	df000315 	stw	fp,12(sp)
 8004838:	df000304 	addi	fp,sp,12
 800483c:	e13ffe05 	stb	r4,-8(fp)
  byte temp = (operand) & 0x01;
 8004840:	e0bffe03 	ldbu	r2,-8(fp)
 8004844:	1080004c 	andi	r2,r2,1
 8004848:	e0bffd05 	stb	r2,-12(fp)
  (operand) = ((operand) >> 1) & 0x7F;
 800484c:	e0bffe03 	ldbu	r2,-8(fp)
 8004850:	1004d07a 	srli	r2,r2,1
 8004854:	10801fcc 	andi	r2,r2,127
 8004858:	e0bffe05 	stb	r2,-8(fp)
  (operand) = (operand) | ((CPU->P.C) ? 0x80 : 0x00);
 800485c:	d0a70717 	ldw	r2,-25572(gp)
 8004860:	108000c3 	ldbu	r2,3(r2)
 8004864:	10803fcc 	andi	r2,r2,255
 8004868:	1005003a 	cmpeq	r2,r2,zero
 800486c:	1000031e 	bne	r2,zero,800487c <ROR+0x4c>
 8004870:	00bfe004 	movi	r2,-128
 8004874:	e0bfff05 	stb	r2,-4(fp)
 8004878:	00000106 	br	8004880 <ROR+0x50>
 800487c:	e03fff05 	stb	zero,-4(fp)
 8004880:	e0bffe03 	ldbu	r2,-8(fp)
 8004884:	e0ffff03 	ldbu	r3,-4(fp)
 8004888:	1884b03a 	or	r2,r3,r2
 800488c:	e0bffe05 	stb	r2,-8(fp)
  CPU->P.C = temp;
 8004890:	d0e70717 	ldw	r3,-25572(gp)
 8004894:	e0bffd03 	ldbu	r2,-12(fp)
 8004898:	188000c5 	stb	r2,3(r3)
  CPU->P.Z = ((operand) == 0) ? 1 : 0;
 800489c:	d0e70717 	ldw	r3,-25572(gp)
 80048a0:	e0bffe03 	ldbu	r2,-8(fp)
 80048a4:	1005003a 	cmpeq	r2,r2,zero
 80048a8:	18800105 	stb	r2,4(r3)
  CPU->P.N = (((operand) & 0x80) > 0) ? 1 : 0;
 80048ac:	d0e70717 	ldw	r3,-25572(gp)
 80048b0:	e0bffe03 	ldbu	r2,-8(fp)
 80048b4:	1080200c 	andi	r2,r2,128
 80048b8:	10800048 	cmpgei	r2,r2,1
 80048bc:	18800245 	stb	r2,9(r3)
  return operand;
 80048c0:	e0bffe03 	ldbu	r2,-8(fp)
}
 80048c4:	e037883a 	mov	sp,fp
 80048c8:	df000017 	ldw	fp,0(sp)
 80048cc:	dec00104 	addi	sp,sp,4
 80048d0:	f800283a 	ret

080048d4 <SBC>:

inline void SBC( byte operand ) // Subtract with Carry
{
 80048d4:	defffb04 	addi	sp,sp,-20
 80048d8:	df000415 	stw	fp,16(sp)
 80048dc:	df000404 	addi	fp,sp,16
 80048e0:	e13ffd05 	stb	r4,-12(fp)
  int temp = CPU->A - operand - (!CPU->P.C);
 80048e4:	d0a70717 	ldw	r2,-25572(gp)
 80048e8:	10800283 	ldbu	r2,10(r2)
 80048ec:	10c03fcc 	andi	r3,r2,255
 80048f0:	e0bffd03 	ldbu	r2,-12(fp)
 80048f4:	1887c83a 	sub	r3,r3,r2
 80048f8:	d0a70717 	ldw	r2,-25572(gp)
 80048fc:	108000c3 	ldbu	r2,3(r2)
 8004900:	10803fcc 	andi	r2,r2,255
 8004904:	1005003a 	cmpeq	r2,r2,zero
 8004908:	1885c83a 	sub	r2,r3,r2
 800490c:	e0bffc15 	stw	r2,-16(fp)
  CPU->P.V = ( temp > 127 || temp < -128 )  ? 1 : 0;
 8004910:	d0a70717 	ldw	r2,-25572(gp)
 8004914:	e0bfff15 	stw	r2,-4(fp)
 8004918:	e0bffc17 	ldw	r2,-16(fp)
 800491c:	10802008 	cmpgei	r2,r2,128
 8004920:	1000031e 	bne	r2,zero,8004930 <SBC+0x5c>
 8004924:	e0bffc17 	ldw	r2,-16(fp)
 8004928:	10bfe008 	cmpgei	r2,r2,-128
 800492c:	1000031e 	bne	r2,zero,800493c <SBC+0x68>
 8004930:	00c00044 	movi	r3,1
 8004934:	e0fffe15 	stw	r3,-8(fp)
 8004938:	00000106 	br	8004940 <SBC+0x6c>
 800493c:	e03ffe15 	stw	zero,-8(fp)
 8004940:	e0fffe17 	ldw	r3,-8(fp)
 8004944:	1805883a 	mov	r2,r3
 8004948:	e0ffff17 	ldw	r3,-4(fp)
 800494c:	18800205 	stb	r2,8(r3)
  CPU->P.C = ((byte)temp > 0 ) ? 1 : 0;
 8004950:	d0e70717 	ldw	r3,-25572(gp)
 8004954:	e0bffc17 	ldw	r2,-16(fp)
 8004958:	10803fcc 	andi	r2,r2,255
 800495c:	1004c03a 	cmpne	r2,r2,zero
 8004960:	188000c5 	stb	r2,3(r3)
  CPU->P.N = (((byte)temp & 0x80) > 0) ? 1 : 0;
 8004964:	d0e70717 	ldw	r3,-25572(gp)
 8004968:	e0bffc17 	ldw	r2,-16(fp)
 800496c:	10803fcc 	andi	r2,r2,255
 8004970:	1080200c 	andi	r2,r2,128
 8004974:	10800048 	cmpgei	r2,r2,1
 8004978:	18800245 	stb	r2,9(r3)
  CPU->P.Z = (temp == 0 ) ? 1 : 0;
 800497c:	d0e70717 	ldw	r3,-25572(gp)
 8004980:	e0bffc17 	ldw	r2,-16(fp)
 8004984:	1005003a 	cmpeq	r2,r2,zero
 8004988:	18800105 	stb	r2,4(r3)
  CPU->A = (byte)temp & 0xFF;
 800498c:	d0e70717 	ldw	r3,-25572(gp)
 8004990:	e0bffc17 	ldw	r2,-16(fp)
 8004994:	18800285 	stb	r2,10(r3)
  return;
}
 8004998:	e037883a 	mov	sp,fp
 800499c:	df000017 	ldw	fp,0(sp)
 80049a0:	dec00104 	addi	sp,sp,4
 80049a4:	f800283a 	ret

080049a8 <cpu_status>:

// Prints out the following: (left-right)
// 	   Accumulator, X, Y, Processor Flags, Stack Pointer, T/Cycle Count, Instruction Register,
//	   and PPU Registers. Note IR is for the instruction to be execute for the next CPU tick.
inline void cpu_status()
{
 80049a8:	defff304 	addi	sp,sp,-52
 80049ac:	dfc00c15 	stw	ra,48(sp)
 80049b0:	df000b15 	stw	fp,44(sp)
 80049b4:	df000b04 	addi	fp,sp,44
  printf("A: %x X: %x Y: %x P: %x%x1%x %x%x%x%x SP: %x PC: %x T: %x IR: %x ",
 80049b8:	d0a70717 	ldw	r2,-25572(gp)
 80049bc:	10800283 	ldbu	r2,10(r2)
 80049c0:	11403fcc 	andi	r5,r2,255
 80049c4:	d0a70717 	ldw	r2,-25572(gp)
 80049c8:	108002c3 	ldbu	r2,11(r2)
 80049cc:	11803fcc 	andi	r6,r2,255
 80049d0:	d0a70717 	ldw	r2,-25572(gp)
 80049d4:	10800303 	ldbu	r2,12(r2)
 80049d8:	11c03fcc 	andi	r7,r2,255
 80049dc:	d0a70717 	ldw	r2,-25572(gp)
 80049e0:	10800243 	ldbu	r2,9(r2)
 80049e4:	10c03fcc 	andi	r3,r2,255
 80049e8:	d0a70717 	ldw	r2,-25572(gp)
 80049ec:	10800203 	ldbu	r2,8(r2)
 80049f0:	11003fcc 	andi	r4,r2,255
 80049f4:	d0a70717 	ldw	r2,-25572(gp)
 80049f8:	108001c3 	ldbu	r2,7(r2)
 80049fc:	12003fcc 	andi	r8,r2,255
 8004a00:	d0a70717 	ldw	r2,-25572(gp)
 8004a04:	10800183 	ldbu	r2,6(r2)
 8004a08:	12403fcc 	andi	r9,r2,255
 8004a0c:	d0a70717 	ldw	r2,-25572(gp)
 8004a10:	10800143 	ldbu	r2,5(r2)
 8004a14:	12803fcc 	andi	r10,r2,255
 8004a18:	d0a70717 	ldw	r2,-25572(gp)
 8004a1c:	10800103 	ldbu	r2,4(r2)
 8004a20:	12c03fcc 	andi	r11,r2,255
 8004a24:	d0a70717 	ldw	r2,-25572(gp)
 8004a28:	108000c3 	ldbu	r2,3(r2)
 8004a2c:	13003fcc 	andi	r12,r2,255
 8004a30:	d0a70717 	ldw	r2,-25572(gp)
 8004a34:	10800083 	ldbu	r2,2(r2)
 8004a38:	13403fcc 	andi	r13,r2,255
 8004a3c:	d0a70717 	ldw	r2,-25572(gp)
 8004a40:	1080000b 	ldhu	r2,0(r2)
 8004a44:	13bfffcc 	andi	r14,r2,65535
 8004a48:	d0a70717 	ldw	r2,-25572(gp)
 8004a4c:	10800483 	ldbu	r2,18(r2)
