
NES_FPGA.elf:     file format elf32-littlenios2
NES_FPGA.elf
architecture: nios2, flags 0x00000112:
EXEC_P, HAS_SYMS, D_PAGED
start address 0x080001b4

Program Header:
    LOAD off    0x00001000 vaddr 0x08000000 paddr 0x08000000 align 2**12
         filesz 0x00000020 memsz 0x00000020 flags r-x
    LOAD off    0x00001020 vaddr 0x08000020 paddr 0x08000020 align 2**12
         filesz 0x000153a4 memsz 0x000153a4 flags r-x
    LOAD off    0x000163c4 vaddr 0x080153c4 paddr 0x08016e4c align 2**12
         filesz 0x00001a88 memsz 0x00001a88 flags rw-
    LOAD off    0x000188d4 vaddr 0x080188d4 paddr 0x080188d4 align 2**12
         filesz 0x00000000 memsz 0x00000894 flags rw-

Sections:
Idx Name          Size      VMA       LMA       File off  Algn
  0 .entry        00000020  08000000  08000000  00001000  2**5
                  CONTENTS, ALLOC, LOAD, READONLY, CODE
  1 .exceptions   00000194  08000020  08000020  00001020  2**2
                  CONTENTS, ALLOC, LOAD, READONLY, CODE
  2 .text         00014b04  080001b4  080001b4  000011b4  2**2
                  CONTENTS, ALLOC, LOAD, READONLY, CODE
  3 .rodata       0000070c  08014cb8  08014cb8  00015cb8  2**2
                  CONTENTS, ALLOC, LOAD, READONLY, DATA
  4 .rwdata       00001a88  080153c4  08016e4c  000163c4  2**2
                  CONTENTS, ALLOC, LOAD, DATA, SMALL_DATA
  5 .bss          00000894  080188d4  080188d4  000188d4  2**2
                  ALLOC, SMALL_DATA
  6 .comment      00000023  00000000  00000000  00017e4c  2**0
                  CONTENTS, READONLY
  7 .debug_aranges 00000d18  00000000  00000000  00017e70  2**3
                  CONTENTS, READONLY, DEBUGGING
  8 .debug_pubnames 00001a79  00000000  00000000  00018b88  2**0
                  CONTENTS, READONLY, DEBUGGING
  9 .debug_info   000282d9  00000000  00000000  0001a601  2**0
                  CONTENTS, READONLY, DEBUGGING
 10 .debug_abbrev 000081e7  00000000  00000000  000428da  2**0
                  CONTENTS, READONLY, DEBUGGING
 11 .debug_line   000168a1  00000000  00000000  0004aac1  2**0
                  CONTENTS, READONLY, DEBUGGING
 12 .debug_frame  00001fb0  00000000  00000000  00061364  2**2
                  CONTENTS, READONLY, DEBUGGING
 13 .debug_str    00002516  00000000  00000000  00063314  2**0
                  CONTENTS, READONLY, DEBUGGING
 14 .debug_loc    0000cb55  00000000  00000000  0006582a  2**0
                  CONTENTS, READONLY, DEBUGGING
 15 .debug_alt_sim_info 00000010  00000000  00000000  00072380  2**2
                  CONTENTS, READONLY, DEBUGGING
 16 .debug_ranges 000009e0  00000000  00000000  00072390  2**3
                  CONTENTS, READONLY, DEBUGGING
 17 .thread_model 00000003  00000000  00000000  0007672a  2**0
                  CONTENTS, READONLY
 18 .cpu          00000005  00000000  00000000  0007672d  2**0
                  CONTENTS, READONLY
 19 .simulation_enabled 00000001  00000000  00000000  00076732  2**0
                  CONTENTS, READONLY
 20 .sysid_hash   00000004  00000000  00000000  00076733  2**0
                  CONTENTS, READONLY
 21 .sysid_base   00000004  00000000  00000000  00076737  2**0
                  CONTENTS, READONLY
 22 .sysid_time   00000004  00000000  00000000  0007673b  2**0
                  CONTENTS, READONLY
 23 .stderr_dev   0000000b  00000000  00000000  0007673f  2**0
                  CONTENTS, READONLY
 24 .stdin_dev    0000000b  00000000  00000000  0007674a  2**0
                  CONTENTS, READONLY
 25 .stdout_dev   0000000b  00000000  00000000  00076755  2**0
                  CONTENTS, READONLY
 26 .sopc_system_name 0000000b  00000000  00000000  00076760  2**0
                  CONTENTS, READONLY
 27 .quartus_project_dir 00000040  00000000  00000000  0007676b  2**0
                  CONTENTS, READONLY
 28 .jdi          000041c2  00000000  00000000  000767ab  2**0
                  CONTENTS, READONLY
 29 .sopcinfo     0003f5a3  00000000  00000000  0007a96d  2**0
                  CONTENTS, READONLY
SYMBOL TABLE:
08000000 l    d  .entry	00000000 .entry
08000020 l    d  .exceptions	00000000 .exceptions
080001b4 l    d  .text	00000000 .text
08014cb8 l    d  .rodata	00000000 .rodata
080153c4 l    d  .rwdata	00000000 .rwdata
080188d4 l    d  .bss	00000000 .bss
00000000 l    d  .comment	00000000 .comment
00000000 l    d  .debug_aranges	00000000 .debug_aranges
00000000 l    d  .debug_pubnames	00000000 .debug_pubnames
00000000 l    d  .debug_info	00000000 .debug_info
00000000 l    d  .debug_abbrev	00000000 .debug_abbrev
00000000 l    d  .debug_line	00000000 .debug_line
00000000 l    d  .debug_frame	00000000 .debug_frame
00000000 l    d  .debug_str	00000000 .debug_str
00000000 l    d  .debug_loc	00000000 .debug_loc
00000000 l    d  .debug_alt_sim_info	00000000 .debug_alt_sim_info
00000000 l    d  .debug_ranges	00000000 .debug_ranges
080001ec l       .text	00000000 alt_after_alt_main
00000000 l    df *ABS*	00000000 alt_irq_handler.c
00000000 l    df *ABS*	00000000 cpu.c
00000000 l    df *ABS*	00000000 main.c
00000000 l    df *ABS*	00000000 sdcard.c
00000000 l    df *ABS*	00000000 fgets.c
00000000 l    df *ABS*	00000000 findfp.c
080042c8 l     F .text	00000058 std
080043d4 l     F .text	00000008 __fp_lock
080043dc l     F .text	00000008 __fp_unlock
00000000 l    df *ABS*	00000000 fwalk.c
00000000 l    df *ABS*	00000000 impure.c
080153c4 l     O .rwdata	00000400 impure_data
00000000 l    df *ABS*	00000000 malloc.c
00000000 l    df *ABS*	00000000 mallocr.c
00000000 l    df *ABS*	00000000 memchr.c
00000000 l    df *ABS*	00000000 memcpy.c
00000000 l    df *ABS*	00000000 memset.c
00000000 l    df *ABS*	00000000 printf.c
00000000 l    df *ABS*	00000000 puts.c
00000000 l    df *ABS*	00000000 refill.c
080053b0 l     F .text	0000001c lflush
00000000 l    df *ABS*	00000000 sbrkr.c
00000000 l    df *ABS*	00000000 stdio.c
00000000 l    df *ABS*	00000000 strlen.c
00000000 l    df *ABS*	00000000 vfprintf.c
080055fc l     F .text	00000058 __sprint_r
080150ca l     O .rodata	00000010 blanks.3452
080150ba l     O .rodata	00000010 zeroes.3453
00000000 l    df *ABS*	00000000 writer.c
00000000 l    df *ABS*	00000000 wsetup.c
00000000 l    df *ABS*	00000000 closer.c
00000000 l    df *ABS*	00000000 dtoa.c
08007760 l     F .text	00000244 quorem
00000000 l    df *ABS*	00000000 fclose.c
00000000 l    df *ABS*	00000000 fflush.c
00000000 l    df *ABS*	00000000 mallocr.c
00000000 l    df *ABS*	00000000 fvwrite.c
00000000 l    df *ABS*	00000000 int_errno.c
00000000 l    df *ABS*	00000000 locale.c
08016e20 l     O .rwdata	00000004 charset
080150fc l     O .rodata	00000030 lconv
00000000 l    df *ABS*	00000000 lseekr.c
00000000 l    df *ABS*	00000000 makebuf.c
00000000 l    df *ABS*	00000000 memmove.c
00000000 l    df *ABS*	00000000 mprec.c
08015244 l     O .rodata	0000000c p05.2458
00000000 l    df *ABS*	00000000 readr.c
00000000 l    df *ABS*	00000000 mallocr.c
00000000 l    df *ABS*	00000000 s_isinfd.c
00000000 l    df *ABS*	00000000 s_isnand.c
00000000 l    df *ABS*	00000000 strcmp.c
00000000 l    df *ABS*	00000000 mallocr.c
00000000 l    df *ABS*	00000000 fstatr.c
00000000 l    df *ABS*	00000000 isattyr.c
00000000 l    df *ABS*	00000000 libgcc2.c
00000000 l    df *ABS*	00000000 libgcc2.c
00000000 l    df *ABS*	00000000 dp-bit.c
0800c5d4 l     F .text	00000410 _fpadd_parts
00000000 l    df *ABS*	00000000 dp-bit.c
00000000 l    df *ABS*	00000000 dp-bit.c
00000000 l    df *ABS*	00000000 dp-bit.c
00000000 l    df *ABS*	00000000 dp-bit.c
00000000 l    df *ABS*	00000000 dp-bit.c
00000000 l    df *ABS*	00000000 dp-bit.c
00000000 l    df *ABS*	00000000 dp-bit.c
00000000 l    df *ABS*	00000000 dp-bit.c
00000000 l    df *ABS*	00000000 dp-bit.c
00000000 l    df *ABS*	00000000 dp-bit.c
00000000 l    df *ABS*	00000000 dp-bit.c
00000000 l    df *ABS*	00000000 lib2-divmod.c
0800d700 l     F .text	0000007c udivmodsi4
00000000 l    df *ABS*	00000000 lib2-mul.c
00000000 l    df *ABS*	00000000 libgcc2.c
00000000 l    df *ABS*	00000000 libgcc2.c
00000000 l    df *ABS*	00000000 libgcc2.c
00000000 l    df *ABS*	00000000 dp-bit.c
00000000 l    df *ABS*	00000000 dp-bit.c
00000000 l    df *ABS*	00000000 dp-bit.c
00000000 l    df *ABS*	00000000 alt_close.c
0800e03c l     F .text	00000060 alt_get_errno
00000000 l    df *ABS*	00000000 alt_dev.c
0800e09c l     F .text	0000002c alt_dev_null_write
00000000 l    df *ABS*	00000000 alt_errno.c
00000000 l    df *ABS*	00000000 alt_fstat.c
0800e1a0 l     F .text	00000060 alt_get_errno
00000000 l    df *ABS*	00000000 alt_isatty.c
0800e2c4 l     F .text	00000060 alt_get_errno
00000000 l    df *ABS*	00000000 alt_load.c
0800e3a4 l     F .text	0000006c alt_load_section
00000000 l    df *ABS*	00000000 alt_lseek.c
0800e504 l     F .text	00000060 alt_get_errno
00000000 l    df *ABS*	00000000 alt_main.c
00000000 l    df *ABS*	00000000 alt_malloc_lock.c
00000000 l    df *ABS*	00000000 alt_read.c
0800e734 l     F .text	00000060 alt_get_errno
00000000 l    df *ABS*	00000000 alt_release_fd.c
00000000 l    df *ABS*	00000000 alt_sbrk.c
08016e3c l     O .rwdata	00000004 heap_end
00000000 l    df *ABS*	00000000 alt_write.c
0800e9ec l     F .text	00000060 alt_get_errno
00000000 l    df *ABS*	00000000 alt_sys_init.c
08015d80 l     O .rwdata	00001060 jtag_uart_0
08016de0 l     O .rwdata	0000002c Altera_UP_SD_Card_Avalon_Interface_0
0800ead0 l     F .text	00000038 alt_dev_reg
00000000 l    df *ABS*	00000000 altera_avalon_jtag_uart_fd.c
00000000 l    df *ABS*	00000000 altera_avalon_jtag_uart_init.c
0800ed10 l     F .text	00000228 altera_avalon_jtag_uart_irq
0800ef38 l     F .text	000000b0 altera_avalon_jtag_uart_timeout
00000000 l    df *ABS*	00000000 altera_avalon_jtag_uart_ioctl.c
00000000 l    df *ABS*	00000000 altera_avalon_jtag_uart_read.c
00000000 l    df *ABS*	00000000 altera_avalon_jtag_uart_write.c
00000000 l    df *ABS*	00000000 altera_up_sd_card_avalon_interface.c
00000000 l    df *ABS*	00000000 alt_alarm_start.c
00000000 l    df *ABS*	00000000 alt_dcache_flush_all.c
00000000 l    df *ABS*	00000000 alt_dev_llist_insert.c
08013c20 l     F .text	00000060 alt_get_errno
00000000 l    df *ABS*	00000000 alt_do_ctors.c
00000000 l    df *ABS*	00000000 alt_do_dtors.c
00000000 l    df *ABS*	00000000 alt_find_dev.c
00000000 l    df *ABS*	00000000 alt_icache_flush_all.c
00000000 l    df *ABS*	00000000 alt_iic.c
00000000 l    df *ABS*	00000000 alt_iic_isr_register.c
00000000 l    df *ABS*	00000000 alt_io_redirect.c
080140c4 l     F .text	000000d8 alt_open_fd
00000000 l    df *ABS*	00000000 alt_irq_vars.c
00000000 l    df *ABS*	00000000 alt_open.c
08014214 l     F .text	000000f8 alt_file_locked
08014498 l     F .text	00000060 alt_get_errno
00000000 l    df *ABS*	00000000 alt_tick.c
00000000 l    df *ABS*	00000000 altera_nios2_irq.c
00000000 l    df *ABS*	00000000 alt_find_file.c
00000000 l    df *ABS*	00000000 alt_get_fd.c
00000000 l    df *ABS*	00000000 atexit.c
00000000 l    df *ABS*	00000000 exit.c
00000000 l    df *ABS*	00000000 memcmp.c
00000000 l    df *ABS*	00000000 __atexit.c
00000000 l    df *ABS*	00000000 __call_atexit.c
08014aa0 l     F .text	00000004 register_fini
00000000 l    df *ABS*	00000000 alt_exit.c
08014c54 l     F .text	00000040 alt_sim_halt
08018910 g     O .bss	00000004 aux_status_register
0800a344 g     F .text	00000094 _mprec_log10
0800a430 g     F .text	00000088 __any_on
0800b898 g     F .text	00000070 _isatty_r
0801521c g     O .rodata	00000028 __mprec_tinytens
0800e564 g     F .text	0000006c alt_main
08005138 g     F .text	000000a0 _puts_r
080188d4 g     O .bss	00000004 CPU
08018ed8 g     O .bss	00000100 alt_irq
08009c4c g     F .text	00000078 _lseek_r
08003504 g     F .text	00000080 AND
08016e4c g       *ABS*	00000000 __flash_rwdata_start
0800d0f4 g     F .text	00000088 __eqdf2
0800f964 g     F .text	000001b0 Check_for_Master_Boot_Record
08019168 g       *ABS*	00000000 __alt_heap_start
08013828 g     F .text	000001d4 alt_up_sd_card_fclose
080050c0 g     F .text	00000044 printf
08005444 g     F .text	00000068 __sseek
08004330 g     F .text	000000a4 __sinit
0800362c g     F .text	00000088 CMP
0800333c g     F .text	00000048 IMM
08009bac g     F .text	00000084 _setlocale_r
08004430 g     F .text	0000009c __sfmoreglue
0800e5f0 g     F .text	00000020 __malloc_unlock
08003cf8 g     F .text	000000e8 SBC
08003450 g     F .text	000000b4 ADC
08018934 g     O .bss	00000004 current_sector_modified
08003584 g     F .text	000000a8 ASL
08009e58 g     F .text	000000e0 memmove
08004420 g     F .text	00000010 _cleanup
0800a4b8 g     F .text	000000bc _Balloc
08002ed0 g     F .text	00000054 cpu_init
080123dc g     F .text	000000c8 alt_up_sd_card_is_Present
0800f67c g     F .text	00000050 Save_Modified_Sector
0800d204 g     F .text	00000088 __gtdf2
00000000  w      *UND*	00000000 __errno
08000000 g     F .entry	0000000c __reset
0801892c g     O .bss	00000004 fat_partition_size_in_512_byte_sectors
08000020 g       *ABS*	00000000 __flash_exceptions_start
0800b824 g     F .text	00000074 _fstat_r
080188ec g     O .bss	00000004 errno
080038d8 g     F .text	00000074 LDA
08018900 g     O .bss	00000004 alt_argv
0801ee0c g       *ABS*	00000000 _gp
0801299c g     F .text	000003a8 alt_up_sd_card_fopen
08012518 g     F .text	000000d4 alt_up_sd_card_find_first
08018920 g     O .bss	00000004 command_argument_register
08003ef0 g     F .text	0000026c load_rom
080042a4 g     F .text	00000024 fgets
08015c00 g     O .rwdata	00000180 alt_fd_list
08011c04 g     F .text	0000012c find_first_empty_record_in_root_directory
08013d48 g     F .text	00000094 alt_find_dev
08004f88 g     F .text	000000a0 memcpy
08004414 g     F .text	0000000c _cleanup_r
0800d39c g     F .text	000000f8 __floatsidf
0801419c g     F .text	00000078 alt_io_redirect
0800d314 g     F .text	00000088 __ltdf2
08014cb8 g       *ABS*	00000000 __DTOR_END__
080051d8 g     F .text	00000014 puts
08003384 g     F .text	0000005c ZP
08011814 g     F .text	000001a4 find_first_empty_cluster
0801469c g     F .text	00000020 altera_nios2_irq_init
0800a294 g     F .text	000000b0 __ratio
08012318 g     F .text	000000c4 alt_up_sd_card_open_dev
0800f150 g     F .text	00000224 altera_avalon_jtag_uart_read
08004750 g     F .text	00000014 malloc
08005104 g     F .text	00000034 _printf_r
00002000 g       *ABS*	00000000 __alt_mem_onchip_memory2_0
0800d83c g     F .text	00000008 __udivsi3
0800e200 g     F .text	000000c4 isatty
0801512c g     O .rodata	000000c8 __mprec_tens
08009b88 g     F .text	00000008 __locale_charset
080188d8 g     O .bss	00000001 prg_size
080188e0 g     O .bss	00000004 __malloc_top_pad
08016e1c g     O .rwdata	00000004 __mb_cur_max
08009b90 g     F .text	0000000c _localeconv_r
0800ac1c g     F .text	0000003c __i2b
080096ec g     F .text	0000049c __sfvwrite_r
08010af0 g     F .text	000000c0 get_dir_divider_location
080053cc g     F .text	00000070 _sbrk_r
08003294 g     F .text	000000a8 INDY
08010790 g     F .text	000000d0 filename_to_upper_case
08012d44 g     F .text	00000090 alt_up_sd_card_set_attributes
0800373c g     F .text	00000088 CPY
0800fb14 g     F .text	00000284 Read_File_Record_At_Offset
0800afc4 g     F .text	00000078 _read_r
08015bcc g     O .rwdata	0000000c __lc_ctype
08016e34 g     O .rwdata	00000004 alt_max_fd
0800dd3c g     F .text	00000138 __unpack_d
080113b0 g     F .text	00000464 find_file_in_directory
08008f58 g     F .text	00000110 _fclose_r
08009278 g     F .text	00000034 fflush
080188e4 g     O .bss	00000004 __malloc_max_sbrked_mem
080124a4 g     F .text	00000074 alt_up_sd_card_is_FAT16
0800ca64 g     F .text	00000074 __adddf3
0800a174 g     F .text	00000120 __b2d
0800bf74 g     F .text	00000660 __umoddi3
0800e410 g     F .text	000000f4 lseek
08016e10 g     O .rwdata	00000004 _global_impure_ptr
08010e9c g     F .text	00000514 get_home_directory_cluster_for_file
0800b03c g     F .text	000005f4 _realloc_r
08019168 g       *ABS*	00000000 __bss_end
08013fcc g     F .text	000000f8 alt_iic_isr_register
08014590 g     F .text	0000010c alt_tick
0800b908 g     F .text	0000066c __udivdi3
080151f4 g     O .rodata	00000028 __mprec_bigtens
0800aea4 g     F .text	00000120 __s2b
0800d56c g     F .text	00000194 __floatunsidf
0800a094 g     F .text	00000060 __mcmp
08018938 g     O .bss	00000004 current_sector_index
080043fc g     F .text	00000018 __fp_lock_all
08013f84 g     F .text	00000048 alt_ic_irq_enabled
080036b4 g     F .text	00000088 CPX
080144f8 g     F .text	00000098 alt_alarm_stop
0800f880 g     F .text	000000e4 mark_cluster
0801893c g     O .bss	00000004 alt_irq_active
080000ec g     F .exceptions	000000c8 alt_irq_handler
08015bd8 g     O .rwdata	00000028 alt_dev_null
08011d30 g     F .text	000001b8 convert_filename_to_name_extension
08013b50 g     F .text	0000001c alt_dcache_flush_all
08009f60 g     F .text	00000070 __hi0bits
0801890c g     O .bss	00000004 is_sd_card_formated_as_FAT16
0800d494 g     F .text	000000d8 __fixdfsi
080119b8 g     F .text	0000024c find_first_empty_record_in_a_subdirectory
08016e4c g       *ABS*	00000000 __ram_rwdata_end
08016e2c g     O .rwdata	00000008 alt_dev_list
0800e8c8 g     F .text	00000124 write
08018930 g     O .bss	00000004 device_pointer
080153c4 g       *ABS*	00000000 __ram_rodata_end
0800e0c8 g     F .text	000000d8 fstat
08003018 g     F .text	00000090 ABS
0800ad84 g     F .text	00000120 __pow5mult
080188f0 g     O .bss	00000004 __nlocale_changed
0800d844 g     F .text	00000008 __umodsi3
08019168 g       *ABS*	00000000 end
08002db0 g     F .text	00000120 cpu_reset
0800ec50 g     F .text	000000c0 altera_avalon_jtag_uart_init
08014cb4 g       *ABS*	00000000 __CTOR_LIST__
10000000 g       *ABS*	00000000 __alt_stack_pointer
0800d9a8 g     F .text	00000080 __clzsi2
0800f374 g     F .text	00000240 altera_avalon_jtag_uart_write
08004320 g     F .text	00000004 __sfp_lock_acquire
08004ea4 g     F .text	000000e4 memchr
08005654 g     F .text	00001ec4 ___vfprintf_internal_r
080093d8 g     F .text	00000314 _free_r
08014aa4 g     F .text	000001b0 __call_exitprocs
080031f0 g     F .text	000000a4 XIND
080188f4 g     O .bss	00000004 __mlocale_changed
08016e18 g     O .rwdata	00000004 __malloc_sbrk_base
080001b4 g     F .text	0000003c _start
08018940 g     O .bss	00000004 _alt_tick_rate
0800a87c g     F .text	0000014c __lshift
08018944 g     O .bss	00000004 _alt_nticks
0800e610 g     F .text	00000124 read
0800ea80 g     F .text	00000050 alt_sys_init
0801496c g     F .text	00000134 __register_exitproc
0800a9c8 g     F .text	00000254 __multiply
0800efe8 g     F .text	00000074 altera_avalon_jtag_uart_close
0800d84c g     F .text	00000038 __mulsi3
080153c4 g       *ABS*	00000000 __ram_rwdata_start
08014cb8 g       *ABS*	00000000 __ram_rodata_start
08018948 g     O .bss	00000028 __malloc_current_mallinfo
0800a574 g     F .text	0000017c __d2b
08018908 g     O .bss	00000004 initialized
0800314c g     F .text	000000a4 ABSY
08002f24 g     F .text	000000f4 cpu_status
0800eb08 g     F .text	00000058 altera_avalon_jtag_uart_read_fd
080147dc g     F .text	000000d0 alt_get_fd
08018970 g     O .bss	00000014 search_data
0800de74 g     F .text	000000c8 __fpcmp_parts_d
080076f0 g     F .text	00000070 _close_r
080148f8 g     F .text	00000074 memcmp
0800ebb8 g     F .text	00000048 altera_avalon_jtag_uart_close_fd
08019168 g       *ABS*	00000000 __alt_stack_base
0800ec00 g     F .text	00000050 altera_avalon_jtag_uart_ioctl_fd
080075b4 g     F .text	0000013c __swsetup_r
0800ce9c g     F .text	00000258 __divdf3
080044cc g     F .text	000000f0 __sfp
08018984 g     O .bss	00000054 boot_sector_data
0800a3d8 g     F .text	00000058 __copybits
080157c4 g     O .rwdata	00000408 __malloc_av_
0800432c g     F .text	00000004 __sinit_lock_release
0800cad8 g     F .text	000003c4 __muldf3
08005528 g     F .text	00000060 __sread
080146bc g     F .text	00000120 alt_find_file
08013b6c g     F .text	000000b4 alt_dev_llist_insert
0800e5d0 g     F .text	00000020 __malloc_lock
0800e80c g     F .text	000000bc sbrk
0800907c g     F .text	000001fc _fflush_r
0800b75c g     F .text	000000c8 _calloc_r
080039c0 g     F .text	00000074 LDY
080188d4 g       *ABS*	00000000 __bss_start
08005028 g     F .text	00000098 memset
08003de0 g     F .text	00000110 main
08018904 g     O .bss	00000004 alt_envp
080188e8 g     O .bss	00000004 __malloc_max_total_mem
0800eb60 g     F .text	00000058 altera_avalon_jtag_uart_write_fd
0800394c g     F .text	00000074 LDX
08012dd4 g     F .text	0000008c alt_up_sd_card_get_attributes
0800f5b4 g     F .text	000000c8 Write_Sector_Data
08013204 g     F .text	00000624 alt_up_sd_card_write
0800543c g     F .text	00000008 __sclose
10000000 g       *ABS*	00000000 __alt_heap_limit
08009068 g     F .text	00000014 fclose
08018fd8 g     O .bss	00000190 _atexit0
080079a4 g     F .text	000015b4 _dtoa_r
08004764 g     F .text	00000740 _malloc_r
08016e38 g     O .rwdata	00000004 alt_errno
08004684 g     F .text	000000b8 _fwalk
0800415c g     F .text	00000148 _fgets_r
0800d77c g     F .text	00000060 __divsi3
08015250 g     O .rodata	00000014 __thenan_df
080092ac g     F .text	0000012c _malloc_trim_r
08014cb8 g       *ABS*	00000000 __CTOR_END__
08018914 g     O .bss	00000004 status_register
0800b6a0 g     F .text	000000bc strcmp
0801891c g     O .bss	00000004 command_register
080037c4 g     F .text	00000088 DEC
08014cb8 g       *ABS*	00000000 __flash_rodata_start
08014cb8 g       *ABS*	00000000 __DTOR_LIST__
0800d17c g     F .text	00000088 __nedf2
0800ea4c g     F .text	00000034 alt_irq_init
0800e794 g     F .text	00000078 alt_release_fd
0800f7c8 g     F .text	000000b8 get_cluster_flag
08003abc g     F .text	00000080 ORA
08015264 g     O .rodata	00000100 __clz_tab
0800fd98 g     F .text	000002b8 Write_File_Record_At_Offset
080188f8 g     O .bss	00000004 _PathLocale
080148ac g     F .text	00000014 atexit
0800753c g     F .text	00000078 _write_r
08009c30 g     F .text	0000001c setlocale
08003a34 g     F .text	00000088 LSR
08010050 g     F .text	00000648 Check_for_DOS_FAT
08011ee8 g     F .text	000002dc create_file
08016e0c g     O .rwdata	00000004 _impure_ptr
08018918 g     O .bss	00000004 CSD_register_w0
080188fc g     O .bss	00000004 alt_argc
08013ce4 g     F .text	00000064 _do_dtors
080051ec g     F .text	000001c4 __srefill_r
08000000 g       *ABS*	00000000 __alt_mem_sdram_0
08003b3c g     F .text	000000d0 ROL
08000020 g       .exceptions	00000000 alt_irq_entry
0800a0f4 g     F .text	00000080 __ulp
0800b630 g     F .text	00000040 __isinfd
080043e4 g     F .text	00000018 __fp_unlock_all
080188d9 g     O .bss	00000001 chr_size
08016e24 g     O .rwdata	00000008 alt_fs_list
08010860 g     F .text	00000290 check_file_name_for_FAT16_compliance
080001f0 g     F .text	00002bc0 cpu_exec
08018924 g     O .bss	00000004 buffer_memory
08000020 g       *ABS*	00000000 __ram_exceptions_start
08009b9c g     F .text	00000010 localeconv
08013df8 g     F .text	00000050 alt_ic_isr_register
08018928 g     O .bss	00000004 fat_partition_offset_in_512_byte_sectors
08016e4c g       *ABS*	00000000 _edata
08019168 g       *ABS*	00000000 _end
080189d8 g     O .bss	00000500 active_files
080001b4 g       *ABS*	00000000 __ram_exceptions_end
080121c4 g     F .text	00000154 copy_file_record_name_to_string
0800f05c g     F .text	000000f4 altera_avalon_jtag_uart_ioctl
08010698 g     F .text	000000f8 Look_for_FAT16
08013ee4 g     F .text	000000a0 alt_ic_irq_disable
080054ac g     F .text	0000007c __swrite
08016e14 g     O .rwdata	00000004 __malloc_trim_threshold
080148c0 g     F .text	00000038 exit
080125ec g     F .text	000003b0 alt_up_sd_card_find_next
080045bc g     F .text	000000c8 _fwalk_reent
0800a6f0 g     F .text	0000018c __mdiff
0800d7dc g     F .text	00000060 __modsi3
0800f6cc g     F .text	000000fc Read_Sector_Data
10000000 g       *ABS*	00000000 __alt_data_end
08000020 g     F .exceptions	00000000 alt_exception
08004324 g     F .text	00000004 __sfp_lock_release
080033e0 g     F .text	00000070 ZPX
08014c94 g     F .text	00000020 _exit
0800b670 g     F .text	00000030 __isnand
080139fc g     F .text	00000154 alt_alarm_start
0800d884 g     F .text	00000124 __muldi3
08012e60 g     F .text	000003a4 alt_up_sd_card_read
08009cc4 g     F .text	00000194 __smakebuf_r
08005588 g     F .text	00000074 strlen
0800384c g     F .text	0000008c INC
0801430c g     F .text	0000018c open
0800d28c g     F .text	00000088 __gedf2
080030a8 g     F .text	000000a4 ABSX
08013ddc g     F .text	0000001c alt_icache_flush_all
08016e40 g     O .rwdata	00000004 alt_priority_mask
08013e48 g     F .text	0000009c alt_ic_irq_enable
08007518 g     F .text	00000024 __vfprintf_internal
08003c0c g     F .text	000000ec ROR
0800c9e4 g     F .text	00000080 __subdf3
080188dc g     O .bss	00000004 CHR_ROM
08009fd0 g     F .text	000000c4 __lo0bits
08016e44 g     O .rwdata	00000008 alt_alarm_list
08013c80 g     F .text	00000064 _do_ctors
0800df3c g     F .text	00000100 close
0800e324 g     F .text	00000080 alt_load
0800da28 g     F .text	00000314 __pack_d
08010bb0 g     F .text	000002ec match_file_record_to_name_ext
0800473c g     F .text	00000014 free
08004328 g     F .text	00000004 __sinit_lock_acquire
0800ac58 g     F .text	0000012c __multadd
08009f38 g     F .text	00000028 _Bfree



Disassembly of section .entry:

08000000 <__reset>:
 * Jump to the _start entry point in the .text section if reset code
 * is allowed or if optimizing for RTL simulation.
 */
#if defined(ALT_ALLOW_CODE_AT_RESET) || defined(ALT_SIM_OPTIMIZE)
    /* Jump to the _start entry point in the .text section. */
    movhi r1, %hi(_start)
 8000000:	00420034 	movhi	at,2048
    ori r1, r1, %lo(_start)
 8000004:	08406d14 	ori	at,at,436
    jmp r1
 8000008:	0800683a 	jmp	at
	...

Disassembly of section .exceptions:

08000020 <alt_exception>:
         * Process an exception.  For all exceptions we must preserve all
         * caller saved registers on the stack (See the Nios2 ABI
         * documentation for details).
         */

        addi  sp, sp, -76
 8000020:	deffed04 	addi	sp,sp,-76

#endif

#endif

        stw   ra,  0(sp)
 8000024:	dfc00015 	stw	ra,0(sp)
        /*
         * Leave a gap in the stack frame at 4(sp) for the muldiv handler to
         * store zero into.
         */

        stw   r1,   8(sp)
 8000028:	d8400215 	stw	at,8(sp)
        stw   r2,  12(sp)
 800002c:	d8800315 	stw	r2,12(sp)
        stw   r3,  16(sp)
 8000030:	d8c00415 	stw	r3,16(sp)
        stw   r4,  20(sp)
 8000034:	d9000515 	stw	r4,20(sp)
        stw   r5,  24(sp)
 8000038:	d9400615 	stw	r5,24(sp)
        stw   r6,  28(sp)
 800003c:	d9800715 	stw	r6,28(sp)
        stw   r7,  32(sp)
 8000040:	d9c00815 	stw	r7,32(sp)

        rdctl r5, estatus
 8000044:	000b307a 	rdctl	r5,estatus

        stw   r8,  36(sp)
 8000048:	da000915 	stw	r8,36(sp)
        stw   r9,  40(sp)
 800004c:	da400a15 	stw	r9,40(sp)
        stw   r10, 44(sp)
 8000050:	da800b15 	stw	r10,44(sp)
        stw   r11, 48(sp)
 8000054:	dac00c15 	stw	r11,48(sp)
        stw   r12, 52(sp)
 8000058:	db000d15 	stw	r12,52(sp)
        stw   r13, 56(sp)
 800005c:	db400e15 	stw	r13,56(sp)
        stw   r14, 60(sp)
 8000060:	db800f15 	stw	r14,60(sp)
        stw   r15, 64(sp)
 8000064:	dbc01015 	stw	r15,64(sp)
        /*
         * ea-4 contains the address of the instruction being executed
         * when the exception occured. For interrupt exceptions, we will
         * will be re-issue the isntruction. Store it in 72(sp)
         */
        stw   r5,  68(sp)  /* estatus */
 8000068:	d9401115 	stw	r5,68(sp)
        addi  r15, ea, -4  /* instruction that caused exception */
 800006c:	ebffff04 	addi	r15,ea,-4
        stw   r15,  72(sp)
 8000070:	dbc01215 	stw	r15,72(sp)
#else
        /*
         * Test to see if the exception was a software exception or caused 
         * by an external interrupt, and vector accordingly.
         */
        rdctl r4, ipending
 8000074:	0009313a 	rdctl	r4,ipending
        andi  r2, r5, 1
 8000078:	2880004c 	andi	r2,r5,1
        beq   r2, zero, .Lnot_irq
 800007c:	10000326 	beq	r2,zero,800008c <alt_exception+0x6c>
        beq   r4, zero, .Lnot_irq
 8000080:	20000226 	beq	r4,zero,800008c <alt_exception+0x6c>
        /*
         * Now that all necessary registers have been preserved, call 
         * alt_irq_handler() to process the interrupts.
         */

        call alt_irq_handler
 8000084:	80000ec0 	call	80000ec <alt_irq_handler>

        .section .exceptions.irqreturn, "xa"

        br    .Lexception_exit
 8000088:	00000306 	br	8000098 <alt_exception+0x78>
         * upon completion, so we write ea (address of instruction *after*
         * the one where the exception occured) into 72(sp). The actual
         * instruction that caused the exception is written in r2, which these
         * handlers will utilize.
         */
        stw   ea,  72(sp)  /* Don't re-issue */
 800008c:	df401215 	stw	ea,72(sp)
        ldw   r2, -4(ea)   /* Instruction that caused exception */
 8000090:	e8bfff17 	ldw	r2,-4(ea)
#ifdef NIOS2_HAS_DEBUG_STUB
       /*
        *  Either tell the user now (if there is a debugger attached) or go into
        *  the debug monitor which will loop until a debugger is attached.
        */
        break
 8000094:	003da03a 	break	0
        /* 
         * Restore the saved registers, so that all general purpose registers 
         * have been restored to their state at the time the interrupt occured.
         */

        ldw   r5,  68(sp)
 8000098:	d9401117 	ldw	r5,68(sp)
        ldw   ea,  72(sp)  /* This becomes the PC once eret is executed */
 800009c:	df401217 	ldw	ea,72(sp)
        ldw   ra,   0(sp)
 80000a0:	dfc00017 	ldw	ra,0(sp)

        wrctl estatus, r5
 80000a4:	2801707a 	wrctl	estatus,r5

        ldw   r1,   8(sp)
 80000a8:	d8400217 	ldw	at,8(sp)
        ldw   r2,  12(sp)
 80000ac:	d8800317 	ldw	r2,12(sp)
        ldw   r3,  16(sp)
 80000b0:	d8c00417 	ldw	r3,16(sp)
        ldw   r4,  20(sp)
 80000b4:	d9000517 	ldw	r4,20(sp)
        ldw   r5,  24(sp)
 80000b8:	d9400617 	ldw	r5,24(sp)
        ldw   r6,  28(sp)
 80000bc:	d9800717 	ldw	r6,28(sp)
        ldw   r7,  32(sp)
 80000c0:	d9c00817 	ldw	r7,32(sp)
#ifdef ALT_STACK_CHECK
        ldw   et, %gprel(alt_exception_old_stack_limit)(gp)
#endif
#endif

        ldw   r8,  36(sp)
 80000c4:	da000917 	ldw	r8,36(sp)
        ldw   r9,  40(sp)
 80000c8:	da400a17 	ldw	r9,40(sp)
        ldw   r10, 44(sp)
 80000cc:	da800b17 	ldw	r10,44(sp)
        ldw   r11, 48(sp)
 80000d0:	dac00c17 	ldw	r11,48(sp)
        ldw   r12, 52(sp)
 80000d4:	db000d17 	ldw	r12,52(sp)
        ldw   r13, 56(sp)
 80000d8:	db400e17 	ldw	r13,56(sp)
        ldw   r14, 60(sp)
 80000dc:	db800f17 	ldw	r14,60(sp)
        ldw   r15, 64(sp)
 80000e0:	dbc01017 	ldw	r15,64(sp)
#endif

        ldw   sp,  76(sp)

#else
        addi  sp, sp, 76
 80000e4:	dec01304 	addi	sp,sp,76

        /*
         * Return to the interrupted instruction.
         */

        eret
 80000e8:	ef80083a 	eret

080000ec <alt_irq_handler>:
 * instruction is present if the macro ALT_CI_INTERRUPT_VECTOR defined.
 */

void alt_irq_handler (void) __attribute__ ((section (".exceptions")));
void alt_irq_handler (void)
{
 80000ec:	defff904 	addi	sp,sp,-28
 80000f0:	dfc00615 	stw	ra,24(sp)
 80000f4:	df000515 	stw	fp,20(sp)
 80000f8:	df000504 	addi	fp,sp,20
#ifndef NIOS2_EIC_PRESENT
static ALT_INLINE alt_u32 ALT_ALWAYS_INLINE alt_irq_pending (void)
{
  alt_u32 active;

  NIOS2_READ_IPENDING (active);
 80000fc:	0005313a 	rdctl	r2,ipending
 8000100:	e0bffc15 	stw	r2,-16(fp)

  return active;
 8000104:	e0bffc17 	ldw	r2,-16(fp)
   * Consider the case where the high priority interupt is asserted during
   * the interrupt entry sequence for a lower priority interrupt to see why
   * this is the case.
   */

  active = alt_irq_pending ();
 8000108:	e0bfff15 	stw	r2,-4(fp)

  do
  {
    i = 0;
 800010c:	e03ffd15 	stw	zero,-12(fp)
    mask = 1;
 8000110:	00800044 	movi	r2,1
 8000114:	e0bffe15 	stw	r2,-8(fp)
     * called to clear the interrupt condition.
     */

    do
    {
      if (active & mask)
 8000118:	e0ffff17 	ldw	r3,-4(fp)
 800011c:	e0bffe17 	ldw	r2,-8(fp)
 8000120:	1884703a 	and	r2,r3,r2
 8000124:	1005003a 	cmpeq	r2,r2,zero
 8000128:	1000161e 	bne	r2,zero,8000184 <alt_irq_handler+0x98>
      { 
#ifdef ALT_ENHANCED_INTERRUPT_API_PRESENT
        alt_irq[i].handler(alt_irq[i].context); 
 800012c:	e0bffd17 	ldw	r2,-12(fp)
 8000130:	00c200b4 	movhi	r3,2050
 8000134:	18e3b604 	addi	r3,r3,-28968
 8000138:	100490fa 	slli	r2,r2,3
 800013c:	10c5883a 	add	r2,r2,r3
 8000140:	11400017 	ldw	r5,0(r2)
 8000144:	e0bffd17 	ldw	r2,-12(fp)
 8000148:	00c200b4 	movhi	r3,2050
 800014c:	18e3b604 	addi	r3,r3,-28968
 8000150:	100490fa 	slli	r2,r2,3
 8000154:	10c5883a 	add	r2,r2,r3
 8000158:	10800104 	addi	r2,r2,4
 800015c:	11000017 	ldw	r4,0(r2)
 8000160:	283ee83a 	callr	r5
#ifndef NIOS2_EIC_PRESENT
static ALT_INLINE alt_u32 ALT_ALWAYS_INLINE alt_irq_pending (void)
{
  alt_u32 active;

  NIOS2_READ_IPENDING (active);
 8000164:	0005313a 	rdctl	r2,ipending
 8000168:	e0bffb15 	stw	r2,-20(fp)

  return active;
 800016c:	e0bffb17 	ldw	r2,-20(fp)
      mask <<= 1;
      i++;

    } while (1);

    active = alt_irq_pending ();
 8000170:	e0bfff15 	stw	r2,-4(fp)
    
  } while (active);
 8000174:	e0bfff17 	ldw	r2,-4(fp)
 8000178:	1004c03a 	cmpne	r2,r2,zero
 800017c:	103fe31e 	bne	r2,zero,800010c <alt_irq_handler+0x20>
 8000180:	00000706 	br	80001a0 <alt_irq_handler+0xb4>
#else
        alt_irq[i].handler(alt_irq[i].context, i); 
#endif
        break;
      }
      mask <<= 1;
 8000184:	e0bffe17 	ldw	r2,-8(fp)
 8000188:	1085883a 	add	r2,r2,r2
 800018c:	e0bffe15 	stw	r2,-8(fp)
      i++;
 8000190:	e0bffd17 	ldw	r2,-12(fp)
 8000194:	10800044 	addi	r2,r2,1
 8000198:	e0bffd15 	stw	r2,-12(fp)

    } while (1);
 800019c:	003fde06 	br	8000118 <alt_irq_handler+0x2c>
  /*
   * Notify the operating system that interrupt processing is complete.
   */ 

  ALT_OS_INT_EXIT();
}
 80001a0:	e037883a 	mov	sp,fp
 80001a4:	dfc00117 	ldw	ra,4(sp)
 80001a8:	df000017 	ldw	fp,0(sp)
 80001ac:	dec00204 	addi	sp,sp,8
 80001b0:	f800283a 	ret

Disassembly of section .text:

080001b4 <_start>:
#if (NIOS2_NUM_OF_SHADOW_REG_SETS == 0)    
    /*
     * Now that the caches are initialized, set up the stack pointer.
     * The value provided by the linker is assumed to be correctly aligned.
     */
    movhi sp, %hi(__alt_stack_pointer)
 80001b4:	06c40034 	movhi	sp,4096
    ori sp, sp, %lo(__alt_stack_pointer)
 80001b8:	dec00014 	ori	sp,sp,0

    /* Set up the global pointer. */
    movhi gp, %hi(_gp)
 80001bc:	06820074 	movhi	gp,2049
    ori gp, gp, %lo(_gp)
 80001c0:	d6bb8314 	ori	gp,gp,60940
 */
#ifndef ALT_SIM_OPTIMIZE
    /* Log that the BSS is about to be cleared. */
    ALT_LOG_PUTS(alt_log_msg_bss)

    movhi r2, %hi(__bss_start)
 80001c4:	00820074 	movhi	r2,2049
    ori r2, r2, %lo(__bss_start)
 80001c8:	10a23514 	ori	r2,r2,35028

    movhi r3, %hi(__bss_end)
 80001cc:	00c20074 	movhi	r3,2049
    ori r3, r3, %lo(__bss_end)
 80001d0:	18e45a14 	ori	r3,r3,37224

    beq r2, r3, 1f
 80001d4:	10c00326 	beq	r2,r3,80001e4 <_start+0x30>

0:
    stw zero, (r2)
 80001d8:	10000015 	stw	zero,0(r2)
    addi r2, r2, 4
 80001dc:	10800104 	addi	r2,r2,4
    bltu r2, r3, 0b
 80001e0:	10fffd36 	bltu	r2,r3,80001d8 <_start+0x24>
     * section aren't defined until alt_load() has been called).
     */
    mov   et, zero
#endif

    call alt_load
 80001e4:	800e3240 	call	800e324 <alt_load>

    /* Log that alt_main is about to be called. */
    ALT_LOG_PUTS(alt_log_msg_alt_main)

    /* Call the C entry point. It should never return. */
    call alt_main
 80001e8:	800e5640 	call	800e564 <alt_main>

080001ec <alt_after_alt_main>:

    /* Wait in infinite loop in case alt_main does return. */
alt_after_alt_main:
    br alt_after_alt_main
 80001ec:	003fff06 	br	80001ec <alt_after_alt_main>

080001f0 <cpu_exec>:
   Function: decode_instruction( byte )
   Description: Reads in byte to decode into corresponding
	  	instruction with addressing mode.
*/
void cpu_exec()
{
 80001f0:	defff804 	addi	sp,sp,-32
 80001f4:	dfc00715 	stw	ra,28(sp)
 80001f8:	df000615 	stw	fp,24(sp)
 80001fc:	dc400515 	stw	r17,20(sp)
 8000200:	dc000415 	stw	r16,16(sp)
 8000204:	df000404 	addi	fp,sp,16
  byte temp;
  word temp_addr;
  byte operand;

  // Execute OPCODE. Note: BCD-related actions are ignored.
  switch(CPU->IR)
 8000208:	d0a6b217 	ldw	r2,-25912(gp)
 800020c:	10800443 	ldbu	r2,17(r2)
 8000210:	10803fcc 	andi	r2,r2,255
 8000214:	e0bfff15 	stw	r2,-4(fp)
 8000218:	e0ffff17 	ldw	r3,-4(fp)
 800021c:	18803fe8 	cmpgeui	r2,r3,255
 8000220:	100ad91e 	bne	r2,zero,8002d88 <cpu_exec+0x2b98>
 8000224:	e13fff17 	ldw	r4,-4(fp)
 8000228:	e13fff17 	ldw	r4,-4(fp)
 800022c:	2105883a 	add	r2,r4,r4
 8000230:	1087883a 	add	r3,r2,r2
 8000234:	00820034 	movhi	r2,2048
 8000238:	10809204 	addi	r2,r2,584
 800023c:	1885883a 	add	r2,r3,r2
 8000240:	10800017 	ldw	r2,0(r2)
 8000244:	1000683a 	jmp	r2
 8000248:	08000bac 	andhi	zero,at,46
 800024c:	08001d04 	addi	zero,at,116
 8000250:	08002d88 	cmpgei	zero,at,182
 8000254:	08002d88 	cmpgei	zero,at,182
 8000258:	08002d88 	cmpgei	zero,at,182
 800025c:	08001d18 	cmpnei	zero,at,116
 8000260:	08000880 	call	800088 <__alt_mem_onchip_memory2_0+0x7fe088>
 8000264:	08002d88 	cmpgei	zero,at,182
 8000268:	08001d88 	cmpgei	zero,at,118
 800026c:	08001cbc 	xorhi	zero,at,114
 8000270:	08000870 	cmpltui	zero,at,33
 8000274:	08002d88 	cmpgei	zero,at,182
 8000278:	08002d88 	cmpgei	zero,at,182
 800027c:	08001c80 	call	8001c8 <__alt_mem_onchip_memory2_0+0x7fe1c8>
 8000280:	08000784 	addi	zero,at,30
 8000284:	08002d88 	cmpgei	zero,at,182
 8000288:	08000b3c 	xorhi	zero,at,44
 800028c:	08001cf0 	cmpltui	zero,at,115
 8000290:	08002d88 	cmpgei	zero,at,182
 8000294:	08002d88 	cmpgei	zero,at,182
 8000298:	08002d88 	cmpgei	zero,at,182
 800029c:	08001d2c 	andhi	zero,at,116
 80002a0:	080008bc 	xorhi	zero,at,34
 80002a4:	08002d88 	cmpgei	zero,at,182
 80002a8:	08000e6c 	andhi	zero,at,57
 80002ac:	08001ca8 	cmpgeui	zero,at,114
 80002b0:	08002d88 	cmpgei	zero,at,182
 80002b4:	08002d88 	cmpgei	zero,at,182
 80002b8:	08002d88 	cmpgei	zero,at,182
 80002bc:	08001c94 	ori	zero,at,114
 80002c0:	080007f4 	orhi	zero,at,31
 80002c4:	08002d88 	cmpgei	zero,at,182
 80002c8:	080017d0 	cmplti	zero,at,95
 80002cc:	08000748 	cmpgei	zero,at,29
 80002d0:	08002d88 	cmpgei	zero,at,182
 80002d4:	08002d88 	cmpgei	zero,at,182
 80002d8:	08000ecc 	andi	zero,at,59
 80002dc:	0800075c 	xori	zero,at,29
 80002e0:	08002090 	cmplti	zero,at,130
 80002e4:	08002d88 	cmpgei	zero,at,182
 80002e8:	08001eec 	andhi	zero,at,123
 80002ec:	08000720 	cmpeqi	zero,at,28
 80002f0:	08002080 	call	800208 <__alt_mem_onchip_memory2_0+0x7fe208>
 80002f4:	08002d88 	cmpgei	zero,at,182
 80002f8:	08000f5c 	xori	zero,at,61
 80002fc:	080006e4 	muli	zero,at,27
 8000300:	08001f90 	cmplti	zero,at,126
 8000304:	08002d88 	cmpgei	zero,at,182
 8000308:	08000a5c 	xori	zero,at,41
 800030c:	08000734 	orhi	zero,at,28
 8000310:	08002d88 	cmpgei	zero,at,182
 8000314:	08002d88 	cmpgei	zero,at,182
 8000318:	08002d88 	cmpgei	zero,at,182
 800031c:	08000770 	cmpltui	zero,at,29
 8000320:	080020cc 	andi	zero,at,131
 8000324:	08002d88 	cmpgei	zero,at,182
 8000328:	08002574 	orhi	zero,at,149
 800032c:	0800070c 	andi	zero,at,28
 8000330:	08002d88 	cmpgei	zero,at,182
 8000334:	08002d88 	cmpgei	zero,at,182
 8000338:	08002d88 	cmpgei	zero,at,182
 800033c:	080006f8 	rdprs	zero,at,27
 8000340:	08002000 	call	800200 <__alt_mem_onchip_memory2_0+0x7fe200>
 8000344:	08002d88 	cmpgei	zero,at,182
 8000348:	080022a8 	cmpgeui	zero,at,138
 800034c:	08001420 	cmpeqi	zero,at,80
 8000350:	08002d88 	cmpgei	zero,at,182
 8000354:	08002d88 	cmpgei	zero,at,182
 8000358:	08002d88 	cmpgei	zero,at,182
 800035c:	08001448 	cmpgei	zero,at,81
 8000360:	08001be4 	muli	zero,at,111
 8000364:	08002d88 	cmpgei	zero,at,182
 8000368:	08001d40 	call	8001d4 <__alt_mem_onchip_memory2_0+0x7fe1d4>
 800036c:	080013d0 	cmplti	zero,at,79
 8000370:	08001bd4 	ori	zero,at,111
 8000374:	08002d88 	cmpgei	zero,at,182
 8000378:	080016f8 	rdprs	zero,at,91
 800037c:	08001358 	cmpnei	zero,at,77
 8000380:	08001ae4 	muli	zero,at,107
 8000384:	08002d88 	cmpgei	zero,at,182
 8000388:	08000d8c 	andi	zero,at,54
 800038c:	080013f8 	rdprs	zero,at,79
 8000390:	08002d88 	cmpgei	zero,at,182
 8000394:	08002d88 	cmpgei	zero,at,182
 8000398:	08002d88 	cmpgei	zero,at,182
 800039c:	080014ac 	andhi	zero,at,82
 80003a0:	08001c20 	cmpeqi	zero,at,112
 80003a4:	08002d88 	cmpgei	zero,at,182
 80003a8:	08000e9c 	xori	zero,at,58
 80003ac:	080013a8 	cmpgeui	zero,at,78
 80003b0:	08002d88 	cmpgei	zero,at,182
 80003b4:	08002d88 	cmpgei	zero,at,182
 80003b8:	08002d88 	cmpgei	zero,at,182
 80003bc:	08001380 	call	800138 <__alt_mem_onchip_memory2_0+0x7fe138>
 80003c0:	08001b54 	ori	zero,at,109
 80003c4:	08002d88 	cmpgei	zero,at,182
 80003c8:	08002414 	ori	zero,at,144
 80003cc:	080006a8 	cmpgeui	zero,at,26
 80003d0:	08002d88 	cmpgei	zero,at,182
 80003d4:	08002d88 	cmpgei	zero,at,182
 80003d8:	08002d88 	cmpgei	zero,at,182
 80003dc:	080006bc 	xorhi	zero,at,26
 80003e0:	0800221c 	xori	zero,at,136
 80003e4:	08002d88 	cmpgei	zero,at,182
 80003e8:	08001e70 	cmpltui	zero,at,121
 80003ec:	08000680 	call	800068 <__alt_mem_onchip_memory2_0+0x7fe068>
 80003f0:	0800220c 	andi	zero,at,136
 80003f4:	08002d88 	cmpgei	zero,at,182
 80003f8:	08001768 	cmpgeui	zero,at,93
 80003fc:	08000644 	addi	zero,at,25
 8000400:	0800211c 	xori	zero,at,132
 8000404:	08002d88 	cmpgei	zero,at,182
 8000408:	08000dfc 	xorhi	zero,at,55
 800040c:	08000694 	ori	zero,at,26
 8000410:	08002d88 	cmpgei	zero,at,182
 8000414:	08002d88 	cmpgei	zero,at,182
 8000418:	08002d88 	cmpgei	zero,at,182
 800041c:	080006d0 	cmplti	zero,at,27
 8000420:	08002258 	cmpnei	zero,at,137
 8000424:	08002d88 	cmpgei	zero,at,182
 8000428:	080025ac 	andhi	zero,at,150
 800042c:	0800066c 	andhi	zero,at,25
 8000430:	08002d88 	cmpgei	zero,at,182
 8000434:	08002d88 	cmpgei	zero,at,182
 8000438:	08002d88 	cmpgei	zero,at,182
 800043c:	08000658 	cmpnei	zero,at,25
 8000440:	0800218c 	andi	zero,at,134
 8000444:	08002d88 	cmpgei	zero,at,182
 8000448:	08002d88 	cmpgei	zero,at,182
 800044c:	0800280c 	andi	zero,at,160
 8000450:	08002d88 	cmpgei	zero,at,182
 8000454:	08002d88 	cmpgei	zero,at,182
 8000458:	08002b10 	cmplti	zero,at,172
 800045c:	080028a8 	cmpgeui	zero,at,162
 8000460:	080029dc 	xori	zero,at,167
 8000464:	08002d88 	cmpgei	zero,at,182
 8000468:	08001304 	addi	zero,at,76
 800046c:	08002d88 	cmpgei	zero,at,182
 8000470:	08002cc0 	call	8002cc <__alt_mem_onchip_memory2_0+0x7fe2cc>
 8000474:	08002d88 	cmpgei	zero,at,182
 8000478:	08002a90 	cmplti	zero,at,170
 800047c:	080025c8 	cmpgei	zero,at,151
 8000480:	0800295c 	xori	zero,at,165
 8000484:	08002d88 	cmpgei	zero,at,182
 8000488:	0800090c 	andi	zero,at,36
 800048c:	08002770 	cmpltui	zero,at,157
 8000490:	08002d88 	cmpgei	zero,at,182
 8000494:	08002d88 	cmpgei	zero,at,182
 8000498:	08002b60 	cmpeqi	zero,at,173
 800049c:	080028f8 	rdprs	zero,at,163
 80004a0:	08002a2c 	andhi	zero,at,168
 80004a4:	08002d88 	cmpgei	zero,at,182
 80004a8:	08002d34 	orhi	zero,at,180
 80004ac:	080026dc 	xori	zero,at,155
 80004b0:	08002d14 	ori	zero,at,180
 80004b4:	08002d88 	cmpgei	zero,at,182
 80004b8:	08002d88 	cmpgei	zero,at,182
 80004bc:	08002648 	cmpgei	zero,at,153
 80004c0:	08002d88 	cmpgei	zero,at,182
 80004c4:	08002d88 	cmpgei	zero,at,182
 80004c8:	08001a88 	cmpgei	zero,at,106
 80004cc:	08001958 	cmpnei	zero,at,101
 80004d0:	080019bc 	xorhi	zero,at,102
 80004d4:	08002d88 	cmpgei	zero,at,182
 80004d8:	08001abc 	xorhi	zero,at,106
 80004dc:	0800196c 	andhi	zero,at,101
 80004e0:	080019f0 	cmpltui	zero,at,103
 80004e4:	08002d88 	cmpgei	zero,at,182
 80004e8:	08002c18 	cmpnei	zero,at,176
 80004ec:	08001910 	cmplti	zero,at,100
 80004f0:	08002bc4 	addi	zero,at,175
 80004f4:	08002d88 	cmpgei	zero,at,182
 80004f8:	08001a60 	cmpeqi	zero,at,105
 80004fc:	080018d4 	ori	zero,at,99
 8000500:	08001994 	ori	zero,at,102
 8000504:	08002d88 	cmpgei	zero,at,182
 8000508:	0800097c 	xorhi	zero,at,37
 800050c:	08001944 	addi	zero,at,101
 8000510:	08002d88 	cmpgei	zero,at,182
 8000514:	08002d88 	cmpgei	zero,at,182
 8000518:	08001ad0 	cmplti	zero,at,107
 800051c:	08001980 	call	800198 <__alt_mem_onchip_memory2_0+0x7fe198>
 8000520:	08001a04 	addi	zero,at,104
 8000524:	08002d88 	cmpgei	zero,at,182
 8000528:	08000eb4 	orhi	zero,at,58
 800052c:	080018fc 	xorhi	zero,at,99
 8000530:	08002c6c 	andhi	zero,at,177
 8000534:	08002d88 	cmpgei	zero,at,182
 8000538:	08001a74 	orhi	zero,at,105
 800053c:	080018e8 	cmpgeui	zero,at,99
 8000540:	080019a8 	cmpgeui	zero,at,102
 8000544:	08002d88 	cmpgei	zero,at,182
 8000548:	0800110c 	andi	zero,at,68
 800054c:	08001080 	call	800108 <__alt_mem_onchip_memory2_0+0x7fe108>
 8000550:	08002d88 	cmpgei	zero,at,182
 8000554:	08002d88 	cmpgei	zero,at,182
 8000558:	08001120 	cmpeqi	zero,at,68
 800055c:	08001094 	ori	zero,at,66
 8000560:	08001224 	muli	zero,at,72
 8000564:	08002d88 	cmpgei	zero,at,182
 8000568:	080016a4 	muli	zero,at,90
 800056c:	08001058 	cmpnei	zero,at,65
 8000570:	080012b0 	cmpltui	zero,at,74
 8000574:	08002d88 	cmpgei	zero,at,182
 8000578:	080010f8 	rdprs	zero,at,67
 800057c:	0800101c 	xori	zero,at,64
 8000580:	08001134 	orhi	zero,at,68
 8000584:	08002d88 	cmpgei	zero,at,182
 8000588:	08000acc 	andi	zero,at,43
 800058c:	0800106c 	andhi	zero,at,65
 8000590:	08002d88 	cmpgei	zero,at,182
 8000594:	08002d88 	cmpgei	zero,at,182
 8000598:	08002d88 	cmpgei	zero,at,182
 800059c:	080010a8 	cmpgeui	zero,at,66
 80005a0:	08001260 	cmpeqi	zero,at,73
 80005a4:	08002d88 	cmpgei	zero,at,182
 80005a8:	08000e84 	addi	zero,at,58
 80005ac:	08001044 	addi	zero,at,65
 80005b0:	08002d88 	cmpgei	zero,at,182
 80005b4:	08002d88 	cmpgei	zero,at,182
 80005b8:	08002d88 	cmpgei	zero,at,182
 80005bc:	08001030 	cmpltui	zero,at,64
 80005c0:	080011a4 	muli	zero,at,70
 80005c4:	08002d88 	cmpgei	zero,at,182
 80005c8:	080010d0 	cmplti	zero,at,67
 80005cc:	08002538 	rdprs	zero,at,148
 80005d0:	08002d88 	cmpgei	zero,at,182
 80005d4:	08002d88 	cmpgei	zero,at,182
 80005d8:	080010e4 	muli	zero,at,67
 80005dc:	0800254c 	andi	zero,at,149
 80005e0:	080015c4 	addi	zero,at,87
 80005e4:	08002d88 	cmpgei	zero,at,182
 80005e8:	08001650 	cmplti	zero,at,89
 80005ec:	080024f0 	cmpltui	zero,at,147
 80005f0:	08001c70 	cmpltui	zero,at,113
 80005f4:	08002d88 	cmpgei	zero,at,182
 80005f8:	080010bc 	xorhi	zero,at,66
 80005fc:	080024b4 	orhi	zero,at,146
 8000600:	080014d4 	ori	zero,at,83
 8000604:	08002d88 	cmpgei	zero,at,182
 8000608:	080009ec 	andhi	zero,at,39
 800060c:	08002524 	muli	zero,at,148
 8000610:	08002d88 	cmpgei	zero,at,182
 8000614:	08002d88 	cmpgei	zero,at,182
 8000618:	08002d88 	cmpgei	zero,at,182
 800061c:	08002560 	cmpeqi	zero,at,149
 8000620:	08001600 	call	800160 <__alt_mem_onchip_memory2_0+0x7fe160>
 8000624:	08002d88 	cmpgei	zero,at,182
 8000628:	08002590 	cmplti	zero,at,150
 800062c:	080024dc 	xori	zero,at,147
 8000630:	08002d88 	cmpgei	zero,at,182
 8000634:	08002d88 	cmpgei	zero,at,182
 8000638:	08002d88 	cmpgei	zero,at,182
 800063c:	080024c8 	cmpgei	zero,at,147
 8000640:	08001544 	addi	zero,at,85
  {
    // ###################### ADC #########################
  case 0x6D: // ABS
      operand = ABS(); ADC(operand); break;
 8000644:	80030180 	call	8003018 <ABS>
 8000648:	e0bffd05 	stb	r2,-12(fp)
 800064c:	e13ffd03 	ldbu	r4,-12(fp)
 8000650:	80034500 	call	8003450 <ADC>
 8000654:	0009cf06 	br	8002d94 <cpu_exec+0x2ba4>
  case 0x7D: // ABSX
      operand = ABSX(); ADC( operand ); break;
 8000658:	80030a80 	call	80030a8 <ABSX>
 800065c:	e0bffd05 	stb	r2,-12(fp)
 8000660:	e13ffd03 	ldbu	r4,-12(fp)
 8000664:	80034500 	call	8003450 <ADC>
 8000668:	0009ca06 	br	8002d94 <cpu_exec+0x2ba4>
  case 0x79: // ABSY
      operand = ABSY(); ADC(operand); break;
 800066c:	800314c0 	call	800314c <ABSY>
 8000670:	e0bffd05 	stb	r2,-12(fp)
 8000674:	e13ffd03 	ldbu	r4,-12(fp)
 8000678:	80034500 	call	8003450 <ADC>
 800067c:	0009c506 	br	8002d94 <cpu_exec+0x2ba4>
  case 0x69: // IMM
    operand = IMM(); ADC(operand); break;
 8000680:	800333c0 	call	800333c <IMM>
 8000684:	e0bffd05 	stb	r2,-12(fp)
 8000688:	e13ffd03 	ldbu	r4,-12(fp)
 800068c:	80034500 	call	8003450 <ADC>
 8000690:	0009c006 	br	8002d94 <cpu_exec+0x2ba4>
  case 0x71: // INDY
    operand = INDY(); ADC(operand); break;
 8000694:	80032940 	call	8003294 <INDY>
 8000698:	e0bffd05 	stb	r2,-12(fp)
 800069c:	e13ffd03 	ldbu	r4,-12(fp)
 80006a0:	80034500 	call	8003450 <ADC>
 80006a4:	0009bb06 	br	8002d94 <cpu_exec+0x2ba4>
  case 0x61: // XIND
    operand = XIND(); ADC(operand); break;
 80006a8:	80031f00 	call	80031f0 <XIND>
 80006ac:	e0bffd05 	stb	r2,-12(fp)
 80006b0:	e13ffd03 	ldbu	r4,-12(fp)
 80006b4:	80034500 	call	8003450 <ADC>
 80006b8:	0009b606 	br	8002d94 <cpu_exec+0x2ba4>
  case 0x65: // ZP
    operand = ZP(); ADC(operand); break;
 80006bc:	80033840 	call	8003384 <ZP>
 80006c0:	e0bffd05 	stb	r2,-12(fp)
 80006c4:	e13ffd03 	ldbu	r4,-12(fp)
 80006c8:	80034500 	call	8003450 <ADC>
 80006cc:	0009b106 	br	8002d94 <cpu_exec+0x2ba4>
  case 0x75: // ZPX
    operand = ZPX(); ADC(operand); break;
 80006d0:	80033e00 	call	80033e0 <ZPX>
 80006d4:	e0bffd05 	stb	r2,-12(fp)
 80006d8:	e13ffd03 	ldbu	r4,-12(fp)
 80006dc:	80034500 	call	8003450 <ADC>
 80006e0:	0009ac06 	br	8002d94 <cpu_exec+0x2ba4>

    // ###################### AND #########################
  case 0x2D: // ABS
    operand = ABS(); AND(operand); break;
 80006e4:	80030180 	call	8003018 <ABS>
 80006e8:	e0bffd05 	stb	r2,-12(fp)
 80006ec:	e13ffd03 	ldbu	r4,-12(fp)
 80006f0:	80035040 	call	8003504 <AND>
 80006f4:	0009a706 	br	8002d94 <cpu_exec+0x2ba4>
  case 0x3D: // ABSX
    operand = ABSX(); AND(operand); break;
 80006f8:	80030a80 	call	80030a8 <ABSX>
 80006fc:	e0bffd05 	stb	r2,-12(fp)
 8000700:	e13ffd03 	ldbu	r4,-12(fp)
 8000704:	80035040 	call	8003504 <AND>
 8000708:	0009a206 	br	8002d94 <cpu_exec+0x2ba4>
  case 0x39: // ABSY
    operand = ABSY(); AND(operand); break;
 800070c:	800314c0 	call	800314c <ABSY>
 8000710:	e0bffd05 	stb	r2,-12(fp)
 8000714:	e13ffd03 	ldbu	r4,-12(fp)
 8000718:	80035040 	call	8003504 <AND>
 800071c:	00099d06 	br	8002d94 <cpu_exec+0x2ba4>
  case 0x29: // IMM
    operand = IMM();
 8000720:	800333c0 	call	800333c <IMM>
 8000724:	e0bffd05 	stb	r2,-12(fp)
    AND(operand); break;
 8000728:	e13ffd03 	ldbu	r4,-12(fp)
 800072c:	80035040 	call	8003504 <AND>
 8000730:	00099806 	br	8002d94 <cpu_exec+0x2ba4>
  case 0x31: // INDY
    operand = INDY(); AND(operand); break;
 8000734:	80032940 	call	8003294 <INDY>
 8000738:	e0bffd05 	stb	r2,-12(fp)
 800073c:	e13ffd03 	ldbu	r4,-12(fp)
 8000740:	80035040 	call	8003504 <AND>
 8000744:	00099306 	br	8002d94 <cpu_exec+0x2ba4>
  case 0x21: // XIND
    operand = XIND(); AND(operand); break;
 8000748:	80031f00 	call	80031f0 <XIND>
 800074c:	e0bffd05 	stb	r2,-12(fp)
 8000750:	e13ffd03 	ldbu	r4,-12(fp)
 8000754:	80035040 	call	8003504 <AND>
 8000758:	00098e06 	br	8002d94 <cpu_exec+0x2ba4>
  case 0x25: // ZP
    operand = ZP(); AND(operand); break;
 800075c:	80033840 	call	8003384 <ZP>
 8000760:	e0bffd05 	stb	r2,-12(fp)
 8000764:	e13ffd03 	ldbu	r4,-12(fp)
 8000768:	80035040 	call	8003504 <AND>
 800076c:	00098906 	br	8002d94 <cpu_exec+0x2ba4>
  case 0x35: // ZPX
    operand = ZPX(); AND(operand); break;
 8000770:	80033e00 	call	80033e0 <ZPX>
 8000774:	e0bffd05 	stb	r2,-12(fp)
 8000778:	e13ffd03 	ldbu	r4,-12(fp)
 800077c:	80035040 	call	8003504 <AND>
 8000780:	00098406 	br	8002d94 <cpu_exec+0x2ba4>

    // ###################### ASL #########################
  case 0x0E: // ABS
    ASL( &CPU->MEM[(CPU->MEM[ CPU->PC++] | (CPU->MEM[ CPU->PC++] << 8))]); break;
 8000784:	d0a6b217 	ldw	r2,-25912(gp)
 8000788:	11400617 	ldw	r5,24(r2)
 800078c:	d0a6b217 	ldw	r2,-25912(gp)
 8000790:	10c00617 	ldw	r3,24(r2)
 8000794:	d1a6b217 	ldw	r6,-25912(gp)
 8000798:	31c0000b 	ldhu	r7,0(r6)
 800079c:	38bfffcc 	andi	r2,r7,65535
 80007a0:	1885883a 	add	r2,r3,r2
 80007a4:	10800003 	ldbu	r2,0(r2)
 80007a8:	12003fcc 	andi	r8,r2,255
 80007ac:	d0a6b217 	ldw	r2,-25912(gp)
 80007b0:	10c00617 	ldw	r3,24(r2)
 80007b4:	d266b217 	ldw	r9,-25912(gp)
 80007b8:	4900000b 	ldhu	r4,0(r9)
 80007bc:	20bfffcc 	andi	r2,r4,65535
 80007c0:	1885883a 	add	r2,r3,r2
 80007c4:	10800003 	ldbu	r2,0(r2)
 80007c8:	10803fcc 	andi	r2,r2,255
 80007cc:	1004923a 	slli	r2,r2,8
 80007d0:	4084b03a 	or	r2,r8,r2
 80007d4:	2887883a 	add	r3,r5,r2
 80007d8:	38800044 	addi	r2,r7,1
 80007dc:	3080000d 	sth	r2,0(r6)
 80007e0:	20800044 	addi	r2,r4,1
 80007e4:	4880000d 	sth	r2,0(r9)
 80007e8:	1809883a 	mov	r4,r3
 80007ec:	80035840 	call	8003584 <ASL>
 80007f0:	00096806 	br	8002d94 <cpu_exec+0x2ba4>

  case 0x1E: // ABSX
    ASL( &CPU->MEM[( (CPU->MEM[ CPU->PC++] | (CPU->MEM[ CPU->PC++] << 8)) + CPU->X)]); break;
 80007f4:	d0a6b217 	ldw	r2,-25912(gp)
 80007f8:	11000617 	ldw	r4,24(r2)
 80007fc:	d0a6b217 	ldw	r2,-25912(gp)
 8000800:	10c00617 	ldw	r3,24(r2)
 8000804:	d166b217 	ldw	r5,-25912(gp)
 8000808:	2980000b 	ldhu	r6,0(r5)
 800080c:	30bfffcc 	andi	r2,r6,65535
 8000810:	1885883a 	add	r2,r3,r2
 8000814:	10800003 	ldbu	r2,0(r2)
 8000818:	11c03fcc 	andi	r7,r2,255
 800081c:	d0a6b217 	ldw	r2,-25912(gp)
 8000820:	10c00617 	ldw	r3,24(r2)
 8000824:	d226b217 	ldw	r8,-25912(gp)
 8000828:	4240000b 	ldhu	r9,0(r8)
 800082c:	48bfffcc 	andi	r2,r9,65535
 8000830:	1885883a 	add	r2,r3,r2
 8000834:	10800003 	ldbu	r2,0(r2)
 8000838:	10803fcc 	andi	r2,r2,255
 800083c:	1004923a 	slli	r2,r2,8
 8000840:	3886b03a 	or	r3,r7,r2
 8000844:	d0a6b217 	ldw	r2,-25912(gp)
 8000848:	108002c3 	ldbu	r2,11(r2)
 800084c:	10803fcc 	andi	r2,r2,255
 8000850:	1885883a 	add	r2,r3,r2
 8000854:	2089883a 	add	r4,r4,r2
 8000858:	30800044 	addi	r2,r6,1
 800085c:	2880000d 	sth	r2,0(r5)
 8000860:	48800044 	addi	r2,r9,1
 8000864:	4080000d 	sth	r2,0(r8)
 8000868:	80035840 	call	8003584 <ASL>
 800086c:	00094906 	br	8002d94 <cpu_exec+0x2ba4>
  case 0x0A: // ACC
    ASL( &CPU->A ); break;
 8000870:	d0a6b217 	ldw	r2,-25912(gp)
 8000874:	11000284 	addi	r4,r2,10
 8000878:	80035840 	call	8003584 <ASL>
 800087c:	00094506 	br	8002d94 <cpu_exec+0x2ba4>
  case 0x06: // ZP
    ASL( &CPU->MEM[ CPU->MEM[ CPU->PC++] ] ); break;
 8000880:	d0a6b217 	ldw	r2,-25912(gp)
 8000884:	11000617 	ldw	r4,24(r2)
 8000888:	d0a6b217 	ldw	r2,-25912(gp)
 800088c:	10c00617 	ldw	r3,24(r2)
 8000890:	d166b217 	ldw	r5,-25912(gp)
 8000894:	2980000b 	ldhu	r6,0(r5)
 8000898:	30bfffcc 	andi	r2,r6,65535
 800089c:	1885883a 	add	r2,r3,r2
 80008a0:	10800003 	ldbu	r2,0(r2)
 80008a4:	10803fcc 	andi	r2,r2,255
 80008a8:	2089883a 	add	r4,r4,r2
 80008ac:	30800044 	addi	r2,r6,1
 80008b0:	2880000d 	sth	r2,0(r5)
 80008b4:	80035840 	call	8003584 <ASL>
 80008b8:	00093606 	br	8002d94 <cpu_exec+0x2ba4>
  case 0x16: // ZPX
    ASL( &CPU->MEM[ (CPU->MEM[ CPU->PC++] + CPU->X) & 0xFF] ); break;
 80008bc:	d0a6b217 	ldw	r2,-25912(gp)
 80008c0:	11000617 	ldw	r4,24(r2)
 80008c4:	d0a6b217 	ldw	r2,-25912(gp)
 80008c8:	10c00617 	ldw	r3,24(r2)
 80008cc:	d1a6b217 	ldw	r6,-25912(gp)
 80008d0:	3140000b 	ldhu	r5,0(r6)
 80008d4:	28bfffcc 	andi	r2,r5,65535
 80008d8:	1885883a 	add	r2,r3,r2
 80008dc:	10800003 	ldbu	r2,0(r2)
 80008e0:	10c03fcc 	andi	r3,r2,255
 80008e4:	d0a6b217 	ldw	r2,-25912(gp)
 80008e8:	108002c3 	ldbu	r2,11(r2)
 80008ec:	10803fcc 	andi	r2,r2,255
 80008f0:	1885883a 	add	r2,r3,r2
 80008f4:	10803fcc 	andi	r2,r2,255
 80008f8:	2089883a 	add	r4,r4,r2
 80008fc:	28800044 	addi	r2,r5,1
 8000900:	3080000d 	sth	r2,0(r6)
 8000904:	80035840 	call	8003584 <ASL>
 8000908:	00092206 	br	8002d94 <cpu_exec+0x2ba4>
    break;

    // ########################## BCC #####################
  case 0x90: // REL
    if(CPU->P.C == 0)
 800090c:	d0a6b217 	ldw	r2,-25912(gp)
 8000910:	108000c3 	ldbu	r2,3(r2)
 8000914:	10803fcc 	andi	r2,r2,255
 8000918:	1004c03a 	cmpne	r2,r2,zero
 800091c:	10000f1e 	bne	r2,zero,800095c <cpu_exec+0x76c>
      CPU->PC += CPU->MEM[CPU->PC] + 1;
 8000920:	d166b217 	ldw	r5,-25912(gp)
 8000924:	d0a6b217 	ldw	r2,-25912(gp)
 8000928:	1100000b 	ldhu	r4,0(r2)
 800092c:	d0a6b217 	ldw	r2,-25912(gp)
 8000930:	10c00617 	ldw	r3,24(r2)
 8000934:	d0a6b217 	ldw	r2,-25912(gp)
 8000938:	1080000b 	ldhu	r2,0(r2)
 800093c:	10bfffcc 	andi	r2,r2,65535
 8000940:	1885883a 	add	r2,r3,r2
 8000944:	10800003 	ldbu	r2,0(r2)
 8000948:	10803fcc 	andi	r2,r2,255
 800094c:	2085883a 	add	r2,r4,r2
 8000950:	10800044 	addi	r2,r2,1
 8000954:	2880000d 	sth	r2,0(r5)
 8000958:	00000406 	br	800096c <cpu_exec+0x77c>
    else
      ++CPU->PC;
 800095c:	d0e6b217 	ldw	r3,-25912(gp)
 8000960:	1880000b 	ldhu	r2,0(r3)
 8000964:	10800044 	addi	r2,r2,1
 8000968:	1880000d 	sth	r2,0(r3)
    printf("BCC!\n");
 800096c:	01020074 	movhi	r4,2049
 8000970:	21132e04 	addi	r4,r4,19640
 8000974:	80051d80 	call	80051d8 <puts>
    break;
 8000978:	00090606 	br	8002d94 <cpu_exec+0x2ba4>

    // ####################### BCS ########################
  case 0xB0: // REL
    if(CPU->P.C == 1)
 800097c:	d0a6b217 	ldw	r2,-25912(gp)
 8000980:	108000c3 	ldbu	r2,3(r2)
 8000984:	10803fcc 	andi	r2,r2,255
 8000988:	10800058 	cmpnei	r2,r2,1
 800098c:	10000f1e 	bne	r2,zero,80009cc <cpu_exec+0x7dc>
      CPU->PC += CPU->MEM[CPU->PC] + 1; // Added 1 because PC increments
 8000990:	d166b217 	ldw	r5,-25912(gp)
 8000994:	d0a6b217 	ldw	r2,-25912(gp)
 8000998:	1100000b 	ldhu	r4,0(r2)
 800099c:	d0a6b217 	ldw	r2,-25912(gp)
 80009a0:	10c00617 	ldw	r3,24(r2)
 80009a4:	d0a6b217 	ldw	r2,-25912(gp)
 80009a8:	1080000b 	ldhu	r2,0(r2)
 80009ac:	10bfffcc 	andi	r2,r2,65535
 80009b0:	1885883a 	add	r2,r3,r2
 80009b4:	10800003 	ldbu	r2,0(r2)
 80009b8:	10803fcc 	andi	r2,r2,255
 80009bc:	2085883a 	add	r2,r4,r2
 80009c0:	10800044 	addi	r2,r2,1
 80009c4:	2880000d 	sth	r2,0(r5)
 80009c8:	00000406 	br	80009dc <cpu_exec+0x7ec>
    else
      ++CPU->PC;
 80009cc:	d0e6b217 	ldw	r3,-25912(gp)
 80009d0:	1880000b 	ldhu	r2,0(r3)
 80009d4:	10800044 	addi	r2,r2,1
 80009d8:	1880000d 	sth	r2,0(r3)
    printf("BCS!\n");
 80009dc:	01020074 	movhi	r4,2049
 80009e0:	21133004 	addi	r4,r4,19648
 80009e4:	80051d80 	call	80051d8 <puts>
    break;
 80009e8:	0008ea06 	br	8002d94 <cpu_exec+0x2ba4>

    // ######################## BEQ #######################
  case 0xF0: // REL
    if(CPU->P.Z == 1)
 80009ec:	d0a6b217 	ldw	r2,-25912(gp)
 80009f0:	10800103 	ldbu	r2,4(r2)
 80009f4:	10803fcc 	andi	r2,r2,255
 80009f8:	10800058 	cmpnei	r2,r2,1
 80009fc:	10000f1e 	bne	r2,zero,8000a3c <cpu_exec+0x84c>
      CPU->PC += CPU->MEM[CPU->PC] + 1;
 8000a00:	d166b217 	ldw	r5,-25912(gp)
 8000a04:	d0a6b217 	ldw	r2,-25912(gp)
 8000a08:	1100000b 	ldhu	r4,0(r2)
 8000a0c:	d0a6b217 	ldw	r2,-25912(gp)
 8000a10:	10c00617 	ldw	r3,24(r2)
 8000a14:	d0a6b217 	ldw	r2,-25912(gp)
 8000a18:	1080000b 	ldhu	r2,0(r2)
 8000a1c:	10bfffcc 	andi	r2,r2,65535
 8000a20:	1885883a 	add	r2,r3,r2
 8000a24:	10800003 	ldbu	r2,0(r2)
 8000a28:	10803fcc 	andi	r2,r2,255
 8000a2c:	2085883a 	add	r2,r4,r2
 8000a30:	10800044 	addi	r2,r2,1
 8000a34:	2880000d 	sth	r2,0(r5)
 8000a38:	00000406 	br	8000a4c <cpu_exec+0x85c>
    else
      ++CPU->PC;
 8000a3c:	d0e6b217 	ldw	r3,-25912(gp)
 8000a40:	1880000b 	ldhu	r2,0(r3)
 8000a44:	10800044 	addi	r2,r2,1
 8000a48:	1880000d 	sth	r2,0(r3)
    printf("BEQ!\n");
 8000a4c:	01020074 	movhi	r4,2049
 8000a50:	21133204 	addi	r4,r4,19656
 8000a54:	80051d80 	call	80051d8 <puts>
    break;
 8000a58:	0008ce06 	br	8002d94 <cpu_exec+0x2ba4>

    // ########################## BMI #####################
  case 0x30: // REL
    if(CPU->P.N == 1)
 8000a5c:	d0a6b217 	ldw	r2,-25912(gp)
 8000a60:	10800243 	ldbu	r2,9(r2)
 8000a64:	10803fcc 	andi	r2,r2,255
 8000a68:	10800058 	cmpnei	r2,r2,1
 8000a6c:	10000f1e 	bne	r2,zero,8000aac <cpu_exec+0x8bc>
      CPU->PC += CPU->MEM[CPU->PC] + 1;
 8000a70:	d166b217 	ldw	r5,-25912(gp)
 8000a74:	d0a6b217 	ldw	r2,-25912(gp)
 8000a78:	1100000b 	ldhu	r4,0(r2)
 8000a7c:	d0a6b217 	ldw	r2,-25912(gp)
 8000a80:	10c00617 	ldw	r3,24(r2)
 8000a84:	d0a6b217 	ldw	r2,-25912(gp)
 8000a88:	1080000b 	ldhu	r2,0(r2)
 8000a8c:	10bfffcc 	andi	r2,r2,65535
 8000a90:	1885883a 	add	r2,r3,r2
 8000a94:	10800003 	ldbu	r2,0(r2)
 8000a98:	10803fcc 	andi	r2,r2,255
 8000a9c:	2085883a 	add	r2,r4,r2
 8000aa0:	10800044 	addi	r2,r2,1
 8000aa4:	2880000d 	sth	r2,0(r5)
 8000aa8:	00000406 	br	8000abc <cpu_exec+0x8cc>
    else
      ++CPU->PC;
 8000aac:	d0e6b217 	ldw	r3,-25912(gp)
 8000ab0:	1880000b 	ldhu	r2,0(r3)
 8000ab4:	10800044 	addi	r2,r2,1
 8000ab8:	1880000d 	sth	r2,0(r3)

    printf("BMI!\n");
 8000abc:	01020074 	movhi	r4,2049
 8000ac0:	21133404 	addi	r4,r4,19664
 8000ac4:	80051d80 	call	80051d8 <puts>
    break;
 8000ac8:	0008b206 	br	8002d94 <cpu_exec+0x2ba4>

    // ######################## BNE #######################
  case 0xD0: // REL
    if(CPU->P.Z == 0)
 8000acc:	d0a6b217 	ldw	r2,-25912(gp)
 8000ad0:	10800103 	ldbu	r2,4(r2)
 8000ad4:	10803fcc 	andi	r2,r2,255
 8000ad8:	1004c03a 	cmpne	r2,r2,zero
 8000adc:	10000f1e 	bne	r2,zero,8000b1c <cpu_exec+0x92c>
      CPU->PC += CPU->MEM[CPU->PC] + 1;
 8000ae0:	d166b217 	ldw	r5,-25912(gp)
 8000ae4:	d0a6b217 	ldw	r2,-25912(gp)
 8000ae8:	1100000b 	ldhu	r4,0(r2)
 8000aec:	d0a6b217 	ldw	r2,-25912(gp)
 8000af0:	10c00617 	ldw	r3,24(r2)
 8000af4:	d0a6b217 	ldw	r2,-25912(gp)
 8000af8:	1080000b 	ldhu	r2,0(r2)
 8000afc:	10bfffcc 	andi	r2,r2,65535
 8000b00:	1885883a 	add	r2,r3,r2
 8000b04:	10800003 	ldbu	r2,0(r2)
 8000b08:	10803fcc 	andi	r2,r2,255
 8000b0c:	2085883a 	add	r2,r4,r2
 8000b10:	10800044 	addi	r2,r2,1
 8000b14:	2880000d 	sth	r2,0(r5)
 8000b18:	00000406 	br	8000b2c <cpu_exec+0x93c>
    else
      ++CPU->PC;
 8000b1c:	d0e6b217 	ldw	r3,-25912(gp)
 8000b20:	1880000b 	ldhu	r2,0(r3)
 8000b24:	10800044 	addi	r2,r2,1
 8000b28:	1880000d 	sth	r2,0(r3)

    printf("BNE!\n");
 8000b2c:	01020074 	movhi	r4,2049
 8000b30:	21133604 	addi	r4,r4,19672
 8000b34:	80051d80 	call	80051d8 <puts>
    break;
 8000b38:	00089606 	br	8002d94 <cpu_exec+0x2ba4>

    // ####################### BPL ########################
  case 0x10: // REL
    if(CPU->P.N == 0)
 8000b3c:	d0a6b217 	ldw	r2,-25912(gp)
 8000b40:	10800243 	ldbu	r2,9(r2)
 8000b44:	10803fcc 	andi	r2,r2,255
 8000b48:	1004c03a 	cmpne	r2,r2,zero
 8000b4c:	10000f1e 	bne	r2,zero,8000b8c <cpu_exec+0x99c>
      CPU->PC += CPU->MEM[CPU->PC] + 1;
 8000b50:	d166b217 	ldw	r5,-25912(gp)
 8000b54:	d0a6b217 	ldw	r2,-25912(gp)
 8000b58:	1100000b 	ldhu	r4,0(r2)
 8000b5c:	d0a6b217 	ldw	r2,-25912(gp)
 8000b60:	10c00617 	ldw	r3,24(r2)
 8000b64:	d0a6b217 	ldw	r2,-25912(gp)
 8000b68:	1080000b 	ldhu	r2,0(r2)
 8000b6c:	10bfffcc 	andi	r2,r2,65535
 8000b70:	1885883a 	add	r2,r3,r2
 8000b74:	10800003 	ldbu	r2,0(r2)
 8000b78:	10803fcc 	andi	r2,r2,255
 8000b7c:	2085883a 	add	r2,r4,r2
 8000b80:	10800044 	addi	r2,r2,1
 8000b84:	2880000d 	sth	r2,0(r5)
 8000b88:	00000406 	br	8000b9c <cpu_exec+0x9ac>
    else
      ++CPU->PC;
 8000b8c:	d0e6b217 	ldw	r3,-25912(gp)
 8000b90:	1880000b 	ldhu	r2,0(r3)
 8000b94:	10800044 	addi	r2,r2,1
 8000b98:	1880000d 	sth	r2,0(r3)

    printf("BPL!\n");
 8000b9c:	01020074 	movhi	r4,2049
 8000ba0:	21133804 	addi	r4,r4,19680
 8000ba4:	80051d80 	call	80051d8 <puts>
    break;
 8000ba8:	00087a06 	br	8002d94 <cpu_exec+0x2ba4>

    // ######################### BRK ######################
  case 0x00: // IMP
    /* Simulate Interrupt ReQuest (IRQ)
       Note: Do we increment PC at first? */
    ++CPU->PC; // Shouldn't matter since we're replacing PC with Interrupt Vector anyways
 8000bac:	d0e6b217 	ldw	r3,-25912(gp)
 8000bb0:	1880000b 	ldhu	r2,0(r3)
 8000bb4:	10800044 	addi	r2,r2,1
 8000bb8:	1880000d 	sth	r2,0(r3)
    CPU->MEM[ STACK + CPU->S ] = CPU->PC & 0xFF;
 8000bbc:	d0a6b217 	ldw	r2,-25912(gp)
 8000bc0:	10c00617 	ldw	r3,24(r2)
 8000bc4:	d0a6b217 	ldw	r2,-25912(gp)
 8000bc8:	10800083 	ldbu	r2,2(r2)
 8000bcc:	10803fcc 	andi	r2,r2,255
 8000bd0:	1885883a 	add	r2,r3,r2
 8000bd4:	11004004 	addi	r4,r2,256
 8000bd8:	d0a6b217 	ldw	r2,-25912(gp)
 8000bdc:	1080000b 	ldhu	r2,0(r2)
 8000be0:	1007883a 	mov	r3,r2
 8000be4:	00bfffc4 	movi	r2,-1
 8000be8:	1884703a 	and	r2,r3,r2
 8000bec:	20800005 	stb	r2,0(r4)
    --CPU->S;
 8000bf0:	d0e6b217 	ldw	r3,-25912(gp)
 8000bf4:	18800083 	ldbu	r2,2(r3)
 8000bf8:	10bfffc4 	addi	r2,r2,-1
 8000bfc:	18800085 	stb	r2,2(r3)
    CPU->MEM[ STACK + CPU->S ] = (CPU->PC >> 8) & 0xFF;
 8000c00:	d0a6b217 	ldw	r2,-25912(gp)
 8000c04:	10c00617 	ldw	r3,24(r2)
 8000c08:	d0a6b217 	ldw	r2,-25912(gp)
 8000c0c:	10800083 	ldbu	r2,2(r2)
 8000c10:	10803fcc 	andi	r2,r2,255
 8000c14:	1885883a 	add	r2,r3,r2
 8000c18:	11004004 	addi	r4,r2,256
 8000c1c:	d0a6b217 	ldw	r2,-25912(gp)
 8000c20:	1080000b 	ldhu	r2,0(r2)
 8000c24:	10bfffcc 	andi	r2,r2,65535
 8000c28:	1004d23a 	srli	r2,r2,8
 8000c2c:	1007883a 	mov	r3,r2
 8000c30:	00bfffc4 	movi	r2,-1
 8000c34:	1884703a 	and	r2,r3,r2
 8000c38:	20800005 	stb	r2,0(r4)
    --CPU->S;
 8000c3c:	d0e6b217 	ldw	r3,-25912(gp)
 8000c40:	18800083 	ldbu	r2,2(r3)
 8000c44:	10bfffc4 	addi	r2,r2,-1
 8000c48:	18800085 	stb	r2,2(r3)
    CPU->MEM[ STACK + CPU->S ] = ((CPU->P.N << 7) & 0x80) | ((CPU->P.V << 6) & 0x40) |
 8000c4c:	d0a6b217 	ldw	r2,-25912(gp)
 8000c50:	10c00617 	ldw	r3,24(r2)
 8000c54:	d0a6b217 	ldw	r2,-25912(gp)
 8000c58:	10800083 	ldbu	r2,2(r2)
 8000c5c:	10803fcc 	andi	r2,r2,255
 8000c60:	1885883a 	add	r2,r3,r2
 8000c64:	11004004 	addi	r4,r2,256
 8000c68:	d0a6b217 	ldw	r2,-25912(gp)
 8000c6c:	10800243 	ldbu	r2,9(r2)
 8000c70:	10803fcc 	andi	r2,r2,255
 8000c74:	100491fa 	slli	r2,r2,7
 8000c78:	1007883a 	mov	r3,r2
 8000c7c:	00bfe004 	movi	r2,-128
 8000c80:	1884703a 	and	r2,r3,r2
 8000c84:	1007883a 	mov	r3,r2
 8000c88:	d0a6b217 	ldw	r2,-25912(gp)
 8000c8c:	10800203 	ldbu	r2,8(r2)
 8000c90:	10803fcc 	andi	r2,r2,255
 8000c94:	100491ba 	slli	r2,r2,6
 8000c98:	1080100c 	andi	r2,r2,64
 8000c9c:	1884b03a 	or	r2,r3,r2
 8000ca0:	1007883a 	mov	r3,r2
 8000ca4:	d0a6b217 	ldw	r2,-25912(gp)
 8000ca8:	10800183 	ldbu	r2,6(r2)
 8000cac:	10803fcc 	andi	r2,r2,255
 8000cb0:	100490fa 	slli	r2,r2,3
 8000cb4:	1080020c 	andi	r2,r2,8
 8000cb8:	1884b03a 	or	r2,r3,r2
 8000cbc:	1007883a 	mov	r3,r2
 8000cc0:	d0a6b217 	ldw	r2,-25912(gp)
 8000cc4:	10800143 	ldbu	r2,5(r2)
 8000cc8:	10803fcc 	andi	r2,r2,255
 8000ccc:	1085883a 	add	r2,r2,r2
 8000cd0:	1085883a 	add	r2,r2,r2
 8000cd4:	1080010c 	andi	r2,r2,4
 8000cd8:	1884b03a 	or	r2,r3,r2
 8000cdc:	1007883a 	mov	r3,r2
 8000ce0:	d0a6b217 	ldw	r2,-25912(gp)
 8000ce4:	10800103 	ldbu	r2,4(r2)
 8000ce8:	10803fcc 	andi	r2,r2,255
 8000cec:	1085883a 	add	r2,r2,r2
 8000cf0:	1080008c 	andi	r2,r2,2
 8000cf4:	1884b03a 	or	r2,r3,r2
 8000cf8:	1007883a 	mov	r3,r2
 8000cfc:	d0a6b217 	ldw	r2,-25912(gp)
 8000d00:	108000c3 	ldbu	r2,3(r2)
 8000d04:	1080004c 	andi	r2,r2,1
 8000d08:	1884b03a 	or	r2,r3,r2
 8000d0c:	10800c14 	ori	r2,r2,48
 8000d10:	20800005 	stb	r2,0(r4)
      ((0x01 << 5)) | ((0x01 << 4) & 0x10) | ((CPU->P.D << 3) & 0x08) |
      ((CPU->P.I << 2) & 0x04) | ((CPU->P.Z << 1) & 0x02) | ((CPU->P.C) & 0x01);
    --CPU->S;
 8000d14:	d0e6b217 	ldw	r3,-25912(gp)
 8000d18:	18800083 	ldbu	r2,2(r3)
 8000d1c:	10bfffc4 	addi	r2,r2,-1
 8000d20:	18800085 	stb	r2,2(r3)
    CPU->PC = (CPU->MEM[0xFFFE]) | (CPU->MEM[0xFFFF] << 8);
 8000d24:	d166b217 	ldw	r5,-25912(gp)
 8000d28:	d0a6b217 	ldw	r2,-25912(gp)
 8000d2c:	10c00617 	ldw	r3,24(r2)
 8000d30:	00bfff94 	movui	r2,65534
 8000d34:	1885883a 	add	r2,r3,r2
 8000d38:	10800003 	ldbu	r2,0(r2)
 8000d3c:	11003fcc 	andi	r4,r2,255
 8000d40:	d0a6b217 	ldw	r2,-25912(gp)
 8000d44:	10c00617 	ldw	r3,24(r2)
 8000d48:	00bfffd4 	movui	r2,65535
 8000d4c:	1885883a 	add	r2,r3,r2
 8000d50:	10800003 	ldbu	r2,0(r2)
 8000d54:	10803fcc 	andi	r2,r2,255
 8000d58:	1004923a 	slli	r2,r2,8
 8000d5c:	2084b03a 	or	r2,r4,r2
 8000d60:	2880000d 	sth	r2,0(r5)
    printf("Breaking into reset vector: %x ", CPU->PC);
 8000d64:	d0a6b217 	ldw	r2,-25912(gp)
 8000d68:	1080000b 	ldhu	r2,0(r2)
 8000d6c:	117fffcc 	andi	r5,r2,65535
 8000d70:	01020074 	movhi	r4,2049
 8000d74:	21133a04 	addi	r4,r4,19688
 8000d78:	80050c00 	call	80050c0 <printf>
    printf("BRK!\n");
 8000d7c:	01020074 	movhi	r4,2049
 8000d80:	21134204 	addi	r4,r4,19720
 8000d84:	80051d80 	call	80051d8 <puts>
    break;
 8000d88:	00080206 	br	8002d94 <cpu_exec+0x2ba4>

    // ######################## BVC #######################
  case 0x50: // REL
    if(CPU->P.V == 0)
 8000d8c:	d0a6b217 	ldw	r2,-25912(gp)
 8000d90:	10800203 	ldbu	r2,8(r2)
 8000d94:	10803fcc 	andi	r2,r2,255
 8000d98:	1004c03a 	cmpne	r2,r2,zero
 8000d9c:	10000f1e 	bne	r2,zero,8000ddc <cpu_exec+0xbec>
      CPU->PC += CPU->MEM[CPU->PC] + 1;
 8000da0:	d166b217 	ldw	r5,-25912(gp)
 8000da4:	d0a6b217 	ldw	r2,-25912(gp)
 8000da8:	1100000b 	ldhu	r4,0(r2)
 8000dac:	d0a6b217 	ldw	r2,-25912(gp)
 8000db0:	10c00617 	ldw	r3,24(r2)
 8000db4:	d0a6b217 	ldw	r2,-25912(gp)
 8000db8:	1080000b 	ldhu	r2,0(r2)
 8000dbc:	10bfffcc 	andi	r2,r2,65535
 8000dc0:	1885883a 	add	r2,r3,r2
 8000dc4:	10800003 	ldbu	r2,0(r2)
 8000dc8:	10803fcc 	andi	r2,r2,255
 8000dcc:	2085883a 	add	r2,r4,r2
 8000dd0:	10800044 	addi	r2,r2,1
 8000dd4:	2880000d 	sth	r2,0(r5)
 8000dd8:	00000406 	br	8000dec <cpu_exec+0xbfc>
    else
      ++CPU->PC;
 8000ddc:	d0e6b217 	ldw	r3,-25912(gp)
 8000de0:	1880000b 	ldhu	r2,0(r3)
 8000de4:	10800044 	addi	r2,r2,1
 8000de8:	1880000d 	sth	r2,0(r3)
    printf("BCV!\n");
 8000dec:	01020074 	movhi	r4,2049
 8000df0:	21134404 	addi	r4,r4,19728
 8000df4:	80051d80 	call	80051d8 <puts>
    break;
 8000df8:	0007e606 	br	8002d94 <cpu_exec+0x2ba4>

    // ######################## BVS #######################
  case 0x70: // REL
    if(CPU->P.V == 1)
 8000dfc:	d0a6b217 	ldw	r2,-25912(gp)
 8000e00:	10800203 	ldbu	r2,8(r2)
 8000e04:	10803fcc 	andi	r2,r2,255
 8000e08:	10800058 	cmpnei	r2,r2,1
 8000e0c:	10000f1e 	bne	r2,zero,8000e4c <cpu_exec+0xc5c>
      CPU->PC += CPU->MEM[CPU->PC] + 1;
 8000e10:	d166b217 	ldw	r5,-25912(gp)
 8000e14:	d0a6b217 	ldw	r2,-25912(gp)
 8000e18:	1100000b 	ldhu	r4,0(r2)
 8000e1c:	d0a6b217 	ldw	r2,-25912(gp)
 8000e20:	10c00617 	ldw	r3,24(r2)
 8000e24:	d0a6b217 	ldw	r2,-25912(gp)
 8000e28:	1080000b 	ldhu	r2,0(r2)
 8000e2c:	10bfffcc 	andi	r2,r2,65535
 8000e30:	1885883a 	add	r2,r3,r2
 8000e34:	10800003 	ldbu	r2,0(r2)
 8000e38:	10803fcc 	andi	r2,r2,255
 8000e3c:	2085883a 	add	r2,r4,r2
 8000e40:	10800044 	addi	r2,r2,1
 8000e44:	2880000d 	sth	r2,0(r5)
 8000e48:	00000406 	br	8000e5c <cpu_exec+0xc6c>
    else
      ++CPU->PC;
 8000e4c:	d0e6b217 	ldw	r3,-25912(gp)
 8000e50:	1880000b 	ldhu	r2,0(r3)
 8000e54:	10800044 	addi	r2,r2,1
 8000e58:	1880000d 	sth	r2,0(r3)
    printf("BVS!\n");
 8000e5c:	01020074 	movhi	r4,2049
 8000e60:	21134604 	addi	r4,r4,19736
 8000e64:	80051d80 	call	80051d8 <puts>
    break;
 8000e68:	0007ca06 	br	8002d94 <cpu_exec+0x2ba4>

    // ######################### CLC ######################
  case 0x18: // IMP
    CPU->P.C = 0;
 8000e6c:	d0a6b217 	ldw	r2,-25912(gp)
 8000e70:	100000c5 	stb	zero,3(r2)
    //++CPU->PC;
    printf("CLC!\n");
 8000e74:	01020074 	movhi	r4,2049
 8000e78:	21134804 	addi	r4,r4,19744
 8000e7c:	80051d80 	call	80051d8 <puts>
    break;
 8000e80:	0007c406 	br	8002d94 <cpu_exec+0x2ba4>

    // ######################### CLD ######################
  case 0xD8: // IMP
    CPU->P.D = 0;
 8000e84:	d0a6b217 	ldw	r2,-25912(gp)
 8000e88:	10000185 	stb	zero,6(r2)
    //++CPU->PC;
    printf("CLD!\n");
 8000e8c:	01020074 	movhi	r4,2049
 8000e90:	21134a04 	addi	r4,r4,19752
 8000e94:	80051d80 	call	80051d8 <puts>
    break;
 8000e98:	0007be06 	br	8002d94 <cpu_exec+0x2ba4>

    // ####################### CLI ########################
  case 0x58: // IMP
    CPU->P.I = 0;
 8000e9c:	d0a6b217 	ldw	r2,-25912(gp)
 8000ea0:	10000145 	stb	zero,5(r2)
    //++CPU->PC;
    printf("CLI!\n");
 8000ea4:	01020074 	movhi	r4,2049
 8000ea8:	21134c04 	addi	r4,r4,19760
 8000eac:	80051d80 	call	80051d8 <puts>
    break;
 8000eb0:	0007b806 	br	8002d94 <cpu_exec+0x2ba4>

    // ######################### CLV ######################
  case 0xB8: // IMP
    CPU->P.V = 0;
 8000eb4:	d0a6b217 	ldw	r2,-25912(gp)
 8000eb8:	10000205 	stb	zero,8(r2)
    //++CPU->PC;
    printf("CLV!\n");
 8000ebc:	01020074 	movhi	r4,2049
 8000ec0:	21134e04 	addi	r4,r4,19768
 8000ec4:	80051d80 	call	80051d8 <puts>
    break;
 8000ec8:	0007b206 	br	8002d94 <cpu_exec+0x2ba4>
    // ######################### BIT ######################
  case 0x24: // ZP
    //printf("BIT on %x and %x ", CPU->A, CPU->MEM[ CPU->MEM[ CPU->PC  ] ] );


    temp = CPU->A & CPU->MEM[ CPU->MEM[CPU->PC++] ];
 8000ecc:	d0a6b217 	ldw	r2,-25912(gp)
 8000ed0:	11800283 	ldbu	r6,10(r2)
 8000ed4:	d0a6b217 	ldw	r2,-25912(gp)
 8000ed8:	11c00617 	ldw	r7,24(r2)
 8000edc:	d0a6b217 	ldw	r2,-25912(gp)
 8000ee0:	10c00617 	ldw	r3,24(r2)
 8000ee4:	d126b217 	ldw	r4,-25912(gp)
 8000ee8:	2140000b 	ldhu	r5,0(r4)
 8000eec:	28bfffcc 	andi	r2,r5,65535
 8000ef0:	1885883a 	add	r2,r3,r2
 8000ef4:	10800003 	ldbu	r2,0(r2)
 8000ef8:	10803fcc 	andi	r2,r2,255
 8000efc:	3885883a 	add	r2,r7,r2
 8000f00:	10800003 	ldbu	r2,0(r2)
 8000f04:	3084703a 	and	r2,r6,r2
 8000f08:	e0bffe05 	stb	r2,-8(fp)
 8000f0c:	28800044 	addi	r2,r5,1
 8000f10:	2080000d 	sth	r2,0(r4)
    CPU->P.N = ((temp & 0x80) > 0) ? 1 : 0;
 8000f14:	d0e6b217 	ldw	r3,-25912(gp)
 8000f18:	e0bffe03 	ldbu	r2,-8(fp)
 8000f1c:	1080200c 	andi	r2,r2,128
 8000f20:	10800048 	cmpgei	r2,r2,1
 8000f24:	18800245 	stb	r2,9(r3)
    CPU->P.V = ((temp & 0x40) > 0) ? 1 : 0;
 8000f28:	d0e6b217 	ldw	r3,-25912(gp)
 8000f2c:	e0bffe03 	ldbu	r2,-8(fp)
 8000f30:	1080100c 	andi	r2,r2,64
 8000f34:	10800048 	cmpgei	r2,r2,1
 8000f38:	18800205 	stb	r2,8(r3)
    CPU->P.Z = (temp == 0) ? 1 : 0;
 8000f3c:	d0e6b217 	ldw	r3,-25912(gp)
 8000f40:	e0bffe03 	ldbu	r2,-8(fp)
 8000f44:	1005003a 	cmpeq	r2,r2,zero
 8000f48:	18800105 	stb	r2,4(r3)
    printf("BIT!\n");
 8000f4c:	01020074 	movhi	r4,2049
 8000f50:	21135004 	addi	r4,r4,19776
 8000f54:	80051d80 	call	80051d8 <puts>
    break;
 8000f58:	00078e06 	br	8002d94 <cpu_exec+0x2ba4>
  case 0x2C: // ABS
    temp = CPU->A & (CPU->MEM[ CPU->MEM[CPU->PC++] | (CPU->MEM[CPU->PC++] << 8) ]);
 8000f5c:	d0a6b217 	ldw	r2,-25912(gp)
 8000f60:	11000283 	ldbu	r4,10(r2)
 8000f64:	d0a6b217 	ldw	r2,-25912(gp)
 8000f68:	11400617 	ldw	r5,24(r2)
 8000f6c:	d0a6b217 	ldw	r2,-25912(gp)
 8000f70:	10c00617 	ldw	r3,24(r2)
 8000f74:	d1a6b217 	ldw	r6,-25912(gp)
 8000f78:	31c0000b 	ldhu	r7,0(r6)
 8000f7c:	38bfffcc 	andi	r2,r7,65535
 8000f80:	1885883a 	add	r2,r3,r2
 8000f84:	10800003 	ldbu	r2,0(r2)
 8000f88:	12003fcc 	andi	r8,r2,255
 8000f8c:	d0a6b217 	ldw	r2,-25912(gp)
 8000f90:	10c00617 	ldw	r3,24(r2)
 8000f94:	d266b217 	ldw	r9,-25912(gp)
 8000f98:	4a80000b 	ldhu	r10,0(r9)
 8000f9c:	50bfffcc 	andi	r2,r10,65535
 8000fa0:	1885883a 	add	r2,r3,r2
 8000fa4:	10800003 	ldbu	r2,0(r2)
 8000fa8:	10803fcc 	andi	r2,r2,255
 8000fac:	1004923a 	slli	r2,r2,8
 8000fb0:	4084b03a 	or	r2,r8,r2
 8000fb4:	2885883a 	add	r2,r5,r2
 8000fb8:	10800003 	ldbu	r2,0(r2)
 8000fbc:	2084703a 	and	r2,r4,r2
 8000fc0:	e0bffe05 	stb	r2,-8(fp)
 8000fc4:	38800044 	addi	r2,r7,1
 8000fc8:	3080000d 	sth	r2,0(r6)
 8000fcc:	50800044 	addi	r2,r10,1
 8000fd0:	4880000d 	sth	r2,0(r9)
    CPU->P.N = ((temp & 0x80) > 0) ? 1 : 0;
 8000fd4:	d0e6b217 	ldw	r3,-25912(gp)
 8000fd8:	e0bffe03 	ldbu	r2,-8(fp)
 8000fdc:	1080200c 	andi	r2,r2,128
 8000fe0:	10800048 	cmpgei	r2,r2,1
 8000fe4:	18800245 	stb	r2,9(r3)
    CPU->P.V = ((temp & 0x40) > 0) ? 1 : 0;
 8000fe8:	d0e6b217 	ldw	r3,-25912(gp)
 8000fec:	e0bffe03 	ldbu	r2,-8(fp)
 8000ff0:	1080100c 	andi	r2,r2,64
 8000ff4:	10800048 	cmpgei	r2,r2,1
 8000ff8:	18800205 	stb	r2,8(r3)
    CPU->P.Z = (temp == 0) ? 1 : 0;
 8000ffc:	d0e6b217 	ldw	r3,-25912(gp)
 8001000:	e0bffe03 	ldbu	r2,-8(fp)
 8001004:	1005003a 	cmpeq	r2,r2,zero
 8001008:	18800105 	stb	r2,4(r3)
    printf("BIT!\n");
 800100c:	01020074 	movhi	r4,2049
 8001010:	21135004 	addi	r4,r4,19776
 8001014:	80051d80 	call	80051d8 <puts>
    break;
 8001018:	00075e06 	br	8002d94 <cpu_exec+0x2ba4>

    // ######################### CMP ######################
  case 0xCD: // ABS
    operand = ABS(); CMP(operand); break;
 800101c:	80030180 	call	8003018 <ABS>
 8001020:	e0bffd05 	stb	r2,-12(fp)
 8001024:	e13ffd03 	ldbu	r4,-12(fp)
 8001028:	800362c0 	call	800362c <CMP>
 800102c:	00075906 	br	8002d94 <cpu_exec+0x2ba4>
  case 0xDD: // ABSX
    operand = ABSX(); CMP(operand); break;
 8001030:	80030a80 	call	80030a8 <ABSX>
 8001034:	e0bffd05 	stb	r2,-12(fp)
 8001038:	e13ffd03 	ldbu	r4,-12(fp)
 800103c:	800362c0 	call	800362c <CMP>
 8001040:	00075406 	br	8002d94 <cpu_exec+0x2ba4>
  case 0xD9: // ABSY
    operand = ABSY(); CMP(operand); break;
 8001044:	800314c0 	call	800314c <ABSY>
 8001048:	e0bffd05 	stb	r2,-12(fp)
 800104c:	e13ffd03 	ldbu	r4,-12(fp)
 8001050:	800362c0 	call	800362c <CMP>
 8001054:	00074f06 	br	8002d94 <cpu_exec+0x2ba4>
  case 0xC9: // IMM
    operand = IMM(); CMP(operand); break;
 8001058:	800333c0 	call	800333c <IMM>
 800105c:	e0bffd05 	stb	r2,-12(fp)
 8001060:	e13ffd03 	ldbu	r4,-12(fp)
 8001064:	800362c0 	call	800362c <CMP>
 8001068:	00074a06 	br	8002d94 <cpu_exec+0x2ba4>
  case 0xD1: // INDY
    operand = INDY(); CMP(operand); break;
 800106c:	80032940 	call	8003294 <INDY>
 8001070:	e0bffd05 	stb	r2,-12(fp)
 8001074:	e13ffd03 	ldbu	r4,-12(fp)
 8001078:	800362c0 	call	800362c <CMP>
 800107c:	00074506 	br	8002d94 <cpu_exec+0x2ba4>
  case 0xC1: // XIND
    operand = XIND(); CMP(operand); break;
 8001080:	80031f00 	call	80031f0 <XIND>
 8001084:	e0bffd05 	stb	r2,-12(fp)
 8001088:	e13ffd03 	ldbu	r4,-12(fp)
 800108c:	800362c0 	call	800362c <CMP>
 8001090:	00074006 	br	8002d94 <cpu_exec+0x2ba4>
  case 0xC5: // ZP
    operand = ZP(); CMP(operand); break;
 8001094:	80033840 	call	8003384 <ZP>
 8001098:	e0bffd05 	stb	r2,-12(fp)
 800109c:	e13ffd03 	ldbu	r4,-12(fp)
 80010a0:	800362c0 	call	800362c <CMP>
 80010a4:	00073b06 	br	8002d94 <cpu_exec+0x2ba4>
  case 0xD5: // ZPX
    operand = ZPX(); CMP(operand); break;
 80010a8:	80033e00 	call	80033e0 <ZPX>
 80010ac:	e0bffd05 	stb	r2,-12(fp)
 80010b0:	e13ffd03 	ldbu	r4,-12(fp)
 80010b4:	800362c0 	call	800362c <CMP>
 80010b8:	00073606 	br	8002d94 <cpu_exec+0x2ba4>

    // ####################### CPX ########################
  case 0xEC: // ABS
    operand = ABS(); CPX(operand); break;
 80010bc:	80030180 	call	8003018 <ABS>
 80010c0:	e0bffd05 	stb	r2,-12(fp)
 80010c4:	e13ffd03 	ldbu	r4,-12(fp)
 80010c8:	80036b40 	call	80036b4 <CPX>
 80010cc:	00073106 	br	8002d94 <cpu_exec+0x2ba4>
  case 0xE0: // IMM
    operand = IMM(); CPX(operand); break;
 80010d0:	800333c0 	call	800333c <IMM>
 80010d4:	e0bffd05 	stb	r2,-12(fp)
 80010d8:	e13ffd03 	ldbu	r4,-12(fp)
 80010dc:	80036b40 	call	80036b4 <CPX>
 80010e0:	00072c06 	br	8002d94 <cpu_exec+0x2ba4>
  case 0xE4: // ZP
    operand = ZP(); CPX(operand); break;
 80010e4:	80033840 	call	8003384 <ZP>
 80010e8:	e0bffd05 	stb	r2,-12(fp)
 80010ec:	e13ffd03 	ldbu	r4,-12(fp)
 80010f0:	80036b40 	call	80036b4 <CPX>
 80010f4:	00072706 	br	8002d94 <cpu_exec+0x2ba4>

    // ###################### CPY #########################
  case 0xCC: // ABS
    operand = ABS(); CPY(operand); break;
 80010f8:	80030180 	call	8003018 <ABS>
 80010fc:	e0bffd05 	stb	r2,-12(fp)
 8001100:	e13ffd03 	ldbu	r4,-12(fp)
 8001104:	800373c0 	call	800373c <CPY>
 8001108:	00072206 	br	8002d94 <cpu_exec+0x2ba4>
  case 0xC0: // IMM
    operand = IMM(); CPY(operand); break;
 800110c:	800333c0 	call	800333c <IMM>
 8001110:	e0bffd05 	stb	r2,-12(fp)
 8001114:	e13ffd03 	ldbu	r4,-12(fp)
 8001118:	800373c0 	call	800373c <CPY>
 800111c:	00071d06 	br	8002d94 <cpu_exec+0x2ba4>
  case 0xC4: // ZP
    operand = ZP(); CPY(operand); break;
 8001120:	80033840 	call	8003384 <ZP>
 8001124:	e0bffd05 	stb	r2,-12(fp)
 8001128:	e13ffd03 	ldbu	r4,-12(fp)
 800112c:	800373c0 	call	800373c <CPY>
 8001130:	00071806 	br	8002d94 <cpu_exec+0x2ba4>

    // ########################### DEC ####################
  case 0xCE: // ABS
    DEC( &CPU->MEM[ CPU->MEM[CPU->PC++] | (CPU->MEM[CPU->PC++] << 8) ] ); break;
 8001134:	d0a6b217 	ldw	r2,-25912(gp)
 8001138:	11400617 	ldw	r5,24(r2)
 800113c:	d0a6b217 	ldw	r2,-25912(gp)
 8001140:	10c00617 	ldw	r3,24(r2)
 8001144:	d1a6b217 	ldw	r6,-25912(gp)
 8001148:	31c0000b 	ldhu	r7,0(r6)
 800114c:	38bfffcc 	andi	r2,r7,65535
 8001150:	1885883a 	add	r2,r3,r2
 8001154:	10800003 	ldbu	r2,0(r2)
 8001158:	12003fcc 	andi	r8,r2,255
 800115c:	d0a6b217 	ldw	r2,-25912(gp)
 8001160:	10c00617 	ldw	r3,24(r2)
 8001164:	d266b217 	ldw	r9,-25912(gp)
 8001168:	4900000b 	ldhu	r4,0(r9)
 800116c:	20bfffcc 	andi	r2,r4,65535
 8001170:	1885883a 	add	r2,r3,r2
 8001174:	10800003 	ldbu	r2,0(r2)
 8001178:	10803fcc 	andi	r2,r2,255
 800117c:	1004923a 	slli	r2,r2,8
 8001180:	4084b03a 	or	r2,r8,r2
 8001184:	2887883a 	add	r3,r5,r2
 8001188:	38800044 	addi	r2,r7,1
 800118c:	3080000d 	sth	r2,0(r6)
 8001190:	20800044 	addi	r2,r4,1
 8001194:	4880000d 	sth	r2,0(r9)
 8001198:	1809883a 	mov	r4,r3
 800119c:	80037c40 	call	80037c4 <DEC>
 80011a0:	0006fc06 	br	8002d94 <cpu_exec+0x2ba4>
  case 0xDE: // ABSX
    DEC( &CPU->MEM[ ((CPU->MEM[CPU->PC++] | (CPU->MEM[CPU->PC++] << 8)) + CPU->X) & 0xFFFF ]); break;
 80011a4:	d0a6b217 	ldw	r2,-25912(gp)
 80011a8:	11000617 	ldw	r4,24(r2)
 80011ac:	d0a6b217 	ldw	r2,-25912(gp)
 80011b0:	10c00617 	ldw	r3,24(r2)
 80011b4:	d166b217 	ldw	r5,-25912(gp)
 80011b8:	2980000b 	ldhu	r6,0(r5)
 80011bc:	30bfffcc 	andi	r2,r6,65535
 80011c0:	1885883a 	add	r2,r3,r2
 80011c4:	10800003 	ldbu	r2,0(r2)
 80011c8:	11c03fcc 	andi	r7,r2,255
 80011cc:	d0a6b217 	ldw	r2,-25912(gp)
 80011d0:	10c00617 	ldw	r3,24(r2)
 80011d4:	d226b217 	ldw	r8,-25912(gp)
 80011d8:	4240000b 	ldhu	r9,0(r8)
 80011dc:	48bfffcc 	andi	r2,r9,65535
 80011e0:	1885883a 	add	r2,r3,r2
 80011e4:	10800003 	ldbu	r2,0(r2)
 80011e8:	10803fcc 	andi	r2,r2,255
 80011ec:	1004923a 	slli	r2,r2,8
 80011f0:	3886b03a 	or	r3,r7,r2
 80011f4:	d0a6b217 	ldw	r2,-25912(gp)
 80011f8:	108002c3 	ldbu	r2,11(r2)
 80011fc:	10803fcc 	andi	r2,r2,255
 8001200:	1885883a 	add	r2,r3,r2
 8001204:	10bfffcc 	andi	r2,r2,65535
 8001208:	2089883a 	add	r4,r4,r2
 800120c:	30800044 	addi	r2,r6,1
 8001210:	2880000d 	sth	r2,0(r5)
 8001214:	48800044 	addi	r2,r9,1
 8001218:	4080000d 	sth	r2,0(r8)
 800121c:	80037c40 	call	80037c4 <DEC>
 8001220:	0006dc06 	br	8002d94 <cpu_exec+0x2ba4>
  case 0xC6: // ZP
    DEC( &CPU->MEM[ CPU->MEM[CPU->PC++] ] ); break;
 8001224:	d0a6b217 	ldw	r2,-25912(gp)
 8001228:	11000617 	ldw	r4,24(r2)
 800122c:	d0a6b217 	ldw	r2,-25912(gp)
 8001230:	10c00617 	ldw	r3,24(r2)
 8001234:	d166b217 	ldw	r5,-25912(gp)
 8001238:	2980000b 	ldhu	r6,0(r5)
 800123c:	30bfffcc 	andi	r2,r6,65535
 8001240:	1885883a 	add	r2,r3,r2
 8001244:	10800003 	ldbu	r2,0(r2)
 8001248:	10803fcc 	andi	r2,r2,255
 800124c:	2089883a 	add	r4,r4,r2
 8001250:	30800044 	addi	r2,r6,1
 8001254:	2880000d 	sth	r2,0(r5)
 8001258:	80037c40 	call	80037c4 <DEC>
 800125c:	0006cd06 	br	8002d94 <cpu_exec+0x2ba4>
  case 0xD6:
    DEC( &CPU->MEM[ (CPU->MEM[CPU->PC++] + CPU->X) & 0xFF] ); break;
 8001260:	d0a6b217 	ldw	r2,-25912(gp)
 8001264:	11000617 	ldw	r4,24(r2)
 8001268:	d0a6b217 	ldw	r2,-25912(gp)
 800126c:	10c00617 	ldw	r3,24(r2)
 8001270:	d1a6b217 	ldw	r6,-25912(gp)
 8001274:	3140000b 	ldhu	r5,0(r6)
 8001278:	28bfffcc 	andi	r2,r5,65535
 800127c:	1885883a 	add	r2,r3,r2
 8001280:	10800003 	ldbu	r2,0(r2)
 8001284:	10c03fcc 	andi	r3,r2,255
 8001288:	d0a6b217 	ldw	r2,-25912(gp)
 800128c:	108002c3 	ldbu	r2,11(r2)
 8001290:	10803fcc 	andi	r2,r2,255
 8001294:	1885883a 	add	r2,r3,r2
 8001298:	10803fcc 	andi	r2,r2,255
 800129c:	2089883a 	add	r4,r4,r2
 80012a0:	28800044 	addi	r2,r5,1
 80012a4:	3080000d 	sth	r2,0(r6)
 80012a8:	80037c40 	call	80037c4 <DEC>
 80012ac:	0006b906 	br	8002d94 <cpu_exec+0x2ba4>

    // ############################ DEX ###################
  case 0xCA: // IMP
    --CPU->X;
 80012b0:	d0e6b217 	ldw	r3,-25912(gp)
 80012b4:	188002c3 	ldbu	r2,11(r3)
 80012b8:	10bfffc4 	addi	r2,r2,-1
 80012bc:	188002c5 	stb	r2,11(r3)
    CPU->P.Z = (CPU->X == 0) ? 1 : 0;
 80012c0:	d0e6b217 	ldw	r3,-25912(gp)
 80012c4:	d0a6b217 	ldw	r2,-25912(gp)
 80012c8:	108002c3 	ldbu	r2,11(r2)
 80012cc:	10803fcc 	andi	r2,r2,255
 80012d0:	1005003a 	cmpeq	r2,r2,zero
 80012d4:	18800105 	stb	r2,4(r3)
    CPU->P.N = ((CPU->X & 0x80) > 0) ? 1 : 0;
 80012d8:	d0e6b217 	ldw	r3,-25912(gp)
 80012dc:	d0a6b217 	ldw	r2,-25912(gp)
 80012e0:	108002c3 	ldbu	r2,11(r2)
 80012e4:	10803fcc 	andi	r2,r2,255
 80012e8:	1080200c 	andi	r2,r2,128
 80012ec:	10800048 	cmpgei	r2,r2,1
 80012f0:	18800245 	stb	r2,9(r3)
    printf("DEX!\n");
 80012f4:	01020074 	movhi	r4,2049
 80012f8:	21135204 	addi	r4,r4,19784
 80012fc:	80051d80 	call	80051d8 <puts>
    break;
 8001300:	0006a406 	br	8002d94 <cpu_exec+0x2ba4>

    // ########################## DEY #####################
  case 0x88:
    --CPU->Y;
 8001304:	d0e6b217 	ldw	r3,-25912(gp)
 8001308:	18800303 	ldbu	r2,12(r3)
 800130c:	10bfffc4 	addi	r2,r2,-1
 8001310:	18800305 	stb	r2,12(r3)
    CPU->P.Z = (CPU->Y == 0) ? 1 : 0;
 8001314:	d0e6b217 	ldw	r3,-25912(gp)
 8001318:	d0a6b217 	ldw	r2,-25912(gp)
 800131c:	10800303 	ldbu	r2,12(r2)
 8001320:	10803fcc 	andi	r2,r2,255
 8001324:	1005003a 	cmpeq	r2,r2,zero
 8001328:	18800105 	stb	r2,4(r3)
    CPU->P.N = ((CPU->Y & 0x80) > 0) ? 1 : 0;
 800132c:	d0e6b217 	ldw	r3,-25912(gp)
 8001330:	d0a6b217 	ldw	r2,-25912(gp)
 8001334:	10800303 	ldbu	r2,12(r2)
 8001338:	10803fcc 	andi	r2,r2,255
 800133c:	1080200c 	andi	r2,r2,128
 8001340:	10800048 	cmpgei	r2,r2,1
 8001344:	18800245 	stb	r2,9(r3)
    printf("DEY!\n");
 8001348:	01020074 	movhi	r4,2049
 800134c:	21135404 	addi	r4,r4,19792
 8001350:	80051d80 	call	80051d8 <puts>
    break;
 8001354:	00068f06 	br	8002d94 <cpu_exec+0x2ba4>

    // ######################## EOR #######################
  case 0x4D: // ABS
    CPU->A = CPU->A ^ ABS(); printf("EOR!\n"); break;
 8001358:	d466b217 	ldw	r17,-25912(gp)
 800135c:	d0a6b217 	ldw	r2,-25912(gp)
 8001360:	14000283 	ldbu	r16,10(r2)
 8001364:	80030180 	call	8003018 <ABS>
 8001368:	8084f03a 	xor	r2,r16,r2
 800136c:	88800285 	stb	r2,10(r17)
 8001370:	01020074 	movhi	r4,2049
 8001374:	21135604 	addi	r4,r4,19800
 8001378:	80051d80 	call	80051d8 <puts>
 800137c:	00068506 	br	8002d94 <cpu_exec+0x2ba4>
  case 0x5D: // ABSX
    CPU->A = CPU->A ^ ABSX(); printf("EOR!\n"); break;
 8001380:	d466b217 	ldw	r17,-25912(gp)
 8001384:	d0a6b217 	ldw	r2,-25912(gp)
 8001388:	14000283 	ldbu	r16,10(r2)
 800138c:	80030a80 	call	80030a8 <ABSX>
 8001390:	8084f03a 	xor	r2,r16,r2
 8001394:	88800285 	stb	r2,10(r17)
 8001398:	01020074 	movhi	r4,2049
 800139c:	21135604 	addi	r4,r4,19800
 80013a0:	80051d80 	call	80051d8 <puts>
 80013a4:	00067b06 	br	8002d94 <cpu_exec+0x2ba4>
  case 0x59: // ABSY
    CPU->A = CPU->A ^ ABSY(); printf("EOR!\n"); break;
 80013a8:	d466b217 	ldw	r17,-25912(gp)
 80013ac:	d0a6b217 	ldw	r2,-25912(gp)
 80013b0:	14000283 	ldbu	r16,10(r2)
 80013b4:	800314c0 	call	800314c <ABSY>
 80013b8:	8084f03a 	xor	r2,r16,r2
 80013bc:	88800285 	stb	r2,10(r17)
 80013c0:	01020074 	movhi	r4,2049
 80013c4:	21135604 	addi	r4,r4,19800
 80013c8:	80051d80 	call	80051d8 <puts>
 80013cc:	00067106 	br	8002d94 <cpu_exec+0x2ba4>
  case 0x49: // IMM
    CPU->A = CPU->A ^ IMM(); printf("EOR!\n"); break;
 80013d0:	d466b217 	ldw	r17,-25912(gp)
 80013d4:	d0a6b217 	ldw	r2,-25912(gp)
 80013d8:	14000283 	ldbu	r16,10(r2)
 80013dc:	800333c0 	call	800333c <IMM>
 80013e0:	8084f03a 	xor	r2,r16,r2
 80013e4:	88800285 	stb	r2,10(r17)
 80013e8:	01020074 	movhi	r4,2049
 80013ec:	21135604 	addi	r4,r4,19800
 80013f0:	80051d80 	call	80051d8 <puts>
 80013f4:	00066706 	br	8002d94 <cpu_exec+0x2ba4>
  case 0x51: // INDY
    CPU->A = CPU->A ^ INDY(); printf("EOR!\n"); break;
 80013f8:	d466b217 	ldw	r17,-25912(gp)
 80013fc:	d0a6b217 	ldw	r2,-25912(gp)
 8001400:	14000283 	ldbu	r16,10(r2)
 8001404:	80032940 	call	8003294 <INDY>
 8001408:	8084f03a 	xor	r2,r16,r2
 800140c:	88800285 	stb	r2,10(r17)
 8001410:	01020074 	movhi	r4,2049
 8001414:	21135604 	addi	r4,r4,19800
 8001418:	80051d80 	call	80051d8 <puts>
 800141c:	00065d06 	br	8002d94 <cpu_exec+0x2ba4>
  case 0x41: // XIND
    CPU->A = CPU->A ^ XIND(); printf("EOR!\n"); break;
 8001420:	d466b217 	ldw	r17,-25912(gp)
 8001424:	d0a6b217 	ldw	r2,-25912(gp)
 8001428:	14000283 	ldbu	r16,10(r2)
 800142c:	80031f00 	call	80031f0 <XIND>
 8001430:	8084f03a 	xor	r2,r16,r2
 8001434:	88800285 	stb	r2,10(r17)
 8001438:	01020074 	movhi	r4,2049
 800143c:	21135604 	addi	r4,r4,19800
 8001440:	80051d80 	call	80051d8 <puts>
 8001444:	00065306 	br	8002d94 <cpu_exec+0x2ba4>
  case 0x45: // ZP
    temp = ZP();
 8001448:	80033840 	call	8003384 <ZP>
 800144c:	e0bffe05 	stb	r2,-8(fp)
    CPU->A = CPU->A ^ temp; printf("EOR with %x and %x = %x, at PC: %x!\n", CPU->A, temp, CPU->A ^ temp, CPU->PC); break;
 8001450:	d126b217 	ldw	r4,-25912(gp)
 8001454:	d0a6b217 	ldw	r2,-25912(gp)
 8001458:	10c00283 	ldbu	r3,10(r2)
 800145c:	e0bffe03 	ldbu	r2,-8(fp)
 8001460:	1884f03a 	xor	r2,r3,r2
 8001464:	20800285 	stb	r2,10(r4)
 8001468:	d0a6b217 	ldw	r2,-25912(gp)
 800146c:	10800283 	ldbu	r2,10(r2)
 8001470:	11403fcc 	andi	r5,r2,255
 8001474:	e1bffe03 	ldbu	r6,-8(fp)
 8001478:	d0a6b217 	ldw	r2,-25912(gp)
 800147c:	10c00283 	ldbu	r3,10(r2)
 8001480:	e0bffe03 	ldbu	r2,-8(fp)
 8001484:	1884f03a 	xor	r2,r3,r2
 8001488:	11c03fcc 	andi	r7,r2,255
 800148c:	d0a6b217 	ldw	r2,-25912(gp)
 8001490:	1080000b 	ldhu	r2,0(r2)
 8001494:	10bfffcc 	andi	r2,r2,65535
 8001498:	d8800015 	stw	r2,0(sp)
 800149c:	01020074 	movhi	r4,2049
 80014a0:	21135804 	addi	r4,r4,19808
 80014a4:	80050c00 	call	80050c0 <printf>
 80014a8:	00063a06 	br	8002d94 <cpu_exec+0x2ba4>
  case 0x55: // ZPX
    CPU->A = CPU->A ^ ZPX(); printf("EOR!\n"); break;
 80014ac:	d466b217 	ldw	r17,-25912(gp)
 80014b0:	d0a6b217 	ldw	r2,-25912(gp)
 80014b4:	14000283 	ldbu	r16,10(r2)
 80014b8:	80033e00 	call	80033e0 <ZPX>
 80014bc:	8084f03a 	xor	r2,r16,r2
 80014c0:	88800285 	stb	r2,10(r17)
 80014c4:	01020074 	movhi	r4,2049
 80014c8:	21135604 	addi	r4,r4,19800
 80014cc:	80051d80 	call	80051d8 <puts>
 80014d0:	00063006 	br	8002d94 <cpu_exec+0x2ba4>

    // ######################## INC #######################
  case 0xEE: // ABS
    INC( &CPU->MEM[ CPU->MEM[CPU->PC++] | (CPU->MEM[CPU->PC++] << 8) ] ); break;
 80014d4:	d0a6b217 	ldw	r2,-25912(gp)
 80014d8:	11400617 	ldw	r5,24(r2)
 80014dc:	d0a6b217 	ldw	r2,-25912(gp)
 80014e0:	10c00617 	ldw	r3,24(r2)
 80014e4:	d1a6b217 	ldw	r6,-25912(gp)
 80014e8:	31c0000b 	ldhu	r7,0(r6)
 80014ec:	38bfffcc 	andi	r2,r7,65535
 80014f0:	1885883a 	add	r2,r3,r2
 80014f4:	10800003 	ldbu	r2,0(r2)
 80014f8:	12003fcc 	andi	r8,r2,255
 80014fc:	d0a6b217 	ldw	r2,-25912(gp)
 8001500:	10c00617 	ldw	r3,24(r2)
 8001504:	d266b217 	ldw	r9,-25912(gp)
 8001508:	4900000b 	ldhu	r4,0(r9)
 800150c:	20bfffcc 	andi	r2,r4,65535
 8001510:	1885883a 	add	r2,r3,r2
 8001514:	10800003 	ldbu	r2,0(r2)
 8001518:	10803fcc 	andi	r2,r2,255
 800151c:	1004923a 	slli	r2,r2,8
 8001520:	4084b03a 	or	r2,r8,r2
 8001524:	2887883a 	add	r3,r5,r2
 8001528:	38800044 	addi	r2,r7,1
 800152c:	3080000d 	sth	r2,0(r6)
 8001530:	20800044 	addi	r2,r4,1
 8001534:	4880000d 	sth	r2,0(r9)
 8001538:	1809883a 	mov	r4,r3
 800153c:	800384c0 	call	800384c <INC>
 8001540:	00061406 	br	8002d94 <cpu_exec+0x2ba4>
  case 0xFE: // ABSX
    INC( &CPU->MEM[ ( ((CPU->MEM[CPU->PC++]) | (CPU->MEM[CPU->PC++] << 8)) + CPU->X) & 0xFFFF ] ); break;
 8001544:	d0a6b217 	ldw	r2,-25912(gp)
 8001548:	11000617 	ldw	r4,24(r2)
 800154c:	d0a6b217 	ldw	r2,-25912(gp)
 8001550:	10c00617 	ldw	r3,24(r2)
 8001554:	d166b217 	ldw	r5,-25912(gp)
 8001558:	2980000b 	ldhu	r6,0(r5)
 800155c:	30bfffcc 	andi	r2,r6,65535
 8001560:	1885883a 	add	r2,r3,r2
 8001564:	10800003 	ldbu	r2,0(r2)
 8001568:	11c03fcc 	andi	r7,r2,255
 800156c:	d0a6b217 	ldw	r2,-25912(gp)
 8001570:	10c00617 	ldw	r3,24(r2)
 8001574:	d226b217 	ldw	r8,-25912(gp)
 8001578:	4240000b 	ldhu	r9,0(r8)
 800157c:	48bfffcc 	andi	r2,r9,65535
 8001580:	1885883a 	add	r2,r3,r2
 8001584:	10800003 	ldbu	r2,0(r2)
 8001588:	10803fcc 	andi	r2,r2,255
 800158c:	1004923a 	slli	r2,r2,8
 8001590:	3886b03a 	or	r3,r7,r2
 8001594:	d0a6b217 	ldw	r2,-25912(gp)
 8001598:	108002c3 	ldbu	r2,11(r2)
 800159c:	10803fcc 	andi	r2,r2,255
 80015a0:	1885883a 	add	r2,r3,r2
 80015a4:	10bfffcc 	andi	r2,r2,65535
 80015a8:	2089883a 	add	r4,r4,r2
 80015ac:	30800044 	addi	r2,r6,1
 80015b0:	2880000d 	sth	r2,0(r5)
 80015b4:	48800044 	addi	r2,r9,1
 80015b8:	4080000d 	sth	r2,0(r8)
 80015bc:	800384c0 	call	800384c <INC>
 80015c0:	0005f406 	br	8002d94 <cpu_exec+0x2ba4>
  case 0xE6: // ZP
    INC( &CPU->MEM[ CPU->MEM[CPU->PC++] ] )  ; break;
 80015c4:	d0a6b217 	ldw	r2,-25912(gp)
 80015c8:	11000617 	ldw	r4,24(r2)
 80015cc:	d0a6b217 	ldw	r2,-25912(gp)
 80015d0:	10c00617 	ldw	r3,24(r2)
 80015d4:	d166b217 	ldw	r5,-25912(gp)
 80015d8:	2980000b 	ldhu	r6,0(r5)
 80015dc:	30bfffcc 	andi	r2,r6,65535
 80015e0:	1885883a 	add	r2,r3,r2
 80015e4:	10800003 	ldbu	r2,0(r2)
 80015e8:	10803fcc 	andi	r2,r2,255
 80015ec:	2089883a 	add	r4,r4,r2
 80015f0:	30800044 	addi	r2,r6,1
 80015f4:	2880000d 	sth	r2,0(r5)
 80015f8:	800384c0 	call	800384c <INC>
 80015fc:	0005e506 	br	8002d94 <cpu_exec+0x2ba4>
  case 0xF6: // ZPX
    INC( &CPU->MEM[ (CPU->MEM[CPU->PC++] + CPU->X) & 0xFF ] ); break;
 8001600:	d0a6b217 	ldw	r2,-25912(gp)
 8001604:	11000617 	ldw	r4,24(r2)
 8001608:	d0a6b217 	ldw	r2,-25912(gp)
 800160c:	10c00617 	ldw	r3,24(r2)
 8001610:	d1a6b217 	ldw	r6,-25912(gp)
 8001614:	3140000b 	ldhu	r5,0(r6)
 8001618:	28bfffcc 	andi	r2,r5,65535
 800161c:	1885883a 	add	r2,r3,r2
 8001620:	10800003 	ldbu	r2,0(r2)
 8001624:	10c03fcc 	andi	r3,r2,255
 8001628:	d0a6b217 	ldw	r2,-25912(gp)
 800162c:	108002c3 	ldbu	r2,11(r2)
 8001630:	10803fcc 	andi	r2,r2,255
 8001634:	1885883a 	add	r2,r3,r2
 8001638:	10803fcc 	andi	r2,r2,255
 800163c:	2089883a 	add	r4,r4,r2
 8001640:	28800044 	addi	r2,r5,1
 8001644:	3080000d 	sth	r2,0(r6)
 8001648:	800384c0 	call	800384c <INC>
 800164c:	0005d106 	br	8002d94 <cpu_exec+0x2ba4>

    // ########################### INX #####################
  case 0xE8:
    ++CPU->X;
 8001650:	d0e6b217 	ldw	r3,-25912(gp)
 8001654:	188002c3 	ldbu	r2,11(r3)
 8001658:	10800044 	addi	r2,r2,1
 800165c:	188002c5 	stb	r2,11(r3)
    CPU->P.Z = (CPU->X == 0) ? 1 : 0;
 8001660:	d0e6b217 	ldw	r3,-25912(gp)
 8001664:	d0a6b217 	ldw	r2,-25912(gp)
 8001668:	108002c3 	ldbu	r2,11(r2)
 800166c:	10803fcc 	andi	r2,r2,255
 8001670:	1005003a 	cmpeq	r2,r2,zero
 8001674:	18800105 	stb	r2,4(r3)
    CPU->P.N = ((CPU->X & 0x80) > 0) ? 1 : 0;
 8001678:	d0e6b217 	ldw	r3,-25912(gp)
 800167c:	d0a6b217 	ldw	r2,-25912(gp)
 8001680:	108002c3 	ldbu	r2,11(r2)
 8001684:	10803fcc 	andi	r2,r2,255
 8001688:	1080200c 	andi	r2,r2,128
 800168c:	10800048 	cmpgei	r2,r2,1
 8001690:	18800245 	stb	r2,9(r3)
    printf("INX!\n");
 8001694:	01020074 	movhi	r4,2049
 8001698:	21136204 	addi	r4,r4,19848
 800169c:	80051d80 	call	80051d8 <puts>
    break;
 80016a0:	0005bc06 	br	8002d94 <cpu_exec+0x2ba4>

    // ############################### INY ###################
  case 0xC8:
    ++CPU->Y;
 80016a4:	d0e6b217 	ldw	r3,-25912(gp)
 80016a8:	18800303 	ldbu	r2,12(r3)
 80016ac:	10800044 	addi	r2,r2,1
 80016b0:	18800305 	stb	r2,12(r3)
    CPU->P.Z = (CPU->Y == 0) ? 1 : 0;
 80016b4:	d0e6b217 	ldw	r3,-25912(gp)
 80016b8:	d0a6b217 	ldw	r2,-25912(gp)
 80016bc:	10800303 	ldbu	r2,12(r2)
 80016c0:	10803fcc 	andi	r2,r2,255
 80016c4:	1005003a 	cmpeq	r2,r2,zero
 80016c8:	18800105 	stb	r2,4(r3)
    CPU->P.N = ((CPU->Y & 0x80) > 0) ? 1 : 0;
 80016cc:	d0e6b217 	ldw	r3,-25912(gp)
 80016d0:	d0a6b217 	ldw	r2,-25912(gp)
 80016d4:	10800303 	ldbu	r2,12(r2)
 80016d8:	10803fcc 	andi	r2,r2,255
 80016dc:	1080200c 	andi	r2,r2,128
 80016e0:	10800048 	cmpgei	r2,r2,1
 80016e4:	18800245 	stb	r2,9(r3)
    printf("INY!\n");
 80016e8:	01020074 	movhi	r4,2049
 80016ec:	21136404 	addi	r4,r4,19856
 80016f0:	80051d80 	call	80051d8 <puts>
    break;
 80016f4:	0005a706 	br	8002d94 <cpu_exec+0x2ba4>

    // ############################## JMP #####################
  case 0x4C: // ABS
    CPU->PC = CPU->MEM[CPU->PC++] | (CPU->MEM[CPU->PC++] << 8); printf("JMP!\n"); break;
 80016f8:	d166b217 	ldw	r5,-25912(gp)
 80016fc:	d0a6b217 	ldw	r2,-25912(gp)
 8001700:	10c00617 	ldw	r3,24(r2)
 8001704:	d1a6b217 	ldw	r6,-25912(gp)
 8001708:	31c0000b 	ldhu	r7,0(r6)
 800170c:	38bfffcc 	andi	r2,r7,65535
 8001710:	1885883a 	add	r2,r3,r2
 8001714:	10800003 	ldbu	r2,0(r2)
 8001718:	12003fcc 	andi	r8,r2,255
 800171c:	d0a6b217 	ldw	r2,-25912(gp)
 8001720:	10c00617 	ldw	r3,24(r2)
 8001724:	d266b217 	ldw	r9,-25912(gp)
 8001728:	4900000b 	ldhu	r4,0(r9)
 800172c:	20bfffcc 	andi	r2,r4,65535
 8001730:	1885883a 	add	r2,r3,r2
 8001734:	10800003 	ldbu	r2,0(r2)
 8001738:	10803fcc 	andi	r2,r2,255
 800173c:	1004923a 	slli	r2,r2,8
 8001740:	4084b03a 	or	r2,r8,r2
 8001744:	2880000d 	sth	r2,0(r5)
 8001748:	38800044 	addi	r2,r7,1
 800174c:	3080000d 	sth	r2,0(r6)
 8001750:	20800044 	addi	r2,r4,1
 8001754:	4880000d 	sth	r2,0(r9)
 8001758:	01020074 	movhi	r4,2049
 800175c:	21136604 	addi	r4,r4,19864
 8001760:	80051d80 	call	80051d8 <puts>
 8001764:	00058b06 	br	8002d94 <cpu_exec+0x2ba4>
  case 0x6C: // IND
    temp = CPU->MEM[ CPU->PC++ ];
 8001768:	d0a6b217 	ldw	r2,-25912(gp)
 800176c:	10c00617 	ldw	r3,24(r2)
 8001770:	d166b217 	ldw	r5,-25912(gp)
 8001774:	2900000b 	ldhu	r4,0(r5)
 8001778:	20bfffcc 	andi	r2,r4,65535
 800177c:	1885883a 	add	r2,r3,r2
 8001780:	10800003 	ldbu	r2,0(r2)
 8001784:	e0bffe05 	stb	r2,-8(fp)
 8001788:	20800044 	addi	r2,r4,1
 800178c:	2880000d 	sth	r2,0(r5)
    CPU->PC = CPU->MEM[ temp | ((temp+1) << 8) ]; printf("JMP!\n"); break;
 8001790:	d166b217 	ldw	r5,-25912(gp)
 8001794:	d0a6b217 	ldw	r2,-25912(gp)
 8001798:	11000617 	ldw	r4,24(r2)
 800179c:	e0fffe03 	ldbu	r3,-8(fp)
 80017a0:	e0bffe03 	ldbu	r2,-8(fp)
 80017a4:	10800044 	addi	r2,r2,1
 80017a8:	1004923a 	slli	r2,r2,8
 80017ac:	1884b03a 	or	r2,r3,r2
 80017b0:	2085883a 	add	r2,r4,r2
 80017b4:	10800003 	ldbu	r2,0(r2)
 80017b8:	10803fcc 	andi	r2,r2,255
 80017bc:	2880000d 	sth	r2,0(r5)
 80017c0:	01020074 	movhi	r4,2049
 80017c4:	21136604 	addi	r4,r4,19864
 80017c8:	80051d80 	call	80051d8 <puts>
 80017cc:	00057106 	br	8002d94 <cpu_exec+0x2ba4>
       Push PC +1 to stack and set the PC to the operand. PC + 1
       is pushed to the STACK becuase and previous two bytes are
       from the operands of JSR, and we wish to return to the next
       opcode when we Return from Subroutine (RTS)*/

    temp_addr = CPU->PC + 1;  // The address to be pushed to Stack
 80017d0:	d0a6b217 	ldw	r2,-25912(gp)
 80017d4:	1080000b 	ldhu	r2,0(r2)
 80017d8:	10800044 	addi	r2,r2,1
 80017dc:	e0bffd8d 	sth	r2,-10(fp)
    CPU->MEM [ STACK + CPU->S ] = (temp_addr >> 8) & 0xFF; // Push PCh
 80017e0:	d0a6b217 	ldw	r2,-25912(gp)
 80017e4:	10c00617 	ldw	r3,24(r2)
 80017e8:	d0a6b217 	ldw	r2,-25912(gp)
 80017ec:	10800083 	ldbu	r2,2(r2)
 80017f0:	10803fcc 	andi	r2,r2,255
 80017f4:	1885883a 	add	r2,r3,r2
 80017f8:	11004004 	addi	r4,r2,256
 80017fc:	e0bffd8b 	ldhu	r2,-10(fp)
 8001800:	1004d23a 	srli	r2,r2,8
 8001804:	1007883a 	mov	r3,r2
 8001808:	00bfffc4 	movi	r2,-1
 800180c:	1884703a 	and	r2,r3,r2
 8001810:	20800005 	stb	r2,0(r4)
    --CPU->S;
 8001814:	d0e6b217 	ldw	r3,-25912(gp)
 8001818:	18800083 	ldbu	r2,2(r3)
 800181c:	10bfffc4 	addi	r2,r2,-1
 8001820:	18800085 	stb	r2,2(r3)
    CPU->MEM [ STACK + CPU->S ] = (temp_addr & 0xFF);      // Push PCl
 8001824:	d0a6b217 	ldw	r2,-25912(gp)
 8001828:	10c00617 	ldw	r3,24(r2)
 800182c:	d0a6b217 	ldw	r2,-25912(gp)
 8001830:	10800083 	ldbu	r2,2(r2)
 8001834:	10803fcc 	andi	r2,r2,255
 8001838:	1885883a 	add	r2,r3,r2
 800183c:	11004004 	addi	r4,r2,256
 8001840:	e0bffd8b 	ldhu	r2,-10(fp)
 8001844:	1007883a 	mov	r3,r2
 8001848:	00bfffc4 	movi	r2,-1
 800184c:	1884703a 	and	r2,r3,r2
 8001850:	20800005 	stb	r2,0(r4)
    --CPU->S;
 8001854:	d0e6b217 	ldw	r3,-25912(gp)
 8001858:	18800083 	ldbu	r2,2(r3)
 800185c:	10bfffc4 	addi	r2,r2,-1
 8001860:	18800085 	stb	r2,2(r3)
    CPU->PC = CPU->MEM[ CPU->PC++ ] | (CPU->MEM[ CPU->PC++] << 8);
 8001864:	d166b217 	ldw	r5,-25912(gp)
 8001868:	d0a6b217 	ldw	r2,-25912(gp)
 800186c:	10c00617 	ldw	r3,24(r2)
 8001870:	d1a6b217 	ldw	r6,-25912(gp)
 8001874:	31c0000b 	ldhu	r7,0(r6)
 8001878:	38bfffcc 	andi	r2,r7,65535
 800187c:	1885883a 	add	r2,r3,r2
 8001880:	10800003 	ldbu	r2,0(r2)
 8001884:	12003fcc 	andi	r8,r2,255
 8001888:	d0a6b217 	ldw	r2,-25912(gp)
 800188c:	10c00617 	ldw	r3,24(r2)
 8001890:	d266b217 	ldw	r9,-25912(gp)
 8001894:	4900000b 	ldhu	r4,0(r9)
 8001898:	20bfffcc 	andi	r2,r4,65535
 800189c:	1885883a 	add	r2,r3,r2
 80018a0:	10800003 	ldbu	r2,0(r2)
 80018a4:	10803fcc 	andi	r2,r2,255
 80018a8:	1004923a 	slli	r2,r2,8
 80018ac:	4084b03a 	or	r2,r8,r2
 80018b0:	2880000d 	sth	r2,0(r5)
 80018b4:	38800044 	addi	r2,r7,1
 80018b8:	3080000d 	sth	r2,0(r6)
 80018bc:	20800044 	addi	r2,r4,1
 80018c0:	4880000d 	sth	r2,0(r9)
    printf("JSR!\n");
 80018c4:	01020074 	movhi	r4,2049
 80018c8:	21136804 	addi	r4,r4,19872
 80018cc:	80051d80 	call	80051d8 <puts>
    break;
 80018d0:	00053006 	br	8002d94 <cpu_exec+0x2ba4>

    // ########################## LDA #######################
  case 0xAD: // ABS
    operand = ABS(); LDA( operand ); break;
 80018d4:	80030180 	call	8003018 <ABS>
 80018d8:	e0bffd05 	stb	r2,-12(fp)
 80018dc:	e13ffd03 	ldbu	r4,-12(fp)
 80018e0:	80038d80 	call	80038d8 <LDA>
 80018e4:	00052b06 	br	8002d94 <cpu_exec+0x2ba4>
  case 0xBD: // ABSX
    operand = ABSX(); LDA( operand ); break;
 80018e8:	80030a80 	call	80030a8 <ABSX>
 80018ec:	e0bffd05 	stb	r2,-12(fp)
 80018f0:	e13ffd03 	ldbu	r4,-12(fp)
 80018f4:	80038d80 	call	80038d8 <LDA>
 80018f8:	00052606 	br	8002d94 <cpu_exec+0x2ba4>
  case 0xB9: // ABSY
    operand = ABSY(); LDA( operand ); break;
 80018fc:	800314c0 	call	800314c <ABSY>
 8001900:	e0bffd05 	stb	r2,-12(fp)
 8001904:	e13ffd03 	ldbu	r4,-12(fp)
 8001908:	80038d80 	call	80038d8 <LDA>
 800190c:	00052106 	br	8002d94 <cpu_exec+0x2ba4>
  case 0xA9: // IMM
    LDA ( CPU->MEM[ CPU->PC++] ); break;
 8001910:	d0a6b217 	ldw	r2,-25912(gp)
 8001914:	10c00617 	ldw	r3,24(r2)
 8001918:	d166b217 	ldw	r5,-25912(gp)
 800191c:	2900000b 	ldhu	r4,0(r5)
 8001920:	20bfffcc 	andi	r2,r4,65535
 8001924:	1885883a 	add	r2,r3,r2
 8001928:	10800003 	ldbu	r2,0(r2)
 800192c:	10c03fcc 	andi	r3,r2,255
 8001930:	20800044 	addi	r2,r4,1
 8001934:	2880000d 	sth	r2,0(r5)
 8001938:	1809883a 	mov	r4,r3
 800193c:	80038d80 	call	80038d8 <LDA>
 8001940:	00051406 	br	8002d94 <cpu_exec+0x2ba4>
  case 0xB1: // INDY
    operand = INDY(); LDA( operand ); break;
 8001944:	80032940 	call	8003294 <INDY>
 8001948:	e0bffd05 	stb	r2,-12(fp)
 800194c:	e13ffd03 	ldbu	r4,-12(fp)
 8001950:	80038d80 	call	80038d8 <LDA>
 8001954:	00050f06 	br	8002d94 <cpu_exec+0x2ba4>
  case 0xA1: // XIND
    operand = XIND(); LDA( operand ); break;
 8001958:	80031f00 	call	80031f0 <XIND>
 800195c:	e0bffd05 	stb	r2,-12(fp)
 8001960:	e13ffd03 	ldbu	r4,-12(fp)
 8001964:	80038d80 	call	80038d8 <LDA>
 8001968:	00050a06 	br	8002d94 <cpu_exec+0x2ba4>
  case 0xA5: // ZP
    operand = ZP(); LDA( operand ); break;
 800196c:	80033840 	call	8003384 <ZP>
 8001970:	e0bffd05 	stb	r2,-12(fp)
 8001974:	e13ffd03 	ldbu	r4,-12(fp)
 8001978:	80038d80 	call	80038d8 <LDA>
 800197c:	00050506 	br	8002d94 <cpu_exec+0x2ba4>
  case 0xB5: // ZPX
    operand = ZPX(); LDA( operand ); break;
 8001980:	80033e00 	call	80033e0 <ZPX>
 8001984:	e0bffd05 	stb	r2,-12(fp)
 8001988:	e13ffd03 	ldbu	r4,-12(fp)
 800198c:	80038d80 	call	80038d8 <LDA>
 8001990:	00050006 	br	8002d94 <cpu_exec+0x2ba4>

    // ########################## LDX #######################
  case 0xAE: // ABS
    operand = ABS(); LDX( operand ); break;
 8001994:	80030180 	call	8003018 <ABS>
 8001998:	e0bffd05 	stb	r2,-12(fp)
 800199c:	e13ffd03 	ldbu	r4,-12(fp)
 80019a0:	800394c0 	call	800394c <LDX>
 80019a4:	0004fb06 	br	8002d94 <cpu_exec+0x2ba4>
  case 0xBE: // ABSY
    operand = ABS(); LDX( operand ); break;
 80019a8:	80030180 	call	8003018 <ABS>
 80019ac:	e0bffd05 	stb	r2,-12(fp)
 80019b0:	e13ffd03 	ldbu	r4,-12(fp)
 80019b4:	800394c0 	call	800394c <LDX>
 80019b8:	0004f606 	br	8002d94 <cpu_exec+0x2ba4>
  case 0xA2: // IMM
    LDX( CPU->MEM[ CPU->PC++ ] ); break;
 80019bc:	d0a6b217 	ldw	r2,-25912(gp)
 80019c0:	10c00617 	ldw	r3,24(r2)
 80019c4:	d166b217 	ldw	r5,-25912(gp)
 80019c8:	2900000b 	ldhu	r4,0(r5)
 80019cc:	20bfffcc 	andi	r2,r4,65535
 80019d0:	1885883a 	add	r2,r3,r2
 80019d4:	10800003 	ldbu	r2,0(r2)
 80019d8:	10c03fcc 	andi	r3,r2,255
 80019dc:	20800044 	addi	r2,r4,1
 80019e0:	2880000d 	sth	r2,0(r5)
 80019e4:	1809883a 	mov	r4,r3
 80019e8:	800394c0 	call	800394c <LDX>
 80019ec:	0004e906 	br	8002d94 <cpu_exec+0x2ba4>
  case 0xA6: // ZP
    operand = ZP(); LDX( operand ); break;
 80019f0:	80033840 	call	8003384 <ZP>
 80019f4:	e0bffd05 	stb	r2,-12(fp)
 80019f8:	e13ffd03 	ldbu	r4,-12(fp)
 80019fc:	800394c0 	call	800394c <LDX>
 8001a00:	0004e406 	br	8002d94 <cpu_exec+0x2ba4>
  case 0xB6: // ZPY
    operand = CPU->MEM[ (CPU->MEM[ CPU->PC++ ] + CPU->Y) & 0xFF ]; LDX( operand ); break;
 8001a04:	d0a6b217 	ldw	r2,-25912(gp)
 8001a08:	11000617 	ldw	r4,24(r2)
 8001a0c:	d0a6b217 	ldw	r2,-25912(gp)
 8001a10:	10c00617 	ldw	r3,24(r2)
 8001a14:	d166b217 	ldw	r5,-25912(gp)
 8001a18:	2980000b 	ldhu	r6,0(r5)
 8001a1c:	30bfffcc 	andi	r2,r6,65535
 8001a20:	1885883a 	add	r2,r3,r2
 8001a24:	10800003 	ldbu	r2,0(r2)
 8001a28:	10c03fcc 	andi	r3,r2,255
 8001a2c:	d0a6b217 	ldw	r2,-25912(gp)
 8001a30:	10800303 	ldbu	r2,12(r2)
 8001a34:	10803fcc 	andi	r2,r2,255
 8001a38:	1885883a 	add	r2,r3,r2
 8001a3c:	10803fcc 	andi	r2,r2,255
 8001a40:	2085883a 	add	r2,r4,r2
 8001a44:	10800003 	ldbu	r2,0(r2)
 8001a48:	e0bffd05 	stb	r2,-12(fp)
 8001a4c:	30800044 	addi	r2,r6,1
 8001a50:	2880000d 	sth	r2,0(r5)
 8001a54:	e13ffd03 	ldbu	r4,-12(fp)
 8001a58:	800394c0 	call	800394c <LDX>
 8001a5c:	0004cd06 	br	8002d94 <cpu_exec+0x2ba4>

    // ########################## LDY ######################
  case 0xAC: // ABS
    operand = ABS(); LDY( operand ); break;
 8001a60:	80030180 	call	8003018 <ABS>
 8001a64:	e0bffd05 	stb	r2,-12(fp)
 8001a68:	e13ffd03 	ldbu	r4,-12(fp)
 8001a6c:	80039c00 	call	80039c0 <LDY>
 8001a70:	0004c806 	br	8002d94 <cpu_exec+0x2ba4>
  case 0xBC: // ABSX
    operand = ABSX(); LDY( operand ); break;
 8001a74:	80030a80 	call	80030a8 <ABSX>
 8001a78:	e0bffd05 	stb	r2,-12(fp)
 8001a7c:	e13ffd03 	ldbu	r4,-12(fp)
 8001a80:	80039c00 	call	80039c0 <LDY>
 8001a84:	0004c306 	br	8002d94 <cpu_exec+0x2ba4>
  case 0xA0: // IMM
    LDY( CPU->MEM[ CPU->PC++] ); break;
 8001a88:	d0a6b217 	ldw	r2,-25912(gp)
 8001a8c:	10c00617 	ldw	r3,24(r2)
 8001a90:	d166b217 	ldw	r5,-25912(gp)
 8001a94:	2900000b 	ldhu	r4,0(r5)
 8001a98:	20bfffcc 	andi	r2,r4,65535
 8001a9c:	1885883a 	add	r2,r3,r2
 8001aa0:	10800003 	ldbu	r2,0(r2)
 8001aa4:	10c03fcc 	andi	r3,r2,255
 8001aa8:	20800044 	addi	r2,r4,1
 8001aac:	2880000d 	sth	r2,0(r5)
 8001ab0:	1809883a 	mov	r4,r3
 8001ab4:	80039c00 	call	80039c0 <LDY>
 8001ab8:	0004b606 	br	8002d94 <cpu_exec+0x2ba4>
  case 0xA4: // ZP
    operand = ZP(); LDY( operand ); break;
 8001abc:	80033840 	call	8003384 <ZP>
 8001ac0:	e0bffd05 	stb	r2,-12(fp)
 8001ac4:	e13ffd03 	ldbu	r4,-12(fp)
 8001ac8:	80039c00 	call	80039c0 <LDY>
 8001acc:	0004b106 	br	8002d94 <cpu_exec+0x2ba4>
  case 0xB4: // ZPX
    operand = ZPX(); LDY( operand ); break;
 8001ad0:	80033e00 	call	80033e0 <ZPX>
 8001ad4:	e0bffd05 	stb	r2,-12(fp)
 8001ad8:	e13ffd03 	ldbu	r4,-12(fp)
 8001adc:	80039c00 	call	80039c0 <LDY>
 8001ae0:	0004ac06 	br	8002d94 <cpu_exec+0x2ba4>

    // ####################### LSR #########################
  case 0x4E: // ABS
    LSR( &CPU->MEM[  (CPU->MEM[ CPU->PC++ ] | (CPU->MEM[ CPU->PC++ ] << 8)) ]); break;
 8001ae4:	d0a6b217 	ldw	r2,-25912(gp)
 8001ae8:	11400617 	ldw	r5,24(r2)
 8001aec:	d0a6b217 	ldw	r2,-25912(gp)
 8001af0:	10c00617 	ldw	r3,24(r2)
 8001af4:	d1a6b217 	ldw	r6,-25912(gp)
 8001af8:	31c0000b 	ldhu	r7,0(r6)
 8001afc:	38bfffcc 	andi	r2,r7,65535
 8001b00:	1885883a 	add	r2,r3,r2
 8001b04:	10800003 	ldbu	r2,0(r2)
 8001b08:	12003fcc 	andi	r8,r2,255
 8001b0c:	d0a6b217 	ldw	r2,-25912(gp)
 8001b10:	10c00617 	ldw	r3,24(r2)
 8001b14:	d266b217 	ldw	r9,-25912(gp)
 8001b18:	4900000b 	ldhu	r4,0(r9)
 8001b1c:	20bfffcc 	andi	r2,r4,65535
 8001b20:	1885883a 	add	r2,r3,r2
 8001b24:	10800003 	ldbu	r2,0(r2)
 8001b28:	10803fcc 	andi	r2,r2,255
 8001b2c:	1004923a 	slli	r2,r2,8
 8001b30:	4084b03a 	or	r2,r8,r2
 8001b34:	2887883a 	add	r3,r5,r2
 8001b38:	38800044 	addi	r2,r7,1
 8001b3c:	3080000d 	sth	r2,0(r6)
 8001b40:	20800044 	addi	r2,r4,1
 8001b44:	4880000d 	sth	r2,0(r9)
 8001b48:	1809883a 	mov	r4,r3
 8001b4c:	8003a340 	call	8003a34 <LSR>
 8001b50:	00049006 	br	8002d94 <cpu_exec+0x2ba4>
  case 0x5E: // ABSX
    LSR( &CPU->MEM[  ((CPU->MEM[ CPU->PC++ ] | (CPU->MEM[ CPU->PC++ ] << 8)) + CPU->X ) & 0xFFFF  ] );
 8001b54:	d0a6b217 	ldw	r2,-25912(gp)
 8001b58:	11000617 	ldw	r4,24(r2)
 8001b5c:	d0a6b217 	ldw	r2,-25912(gp)
 8001b60:	10c00617 	ldw	r3,24(r2)
 8001b64:	d166b217 	ldw	r5,-25912(gp)
 8001b68:	2980000b 	ldhu	r6,0(r5)
 8001b6c:	30bfffcc 	andi	r2,r6,65535
 8001b70:	1885883a 	add	r2,r3,r2
 8001b74:	10800003 	ldbu	r2,0(r2)
 8001b78:	11c03fcc 	andi	r7,r2,255
 8001b7c:	d0a6b217 	ldw	r2,-25912(gp)
 8001b80:	10c00617 	ldw	r3,24(r2)
 8001b84:	d226b217 	ldw	r8,-25912(gp)
 8001b88:	4240000b 	ldhu	r9,0(r8)
 8001b8c:	48bfffcc 	andi	r2,r9,65535
 8001b90:	1885883a 	add	r2,r3,r2
 8001b94:	10800003 	ldbu	r2,0(r2)
 8001b98:	10803fcc 	andi	r2,r2,255
 8001b9c:	1004923a 	slli	r2,r2,8
 8001ba0:	3886b03a 	or	r3,r7,r2
 8001ba4:	d0a6b217 	ldw	r2,-25912(gp)
 8001ba8:	108002c3 	ldbu	r2,11(r2)
 8001bac:	10803fcc 	andi	r2,r2,255
 8001bb0:	1885883a 	add	r2,r3,r2
 8001bb4:	10bfffcc 	andi	r2,r2,65535
 8001bb8:	2089883a 	add	r4,r4,r2
 8001bbc:	30800044 	addi	r2,r6,1
 8001bc0:	2880000d 	sth	r2,0(r5)
 8001bc4:	48800044 	addi	r2,r9,1
 8001bc8:	4080000d 	sth	r2,0(r8)
 8001bcc:	8003a340 	call	8003a34 <LSR>
    break;
 8001bd0:	00047006 	br	8002d94 <cpu_exec+0x2ba4>
  case 0x4A: // ACC
    LSR( &CPU->A ); break;
 8001bd4:	d0a6b217 	ldw	r2,-25912(gp)
 8001bd8:	11000284 	addi	r4,r2,10
 8001bdc:	8003a340 	call	8003a34 <LSR>
 8001be0:	00046c06 	br	8002d94 <cpu_exec+0x2ba4>
  case 0x46: // ZP
    LSR( &CPU->MEM[ CPU->MEM[ CPU->PC++ ] ] ); break;
 8001be4:	d0a6b217 	ldw	r2,-25912(gp)
 8001be8:	11000617 	ldw	r4,24(r2)
 8001bec:	d0a6b217 	ldw	r2,-25912(gp)
 8001bf0:	10c00617 	ldw	r3,24(r2)
 8001bf4:	d166b217 	ldw	r5,-25912(gp)
 8001bf8:	2980000b 	ldhu	r6,0(r5)
 8001bfc:	30bfffcc 	andi	r2,r6,65535
 8001c00:	1885883a 	add	r2,r3,r2
 8001c04:	10800003 	ldbu	r2,0(r2)
 8001c08:	10803fcc 	andi	r2,r2,255
 8001c0c:	2089883a 	add	r4,r4,r2
 8001c10:	30800044 	addi	r2,r6,1
 8001c14:	2880000d 	sth	r2,0(r5)
 8001c18:	8003a340 	call	8003a34 <LSR>
 8001c1c:	00045d06 	br	8002d94 <cpu_exec+0x2ba4>
  case 0x56: // ZPX
    LSR( &CPU->MEM[ (CPU->MEM[ CPU->PC++ ] + CPU->X) & 0xFF ] ); break;
 8001c20:	d0a6b217 	ldw	r2,-25912(gp)
 8001c24:	11000617 	ldw	r4,24(r2)
 8001c28:	d0a6b217 	ldw	r2,-25912(gp)
 8001c2c:	10c00617 	ldw	r3,24(r2)
 8001c30:	d1a6b217 	ldw	r6,-25912(gp)
 8001c34:	3140000b 	ldhu	r5,0(r6)
 8001c38:	28bfffcc 	andi	r2,r5,65535
 8001c3c:	1885883a 	add	r2,r3,r2
 8001c40:	10800003 	ldbu	r2,0(r2)
 8001c44:	10c03fcc 	andi	r3,r2,255
 8001c48:	d0a6b217 	ldw	r2,-25912(gp)
 8001c4c:	108002c3 	ldbu	r2,11(r2)
 8001c50:	10803fcc 	andi	r2,r2,255
 8001c54:	1885883a 	add	r2,r3,r2
 8001c58:	10803fcc 	andi	r2,r2,255
 8001c5c:	2089883a 	add	r4,r4,r2
 8001c60:	28800044 	addi	r2,r5,1
 8001c64:	3080000d 	sth	r2,0(r6)
 8001c68:	8003a340 	call	8003a34 <LSR>
 8001c6c:	00044906 	br	8002d94 <cpu_exec+0x2ba4>

    // ######################### NOP #######################
  case 0xEA:
    printf("NOP!\n");
 8001c70:	01020074 	movhi	r4,2049
 8001c74:	21136a04 	addi	r4,r4,19880
 8001c78:	80051d80 	call	80051d8 <puts>
    break;
 8001c7c:	00044506 	br	8002d94 <cpu_exec+0x2ba4>

    // ########################## ORA ######################
  case 0x0D: // ABS
    operand = ABS(); ORA( operand ); break;
 8001c80:	80030180 	call	8003018 <ABS>
 8001c84:	e0bffd05 	stb	r2,-12(fp)
 8001c88:	e13ffd03 	ldbu	r4,-12(fp)
 8001c8c:	8003abc0 	call	8003abc <ORA>
 8001c90:	00044006 	br	8002d94 <cpu_exec+0x2ba4>
  case 0x1D: // ABSX
    operand = ABSX(); ORA( operand ); break;
 8001c94:	80030a80 	call	80030a8 <ABSX>
 8001c98:	e0bffd05 	stb	r2,-12(fp)
 8001c9c:	e13ffd03 	ldbu	r4,-12(fp)
 8001ca0:	8003abc0 	call	8003abc <ORA>
 8001ca4:	00043b06 	br	8002d94 <cpu_exec+0x2ba4>
  case 0x19: // ABSY
    operand = ABSY(); ORA( operand ); break;
 8001ca8:	800314c0 	call	800314c <ABSY>
 8001cac:	e0bffd05 	stb	r2,-12(fp)
 8001cb0:	e13ffd03 	ldbu	r4,-12(fp)
 8001cb4:	8003abc0 	call	8003abc <ORA>
 8001cb8:	00043606 	br	8002d94 <cpu_exec+0x2ba4>
  case 0x09: // IMM
   ORA( CPU->MEM[ CPU->PC++ ] ); break;
 8001cbc:	d0a6b217 	ldw	r2,-25912(gp)
 8001cc0:	10c00617 	ldw	r3,24(r2)
 8001cc4:	d166b217 	ldw	r5,-25912(gp)
 8001cc8:	2900000b 	ldhu	r4,0(r5)
 8001ccc:	20bfffcc 	andi	r2,r4,65535
 8001cd0:	1885883a 	add	r2,r3,r2
 8001cd4:	10800003 	ldbu	r2,0(r2)
 8001cd8:	10c03fcc 	andi	r3,r2,255
 8001cdc:	20800044 	addi	r2,r4,1
 8001ce0:	2880000d 	sth	r2,0(r5)
 8001ce4:	1809883a 	mov	r4,r3
 8001ce8:	8003abc0 	call	8003abc <ORA>
 8001cec:	00042906 	br	8002d94 <cpu_exec+0x2ba4>
  case 0x11: // INDY
    operand = INDY(); ORA( operand ); break;
 8001cf0:	80032940 	call	8003294 <INDY>
 8001cf4:	e0bffd05 	stb	r2,-12(fp)
 8001cf8:	e13ffd03 	ldbu	r4,-12(fp)
 8001cfc:	8003abc0 	call	8003abc <ORA>
 8001d00:	00042406 	br	8002d94 <cpu_exec+0x2ba4>
  case 0x01: // XIND
    operand = XIND(); ORA( operand ); break;
 8001d04:	80031f00 	call	80031f0 <XIND>
 8001d08:	e0bffd05 	stb	r2,-12(fp)
 8001d0c:	e13ffd03 	ldbu	r4,-12(fp)
 8001d10:	8003abc0 	call	8003abc <ORA>
 8001d14:	00041f06 	br	8002d94 <cpu_exec+0x2ba4>
  case 0x05: // ZP
    operand = ZP(); ORA( operand ); break;
 8001d18:	80033840 	call	8003384 <ZP>
 8001d1c:	e0bffd05 	stb	r2,-12(fp)
 8001d20:	e13ffd03 	ldbu	r4,-12(fp)
 8001d24:	8003abc0 	call	8003abc <ORA>
 8001d28:	00041a06 	br	8002d94 <cpu_exec+0x2ba4>
  case 0x15: // ZPX
    operand = ZPX(); ORA( operand ); break;
 8001d2c:	80033e00 	call	80033e0 <ZPX>
 8001d30:	e0bffd05 	stb	r2,-12(fp)
 8001d34:	e13ffd03 	ldbu	r4,-12(fp)
 8001d38:	8003abc0 	call	8003abc <ORA>
 8001d3c:	00041506 	br	8002d94 <cpu_exec+0x2ba4>

    // ######################### PHA #######################
  case 0x48: // IMP
    CPU->MEM[ STACK + CPU->S ] = CPU->A;
 8001d40:	d0a6b217 	ldw	r2,-25912(gp)
 8001d44:	10c00617 	ldw	r3,24(r2)
 8001d48:	d0a6b217 	ldw	r2,-25912(gp)
 8001d4c:	10800083 	ldbu	r2,2(r2)
 8001d50:	10803fcc 	andi	r2,r2,255
 8001d54:	1885883a 	add	r2,r3,r2
 8001d58:	10c04004 	addi	r3,r2,256
 8001d5c:	d0a6b217 	ldw	r2,-25912(gp)
 8001d60:	10800283 	ldbu	r2,10(r2)
 8001d64:	18800005 	stb	r2,0(r3)
    --CPU->S;
 8001d68:	d0e6b217 	ldw	r3,-25912(gp)
 8001d6c:	18800083 	ldbu	r2,2(r3)
 8001d70:	10bfffc4 	addi	r2,r2,-1
 8001d74:	18800085 	stb	r2,2(r3)
    printf("PHA!\n");
 8001d78:	01020074 	movhi	r4,2049
 8001d7c:	21136c04 	addi	r4,r4,19888
 8001d80:	80051d80 	call	80051d8 <puts>
    break;
 8001d84:	00040306 	br	8002d94 <cpu_exec+0x2ba4>

    // ########################### PHP #####################
  case 0x08: // IMP
    /* Pushes P (Status Register) onto the Stack, thus decremented it after. Fixed wrong push bug. */
    CPU->MEM[ STACK + CPU->S ] = ((CPU->P.N << 7) & 0x80) | ((CPU->P.V << 6) & 0x40) |
 8001d88:	d0a6b217 	ldw	r2,-25912(gp)
 8001d8c:	10c00617 	ldw	r3,24(r2)
 8001d90:	d0a6b217 	ldw	r2,-25912(gp)
 8001d94:	10800083 	ldbu	r2,2(r2)
 8001d98:	10803fcc 	andi	r2,r2,255
 8001d9c:	1885883a 	add	r2,r3,r2
 8001da0:	11004004 	addi	r4,r2,256
 8001da4:	d0a6b217 	ldw	r2,-25912(gp)
 8001da8:	10800243 	ldbu	r2,9(r2)
 8001dac:	10803fcc 	andi	r2,r2,255
 8001db0:	100491fa 	slli	r2,r2,7
 8001db4:	1007883a 	mov	r3,r2
 8001db8:	00bfe004 	movi	r2,-128
 8001dbc:	1884703a 	and	r2,r3,r2
 8001dc0:	1007883a 	mov	r3,r2
 8001dc4:	d0a6b217 	ldw	r2,-25912(gp)
 8001dc8:	10800203 	ldbu	r2,8(r2)
 8001dcc:	10803fcc 	andi	r2,r2,255
 8001dd0:	100491ba 	slli	r2,r2,6
 8001dd4:	1080100c 	andi	r2,r2,64
 8001dd8:	1884b03a 	or	r2,r3,r2
 8001ddc:	1007883a 	mov	r3,r2
 8001de0:	d0a6b217 	ldw	r2,-25912(gp)
 8001de4:	10800183 	ldbu	r2,6(r2)
 8001de8:	10803fcc 	andi	r2,r2,255
 8001dec:	100490fa 	slli	r2,r2,3
 8001df0:	1080020c 	andi	r2,r2,8
 8001df4:	1884b03a 	or	r2,r3,r2
 8001df8:	1007883a 	mov	r3,r2
 8001dfc:	d0a6b217 	ldw	r2,-25912(gp)
 8001e00:	10800143 	ldbu	r2,5(r2)
 8001e04:	10803fcc 	andi	r2,r2,255
 8001e08:	1085883a 	add	r2,r2,r2
 8001e0c:	1085883a 	add	r2,r2,r2
 8001e10:	1080010c 	andi	r2,r2,4
 8001e14:	1884b03a 	or	r2,r3,r2
 8001e18:	1007883a 	mov	r3,r2
 8001e1c:	d0a6b217 	ldw	r2,-25912(gp)
 8001e20:	10800103 	ldbu	r2,4(r2)
 8001e24:	10803fcc 	andi	r2,r2,255
 8001e28:	1085883a 	add	r2,r2,r2
 8001e2c:	1080008c 	andi	r2,r2,2
 8001e30:	1884b03a 	or	r2,r3,r2
 8001e34:	1007883a 	mov	r3,r2
 8001e38:	d0a6b217 	ldw	r2,-25912(gp)
 8001e3c:	108000c3 	ldbu	r2,3(r2)
 8001e40:	1080004c 	andi	r2,r2,1
 8001e44:	1884b03a 	or	r2,r3,r2
 8001e48:	10800c14 	ori	r2,r2,48
 8001e4c:	20800005 	stb	r2,0(r4)
      ((0x01 << 5)) | ((0x01 << 4) & 0x10) | ((CPU->P.D << 3) & 0x08) |
      ((CPU->P.I << 2) & 0x04) | ((CPU->P.Z << 1) & 0x02) | ((CPU->P.C) & 0x01);
    --CPU->S;
 8001e50:	d0e6b217 	ldw	r3,-25912(gp)
 8001e54:	18800083 	ldbu	r2,2(r3)
 8001e58:	10bfffc4 	addi	r2,r2,-1
 8001e5c:	18800085 	stb	r2,2(r3)
    printf("PHP!\n");
 8001e60:	01020074 	movhi	r4,2049
 8001e64:	21136e04 	addi	r4,r4,19896
 8001e68:	80051d80 	call	80051d8 <puts>
    break;
 8001e6c:	0003c906 	br	8002d94 <cpu_exec+0x2ba4>

    // ########################## PLA ######################
  case 0x68: // IMP
    /* Pulls Accumulator from the stack, which is incremented after. Fixed wrong pulling bug. */
    ++CPU->S;
 8001e70:	d0e6b217 	ldw	r3,-25912(gp)
 8001e74:	18800083 	ldbu	r2,2(r3)
 8001e78:	10800044 	addi	r2,r2,1
 8001e7c:	18800085 	stb	r2,2(r3)
    CPU->A = CPU->MEM[ STACK + CPU->S ];
 8001e80:	d126b217 	ldw	r4,-25912(gp)
 8001e84:	d0a6b217 	ldw	r2,-25912(gp)
 8001e88:	10c00617 	ldw	r3,24(r2)
 8001e8c:	d0a6b217 	ldw	r2,-25912(gp)
 8001e90:	10800083 	ldbu	r2,2(r2)
 8001e94:	10803fcc 	andi	r2,r2,255
 8001e98:	1885883a 	add	r2,r3,r2
 8001e9c:	10804004 	addi	r2,r2,256
 8001ea0:	10800003 	ldbu	r2,0(r2)
 8001ea4:	20800285 	stb	r2,10(r4)
    CPU->P.N = ((CPU->A & 0x80) > 0) ? 1 : 0;
 8001ea8:	d0e6b217 	ldw	r3,-25912(gp)
 8001eac:	d0a6b217 	ldw	r2,-25912(gp)
 8001eb0:	10800283 	ldbu	r2,10(r2)
 8001eb4:	10803fcc 	andi	r2,r2,255
 8001eb8:	1080200c 	andi	r2,r2,128
 8001ebc:	10800048 	cmpgei	r2,r2,1
 8001ec0:	18800245 	stb	r2,9(r3)
    CPU->P.Z = (CPU->A == 0) ? 1 : 0;
 8001ec4:	d0e6b217 	ldw	r3,-25912(gp)
 8001ec8:	d0a6b217 	ldw	r2,-25912(gp)
 8001ecc:	10800283 	ldbu	r2,10(r2)
 8001ed0:	10803fcc 	andi	r2,r2,255
 8001ed4:	1005003a 	cmpeq	r2,r2,zero
 8001ed8:	18800105 	stb	r2,4(r3)
    printf("PLA!\n");
 8001edc:	01020074 	movhi	r4,2049
 8001ee0:	21137004 	addi	r4,r4,19904
 8001ee4:	80051d80 	call	80051d8 <puts>
    break;
 8001ee8:	0003aa06 	br	8002d94 <cpu_exec+0x2ba4>

    // ########################## PLP ########################
  case 0x28:
    /* Pulls P (Status Register) from the Stack. Note B flag is not
       copied after, since it only exists on Stack. Fixed wrong flag pulling bug. */
    ++CPU->S;
 8001eec:	d0e6b217 	ldw	r3,-25912(gp)
 8001ef0:	18800083 	ldbu	r2,2(r3)
 8001ef4:	10800044 	addi	r2,r2,1
 8001ef8:	18800085 	stb	r2,2(r3)
    operand = CPU->MEM[ STACK + CPU->S ];
 8001efc:	d0a6b217 	ldw	r2,-25912(gp)
 8001f00:	10c00617 	ldw	r3,24(r2)
 8001f04:	d0a6b217 	ldw	r2,-25912(gp)
 8001f08:	10800083 	ldbu	r2,2(r2)
 8001f0c:	10803fcc 	andi	r2,r2,255
 8001f10:	1885883a 	add	r2,r3,r2
 8001f14:	10804004 	addi	r2,r2,256
 8001f18:	10800003 	ldbu	r2,0(r2)
 8001f1c:	e0bffd05 	stb	r2,-12(fp)
    CPU->P.N = (operand >> 7) & 0x01;
 8001f20:	d0e6b217 	ldw	r3,-25912(gp)
 8001f24:	e0bffd03 	ldbu	r2,-12(fp)
 8001f28:	1004d1fa 	srli	r2,r2,7
 8001f2c:	1080004c 	andi	r2,r2,1
 8001f30:	18800245 	stb	r2,9(r3)
    CPU->P.V = (operand >> 6) & 0x01;
 8001f34:	d0e6b217 	ldw	r3,-25912(gp)
 8001f38:	e0bffd03 	ldbu	r2,-12(fp)
 8001f3c:	1004d1ba 	srli	r2,r2,6
 8001f40:	1080004c 	andi	r2,r2,1
 8001f44:	18800205 	stb	r2,8(r3)
    //CPU->P.B = (operand >> 4) & 0x01;
    CPU->P.I = (operand >> 2) & 0x01;
 8001f48:	d0e6b217 	ldw	r3,-25912(gp)
 8001f4c:	e0bffd03 	ldbu	r2,-12(fp)
 8001f50:	1004d0ba 	srli	r2,r2,2
 8001f54:	1080004c 	andi	r2,r2,1
 8001f58:	18800145 	stb	r2,5(r3)
    CPU->P.Z = (operand >> 1) & 0x01;
 8001f5c:	d0e6b217 	ldw	r3,-25912(gp)
 8001f60:	e0bffd03 	ldbu	r2,-12(fp)
 8001f64:	1004d07a 	srli	r2,r2,1
 8001f68:	1080004c 	andi	r2,r2,1
 8001f6c:	18800105 	stb	r2,4(r3)
    CPU->P.C = (operand) & 0x01;
 8001f70:	d0e6b217 	ldw	r3,-25912(gp)
 8001f74:	e0bffd03 	ldbu	r2,-12(fp)
 8001f78:	1080004c 	andi	r2,r2,1
 8001f7c:	188000c5 	stb	r2,3(r3)
    printf("PLP!\n");
 8001f80:	01020074 	movhi	r4,2049
 8001f84:	21137204 	addi	r4,r4,19912
 8001f88:	80051d80 	call	80051d8 <puts>
    break;
 8001f8c:	00038106 	br	8002d94 <cpu_exec+0x2ba4>

    // ######################## ROL #######################
  case 0x2E: // ABS
    ROL( &CPU->MEM[ (CPU->MEM[CPU->PC++] | (CPU->MEM[CPU->PC++] << 8 )) ] ); break;
 8001f90:	d0a6b217 	ldw	r2,-25912(gp)
 8001f94:	11400617 	ldw	r5,24(r2)
 8001f98:	d0a6b217 	ldw	r2,-25912(gp)
 8001f9c:	10c00617 	ldw	r3,24(r2)
 8001fa0:	d1a6b217 	ldw	r6,-25912(gp)
 8001fa4:	31c0000b 	ldhu	r7,0(r6)
 8001fa8:	38bfffcc 	andi	r2,r7,65535
 8001fac:	1885883a 	add	r2,r3,r2
 8001fb0:	10800003 	ldbu	r2,0(r2)
 8001fb4:	12003fcc 	andi	r8,r2,255
 8001fb8:	d0a6b217 	ldw	r2,-25912(gp)
 8001fbc:	10c00617 	ldw	r3,24(r2)
 8001fc0:	d266b217 	ldw	r9,-25912(gp)
 8001fc4:	4900000b 	ldhu	r4,0(r9)
 8001fc8:	20bfffcc 	andi	r2,r4,65535
 8001fcc:	1885883a 	add	r2,r3,r2
 8001fd0:	10800003 	ldbu	r2,0(r2)
 8001fd4:	10803fcc 	andi	r2,r2,255
 8001fd8:	1004923a 	slli	r2,r2,8
 8001fdc:	4084b03a 	or	r2,r8,r2
 8001fe0:	2887883a 	add	r3,r5,r2
 8001fe4:	38800044 	addi	r2,r7,1
 8001fe8:	3080000d 	sth	r2,0(r6)
 8001fec:	20800044 	addi	r2,r4,1
 8001ff0:	4880000d 	sth	r2,0(r9)
 8001ff4:	1809883a 	mov	r4,r3
 8001ff8:	8003b3c0 	call	8003b3c <ROL>
 8001ffc:	00036506 	br	8002d94 <cpu_exec+0x2ba4>
  case 0x3E: // ABSX
    ROL( &CPU->MEM[ ( (CPU->MEM[CPU->PC++] | (CPU->MEM[CPU->PC++] << 8)) + CPU->X) & 0xFFFF] ); break;
 8002000:	d0a6b217 	ldw	r2,-25912(gp)
 8002004:	11000617 	ldw	r4,24(r2)
 8002008:	d0a6b217 	ldw	r2,-25912(gp)
 800200c:	10c00617 	ldw	r3,24(r2)
 8002010:	d166b217 	ldw	r5,-25912(gp)
 8002014:	2980000b 	ldhu	r6,0(r5)
 8002018:	30bfffcc 	andi	r2,r6,65535
 800201c:	1885883a 	add	r2,r3,r2
 8002020:	10800003 	ldbu	r2,0(r2)
 8002024:	11c03fcc 	andi	r7,r2,255
 8002028:	d0a6b217 	ldw	r2,-25912(gp)
 800202c:	10c00617 	ldw	r3,24(r2)
 8002030:	d226b217 	ldw	r8,-25912(gp)
 8002034:	4240000b 	ldhu	r9,0(r8)
 8002038:	48bfffcc 	andi	r2,r9,65535
 800203c:	1885883a 	add	r2,r3,r2
 8002040:	10800003 	ldbu	r2,0(r2)
 8002044:	10803fcc 	andi	r2,r2,255
 8002048:	1004923a 	slli	r2,r2,8
 800204c:	3886b03a 	or	r3,r7,r2
 8002050:	d0a6b217 	ldw	r2,-25912(gp)
 8002054:	108002c3 	ldbu	r2,11(r2)
 8002058:	10803fcc 	andi	r2,r2,255
 800205c:	1885883a 	add	r2,r3,r2
 8002060:	10bfffcc 	andi	r2,r2,65535
 8002064:	2089883a 	add	r4,r4,r2
 8002068:	30800044 	addi	r2,r6,1
 800206c:	2880000d 	sth	r2,0(r5)
 8002070:	48800044 	addi	r2,r9,1
 8002074:	4080000d 	sth	r2,0(r8)
 8002078:	8003b3c0 	call	8003b3c <ROL>
 800207c:	00034506 	br	8002d94 <cpu_exec+0x2ba4>
  case 0x2A: // ACC
    ROL( &CPU->A ); break;
 8002080:	d0a6b217 	ldw	r2,-25912(gp)
 8002084:	11000284 	addi	r4,r2,10
 8002088:	8003b3c0 	call	8003b3c <ROL>
 800208c:	00034106 	br	8002d94 <cpu_exec+0x2ba4>
  case 0x26: // ZP
    ROL( &CPU->MEM[ CPU->MEM[ CPU->PC++ ] ] ); break;
 8002090:	d0a6b217 	ldw	r2,-25912(gp)
 8002094:	11000617 	ldw	r4,24(r2)
 8002098:	d0a6b217 	ldw	r2,-25912(gp)
 800209c:	10c00617 	ldw	r3,24(r2)
 80020a0:	d166b217 	ldw	r5,-25912(gp)
 80020a4:	2980000b 	ldhu	r6,0(r5)
 80020a8:	30bfffcc 	andi	r2,r6,65535
 80020ac:	1885883a 	add	r2,r3,r2
 80020b0:	10800003 	ldbu	r2,0(r2)
 80020b4:	10803fcc 	andi	r2,r2,255
 80020b8:	2089883a 	add	r4,r4,r2
 80020bc:	30800044 	addi	r2,r6,1
 80020c0:	2880000d 	sth	r2,0(r5)
 80020c4:	8003b3c0 	call	8003b3c <ROL>
 80020c8:	00033206 	br	8002d94 <cpu_exec+0x2ba4>
  case 0x36: // ZPX
    ROL( &CPU->MEM[ (CPU->MEM[ CPU->PC++ ] + CPU->X) & 0xFF ] ); break;
 80020cc:	d0a6b217 	ldw	r2,-25912(gp)
 80020d0:	11000617 	ldw	r4,24(r2)
 80020d4:	d0a6b217 	ldw	r2,-25912(gp)
 80020d8:	10c00617 	ldw	r3,24(r2)
 80020dc:	d1a6b217 	ldw	r6,-25912(gp)
 80020e0:	3140000b 	ldhu	r5,0(r6)
 80020e4:	28bfffcc 	andi	r2,r5,65535
 80020e8:	1885883a 	add	r2,r3,r2
 80020ec:	10800003 	ldbu	r2,0(r2)
 80020f0:	10c03fcc 	andi	r3,r2,255
 80020f4:	d0a6b217 	ldw	r2,-25912(gp)
 80020f8:	108002c3 	ldbu	r2,11(r2)
 80020fc:	10803fcc 	andi	r2,r2,255
 8002100:	1885883a 	add	r2,r3,r2
 8002104:	10803fcc 	andi	r2,r2,255
 8002108:	2089883a 	add	r4,r4,r2
 800210c:	28800044 	addi	r2,r5,1
 8002110:	3080000d 	sth	r2,0(r6)
 8002114:	8003b3c0 	call	8003b3c <ROL>
 8002118:	00031e06 	br	8002d94 <cpu_exec+0x2ba4>

    // ########################## ROR ########################
  case 0x6E: // ABS
    ROR( &CPU->MEM[ (CPU->MEM[CPU->PC++] | (CPU->MEM[CPU->PC++] << 8 )) ] ); break;
 800211c:	d0a6b217 	ldw	r2,-25912(gp)
 8002120:	11400617 	ldw	r5,24(r2)
 8002124:	d0a6b217 	ldw	r2,-25912(gp)
 8002128:	10c00617 	ldw	r3,24(r2)
 800212c:	d1a6b217 	ldw	r6,-25912(gp)
 8002130:	31c0000b 	ldhu	r7,0(r6)
 8002134:	38bfffcc 	andi	r2,r7,65535
 8002138:	1885883a 	add	r2,r3,r2
 800213c:	10800003 	ldbu	r2,0(r2)
 8002140:	12003fcc 	andi	r8,r2,255
 8002144:	d0a6b217 	ldw	r2,-25912(gp)
 8002148:	10c00617 	ldw	r3,24(r2)
 800214c:	d266b217 	ldw	r9,-25912(gp)
 8002150:	4900000b 	ldhu	r4,0(r9)
 8002154:	20bfffcc 	andi	r2,r4,65535
 8002158:	1885883a 	add	r2,r3,r2
 800215c:	10800003 	ldbu	r2,0(r2)
 8002160:	10803fcc 	andi	r2,r2,255
 8002164:	1004923a 	slli	r2,r2,8
 8002168:	4084b03a 	or	r2,r8,r2
 800216c:	2887883a 	add	r3,r5,r2
 8002170:	38800044 	addi	r2,r7,1
 8002174:	3080000d 	sth	r2,0(r6)
 8002178:	20800044 	addi	r2,r4,1
 800217c:	4880000d 	sth	r2,0(r9)
 8002180:	1809883a 	mov	r4,r3
 8002184:	8003c0c0 	call	8003c0c <ROR>
 8002188:	00030206 	br	8002d94 <cpu_exec+0x2ba4>
  case 0x7E: // ABSX
    ROR( &CPU->MEM[ ( (CPU->MEM[CPU->PC++] | (CPU->MEM[CPU->PC++] << 8)) + CPU->X) & 0xFFFF] ); break;
 800218c:	d0a6b217 	ldw	r2,-25912(gp)
 8002190:	11000617 	ldw	r4,24(r2)
 8002194:	d0a6b217 	ldw	r2,-25912(gp)
 8002198:	10c00617 	ldw	r3,24(r2)
 800219c:	d166b217 	ldw	r5,-25912(gp)
 80021a0:	2980000b 	ldhu	r6,0(r5)
 80021a4:	30bfffcc 	andi	r2,r6,65535
 80021a8:	1885883a 	add	r2,r3,r2
 80021ac:	10800003 	ldbu	r2,0(r2)
 80021b0:	11c03fcc 	andi	r7,r2,255
 80021b4:	d0a6b217 	ldw	r2,-25912(gp)
 80021b8:	10c00617 	ldw	r3,24(r2)
 80021bc:	d226b217 	ldw	r8,-25912(gp)
 80021c0:	4240000b 	ldhu	r9,0(r8)
 80021c4:	48bfffcc 	andi	r2,r9,65535
 80021c8:	1885883a 	add	r2,r3,r2
 80021cc:	10800003 	ldbu	r2,0(r2)
 80021d0:	10803fcc 	andi	r2,r2,255
 80021d4:	1004923a 	slli	r2,r2,8
 80021d8:	3886b03a 	or	r3,r7,r2
 80021dc:	d0a6b217 	ldw	r2,-25912(gp)
 80021e0:	108002c3 	ldbu	r2,11(r2)
 80021e4:	10803fcc 	andi	r2,r2,255
 80021e8:	1885883a 	add	r2,r3,r2
 80021ec:	10bfffcc 	andi	r2,r2,65535
 80021f0:	2089883a 	add	r4,r4,r2
 80021f4:	30800044 	addi	r2,r6,1
 80021f8:	2880000d 	sth	r2,0(r5)
 80021fc:	48800044 	addi	r2,r9,1
 8002200:	4080000d 	sth	r2,0(r8)
 8002204:	8003c0c0 	call	8003c0c <ROR>
 8002208:	0002e206 	br	8002d94 <cpu_exec+0x2ba4>
  case 0x6A: // ACC
    ROR( &CPU->A ); break;
 800220c:	d0a6b217 	ldw	r2,-25912(gp)
 8002210:	11000284 	addi	r4,r2,10
 8002214:	8003c0c0 	call	8003c0c <ROR>
 8002218:	0002de06 	br	8002d94 <cpu_exec+0x2ba4>
  case 0x66: // ZP
    ROR( &CPU->MEM[ CPU->MEM[ CPU->PC++ ] ] ); break;
 800221c:	d0a6b217 	ldw	r2,-25912(gp)
 8002220:	11000617 	ldw	r4,24(r2)
 8002224:	d0a6b217 	ldw	r2,-25912(gp)
 8002228:	10c00617 	ldw	r3,24(r2)
 800222c:	d166b217 	ldw	r5,-25912(gp)
 8002230:	2980000b 	ldhu	r6,0(r5)
 8002234:	30bfffcc 	andi	r2,r6,65535
 8002238:	1885883a 	add	r2,r3,r2
 800223c:	10800003 	ldbu	r2,0(r2)
 8002240:	10803fcc 	andi	r2,r2,255
 8002244:	2089883a 	add	r4,r4,r2
 8002248:	30800044 	addi	r2,r6,1
 800224c:	2880000d 	sth	r2,0(r5)
 8002250:	8003c0c0 	call	8003c0c <ROR>
 8002254:	0002cf06 	br	8002d94 <cpu_exec+0x2ba4>
  case 0x76: // ZPX
    ROR( &CPU->MEM[ (CPU->MEM[ CPU->PC++ ] + CPU->X) & 0xFF ] ); break;
 8002258:	d0a6b217 	ldw	r2,-25912(gp)
 800225c:	11000617 	ldw	r4,24(r2)
 8002260:	d0a6b217 	ldw	r2,-25912(gp)
 8002264:	10c00617 	ldw	r3,24(r2)
 8002268:	d1a6b217 	ldw	r6,-25912(gp)
 800226c:	3140000b 	ldhu	r5,0(r6)
 8002270:	28bfffcc 	andi	r2,r5,65535
 8002274:	1885883a 	add	r2,r3,r2
 8002278:	10800003 	ldbu	r2,0(r2)
 800227c:	10c03fcc 	andi	r3,r2,255
 8002280:	d0a6b217 	ldw	r2,-25912(gp)
 8002284:	108002c3 	ldbu	r2,11(r2)
 8002288:	10803fcc 	andi	r2,r2,255
 800228c:	1885883a 	add	r2,r3,r2
 8002290:	10803fcc 	andi	r2,r2,255
 8002294:	2089883a 	add	r4,r4,r2
 8002298:	28800044 	addi	r2,r5,1
 800229c:	3080000d 	sth	r2,0(r6)
 80022a0:	8003c0c0 	call	8003c0c <ROR>
 80022a4:	0002bb06 	br	8002d94 <cpu_exec+0x2ba4>


    // ######################## RTI ##########################
  case 0x40:
    ++CPU->S;
 80022a8:	d0e6b217 	ldw	r3,-25912(gp)
 80022ac:	18800083 	ldbu	r2,2(r3)
 80022b0:	10800044 	addi	r2,r2,1
 80022b4:	18800085 	stb	r2,2(r3)
    operand = CPU->MEM[ STACK + CPU->S ];
 80022b8:	d0a6b217 	ldw	r2,-25912(gp)
 80022bc:	10c00617 	ldw	r3,24(r2)
 80022c0:	d0a6b217 	ldw	r2,-25912(gp)
 80022c4:	10800083 	ldbu	r2,2(r2)
 80022c8:	10803fcc 	andi	r2,r2,255
 80022cc:	1885883a 	add	r2,r3,r2
 80022d0:	10804004 	addi	r2,r2,256
 80022d4:	10800003 	ldbu	r2,0(r2)
 80022d8:	e0bffd05 	stb	r2,-12(fp)
    printf("Pushing flag %x ", operand);
 80022dc:	e17ffd03 	ldbu	r5,-12(fp)
 80022e0:	01020074 	movhi	r4,2049
 80022e4:	21137404 	addi	r4,r4,19920
 80022e8:	80050c00 	call	80050c0 <printf>
    CPU->P.N = (operand >> 7) & 0x01;
 80022ec:	d0e6b217 	ldw	r3,-25912(gp)
 80022f0:	e0bffd03 	ldbu	r2,-12(fp)
 80022f4:	1004d1fa 	srli	r2,r2,7
 80022f8:	1080004c 	andi	r2,r2,1
 80022fc:	18800245 	stb	r2,9(r3)
    CPU->P.V = (operand >> 6) & 0x01;
 8002300:	d0e6b217 	ldw	r3,-25912(gp)
 8002304:	e0bffd03 	ldbu	r2,-12(fp)
 8002308:	1004d1ba 	srli	r2,r2,6
 800230c:	1080004c 	andi	r2,r2,1
 8002310:	18800205 	stb	r2,8(r3)
    CPU->P.B = (operand >> 4) & 0x01;
 8002314:	d0e6b217 	ldw	r3,-25912(gp)
 8002318:	e0bffd03 	ldbu	r2,-12(fp)
 800231c:	1004d13a 	srli	r2,r2,4
 8002320:	1080004c 	andi	r2,r2,1
 8002324:	188001c5 	stb	r2,7(r3)
    CPU->P.I = (operand >> 2) & 0x01;
 8002328:	d0e6b217 	ldw	r3,-25912(gp)
 800232c:	e0bffd03 	ldbu	r2,-12(fp)
 8002330:	1004d0ba 	srli	r2,r2,2
 8002334:	1080004c 	andi	r2,r2,1
 8002338:	18800145 	stb	r2,5(r3)
    CPU->P.Z = (operand >> 1) & 0x01;
 800233c:	d0e6b217 	ldw	r3,-25912(gp)
 8002340:	e0bffd03 	ldbu	r2,-12(fp)
 8002344:	1004d07a 	srli	r2,r2,1
 8002348:	1080004c 	andi	r2,r2,1
 800234c:	18800105 	stb	r2,4(r3)
    CPU->P.C = (operand) & 0x01;
 8002350:	d0e6b217 	ldw	r3,-25912(gp)
 8002354:	e0bffd03 	ldbu	r2,-12(fp)
 8002358:	1080004c 	andi	r2,r2,1
 800235c:	188000c5 	stb	r2,3(r3)
    ++CPU->S;
 8002360:	d0e6b217 	ldw	r3,-25912(gp)
 8002364:	18800083 	ldbu	r2,2(r3)
 8002368:	10800044 	addi	r2,r2,1
 800236c:	18800085 	stb	r2,2(r3)
    CPU->PC = (CPU->MEM[ STACK + CPU->S] );
 8002370:	d126b217 	ldw	r4,-25912(gp)
 8002374:	d0a6b217 	ldw	r2,-25912(gp)
 8002378:	10c00617 	ldw	r3,24(r2)
 800237c:	d0a6b217 	ldw	r2,-25912(gp)
 8002380:	10800083 	ldbu	r2,2(r2)
 8002384:	10803fcc 	andi	r2,r2,255
 8002388:	1885883a 	add	r2,r3,r2
 800238c:	10804004 	addi	r2,r2,256
 8002390:	10800003 	ldbu	r2,0(r2)
 8002394:	10803fcc 	andi	r2,r2,255
 8002398:	2080000d 	sth	r2,0(r4)

    ++CPU->S;
 800239c:	d0e6b217 	ldw	r3,-25912(gp)
 80023a0:	18800083 	ldbu	r2,2(r3)
 80023a4:	10800044 	addi	r2,r2,1
 80023a8:	18800085 	stb	r2,2(r3)
    CPU->PC = CPU->PC | (CPU->MEM[ STACK + CPU->S ] << 8);
 80023ac:	d126b217 	ldw	r4,-25912(gp)
 80023b0:	d0a6b217 	ldw	r2,-25912(gp)
 80023b4:	1080000b 	ldhu	r2,0(r2)
 80023b8:	100b883a 	mov	r5,r2
 80023bc:	d0a6b217 	ldw	r2,-25912(gp)
 80023c0:	10c00617 	ldw	r3,24(r2)
 80023c4:	d0a6b217 	ldw	r2,-25912(gp)
 80023c8:	10800083 	ldbu	r2,2(r2)
 80023cc:	10803fcc 	andi	r2,r2,255
 80023d0:	1885883a 	add	r2,r3,r2
 80023d4:	10804004 	addi	r2,r2,256
 80023d8:	10800003 	ldbu	r2,0(r2)
 80023dc:	10803fcc 	andi	r2,r2,255
 80023e0:	1004923a 	slli	r2,r2,8
 80023e4:	2884b03a 	or	r2,r5,r2
 80023e8:	2080000d 	sth	r2,0(r4)
    printf("Pushed %x to PC! ", CPU->PC);
 80023ec:	d0a6b217 	ldw	r2,-25912(gp)
 80023f0:	1080000b 	ldhu	r2,0(r2)
 80023f4:	117fffcc 	andi	r5,r2,65535
 80023f8:	01020074 	movhi	r4,2049
 80023fc:	21137904 	addi	r4,r4,19940
 8002400:	80050c00 	call	80050c0 <printf>
    printf("RTI!\n");
 8002404:	01020074 	movhi	r4,2049
 8002408:	21137e04 	addi	r4,r4,19960
 800240c:	80051d80 	call	80051d8 <puts>
    break;
 8002410:	00026006 	br	8002d94 <cpu_exec+0x2ba4>

    // ############################# RTS #######################
  case 0x60:
    ++CPU->S;
 8002414:	d0e6b217 	ldw	r3,-25912(gp)
 8002418:	18800083 	ldbu	r2,2(r3)
 800241c:	10800044 	addi	r2,r2,1
 8002420:	18800085 	stb	r2,2(r3)
    CPU->PC = CPU->MEM[ STACK + CPU->S ];
 8002424:	d126b217 	ldw	r4,-25912(gp)
 8002428:	d0a6b217 	ldw	r2,-25912(gp)
 800242c:	10c00617 	ldw	r3,24(r2)
 8002430:	d0a6b217 	ldw	r2,-25912(gp)
 8002434:	10800083 	ldbu	r2,2(r2)
 8002438:	10803fcc 	andi	r2,r2,255
 800243c:	1885883a 	add	r2,r3,r2
 8002440:	10804004 	addi	r2,r2,256
 8002444:	10800003 	ldbu	r2,0(r2)
 8002448:	10803fcc 	andi	r2,r2,255
 800244c:	2080000d 	sth	r2,0(r4)
    ++CPU->S;
 8002450:	d0e6b217 	ldw	r3,-25912(gp)
 8002454:	18800083 	ldbu	r2,2(r3)
 8002458:	10800044 	addi	r2,r2,1
 800245c:	18800085 	stb	r2,2(r3)
    CPU->PC = (CPU->PC | ( CPU->MEM[ STACK + CPU->S ] << 8 )) + 1;
 8002460:	d126b217 	ldw	r4,-25912(gp)
 8002464:	d0a6b217 	ldw	r2,-25912(gp)
 8002468:	1080000b 	ldhu	r2,0(r2)
 800246c:	100b883a 	mov	r5,r2
 8002470:	d0a6b217 	ldw	r2,-25912(gp)
 8002474:	10c00617 	ldw	r3,24(r2)
 8002478:	d0a6b217 	ldw	r2,-25912(gp)
 800247c:	10800083 	ldbu	r2,2(r2)
 8002480:	10803fcc 	andi	r2,r2,255
 8002484:	1885883a 	add	r2,r3,r2
 8002488:	10804004 	addi	r2,r2,256
 800248c:	10800003 	ldbu	r2,0(r2)
 8002490:	10803fcc 	andi	r2,r2,255
 8002494:	1004923a 	slli	r2,r2,8
 8002498:	2884b03a 	or	r2,r5,r2
 800249c:	10800044 	addi	r2,r2,1
 80024a0:	2080000d 	sth	r2,0(r4)
    printf("RTS!\n");
 80024a4:	01020074 	movhi	r4,2049
 80024a8:	21138004 	addi	r4,r4,19968
 80024ac:	80051d80 	call	80051d8 <puts>
    break;
 80024b0:	00023806 	br	8002d94 <cpu_exec+0x2ba4>

    // ####################### SBC ############################
  case 0xED: // ABS
    operand = ABS(); SBC( operand ); break;
 80024b4:	80030180 	call	8003018 <ABS>
 80024b8:	e0bffd05 	stb	r2,-12(fp)
 80024bc:	e13ffd03 	ldbu	r4,-12(fp)
 80024c0:	8003cf80 	call	8003cf8 <SBC>
 80024c4:	00023306 	br	8002d94 <cpu_exec+0x2ba4>
  case 0xFD: // ABSX
    operand = ABSX(); SBC( operand ); break;
 80024c8:	80030a80 	call	80030a8 <ABSX>
 80024cc:	e0bffd05 	stb	r2,-12(fp)
 80024d0:	e13ffd03 	ldbu	r4,-12(fp)
 80024d4:	8003cf80 	call	8003cf8 <SBC>
 80024d8:	00022e06 	br	8002d94 <cpu_exec+0x2ba4>
  case 0xF9: // ABSY
    operand = ABSY(); SBC( operand ); break;
 80024dc:	800314c0 	call	800314c <ABSY>
 80024e0:	e0bffd05 	stb	r2,-12(fp)
 80024e4:	e13ffd03 	ldbu	r4,-12(fp)
 80024e8:	8003cf80 	call	8003cf8 <SBC>
 80024ec:	00022906 	br	8002d94 <cpu_exec+0x2ba4>
  case 0xE9: // IMM
    SBC( CPU->MEM[ CPU->PC++ ] ); break;
 80024f0:	d0a6b217 	ldw	r2,-25912(gp)
 80024f4:	10c00617 	ldw	r3,24(r2)
 80024f8:	d166b217 	ldw	r5,-25912(gp)
 80024fc:	2900000b 	ldhu	r4,0(r5)
 8002500:	20bfffcc 	andi	r2,r4,65535
 8002504:	1885883a 	add	r2,r3,r2
 8002508:	10800003 	ldbu	r2,0(r2)
 800250c:	10c03fcc 	andi	r3,r2,255
 8002510:	20800044 	addi	r2,r4,1
 8002514:	2880000d 	sth	r2,0(r5)
 8002518:	1809883a 	mov	r4,r3
 800251c:	8003cf80 	call	8003cf8 <SBC>
 8002520:	00021c06 	br	8002d94 <cpu_exec+0x2ba4>
  case 0xF1: // INDY
    operand = INDY(); SBC( operand ); break;
 8002524:	80032940 	call	8003294 <INDY>
 8002528:	e0bffd05 	stb	r2,-12(fp)
 800252c:	e13ffd03 	ldbu	r4,-12(fp)
 8002530:	8003cf80 	call	8003cf8 <SBC>
 8002534:	00021706 	br	8002d94 <cpu_exec+0x2ba4>
  case 0xE1: // XIND
    operand = XIND(); SBC( operand ); break;
 8002538:	80031f00 	call	80031f0 <XIND>
 800253c:	e0bffd05 	stb	r2,-12(fp)
 8002540:	e13ffd03 	ldbu	r4,-12(fp)
 8002544:	8003cf80 	call	8003cf8 <SBC>
 8002548:	00021206 	br	8002d94 <cpu_exec+0x2ba4>
  case 0xE5: // ZP
    operand = ZP(); SBC( operand ); break;
 800254c:	80033840 	call	8003384 <ZP>
 8002550:	e0bffd05 	stb	r2,-12(fp)
 8002554:	e13ffd03 	ldbu	r4,-12(fp)
 8002558:	8003cf80 	call	8003cf8 <SBC>
 800255c:	00020d06 	br	8002d94 <cpu_exec+0x2ba4>
  case 0xF5: // ZPX
    operand = ZPX(); SBC( operand ); break;
 8002560:	80033e00 	call	80033e0 <ZPX>
 8002564:	e0bffd05 	stb	r2,-12(fp)
 8002568:	e13ffd03 	ldbu	r4,-12(fp)
 800256c:	8003cf80 	call	8003cf8 <SBC>
 8002570:	00020806 	br	8002d94 <cpu_exec+0x2ba4>

    // ############################ SEC ########################
  case 0x38: // IMP
    CPU->P.C = 1;
 8002574:	d0e6b217 	ldw	r3,-25912(gp)
 8002578:	00800044 	movi	r2,1
 800257c:	188000c5 	stb	r2,3(r3)
    printf("SEC!\n");
 8002580:	01020074 	movhi	r4,2049
 8002584:	21138204 	addi	r4,r4,19976
 8002588:	80051d80 	call	80051d8 <puts>
    break;
 800258c:	00020106 	br	8002d94 <cpu_exec+0x2ba4>

    // ############################ SED ########################
  case 0xF8: // IMP
    CPU->P.D = 1;
 8002590:	d0e6b217 	ldw	r3,-25912(gp)
 8002594:	00800044 	movi	r2,1
 8002598:	18800185 	stb	r2,6(r3)
    printf("SED!\n");
 800259c:	01020074 	movhi	r4,2049
 80025a0:	21138404 	addi	r4,r4,19984
 80025a4:	80051d80 	call	80051d8 <puts>
    break;
 80025a8:	0001fa06 	br	8002d94 <cpu_exec+0x2ba4>

    // ############################ SEI #########################
  case 0x78:
    CPU->P.I = 1;
 80025ac:	d0e6b217 	ldw	r3,-25912(gp)
 80025b0:	00800044 	movi	r2,1
 80025b4:	18800145 	stb	r2,5(r3)
    printf("SEI!\n");
 80025b8:	01020074 	movhi	r4,2049
 80025bc:	21138604 	addi	r4,r4,19992
 80025c0:	80051d80 	call	80051d8 <puts>
    break;
 80025c4:	0001f306 	br	8002d94 <cpu_exec+0x2ba4>


    // ############################## STA ########################
  case 0x8D: // ABS
    CPU->MEM[ (CPU->MEM[CPU->PC++] | (CPU->MEM[CPU->PC++] << 8)) ] = CPU->A;
 80025c8:	d0a6b217 	ldw	r2,-25912(gp)
 80025cc:	11000617 	ldw	r4,24(r2)
 80025d0:	d0a6b217 	ldw	r2,-25912(gp)
 80025d4:	10c00617 	ldw	r3,24(r2)
 80025d8:	d166b217 	ldw	r5,-25912(gp)
 80025dc:	2980000b 	ldhu	r6,0(r5)
 80025e0:	30bfffcc 	andi	r2,r6,65535
 80025e4:	1885883a 	add	r2,r3,r2
 80025e8:	10800003 	ldbu	r2,0(r2)
 80025ec:	11c03fcc 	andi	r7,r2,255
 80025f0:	d0a6b217 	ldw	r2,-25912(gp)
 80025f4:	10c00617 	ldw	r3,24(r2)
 80025f8:	d226b217 	ldw	r8,-25912(gp)
 80025fc:	4240000b 	ldhu	r9,0(r8)
 8002600:	48bfffcc 	andi	r2,r9,65535
 8002604:	1885883a 	add	r2,r3,r2
 8002608:	10800003 	ldbu	r2,0(r2)
 800260c:	10803fcc 	andi	r2,r2,255
 8002610:	1004923a 	slli	r2,r2,8
 8002614:	3884b03a 	or	r2,r7,r2
 8002618:	2087883a 	add	r3,r4,r2
 800261c:	d0a6b217 	ldw	r2,-25912(gp)
 8002620:	10800283 	ldbu	r2,10(r2)
 8002624:	18800005 	stb	r2,0(r3)
 8002628:	30800044 	addi	r2,r6,1
 800262c:	2880000d 	sth	r2,0(r5)
 8002630:	48800044 	addi	r2,r9,1
 8002634:	4080000d 	sth	r2,0(r8)
    printf("STA!\n"); break;
 8002638:	01020074 	movhi	r4,2049
 800263c:	21138804 	addi	r4,r4,20000
 8002640:	80051d80 	call	80051d8 <puts>
 8002644:	0001d306 	br	8002d94 <cpu_exec+0x2ba4>
  case 0x9D: // ABSX
    CPU->MEM[ ((CPU->MEM[CPU->PC++] | (CPU->MEM[CPU->PC++] << 8)) + CPU->X) & 0xFFFF ] = CPU->A;
 8002648:	d0a6b217 	ldw	r2,-25912(gp)
 800264c:	11000617 	ldw	r4,24(r2)
 8002650:	d0a6b217 	ldw	r2,-25912(gp)
 8002654:	10c00617 	ldw	r3,24(r2)
 8002658:	d166b217 	ldw	r5,-25912(gp)
 800265c:	2980000b 	ldhu	r6,0(r5)
 8002660:	30bfffcc 	andi	r2,r6,65535
 8002664:	1885883a 	add	r2,r3,r2
 8002668:	10800003 	ldbu	r2,0(r2)
 800266c:	11c03fcc 	andi	r7,r2,255
 8002670:	d0a6b217 	ldw	r2,-25912(gp)
 8002674:	10c00617 	ldw	r3,24(r2)
 8002678:	d226b217 	ldw	r8,-25912(gp)
 800267c:	4240000b 	ldhu	r9,0(r8)
 8002680:	48bfffcc 	andi	r2,r9,65535
 8002684:	1885883a 	add	r2,r3,r2
 8002688:	10800003 	ldbu	r2,0(r2)
 800268c:	10803fcc 	andi	r2,r2,255
 8002690:	1004923a 	slli	r2,r2,8
 8002694:	3886b03a 	or	r3,r7,r2
 8002698:	d0a6b217 	ldw	r2,-25912(gp)
 800269c:	108002c3 	ldbu	r2,11(r2)
 80026a0:	10803fcc 	andi	r2,r2,255
 80026a4:	1885883a 	add	r2,r3,r2
 80026a8:	10bfffcc 	andi	r2,r2,65535
 80026ac:	2087883a 	add	r3,r4,r2
 80026b0:	d0a6b217 	ldw	r2,-25912(gp)
 80026b4:	10800283 	ldbu	r2,10(r2)
 80026b8:	18800005 	stb	r2,0(r3)
 80026bc:	30800044 	addi	r2,r6,1
 80026c0:	2880000d 	sth	r2,0(r5)
 80026c4:	48800044 	addi	r2,r9,1
 80026c8:	4080000d 	sth	r2,0(r8)
    printf("STA!\n"); break;
 80026cc:	01020074 	movhi	r4,2049
 80026d0:	21138804 	addi	r4,r4,20000
 80026d4:	80051d80 	call	80051d8 <puts>
 80026d8:	0001ae06 	br	8002d94 <cpu_exec+0x2ba4>
  case 0x99: // ABSY
    CPU->MEM[ ((CPU->MEM[CPU->PC++] | (CPU->MEM[CPU->PC++] << 8)) + CPU->Y) & 0xFFFF ] = CPU->A;
 80026dc:	d0a6b217 	ldw	r2,-25912(gp)
 80026e0:	11000617 	ldw	r4,24(r2)
 80026e4:	d0a6b217 	ldw	r2,-25912(gp)
 80026e8:	10c00617 	ldw	r3,24(r2)
 80026ec:	d166b217 	ldw	r5,-25912(gp)
 80026f0:	2980000b 	ldhu	r6,0(r5)
 80026f4:	30bfffcc 	andi	r2,r6,65535
 80026f8:	1885883a 	add	r2,r3,r2
 80026fc:	10800003 	ldbu	r2,0(r2)
 8002700:	11c03fcc 	andi	r7,r2,255
 8002704:	d0a6b217 	ldw	r2,-25912(gp)
 8002708:	10c00617 	ldw	r3,24(r2)
 800270c:	d226b217 	ldw	r8,-25912(gp)
 8002710:	4240000b 	ldhu	r9,0(r8)
 8002714:	48bfffcc 	andi	r2,r9,65535
 8002718:	1885883a 	add	r2,r3,r2
 800271c:	10800003 	ldbu	r2,0(r2)
 8002720:	10803fcc 	andi	r2,r2,255
 8002724:	1004923a 	slli	r2,r2,8
 8002728:	3886b03a 	or	r3,r7,r2
 800272c:	d0a6b217 	ldw	r2,-25912(gp)
 8002730:	10800303 	ldbu	r2,12(r2)
 8002734:	10803fcc 	andi	r2,r2,255
 8002738:	1885883a 	add	r2,r3,r2
 800273c:	10bfffcc 	andi	r2,r2,65535
 8002740:	2087883a 	add	r3,r4,r2
 8002744:	d0a6b217 	ldw	r2,-25912(gp)
 8002748:	10800283 	ldbu	r2,10(r2)
 800274c:	18800005 	stb	r2,0(r3)
 8002750:	30800044 	addi	r2,r6,1
 8002754:	2880000d 	sth	r2,0(r5)
 8002758:	48800044 	addi	r2,r9,1
 800275c:	4080000d 	sth	r2,0(r8)
    printf("STA!\n"); break;
 8002760:	01020074 	movhi	r4,2049
 8002764:	21138804 	addi	r4,r4,20000
 8002768:	80051d80 	call	80051d8 <puts>
 800276c:	00018906 	br	8002d94 <cpu_exec+0x2ba4>
  case 0x91: // INDY
    temp_addr = CPU->MEM[ (CPU->MEM[CPU->PC++]) ];
 8002770:	d0a6b217 	ldw	r2,-25912(gp)
 8002774:	11800617 	ldw	r6,24(r2)
 8002778:	d0a6b217 	ldw	r2,-25912(gp)
 800277c:	10c00617 	ldw	r3,24(r2)
 8002780:	d126b217 	ldw	r4,-25912(gp)
 8002784:	2140000b 	ldhu	r5,0(r4)
 8002788:	28bfffcc 	andi	r2,r5,65535
 800278c:	1885883a 	add	r2,r3,r2
 8002790:	10800003 	ldbu	r2,0(r2)
 8002794:	10803fcc 	andi	r2,r2,255
 8002798:	3085883a 	add	r2,r6,r2
 800279c:	10800003 	ldbu	r2,0(r2)
 80027a0:	10803fcc 	andi	r2,r2,255
 80027a4:	e0bffd8d 	sth	r2,-10(fp)
 80027a8:	28800044 	addi	r2,r5,1
 80027ac:	2080000d 	sth	r2,0(r4)
    temp_addr = temp_addr | ((temp_addr+1) << 8);
 80027b0:	e0bffd8b 	ldhu	r2,-10(fp)
 80027b4:	10800044 	addi	r2,r2,1
 80027b8:	1004923a 	slli	r2,r2,8
 80027bc:	1007883a 	mov	r3,r2
 80027c0:	e0bffd8b 	ldhu	r2,-10(fp)
 80027c4:	1884b03a 	or	r2,r3,r2
 80027c8:	e0bffd8d 	sth	r2,-10(fp)
    CPU->MEM[ (temp_addr + CPU->Y) & 0xFFFF ] = CPU->A;
 80027cc:	d0a6b217 	ldw	r2,-25912(gp)
 80027d0:	11000617 	ldw	r4,24(r2)
 80027d4:	e0fffd8b 	ldhu	r3,-10(fp)
 80027d8:	d0a6b217 	ldw	r2,-25912(gp)
 80027dc:	10800303 	ldbu	r2,12(r2)
 80027e0:	10803fcc 	andi	r2,r2,255
 80027e4:	1885883a 	add	r2,r3,r2
 80027e8:	10bfffcc 	andi	r2,r2,65535
 80027ec:	2087883a 	add	r3,r4,r2
 80027f0:	d0a6b217 	ldw	r2,-25912(gp)
 80027f4:	10800283 	ldbu	r2,10(r2)
 80027f8:	18800005 	stb	r2,0(r3)
    printf("STA!\n"); break;
 80027fc:	01020074 	movhi	r4,2049
 8002800:	21138804 	addi	r4,r4,20000
 8002804:	80051d80 	call	80051d8 <puts>
 8002808:	00016206 	br	8002d94 <cpu_exec+0x2ba4>
  case 0x81: // XIND
    temp_addr = CPU->MEM[ (CPU->MEM[CPU->PC++] + CPU->X) & 0xFF ];
 800280c:	d0a6b217 	ldw	r2,-25912(gp)
 8002810:	11000617 	ldw	r4,24(r2)
 8002814:	d0a6b217 	ldw	r2,-25912(gp)
 8002818:	10c00617 	ldw	r3,24(r2)
 800281c:	d166b217 	ldw	r5,-25912(gp)
 8002820:	2980000b 	ldhu	r6,0(r5)
 8002824:	30bfffcc 	andi	r2,r6,65535
 8002828:	1885883a 	add	r2,r3,r2
 800282c:	10800003 	ldbu	r2,0(r2)
 8002830:	10c03fcc 	andi	r3,r2,255
 8002834:	d0a6b217 	ldw	r2,-25912(gp)
 8002838:	108002c3 	ldbu	r2,11(r2)
 800283c:	10803fcc 	andi	r2,r2,255
 8002840:	1885883a 	add	r2,r3,r2
 8002844:	10803fcc 	andi	r2,r2,255
 8002848:	2085883a 	add	r2,r4,r2
 800284c:	10800003 	ldbu	r2,0(r2)
 8002850:	10803fcc 	andi	r2,r2,255
 8002854:	e0bffd8d 	sth	r2,-10(fp)
 8002858:	30800044 	addi	r2,r6,1
 800285c:	2880000d 	sth	r2,0(r5)
    temp_addr = temp_addr | ((temp_addr+1) << 8);
 8002860:	e0bffd8b 	ldhu	r2,-10(fp)
 8002864:	10800044 	addi	r2,r2,1
 8002868:	1004923a 	slli	r2,r2,8
 800286c:	1007883a 	mov	r3,r2
 8002870:	e0bffd8b 	ldhu	r2,-10(fp)
 8002874:	1884b03a 	or	r2,r3,r2
 8002878:	e0bffd8d 	sth	r2,-10(fp)
    CPU->MEM[ temp_addr ] = CPU->A;
 800287c:	d0a6b217 	ldw	r2,-25912(gp)
 8002880:	10c00617 	ldw	r3,24(r2)
 8002884:	e0bffd8b 	ldhu	r2,-10(fp)
 8002888:	1887883a 	add	r3,r3,r2
 800288c:	d0a6b217 	ldw	r2,-25912(gp)
 8002890:	10800283 	ldbu	r2,10(r2)
 8002894:	18800005 	stb	r2,0(r3)
    printf("STA!\n"); break;
 8002898:	01020074 	movhi	r4,2049
 800289c:	21138804 	addi	r4,r4,20000
 80028a0:	80051d80 	call	80051d8 <puts>
 80028a4:	00013b06 	br	8002d94 <cpu_exec+0x2ba4>
  case 0x85: // ZP
    CPU->MEM[ (CPU->MEM[CPU->PC++]) ] = CPU->A;
 80028a8:	d0a6b217 	ldw	r2,-25912(gp)
 80028ac:	11800617 	ldw	r6,24(r2)
 80028b0:	d0a6b217 	ldw	r2,-25912(gp)
 80028b4:	10c00617 	ldw	r3,24(r2)
 80028b8:	d126b217 	ldw	r4,-25912(gp)
 80028bc:	2140000b 	ldhu	r5,0(r4)
 80028c0:	28bfffcc 	andi	r2,r5,65535
 80028c4:	1885883a 	add	r2,r3,r2
 80028c8:	10800003 	ldbu	r2,0(r2)
 80028cc:	10803fcc 	andi	r2,r2,255
 80028d0:	3087883a 	add	r3,r6,r2
 80028d4:	d0a6b217 	ldw	r2,-25912(gp)
 80028d8:	10800283 	ldbu	r2,10(r2)
 80028dc:	18800005 	stb	r2,0(r3)
 80028e0:	28800044 	addi	r2,r5,1
 80028e4:	2080000d 	sth	r2,0(r4)
    printf("STA!\n"); break;
 80028e8:	01020074 	movhi	r4,2049
 80028ec:	21138804 	addi	r4,r4,20000
 80028f0:	80051d80 	call	80051d8 <puts>
 80028f4:	00012706 	br	8002d94 <cpu_exec+0x2ba4>
  case 0x95: // ZPX
    CPU->MEM[ (CPU->MEM[CPU->PC++] + CPU->X) & 0xFF ] = CPU->A;
 80028f8:	d0a6b217 	ldw	r2,-25912(gp)
 80028fc:	11000617 	ldw	r4,24(r2)
 8002900:	d0a6b217 	ldw	r2,-25912(gp)
 8002904:	10c00617 	ldw	r3,24(r2)
 8002908:	d166b217 	ldw	r5,-25912(gp)
 800290c:	2980000b 	ldhu	r6,0(r5)
 8002910:	30bfffcc 	andi	r2,r6,65535
 8002914:	1885883a 	add	r2,r3,r2
 8002918:	10800003 	ldbu	r2,0(r2)
 800291c:	10c03fcc 	andi	r3,r2,255
 8002920:	d0a6b217 	ldw	r2,-25912(gp)
 8002924:	108002c3 	ldbu	r2,11(r2)
 8002928:	10803fcc 	andi	r2,r2,255
 800292c:	1885883a 	add	r2,r3,r2
 8002930:	10803fcc 	andi	r2,r2,255
 8002934:	2087883a 	add	r3,r4,r2
 8002938:	d0a6b217 	ldw	r2,-25912(gp)
 800293c:	10800283 	ldbu	r2,10(r2)
 8002940:	18800005 	stb	r2,0(r3)
 8002944:	30800044 	addi	r2,r6,1
 8002948:	2880000d 	sth	r2,0(r5)
    printf("STA!\n"); break;
 800294c:	01020074 	movhi	r4,2049
 8002950:	21138804 	addi	r4,r4,20000
 8002954:	80051d80 	call	80051d8 <puts>
 8002958:	00010e06 	br	8002d94 <cpu_exec+0x2ba4>

    // ############################### STX ###########################
  case 0x8E: // ABS
    CPU->MEM[ (CPU->MEM[CPU->PC++] | (CPU->MEM[CPU->PC++] << 8)) ] = CPU->X;
 800295c:	d0a6b217 	ldw	r2,-25912(gp)
 8002960:	11000617 	ldw	r4,24(r2)
 8002964:	d0a6b217 	ldw	r2,-25912(gp)
 8002968:	10c00617 	ldw	r3,24(r2)
 800296c:	d166b217 	ldw	r5,-25912(gp)
 8002970:	2980000b 	ldhu	r6,0(r5)
 8002974:	30bfffcc 	andi	r2,r6,65535
 8002978:	1885883a 	add	r2,r3,r2
 800297c:	10800003 	ldbu	r2,0(r2)
 8002980:	11c03fcc 	andi	r7,r2,255
 8002984:	d0a6b217 	ldw	r2,-25912(gp)
 8002988:	10c00617 	ldw	r3,24(r2)
 800298c:	d226b217 	ldw	r8,-25912(gp)
 8002990:	4240000b 	ldhu	r9,0(r8)
 8002994:	48bfffcc 	andi	r2,r9,65535
 8002998:	1885883a 	add	r2,r3,r2
 800299c:	10800003 	ldbu	r2,0(r2)
 80029a0:	10803fcc 	andi	r2,r2,255
 80029a4:	1004923a 	slli	r2,r2,8
 80029a8:	3884b03a 	or	r2,r7,r2
 80029ac:	2087883a 	add	r3,r4,r2
 80029b0:	d0a6b217 	ldw	r2,-25912(gp)
 80029b4:	108002c3 	ldbu	r2,11(r2)
 80029b8:	18800005 	stb	r2,0(r3)
 80029bc:	30800044 	addi	r2,r6,1
 80029c0:	2880000d 	sth	r2,0(r5)
 80029c4:	48800044 	addi	r2,r9,1
 80029c8:	4080000d 	sth	r2,0(r8)
    printf("STX!\n"); break;
 80029cc:	01020074 	movhi	r4,2049
 80029d0:	21138a04 	addi	r4,r4,20008
 80029d4:	80051d80 	call	80051d8 <puts>
 80029d8:	0000ee06 	br	8002d94 <cpu_exec+0x2ba4>
  case 0x86: // ZP
    CPU->MEM[ (CPU->MEM[CPU->PC++]) ] = CPU->X;
 80029dc:	d0a6b217 	ldw	r2,-25912(gp)
 80029e0:	11800617 	ldw	r6,24(r2)
 80029e4:	d0a6b217 	ldw	r2,-25912(gp)
 80029e8:	10c00617 	ldw	r3,24(r2)
 80029ec:	d126b217 	ldw	r4,-25912(gp)
 80029f0:	2140000b 	ldhu	r5,0(r4)
 80029f4:	28bfffcc 	andi	r2,r5,65535
 80029f8:	1885883a 	add	r2,r3,r2
 80029fc:	10800003 	ldbu	r2,0(r2)
 8002a00:	10803fcc 	andi	r2,r2,255
 8002a04:	3087883a 	add	r3,r6,r2
 8002a08:	d0a6b217 	ldw	r2,-25912(gp)
 8002a0c:	108002c3 	ldbu	r2,11(r2)
 8002a10:	18800005 	stb	r2,0(r3)
 8002a14:	28800044 	addi	r2,r5,1
 8002a18:	2080000d 	sth	r2,0(r4)
    printf("STX!\n"); break;
 8002a1c:	01020074 	movhi	r4,2049
 8002a20:	21138a04 	addi	r4,r4,20008
 8002a24:	80051d80 	call	80051d8 <puts>
 8002a28:	0000da06 	br	8002d94 <cpu_exec+0x2ba4>
  case 0x96: // ZPY
    CPU->MEM[ (CPU->MEM[CPU->PC++] + CPU->Y) & 0xFF ] = CPU->X;
 8002a2c:	d0a6b217 	ldw	r2,-25912(gp)
 8002a30:	11000617 	ldw	r4,24(r2)
 8002a34:	d0a6b217 	ldw	r2,-25912(gp)
 8002a38:	10c00617 	ldw	r3,24(r2)
 8002a3c:	d166b217 	ldw	r5,-25912(gp)
 8002a40:	2980000b 	ldhu	r6,0(r5)
 8002a44:	30bfffcc 	andi	r2,r6,65535
 8002a48:	1885883a 	add	r2,r3,r2
 8002a4c:	10800003 	ldbu	r2,0(r2)
 8002a50:	10c03fcc 	andi	r3,r2,255
 8002a54:	d0a6b217 	ldw	r2,-25912(gp)
 8002a58:	10800303 	ldbu	r2,12(r2)
 8002a5c:	10803fcc 	andi	r2,r2,255
 8002a60:	1885883a 	add	r2,r3,r2
 8002a64:	10803fcc 	andi	r2,r2,255
 8002a68:	2087883a 	add	r3,r4,r2
 8002a6c:	d0a6b217 	ldw	r2,-25912(gp)
 8002a70:	108002c3 	ldbu	r2,11(r2)
 8002a74:	18800005 	stb	r2,0(r3)
 8002a78:	30800044 	addi	r2,r6,1
 8002a7c:	2880000d 	sth	r2,0(r5)
    printf("STX!\n"); break;
 8002a80:	01020074 	movhi	r4,2049
 8002a84:	21138a04 	addi	r4,r4,20008
 8002a88:	80051d80 	call	80051d8 <puts>
 8002a8c:	0000c106 	br	8002d94 <cpu_exec+0x2ba4>

    // ############################ STY ################################
  case 0x8C: // ABS
    CPU->MEM[ (CPU->MEM[CPU->PC++] | (CPU->MEM[CPU->PC++] << 8)) ] = CPU->Y;
 8002a90:	d0a6b217 	ldw	r2,-25912(gp)
 8002a94:	11000617 	ldw	r4,24(r2)
 8002a98:	d0a6b217 	ldw	r2,-25912(gp)
 8002a9c:	10c00617 	ldw	r3,24(r2)
 8002aa0:	d166b217 	ldw	r5,-25912(gp)
 8002aa4:	2980000b 	ldhu	r6,0(r5)
 8002aa8:	30bfffcc 	andi	r2,r6,65535
 8002aac:	1885883a 	add	r2,r3,r2
 8002ab0:	10800003 	ldbu	r2,0(r2)
 8002ab4:	11c03fcc 	andi	r7,r2,255
 8002ab8:	d0a6b217 	ldw	r2,-25912(gp)
 8002abc:	10c00617 	ldw	r3,24(r2)
 8002ac0:	d226b217 	ldw	r8,-25912(gp)
 8002ac4:	4240000b 	ldhu	r9,0(r8)
 8002ac8:	48bfffcc 	andi	r2,r9,65535
 8002acc:	1885883a 	add	r2,r3,r2
 8002ad0:	10800003 	ldbu	r2,0(r2)
 8002ad4:	10803fcc 	andi	r2,r2,255
 8002ad8:	1004923a 	slli	r2,r2,8
 8002adc:	3884b03a 	or	r2,r7,r2
 8002ae0:	2087883a 	add	r3,r4,r2
 8002ae4:	d0a6b217 	ldw	r2,-25912(gp)
 8002ae8:	10800303 	ldbu	r2,12(r2)
 8002aec:	18800005 	stb	r2,0(r3)
 8002af0:	30800044 	addi	r2,r6,1
 8002af4:	2880000d 	sth	r2,0(r5)
 8002af8:	48800044 	addi	r2,r9,1
 8002afc:	4080000d 	sth	r2,0(r8)
    printf("STY!\n"); break;
 8002b00:	01020074 	movhi	r4,2049
 8002b04:	21138c04 	addi	r4,r4,20016
 8002b08:	80051d80 	call	80051d8 <puts>
 8002b0c:	0000a106 	br	8002d94 <cpu_exec+0x2ba4>
  case 0x84: // ZP
    CPU->MEM[ (CPU->MEM[CPU->PC++]) ] = CPU->Y;
 8002b10:	d0a6b217 	ldw	r2,-25912(gp)
 8002b14:	11800617 	ldw	r6,24(r2)
 8002b18:	d0a6b217 	ldw	r2,-25912(gp)
 8002b1c:	10c00617 	ldw	r3,24(r2)
 8002b20:	d126b217 	ldw	r4,-25912(gp)
 8002b24:	2140000b 	ldhu	r5,0(r4)
 8002b28:	28bfffcc 	andi	r2,r5,65535
 8002b2c:	1885883a 	add	r2,r3,r2
 8002b30:	10800003 	ldbu	r2,0(r2)
 8002b34:	10803fcc 	andi	r2,r2,255
 8002b38:	3087883a 	add	r3,r6,r2
 8002b3c:	d0a6b217 	ldw	r2,-25912(gp)
 8002b40:	10800303 	ldbu	r2,12(r2)
 8002b44:	18800005 	stb	r2,0(r3)
 8002b48:	28800044 	addi	r2,r5,1
 8002b4c:	2080000d 	sth	r2,0(r4)
    printf("STY!\n"); break;
 8002b50:	01020074 	movhi	r4,2049
 8002b54:	21138c04 	addi	r4,r4,20016
 8002b58:	80051d80 	call	80051d8 <puts>
 8002b5c:	00008d06 	br	8002d94 <cpu_exec+0x2ba4>
  case 0x94: // ZPY
    CPU->MEM[ (CPU->MEM[CPU->PC++] + CPU->Y) & 0xFF ] = CPU->Y;
 8002b60:	d0a6b217 	ldw	r2,-25912(gp)
 8002b64:	11000617 	ldw	r4,24(r2)
 8002b68:	d0a6b217 	ldw	r2,-25912(gp)
 8002b6c:	10c00617 	ldw	r3,24(r2)
 8002b70:	d166b217 	ldw	r5,-25912(gp)
 8002b74:	2980000b 	ldhu	r6,0(r5)
 8002b78:	30bfffcc 	andi	r2,r6,65535
 8002b7c:	1885883a 	add	r2,r3,r2
 8002b80:	10800003 	ldbu	r2,0(r2)
 8002b84:	10c03fcc 	andi	r3,r2,255
 8002b88:	d0a6b217 	ldw	r2,-25912(gp)
 8002b8c:	10800303 	ldbu	r2,12(r2)
 8002b90:	10803fcc 	andi	r2,r2,255
 8002b94:	1885883a 	add	r2,r3,r2
 8002b98:	10803fcc 	andi	r2,r2,255
 8002b9c:	2087883a 	add	r3,r4,r2
 8002ba0:	d0a6b217 	ldw	r2,-25912(gp)
 8002ba4:	10800303 	ldbu	r2,12(r2)
 8002ba8:	18800005 	stb	r2,0(r3)
 8002bac:	30800044 	addi	r2,r6,1
 8002bb0:	2880000d 	sth	r2,0(r5)
    printf("STY!\n"); break;
 8002bb4:	01020074 	movhi	r4,2049
 8002bb8:	21138c04 	addi	r4,r4,20016
 8002bbc:	80051d80 	call	80051d8 <puts>
 8002bc0:	00007406 	br	8002d94 <cpu_exec+0x2ba4>

    // ########################## TAX #################################
  case 0xAA: // IMP
    CPU->X = CPU->A;
 8002bc4:	d0e6b217 	ldw	r3,-25912(gp)
 8002bc8:	d0a6b217 	ldw	r2,-25912(gp)
 8002bcc:	10800283 	ldbu	r2,10(r2)
 8002bd0:	188002c5 	stb	r2,11(r3)
    CPU->P.N = ((CPU->X & 0x80) > 0) ? 1 : 0;
 8002bd4:	d0e6b217 	ldw	r3,-25912(gp)
 8002bd8:	d0a6b217 	ldw	r2,-25912(gp)
 8002bdc:	108002c3 	ldbu	r2,11(r2)
 8002be0:	10803fcc 	andi	r2,r2,255
 8002be4:	1080200c 	andi	r2,r2,128
 8002be8:	10800048 	cmpgei	r2,r2,1
 8002bec:	18800245 	stb	r2,9(r3)
    CPU->P.Z = (CPU->X == 0) ? 1 : 0;
 8002bf0:	d0e6b217 	ldw	r3,-25912(gp)
 8002bf4:	d0a6b217 	ldw	r2,-25912(gp)
 8002bf8:	108002c3 	ldbu	r2,11(r2)
 8002bfc:	10803fcc 	andi	r2,r2,255
 8002c00:	1005003a 	cmpeq	r2,r2,zero
 8002c04:	18800105 	stb	r2,4(r3)
    printf("TAX!\n"); break;
 8002c08:	01020074 	movhi	r4,2049
 8002c0c:	21138e04 	addi	r4,r4,20024
 8002c10:	80051d80 	call	80051d8 <puts>
 8002c14:	00005f06 	br	8002d94 <cpu_exec+0x2ba4>

    // ########################### TAY ################################
  case 0xA8: // IMP
    CPU->Y = CPU->A;
 8002c18:	d0e6b217 	ldw	r3,-25912(gp)
 8002c1c:	d0a6b217 	ldw	r2,-25912(gp)
 8002c20:	10800283 	ldbu	r2,10(r2)
 8002c24:	18800305 	stb	r2,12(r3)
    CPU->P.N = ((CPU->Y & 0x80) > 0) ? 1 : 0;
 8002c28:	d0e6b217 	ldw	r3,-25912(gp)
 8002c2c:	d0a6b217 	ldw	r2,-25912(gp)
 8002c30:	10800303 	ldbu	r2,12(r2)
 8002c34:	10803fcc 	andi	r2,r2,255
 8002c38:	1080200c 	andi	r2,r2,128
 8002c3c:	10800048 	cmpgei	r2,r2,1
 8002c40:	18800245 	stb	r2,9(r3)
    CPU->P.Z = (CPU->Y == 0) ? 1 : 0;
 8002c44:	d0e6b217 	ldw	r3,-25912(gp)
 8002c48:	d0a6b217 	ldw	r2,-25912(gp)
 8002c4c:	10800303 	ldbu	r2,12(r2)
 8002c50:	10803fcc 	andi	r2,r2,255
 8002c54:	1005003a 	cmpeq	r2,r2,zero
 8002c58:	18800105 	stb	r2,4(r3)
    printf("TAY!\n"); break;
 8002c5c:	01020074 	movhi	r4,2049
 8002c60:	21139004 	addi	r4,r4,20032
 8002c64:	80051d80 	call	80051d8 <puts>
 8002c68:	00004a06 	br	8002d94 <cpu_exec+0x2ba4>


    // ############################# TSX ##############################
  case 0xBA:
    CPU->X = CPU->S;
 8002c6c:	d0e6b217 	ldw	r3,-25912(gp)
 8002c70:	d0a6b217 	ldw	r2,-25912(gp)
 8002c74:	10800083 	ldbu	r2,2(r2)
 8002c78:	188002c5 	stb	r2,11(r3)
    CPU->P.N = ((CPU->X & 0x80) > 0) ? 1 : 0;
 8002c7c:	d0e6b217 	ldw	r3,-25912(gp)
 8002c80:	d0a6b217 	ldw	r2,-25912(gp)
 8002c84:	108002c3 	ldbu	r2,11(r2)
 8002c88:	10803fcc 	andi	r2,r2,255
 8002c8c:	1080200c 	andi	r2,r2,128
 8002c90:	10800048 	cmpgei	r2,r2,1
 8002c94:	18800245 	stb	r2,9(r3)
    CPU->P.Z = (CPU->X == 0) ? 1 : 0;
 8002c98:	d0e6b217 	ldw	r3,-25912(gp)
 8002c9c:	d0a6b217 	ldw	r2,-25912(gp)
 8002ca0:	108002c3 	ldbu	r2,11(r2)
 8002ca4:	10803fcc 	andi	r2,r2,255
 8002ca8:	1005003a 	cmpeq	r2,r2,zero
 8002cac:	18800105 	stb	r2,4(r3)
    printf("TSX!\n"); break;
 8002cb0:	01020074 	movhi	r4,2049
 8002cb4:	21139204 	addi	r4,r4,20040
 8002cb8:	80051d80 	call	80051d8 <puts>
 8002cbc:	00003506 	br	8002d94 <cpu_exec+0x2ba4>

    // ########################## TXA ################################
  case 0x8A:
    CPU->A = CPU->X;
 8002cc0:	d0e6b217 	ldw	r3,-25912(gp)
 8002cc4:	d0a6b217 	ldw	r2,-25912(gp)
 8002cc8:	108002c3 	ldbu	r2,11(r2)
 8002ccc:	18800285 	stb	r2,10(r3)
    CPU->P.N = ((CPU->A & 0x80) > 0) ? 1 : 0;
 8002cd0:	d0e6b217 	ldw	r3,-25912(gp)
 8002cd4:	d0a6b217 	ldw	r2,-25912(gp)
 8002cd8:	10800283 	ldbu	r2,10(r2)
 8002cdc:	10803fcc 	andi	r2,r2,255
 8002ce0:	1080200c 	andi	r2,r2,128
 8002ce4:	10800048 	cmpgei	r2,r2,1
 8002ce8:	18800245 	stb	r2,9(r3)
    CPU->P.Z = (CPU->A == 0) ? 1 : 0;
 8002cec:	d0e6b217 	ldw	r3,-25912(gp)
 8002cf0:	d0a6b217 	ldw	r2,-25912(gp)
 8002cf4:	10800283 	ldbu	r2,10(r2)
 8002cf8:	10803fcc 	andi	r2,r2,255
 8002cfc:	1005003a 	cmpeq	r2,r2,zero
 8002d00:	18800105 	stb	r2,4(r3)
    printf("TXA!\n"); break;
 8002d04:	01020074 	movhi	r4,2049
 8002d08:	21139404 	addi	r4,r4,20048
 8002d0c:	80051d80 	call	80051d8 <puts>
 8002d10:	00002006 	br	8002d94 <cpu_exec+0x2ba4>

    // ############################# TXS ################################
  case 0x9A:
    CPU->S = CPU->X;
 8002d14:	d0a6b217 	ldw	r2,-25912(gp)
 8002d18:	d0e6b217 	ldw	r3,-25912(gp)
 8002d1c:	18c002c3 	ldbu	r3,11(r3)
 8002d20:	10c00085 	stb	r3,2(r2)
    printf("TXS!\n");
 8002d24:	01020074 	movhi	r4,2049
 8002d28:	21139604 	addi	r4,r4,20056
 8002d2c:	80051d80 	call	80051d8 <puts>
    break;
 8002d30:	00001806 	br	8002d94 <cpu_exec+0x2ba4>

    // ############################### TYA ##############################
  case 0x98:
    /* Transfer Y register to Accumulator. Fixed opcode bug. */
    CPU->A = CPU->Y;
 8002d34:	d0e6b217 	ldw	r3,-25912(gp)
 8002d38:	d0a6b217 	ldw	r2,-25912(gp)
 8002d3c:	10800303 	ldbu	r2,12(r2)
 8002d40:	18800285 	stb	r2,10(r3)
    CPU->P.N = ((CPU->A & 0x80) > 0) ? 1 : 0;
 8002d44:	d0e6b217 	ldw	r3,-25912(gp)
 8002d48:	d0a6b217 	ldw	r2,-25912(gp)
 8002d4c:	10800283 	ldbu	r2,10(r2)
 8002d50:	10803fcc 	andi	r2,r2,255
 8002d54:	1080200c 	andi	r2,r2,128
 8002d58:	10800048 	cmpgei	r2,r2,1
 8002d5c:	18800245 	stb	r2,9(r3)
    CPU->P.Z = (CPU->A == 0) ? 1 : 0;
 8002d60:	d0e6b217 	ldw	r3,-25912(gp)
 8002d64:	d0a6b217 	ldw	r2,-25912(gp)
 8002d68:	10800283 	ldbu	r2,10(r2)
 8002d6c:	10803fcc 	andi	r2,r2,255
 8002d70:	1005003a 	cmpeq	r2,r2,zero
 8002d74:	18800105 	stb	r2,4(r3)
    printf("TYA!\n");
 8002d78:	01020074 	movhi	r4,2049
 8002d7c:	21139804 	addi	r4,r4,20064
 8002d80:	80051d80 	call	80051d8 <puts>
    break;
 8002d84:	00000306 	br	8002d94 <cpu_exec+0x2ba4>


  default:
    printf("Invalid opcode!\n");
 8002d88:	01020074 	movhi	r4,2049
 8002d8c:	21139a04 	addi	r4,r4,20072
 8002d90:	80051d80 	call	80051d8 <puts>
    break;
  }

  return;
}
 8002d94:	e037883a 	mov	sp,fp
 8002d98:	dfc00317 	ldw	ra,12(sp)
 8002d9c:	df000217 	ldw	fp,8(sp)
 8002da0:	dc400117 	ldw	r17,4(sp)
 8002da4:	dc000017 	ldw	r16,0(sp)
 8002da8:	dec00404 	addi	sp,sp,16
 8002dac:	f800283a 	ret

08002db0 <cpu_reset>:

  return;
}*/

inline void cpu_reset()
{
 8002db0:	defffe04 	addi	sp,sp,-8
 8002db4:	df000115 	stw	fp,4(sp)
 8002db8:	df000104 	addi	fp,sp,4
	// Initialize CPU Memory
	int i;
	for(i = 0; i < 0xFFFF+1; ++i)
 8002dbc:	e03fff15 	stw	zero,-4(fp)
 8002dc0:	00000806 	br	8002de4 <cpu_reset+0x34>
		CPU->MEM[i] = 0;
 8002dc4:	d0a6b217 	ldw	r2,-25912(gp)
 8002dc8:	10c00617 	ldw	r3,24(r2)
 8002dcc:	e0bfff17 	ldw	r2,-4(fp)
 8002dd0:	1885883a 	add	r2,r3,r2
 8002dd4:	10000005 	stb	zero,0(r2)

inline void cpu_reset()
{
	// Initialize CPU Memory
	int i;
	for(i = 0; i < 0xFFFF+1; ++i)
 8002dd8:	e0bfff17 	ldw	r2,-4(fp)
 8002ddc:	10800044 	addi	r2,r2,1
 8002de0:	e0bfff15 	stw	r2,-4(fp)
 8002de4:	e0ffff17 	ldw	r3,-4(fp)
 8002de8:	00bfffd4 	movui	r2,65535
 8002dec:	10fff50e 	bge	r2,r3,8002dc4 <cpu_reset+0x14>
		CPU->MEM[i] = 0;

	CPU->S = 0xFD;
 8002df0:	d0e6b217 	ldw	r3,-25912(gp)
 8002df4:	00bfff44 	movi	r2,-3
 8002df8:	18800085 	stb	r2,2(r3)
	CPU->P.N = 0x00;
 8002dfc:	d0a6b217 	ldw	r2,-25912(gp)
 8002e00:	10000245 	stb	zero,9(r2)
	CPU->P.V = 0x00;
 8002e04:	d0a6b217 	ldw	r2,-25912(gp)
 8002e08:	10000205 	stb	zero,8(r2)
	CPU->P.B = 0x00;
 8002e0c:	d0a6b217 	ldw	r2,-25912(gp)
 8002e10:	100001c5 	stb	zero,7(r2)
	CPU->P.D = 0x00;
 8002e14:	d0a6b217 	ldw	r2,-25912(gp)
 8002e18:	10000185 	stb	zero,6(r2)
	CPU->P.I = 0x01;
 8002e1c:	d0e6b217 	ldw	r3,-25912(gp)
 8002e20:	00800044 	movi	r2,1
 8002e24:	18800145 	stb	r2,5(r3)
	CPU->P.C = 0x00;
 8002e28:	d0a6b217 	ldw	r2,-25912(gp)
 8002e2c:	100000c5 	stb	zero,3(r2)
	CPU->P.Z = 0x00;
 8002e30:	d0a6b217 	ldw	r2,-25912(gp)
 8002e34:	10000105 	stb	zero,4(r2)
	CPU->PC = CPU->MEM[ RESL ] | (CPU->MEM[ RESH ] << 8); // RESET vector
 8002e38:	d166b217 	ldw	r5,-25912(gp)
 8002e3c:	d0a6b217 	ldw	r2,-25912(gp)
 8002e40:	10c00617 	ldw	r3,24(r2)
 8002e44:	00bfff14 	movui	r2,65532
 8002e48:	1885883a 	add	r2,r3,r2
 8002e4c:	10800003 	ldbu	r2,0(r2)
 8002e50:	11003fcc 	andi	r4,r2,255
 8002e54:	d0a6b217 	ldw	r2,-25912(gp)
 8002e58:	10c00617 	ldw	r3,24(r2)
 8002e5c:	00bfff54 	movui	r2,65533
 8002e60:	1885883a 	add	r2,r3,r2
 8002e64:	10800003 	ldbu	r2,0(r2)
 8002e68:	10803fcc 	andi	r2,r2,255
 8002e6c:	1004923a 	slli	r2,r2,8
 8002e70:	2084b03a 	or	r2,r4,r2
 8002e74:	2880000d 	sth	r2,0(r5)
	CPU->A = 0x00;
 8002e78:	d0a6b217 	ldw	r2,-25912(gp)
 8002e7c:	10000285 	stb	zero,10(r2)
	CPU->X = 0x00;
 8002e80:	d0a6b217 	ldw	r2,-25912(gp)
 8002e84:	100002c5 	stb	zero,11(r2)
	CPU->Y = 0x00;
 8002e88:	d0a6b217 	ldw	r2,-25912(gp)
 8002e8c:	10000305 	stb	zero,12(r2)
	CPU->AB = 0x0000;
 8002e90:	d0a6b217 	ldw	r2,-25912(gp)
 8002e94:	1000038d 	sth	zero,14(r2)
	CPU->DB = 0x00;
 8002e98:	d0a6b217 	ldw	r2,-25912(gp)
 8002e9c:	10000405 	stb	zero,16(r2)
	CPU->IR = 0x00;
 8002ea0:	d0a6b217 	ldw	r2,-25912(gp)
 8002ea4:	10000445 	stb	zero,17(r2)
	CPU->RES = 0;
 8002ea8:	d0a6b217 	ldw	r2,-25912(gp)
 8002eac:	100004c5 	stb	zero,19(r2)
	CPU->NMI = 0;
 8002eb0:	d0a6b217 	ldw	r2,-25912(gp)
 8002eb4:	10000485 	stb	zero,18(r2)
	CPU->IRQ = 0;
 8002eb8:	d0a6b217 	ldw	r2,-25912(gp)
 8002ebc:	10000505 	stb	zero,20(r2)
	//CPU->T = 0x00;

  return;
}
 8002ec0:	e037883a 	mov	sp,fp
 8002ec4:	df000017 	ldw	fp,0(sp)
 8002ec8:	dec00104 	addi	sp,sp,4
 8002ecc:	f800283a 	ret

08002ed0 <cpu_init>:

inline void cpu_init()
{
 8002ed0:	defffd04 	addi	sp,sp,-12
 8002ed4:	dfc00215 	stw	ra,8(sp)
 8002ed8:	df000115 	stw	fp,4(sp)
 8002edc:	dc000015 	stw	r16,0(sp)
 8002ee0:	d839883a 	mov	fp,sp
  CPU = (NMOS6502*) malloc(sizeof(NMOS6502));
 8002ee4:	01000704 	movi	r4,28
 8002ee8:	80047500 	call	8004750 <malloc>
 8002eec:	d0a6b215 	stw	r2,-25912(gp)
  CPU->MEM = (byte*) malloc(sizeof(byte)*64*1024); // Allocate memory
 8002ef0:	d426b217 	ldw	r16,-25912(gp)
 8002ef4:	01000074 	movhi	r4,1
 8002ef8:	80047500 	call	8004750 <malloc>
 8002efc:	80800615 	stw	r2,24(r16)
  CPU->RES = 1;
 8002f00:	d0e6b217 	ldw	r3,-25912(gp)
 8002f04:	00800044 	movi	r2,1
 8002f08:	188004c5 	stb	r2,19(r3)
  return;
}
 8002f0c:	e037883a 	mov	sp,fp
 8002f10:	dfc00217 	ldw	ra,8(sp)
 8002f14:	df000117 	ldw	fp,4(sp)
 8002f18:	dc000017 	ldw	r16,0(sp)
 8002f1c:	dec00304 	addi	sp,sp,12
 8002f20:	f800283a 	ret

08002f24 <cpu_status>:

inline void cpu_status()
{
 8002f24:	defff404 	addi	sp,sp,-48
 8002f28:	dfc00b15 	stw	ra,44(sp)
 8002f2c:	df000a15 	stw	fp,40(sp)
 8002f30:	df000a04 	addi	fp,sp,40
  printf("A: %x X: %x Y: %x P: %x%x1%x %x%x%x%x SP: %x PC: %x IR: %x ",
 8002f34:	d0a6b217 	ldw	r2,-25912(gp)
 8002f38:	10800283 	ldbu	r2,10(r2)
 8002f3c:	11403fcc 	andi	r5,r2,255
 8002f40:	d0a6b217 	ldw	r2,-25912(gp)
 8002f44:	108002c3 	ldbu	r2,11(r2)
 8002f48:	11803fcc 	andi	r6,r2,255
 8002f4c:	d0a6b217 	ldw	r2,-25912(gp)
 8002f50:	10800303 	ldbu	r2,12(r2)
 8002f54:	11c03fcc 	andi	r7,r2,255
 8002f58:	d0a6b217 	ldw	r2,-25912(gp)
 8002f5c:	10800243 	ldbu	r2,9(r2)
 8002f60:	10c03fcc 	andi	r3,r2,255
 8002f64:	d0a6b217 	ldw	r2,-25912(gp)
 8002f68:	10800203 	ldbu	r2,8(r2)
 8002f6c:	11003fcc 	andi	r4,r2,255
 8002f70:	d0a6b217 	ldw	r2,-25912(gp)
 8002f74:	108001c3 	ldbu	r2,7(r2)
 8002f78:	12003fcc 	andi	r8,r2,255
 8002f7c:	d0a6b217 	ldw	r2,-25912(gp)
 8002f80:	10800183 	ldbu	r2,6(r2)
 8002f84:	12403fcc 	andi	r9,r2,255
 8002f88:	d0a6b217 	ldw	r2,-25912(gp)
 8002f8c:	10800143 	ldbu	r2,5(r2)
 8002f90:	12803fcc 	andi	r10,r2,255
 8002f94:	d0a6b217 	ldw	r2,-25912(gp)
 8002f98:	10800103 	ldbu	r2,4(r2)
 8002f9c:	12c03fcc 	andi	r11,r2,255
 8002fa0:	d0a6b217 	ldw	r2,-25912(gp)
 8002fa4:	108000c3 	ldbu	r2,3(r2)
 8002fa8:	13003fcc 	andi	r12,r2,255
 8002fac:	d0a6b217 	ldw	r2,-25912(gp)
 8002fb0:	10800083 	ldbu	r2,2(r2)
 8002fb4:	13403fcc 	andi	r13,r2,255
 8002fb8:	d0a6b217 	ldw	r2,-25912(gp)
 8002fbc:	1080000b 	ldhu	r2,0(r2)
 8002fc0:	13bfffcc 	andi	r14,r2,65535
 8002fc4:	d0a6b217 	ldw	r2,-25912(gp)
 8002fc8:	10800443 	ldbu	r2,17(r2)
 8002fcc:	10803fcc 	andi	r2,r2,255
 8002fd0:	d8c00015 	stw	r3,0(sp)
 8002fd4:	d9000115 	stw	r4,4(sp)
 8002fd8:	da000215 	stw	r8,8(sp)
 8002fdc:	da400315 	stw	r9,12(sp)
 8002fe0:	da800415 	stw	r10,16(sp)
 8002fe4:	dac00515 	stw	r11,20(sp)
 8002fe8:	db000615 	stw	r12,24(sp)
 8002fec:	db400715 	stw	r13,28(sp)
 8002ff0:	db800815 	stw	r14,32(sp)
 8002ff4:	d8800915 	stw	r2,36(sp)
 8002ff8:	01020074 	movhi	r4,2049
 8002ffc:	21139e04 	addi	r4,r4,20088
 8003000:	80050c00 	call	80050c0 <printf>
	 CPU->A, CPU->X, CPU->Y, CPU->P.N, CPU->P.V, CPU->P.B, CPU->P.D, CPU->P.I,
	 CPU->P.Z, CPU->P.C, CPU->S, CPU->PC, CPU->IR);

  return;
}
 8003004:	e037883a 	mov	sp,fp
 8003008:	dfc00117 	ldw	ra,4(sp)
 800300c:	df000017 	ldw	fp,0(sp)
 8003010:	dec00204 	addi	sp,sp,8
 8003014:	f800283a 	ret

08003018 <ABS>:



/* Addressing Mode and Instruction Functions */
byte ABS()
{
 8003018:	defffe04 	addi	sp,sp,-8
 800301c:	df000115 	stw	fp,4(sp)
 8003020:	df000104 	addi	fp,sp,4
  word temp_addr = (CPU->MEM[ CPU->PC++ ]) | (CPU->MEM[ CPU->PC++ ] << 8);  // Grab lower and upper byte
 8003024:	d0a6b217 	ldw	r2,-25912(gp)
 8003028:	10c00617 	ldw	r3,24(r2)
 800302c:	d166b217 	ldw	r5,-25912(gp)
 8003030:	2980000b 	ldhu	r6,0(r5)
 8003034:	30bfffcc 	andi	r2,r6,65535
 8003038:	1885883a 	add	r2,r3,r2
 800303c:	10800003 	ldbu	r2,0(r2)
 8003040:	11c03fcc 	andi	r7,r2,255
 8003044:	d0a6b217 	ldw	r2,-25912(gp)
 8003048:	10c00617 	ldw	r3,24(r2)
 800304c:	d226b217 	ldw	r8,-25912(gp)
 8003050:	4100000b 	ldhu	r4,0(r8)
 8003054:	20bfffcc 	andi	r2,r4,65535
 8003058:	1885883a 	add	r2,r3,r2
 800305c:	10800003 	ldbu	r2,0(r2)
 8003060:	10803fcc 	andi	r2,r2,255
 8003064:	1004923a 	slli	r2,r2,8
 8003068:	3884b03a 	or	r2,r7,r2
 800306c:	e0bfff0d 	sth	r2,-4(fp)
 8003070:	30800044 	addi	r2,r6,1
 8003074:	2880000d 	sth	r2,0(r5)
 8003078:	20800044 	addi	r2,r4,1
 800307c:	4080000d 	sth	r2,0(r8)
  return CPU->MEM[ temp_addr ];
 8003080:	d0a6b217 	ldw	r2,-25912(gp)
 8003084:	10c00617 	ldw	r3,24(r2)
 8003088:	e0bfff0b 	ldhu	r2,-4(fp)
 800308c:	1885883a 	add	r2,r3,r2
 8003090:	10800003 	ldbu	r2,0(r2)
 8003094:	10803fcc 	andi	r2,r2,255
}
 8003098:	e037883a 	mov	sp,fp
 800309c:	df000017 	ldw	fp,0(sp)
 80030a0:	dec00104 	addi	sp,sp,4
 80030a4:	f800283a 	ret

080030a8 <ABSX>:

byte ABSX()
{
 80030a8:	defffe04 	addi	sp,sp,-8
 80030ac:	df000115 	stw	fp,4(sp)
 80030b0:	df000104 	addi	fp,sp,4
  word temp_addr = (CPU->MEM[ CPU->PC++ ]) | (CPU->MEM[ CPU->PC++ ] << 8);  // Grab lower and upper byte
 80030b4:	d0a6b217 	ldw	r2,-25912(gp)
 80030b8:	10c00617 	ldw	r3,24(r2)
 80030bc:	d166b217 	ldw	r5,-25912(gp)
 80030c0:	2980000b 	ldhu	r6,0(r5)
 80030c4:	30bfffcc 	andi	r2,r6,65535
 80030c8:	1885883a 	add	r2,r3,r2
 80030cc:	10800003 	ldbu	r2,0(r2)
 80030d0:	11c03fcc 	andi	r7,r2,255
 80030d4:	d0a6b217 	ldw	r2,-25912(gp)
 80030d8:	10c00617 	ldw	r3,24(r2)
 80030dc:	d226b217 	ldw	r8,-25912(gp)
 80030e0:	4100000b 	ldhu	r4,0(r8)
 80030e4:	20bfffcc 	andi	r2,r4,65535
 80030e8:	1885883a 	add	r2,r3,r2
 80030ec:	10800003 	ldbu	r2,0(r2)
 80030f0:	10803fcc 	andi	r2,r2,255
 80030f4:	1004923a 	slli	r2,r2,8
 80030f8:	3884b03a 	or	r2,r7,r2
 80030fc:	e0bfff0d 	sth	r2,-4(fp)
 8003100:	30800044 	addi	r2,r6,1
 8003104:	2880000d 	sth	r2,0(r5)
 8003108:	20800044 	addi	r2,r4,1
 800310c:	4080000d 	sth	r2,0(r8)
  return CPU->MEM[ (temp_addr + CPU->X) & 0xFFFF ]; // Wrap occurs if base + X > 0xFFFF
 8003110:	d0a6b217 	ldw	r2,-25912(gp)
 8003114:	11000617 	ldw	r4,24(r2)
 8003118:	e0ffff0b 	ldhu	r3,-4(fp)
 800311c:	d0a6b217 	ldw	r2,-25912(gp)
 8003120:	108002c3 	ldbu	r2,11(r2)
 8003124:	10803fcc 	andi	r2,r2,255
 8003128:	1885883a 	add	r2,r3,r2
 800312c:	10bfffcc 	andi	r2,r2,65535
 8003130:	2085883a 	add	r2,r4,r2
 8003134:	10800003 	ldbu	r2,0(r2)
 8003138:	10803fcc 	andi	r2,r2,255
}
 800313c:	e037883a 	mov	sp,fp
 8003140:	df000017 	ldw	fp,0(sp)
 8003144:	dec00104 	addi	sp,sp,4
 8003148:	f800283a 	ret

0800314c <ABSY>:

byte ABSY()
{
 800314c:	defffe04 	addi	sp,sp,-8
 8003150:	df000115 	stw	fp,4(sp)
 8003154:	df000104 	addi	fp,sp,4
  word temp_addr = (CPU->MEM[ CPU->PC++ ]) | (CPU->MEM[ CPU->PC++ ] << 8);  // Grab lower and upper byte
 8003158:	d0a6b217 	ldw	r2,-25912(gp)
 800315c:	10c00617 	ldw	r3,24(r2)
 8003160:	d166b217 	ldw	r5,-25912(gp)
 8003164:	2980000b 	ldhu	r6,0(r5)
 8003168:	30bfffcc 	andi	r2,r6,65535
 800316c:	1885883a 	add	r2,r3,r2
 8003170:	10800003 	ldbu	r2,0(r2)
 8003174:	11c03fcc 	andi	r7,r2,255
 8003178:	d0a6b217 	ldw	r2,-25912(gp)
 800317c:	10c00617 	ldw	r3,24(r2)
 8003180:	d226b217 	ldw	r8,-25912(gp)
 8003184:	4100000b 	ldhu	r4,0(r8)
 8003188:	20bfffcc 	andi	r2,r4,65535
 800318c:	1885883a 	add	r2,r3,r2
 8003190:	10800003 	ldbu	r2,0(r2)
 8003194:	10803fcc 	andi	r2,r2,255
 8003198:	1004923a 	slli	r2,r2,8
 800319c:	3884b03a 	or	r2,r7,r2
 80031a0:	e0bfff0d 	sth	r2,-4(fp)
 80031a4:	30800044 	addi	r2,r6,1
 80031a8:	2880000d 	sth	r2,0(r5)
 80031ac:	20800044 	addi	r2,r4,1
 80031b0:	4080000d 	sth	r2,0(r8)
  return CPU->MEM[ (temp_addr + CPU->Y) & 0xFFFF ];
 80031b4:	d0a6b217 	ldw	r2,-25912(gp)
 80031b8:	11000617 	ldw	r4,24(r2)
 80031bc:	e0ffff0b 	ldhu	r3,-4(fp)
 80031c0:	d0a6b217 	ldw	r2,-25912(gp)
 80031c4:	10800303 	ldbu	r2,12(r2)
 80031c8:	10803fcc 	andi	r2,r2,255
 80031cc:	1885883a 	add	r2,r3,r2
 80031d0:	10bfffcc 	andi	r2,r2,65535
 80031d4:	2085883a 	add	r2,r4,r2
 80031d8:	10800003 	ldbu	r2,0(r2)
 80031dc:	10803fcc 	andi	r2,r2,255
}
 80031e0:	e037883a 	mov	sp,fp
 80031e4:	df000017 	ldw	fp,0(sp)
 80031e8:	dec00104 	addi	sp,sp,4
 80031ec:	f800283a 	ret

080031f0 <XIND>:


byte XIND()
{
 80031f0:	defffe04 	addi	sp,sp,-8
 80031f4:	df000115 	stw	fp,4(sp)
 80031f8:	df000104 	addi	fp,sp,4
  word temp_addr = (CPU->MEM[ CPU->PC++ ] + CPU->X);  // Fetch low byte from ZP+X
 80031fc:	d0a6b217 	ldw	r2,-25912(gp)
 8003200:	10c00617 	ldw	r3,24(r2)
 8003204:	d126b217 	ldw	r4,-25912(gp)
 8003208:	2140000b 	ldhu	r5,0(r4)
 800320c:	28bfffcc 	andi	r2,r5,65535
 8003210:	1885883a 	add	r2,r3,r2
 8003214:	10800003 	ldbu	r2,0(r2)
 8003218:	10c03fcc 	andi	r3,r2,255
 800321c:	d0a6b217 	ldw	r2,-25912(gp)
 8003220:	108002c3 	ldbu	r2,11(r2)
 8003224:	10803fcc 	andi	r2,r2,255
 8003228:	1885883a 	add	r2,r3,r2
 800322c:	e0bfff0d 	sth	r2,-4(fp)
 8003230:	28800044 	addi	r2,r5,1
 8003234:	2080000d 	sth	r2,0(r4)
  temp_addr = (temp_addr | (CPU->MEM[ (temp_addr+1) & 0xFF ] << 8)); // Fetch high byte from ZP+1+X
 8003238:	d0a6b217 	ldw	r2,-25912(gp)
 800323c:	10c00617 	ldw	r3,24(r2)
 8003240:	e0bfff0b 	ldhu	r2,-4(fp)
 8003244:	10800044 	addi	r2,r2,1
 8003248:	10803fcc 	andi	r2,r2,255
 800324c:	1885883a 	add	r2,r3,r2
 8003250:	10800003 	ldbu	r2,0(r2)
 8003254:	10803fcc 	andi	r2,r2,255
 8003258:	1004923a 	slli	r2,r2,8
 800325c:	1007883a 	mov	r3,r2
 8003260:	e0bfff0b 	ldhu	r2,-4(fp)
 8003264:	1884b03a 	or	r2,r3,r2
 8003268:	e0bfff0d 	sth	r2,-4(fp)
  return CPU->MEM[ temp_addr & 0xFFFF ];
 800326c:	d0a6b217 	ldw	r2,-25912(gp)
 8003270:	10c00617 	ldw	r3,24(r2)
 8003274:	e0bfff0b 	ldhu	r2,-4(fp)
 8003278:	1885883a 	add	r2,r3,r2
 800327c:	10800003 	ldbu	r2,0(r2)
 8003280:	10803fcc 	andi	r2,r2,255
}
 8003284:	e037883a 	mov	sp,fp
 8003288:	df000017 	ldw	fp,0(sp)
 800328c:	dec00104 	addi	sp,sp,4
 8003290:	f800283a 	ret

08003294 <INDY>:

byte INDY()
{
 8003294:	defffe04 	addi	sp,sp,-8
 8003298:	df000115 	stw	fp,4(sp)
 800329c:	df000104 	addi	fp,sp,4
  word temp_addr = (CPU->MEM[ CPU->PC++ ]);  // Fetch low byte from ZP
 80032a0:	d0a6b217 	ldw	r2,-25912(gp)
 80032a4:	10c00617 	ldw	r3,24(r2)
 80032a8:	d166b217 	ldw	r5,-25912(gp)
 80032ac:	2900000b 	ldhu	r4,0(r5)
 80032b0:	20bfffcc 	andi	r2,r4,65535
 80032b4:	1885883a 	add	r2,r3,r2
 80032b8:	10800003 	ldbu	r2,0(r2)
 80032bc:	10803fcc 	andi	r2,r2,255
 80032c0:	e0bfff0d 	sth	r2,-4(fp)
 80032c4:	20800044 	addi	r2,r4,1
 80032c8:	2880000d 	sth	r2,0(r5)
  temp_addr = (temp_addr | (CPU->MEM[ (temp_addr+1) & 0xFF ] << 8)); // Fetch high byte from ZP+1. Wrap occurs if offset is > $FF
 80032cc:	d0a6b217 	ldw	r2,-25912(gp)
 80032d0:	10c00617 	ldw	r3,24(r2)
 80032d4:	e0bfff0b 	ldhu	r2,-4(fp)
 80032d8:	10800044 	addi	r2,r2,1
 80032dc:	10803fcc 	andi	r2,r2,255
 80032e0:	1885883a 	add	r2,r3,r2
 80032e4:	10800003 	ldbu	r2,0(r2)
 80032e8:	10803fcc 	andi	r2,r2,255
 80032ec:	1004923a 	slli	r2,r2,8
 80032f0:	1007883a 	mov	r3,r2
 80032f4:	e0bfff0b 	ldhu	r2,-4(fp)
 80032f8:	1884b03a 	or	r2,r3,r2
 80032fc:	e0bfff0d 	sth	r2,-4(fp)
  return CPU->MEM[ (temp_addr + CPU->Y) & 0xFFFF];  // Fetch contents of ($ZP)+Y
 8003300:	d0a6b217 	ldw	r2,-25912(gp)
 8003304:	11000617 	ldw	r4,24(r2)
 8003308:	e0ffff0b 	ldhu	r3,-4(fp)
 800330c:	d0a6b217 	ldw	r2,-25912(gp)
 8003310:	10800303 	ldbu	r2,12(r2)
 8003314:	10803fcc 	andi	r2,r2,255
 8003318:	1885883a 	add	r2,r3,r2
 800331c:	10bfffcc 	andi	r2,r2,65535
 8003320:	2085883a 	add	r2,r4,r2
 8003324:	10800003 	ldbu	r2,0(r2)
 8003328:	10803fcc 	andi	r2,r2,255
}
 800332c:	e037883a 	mov	sp,fp
 8003330:	df000017 	ldw	fp,0(sp)
 8003334:	dec00104 	addi	sp,sp,4
 8003338:	f800283a 	ret

0800333c <IMM>:


byte IMM()
{
 800333c:	deffff04 	addi	sp,sp,-4
 8003340:	df000015 	stw	fp,0(sp)
 8003344:	d839883a 	mov	fp,sp
  return CPU->MEM[CPU->PC++]; // operand = #$MEM[PC]
 8003348:	d0a6b217 	ldw	r2,-25912(gp)
 800334c:	10c00617 	ldw	r3,24(r2)
 8003350:	d166b217 	ldw	r5,-25912(gp)
 8003354:	2900000b 	ldhu	r4,0(r5)
 8003358:	20bfffcc 	andi	r2,r4,65535
 800335c:	1885883a 	add	r2,r3,r2
 8003360:	10800003 	ldbu	r2,0(r2)
 8003364:	10c03fcc 	andi	r3,r2,255
 8003368:	20800044 	addi	r2,r4,1
 800336c:	2880000d 	sth	r2,0(r5)
 8003370:	1805883a 	mov	r2,r3
}
 8003374:	e037883a 	mov	sp,fp
 8003378:	df000017 	ldw	fp,0(sp)
 800337c:	dec00104 	addi	sp,sp,4
 8003380:	f800283a 	ret

08003384 <ZP>:

byte ZP()
{
 8003384:	deffff04 	addi	sp,sp,-4
 8003388:	df000015 	stw	fp,0(sp)
 800338c:	d839883a 	mov	fp,sp
  return CPU->MEM[ (CPU->MEM[CPU->PC++]) ]; // operand = $(MEM[PC])
 8003390:	d0a6b217 	ldw	r2,-25912(gp)
 8003394:	11800617 	ldw	r6,24(r2)
 8003398:	d0a6b217 	ldw	r2,-25912(gp)
 800339c:	10c00617 	ldw	r3,24(r2)
 80033a0:	d126b217 	ldw	r4,-25912(gp)
 80033a4:	2140000b 	ldhu	r5,0(r4)
 80033a8:	28bfffcc 	andi	r2,r5,65535
 80033ac:	1885883a 	add	r2,r3,r2
 80033b0:	10800003 	ldbu	r2,0(r2)
 80033b4:	10803fcc 	andi	r2,r2,255
 80033b8:	3085883a 	add	r2,r6,r2
 80033bc:	10800003 	ldbu	r2,0(r2)
 80033c0:	10c03fcc 	andi	r3,r2,255
 80033c4:	28800044 	addi	r2,r5,1
 80033c8:	2080000d 	sth	r2,0(r4)
 80033cc:	1805883a 	mov	r2,r3
}
 80033d0:	e037883a 	mov	sp,fp
 80033d4:	df000017 	ldw	fp,0(sp)
 80033d8:	dec00104 	addi	sp,sp,4
 80033dc:	f800283a 	ret

080033e0 <ZPX>:

byte ZPX()
{
 80033e0:	deffff04 	addi	sp,sp,-4
 80033e4:	df000015 	stw	fp,0(sp)
 80033e8:	d839883a 	mov	fp,sp
  return CPU->MEM[ ((CPU->MEM[CPU->PC++]) + CPU->X) & 0xFF]; // operand = $(MEM[PC])
 80033ec:	d0a6b217 	ldw	r2,-25912(gp)
 80033f0:	11000617 	ldw	r4,24(r2)
 80033f4:	d0a6b217 	ldw	r2,-25912(gp)
 80033f8:	10c00617 	ldw	r3,24(r2)
 80033fc:	d166b217 	ldw	r5,-25912(gp)
 8003400:	2980000b 	ldhu	r6,0(r5)
 8003404:	30bfffcc 	andi	r2,r6,65535
 8003408:	1885883a 	add	r2,r3,r2
 800340c:	10800003 	ldbu	r2,0(r2)
 8003410:	10c03fcc 	andi	r3,r2,255
 8003414:	d0a6b217 	ldw	r2,-25912(gp)
 8003418:	108002c3 	ldbu	r2,11(r2)
 800341c:	10803fcc 	andi	r2,r2,255
 8003420:	1885883a 	add	r2,r3,r2
 8003424:	10803fcc 	andi	r2,r2,255
 8003428:	2085883a 	add	r2,r4,r2
 800342c:	10800003 	ldbu	r2,0(r2)
 8003430:	10c03fcc 	andi	r3,r2,255
 8003434:	30800044 	addi	r2,r6,1
 8003438:	2880000d 	sth	r2,0(r5)
 800343c:	1805883a 	mov	r2,r3
}
 8003440:	e037883a 	mov	sp,fp
 8003444:	df000017 	ldw	fp,0(sp)
 8003448:	dec00104 	addi	sp,sp,4
 800344c:	f800283a 	ret

08003450 <ADC>:



void ADC(byte operand)
{
 8003450:	defffc04 	addi	sp,sp,-16
 8003454:	dfc00315 	stw	ra,12(sp)
 8003458:	df000215 	stw	fp,8(sp)
 800345c:	df000204 	addi	fp,sp,8
 8003460:	e13fff05 	stb	r4,-4(fp)
  byte temp = CPU->A + operand + CPU->P.C;
 8003464:	d0a6b217 	ldw	r2,-25912(gp)
 8003468:	10c00283 	ldbu	r3,10(r2)
 800346c:	e0bfff03 	ldbu	r2,-4(fp)
 8003470:	1885883a 	add	r2,r3,r2
 8003474:	1007883a 	mov	r3,r2
 8003478:	d0a6b217 	ldw	r2,-25912(gp)
 800347c:	108000c3 	ldbu	r2,3(r2)
 8003480:	1885883a 	add	r2,r3,r2
 8003484:	e0bffe05 	stb	r2,-8(fp)
  CPU->P.V = ((CPU->A & 0x80) != (temp & 0x80)) ? 1 : 0;
 8003488:	d126b217 	ldw	r4,-25912(gp)
 800348c:	d0a6b217 	ldw	r2,-25912(gp)
 8003490:	10800283 	ldbu	r2,10(r2)
 8003494:	10803fcc 	andi	r2,r2,255
 8003498:	10c0200c 	andi	r3,r2,128
 800349c:	e0bffe03 	ldbu	r2,-8(fp)
 80034a0:	1080200c 	andi	r2,r2,128
 80034a4:	1884c03a 	cmpne	r2,r3,r2
 80034a8:	20800205 	stb	r2,8(r4)
  CPU->P.N = (((CPU->A & 0x80)) > 0) ? 1 : 0;
 80034ac:	d0e6b217 	ldw	r3,-25912(gp)
 80034b0:	d0a6b217 	ldw	r2,-25912(gp)
 80034b4:	10800283 	ldbu	r2,10(r2)
 80034b8:	10803fcc 	andi	r2,r2,255
 80034bc:	1080200c 	andi	r2,r2,128
 80034c0:	10800048 	cmpgei	r2,r2,1
 80034c4:	18800245 	stb	r2,9(r3)
  CPU->P.Z = (temp == 0) ? 1 : 0;
 80034c8:	d0e6b217 	ldw	r3,-25912(gp)
 80034cc:	e0bffe03 	ldbu	r2,-8(fp)
 80034d0:	1005003a 	cmpeq	r2,r2,zero
 80034d4:	18800105 	stb	r2,4(r3)
  CPU->A = temp & 0xFF;
 80034d8:	d0e6b217 	ldw	r3,-25912(gp)
 80034dc:	e0bffe03 	ldbu	r2,-8(fp)
 80034e0:	18800285 	stb	r2,10(r3)
  printf("ADC!\n");
 80034e4:	01020074 	movhi	r4,2049
 80034e8:	2113ad04 	addi	r4,r4,20148
 80034ec:	80051d80 	call	80051d8 <puts>
  return;
}
 80034f0:	e037883a 	mov	sp,fp
 80034f4:	dfc00117 	ldw	ra,4(sp)
 80034f8:	df000017 	ldw	fp,0(sp)
 80034fc:	dec00204 	addi	sp,sp,8
 8003500:	f800283a 	ret

08003504 <AND>:

void AND(byte operand)
{
 8003504:	defffd04 	addi	sp,sp,-12
 8003508:	dfc00215 	stw	ra,8(sp)
 800350c:	df000115 	stw	fp,4(sp)
 8003510:	df000104 	addi	fp,sp,4
 8003514:	e13fff05 	stb	r4,-4(fp)
  //printf(" AND #%x with %x ", operand, CPU->A);
  CPU->A = CPU->A & operand;
 8003518:	d126b217 	ldw	r4,-25912(gp)
 800351c:	d0a6b217 	ldw	r2,-25912(gp)
 8003520:	10c00283 	ldbu	r3,10(r2)
 8003524:	e0bfff03 	ldbu	r2,-4(fp)
 8003528:	1884703a 	and	r2,r3,r2
 800352c:	20800285 	stb	r2,10(r4)
  CPU->P.N = (((CPU->A & 0x80)) > 0) ? 1 : 0;
 8003530:	d0e6b217 	ldw	r3,-25912(gp)
 8003534:	d0a6b217 	ldw	r2,-25912(gp)
 8003538:	10800283 	ldbu	r2,10(r2)
 800353c:	10803fcc 	andi	r2,r2,255
 8003540:	1080200c 	andi	r2,r2,128
 8003544:	10800048 	cmpgei	r2,r2,1
 8003548:	18800245 	stb	r2,9(r3)
  CPU->P.Z = (CPU->A == 0) ? 1 : 0;
 800354c:	d0e6b217 	ldw	r3,-25912(gp)
 8003550:	d0a6b217 	ldw	r2,-25912(gp)
 8003554:	10800283 	ldbu	r2,10(r2)
 8003558:	10803fcc 	andi	r2,r2,255
 800355c:	1005003a 	cmpeq	r2,r2,zero
 8003560:	18800105 	stb	r2,4(r3)
  printf("AND!\n");
 8003564:	01020074 	movhi	r4,2049
 8003568:	2113af04 	addi	r4,r4,20156
 800356c:	80051d80 	call	80051d8 <puts>
  return;
}
 8003570:	e037883a 	mov	sp,fp
 8003574:	dfc00117 	ldw	ra,4(sp)
 8003578:	df000017 	ldw	fp,0(sp)
 800357c:	dec00204 	addi	sp,sp,8
 8003580:	f800283a 	ret

08003584 <ASL>:

void ASL(byte* operand)
{
 8003584:	defffd04 	addi	sp,sp,-12
 8003588:	dfc00215 	stw	ra,8(sp)
 800358c:	df000115 	stw	fp,4(sp)
 8003590:	df000104 	addi	fp,sp,4
 8003594:	e13fff15 	stw	r4,-4(fp)
  CPU->P.C = (*operand) & 0x80;
 8003598:	d126b217 	ldw	r4,-25912(gp)
 800359c:	e0bfff17 	ldw	r2,-4(fp)
 80035a0:	10c00003 	ldbu	r3,0(r2)
 80035a4:	00bfe004 	movi	r2,-128
 80035a8:	1884703a 	and	r2,r3,r2
 80035ac:	208000c5 	stb	r2,3(r4)
  (*operand) = ((*operand) << 1) & 0xFE;
 80035b0:	e0bfff17 	ldw	r2,-4(fp)
 80035b4:	10800003 	ldbu	r2,0(r2)
 80035b8:	10803fcc 	andi	r2,r2,255
 80035bc:	1085883a 	add	r2,r2,r2
 80035c0:	1007883a 	mov	r3,r2
 80035c4:	00bfff84 	movi	r2,-2
 80035c8:	1884703a 	and	r2,r3,r2
 80035cc:	1007883a 	mov	r3,r2
 80035d0:	e0bfff17 	ldw	r2,-4(fp)
 80035d4:	10c00005 	stb	r3,0(r2)
  CPU->P.N = (((*operand) & 0x80) > 0) ? 1 : 0;
 80035d8:	d0e6b217 	ldw	r3,-25912(gp)
 80035dc:	e0bfff17 	ldw	r2,-4(fp)
 80035e0:	10800003 	ldbu	r2,0(r2)
 80035e4:	10803fcc 	andi	r2,r2,255
 80035e8:	1080200c 	andi	r2,r2,128
 80035ec:	10800048 	cmpgei	r2,r2,1
 80035f0:	18800245 	stb	r2,9(r3)
  CPU->P.Z = ((*operand) == 0) ? 1 : 0;
 80035f4:	d0e6b217 	ldw	r3,-25912(gp)
 80035f8:	e0bfff17 	ldw	r2,-4(fp)
 80035fc:	10800003 	ldbu	r2,0(r2)
 8003600:	10803fcc 	andi	r2,r2,255
 8003604:	1005003a 	cmpeq	r2,r2,zero
 8003608:	18800105 	stb	r2,4(r3)
  printf("ASL!\n");
 800360c:	01020074 	movhi	r4,2049
 8003610:	2113b104 	addi	r4,r4,20164
 8003614:	80051d80 	call	80051d8 <puts>
  return;
}
 8003618:	e037883a 	mov	sp,fp
 800361c:	dfc00117 	ldw	ra,4(sp)
 8003620:	df000017 	ldw	fp,0(sp)
 8003624:	dec00204 	addi	sp,sp,8
 8003628:	f800283a 	ret

0800362c <CMP>:

void CMP( byte operand )
{
 800362c:	defffc04 	addi	sp,sp,-16
 8003630:	dfc00315 	stw	ra,12(sp)
 8003634:	df000215 	stw	fp,8(sp)
 8003638:	df000204 	addi	fp,sp,8
 800363c:	e13fff05 	stb	r4,-4(fp)
  byte temp = CPU->A - operand;
 8003640:	d0a6b217 	ldw	r2,-25912(gp)
 8003644:	10c00283 	ldbu	r3,10(r2)
 8003648:	e0bfff03 	ldbu	r2,-4(fp)
 800364c:	1885c83a 	sub	r2,r3,r2
 8003650:	e0bffe05 	stb	r2,-8(fp)
  CPU->P.N = ((temp & 0x80) > 0) ? 1 : 0;
 8003654:	d0e6b217 	ldw	r3,-25912(gp)
 8003658:	e0bffe03 	ldbu	r2,-8(fp)
 800365c:	1080200c 	andi	r2,r2,128
 8003660:	10800048 	cmpgei	r2,r2,1
 8003664:	18800245 	stb	r2,9(r3)
  CPU->P.C = (CPU->A >= operand) ? 1 : 0;
 8003668:	d126b217 	ldw	r4,-25912(gp)
 800366c:	d0a6b217 	ldw	r2,-25912(gp)
 8003670:	10800283 	ldbu	r2,10(r2)
 8003674:	10c03fcc 	andi	r3,r2,255
 8003678:	e0bfff03 	ldbu	r2,-4(fp)
 800367c:	1885403a 	cmpgeu	r2,r3,r2
 8003680:	208000c5 	stb	r2,3(r4)
  CPU->P.Z = (temp == 0) ? 1 : 0;
 8003684:	d0e6b217 	ldw	r3,-25912(gp)
 8003688:	e0bffe03 	ldbu	r2,-8(fp)
 800368c:	1005003a 	cmpeq	r2,r2,zero
 8003690:	18800105 	stb	r2,4(r3)
  printf("CMP!\n");
 8003694:	01020074 	movhi	r4,2049
 8003698:	2113b304 	addi	r4,r4,20172
 800369c:	80051d80 	call	80051d8 <puts>
  return;
}
 80036a0:	e037883a 	mov	sp,fp
 80036a4:	dfc00117 	ldw	ra,4(sp)
 80036a8:	df000017 	ldw	fp,0(sp)
 80036ac:	dec00204 	addi	sp,sp,8
 80036b0:	f800283a 	ret

080036b4 <CPX>:

void CPX( byte operand )
{
 80036b4:	defffc04 	addi	sp,sp,-16
 80036b8:	dfc00315 	stw	ra,12(sp)
 80036bc:	df000215 	stw	fp,8(sp)
 80036c0:	df000204 	addi	fp,sp,8
 80036c4:	e13fff05 	stb	r4,-4(fp)
  byte temp = CPU->X - operand;
 80036c8:	d0a6b217 	ldw	r2,-25912(gp)
 80036cc:	10c002c3 	ldbu	r3,11(r2)
 80036d0:	e0bfff03 	ldbu	r2,-4(fp)
 80036d4:	1885c83a 	sub	r2,r3,r2
 80036d8:	e0bffe05 	stb	r2,-8(fp)
  CPU->P.N = ((temp & 0x80) > 0) ? 1 : 0;
 80036dc:	d0e6b217 	ldw	r3,-25912(gp)
 80036e0:	e0bffe03 	ldbu	r2,-8(fp)
 80036e4:	1080200c 	andi	r2,r2,128
 80036e8:	10800048 	cmpgei	r2,r2,1
 80036ec:	18800245 	stb	r2,9(r3)
  CPU->P.C = (CPU->X >= operand) ? 1 : 0;
 80036f0:	d126b217 	ldw	r4,-25912(gp)
 80036f4:	d0a6b217 	ldw	r2,-25912(gp)
 80036f8:	108002c3 	ldbu	r2,11(r2)
 80036fc:	10c03fcc 	andi	r3,r2,255
 8003700:	e0bfff03 	ldbu	r2,-4(fp)
 8003704:	1885403a 	cmpgeu	r2,r3,r2
 8003708:	208000c5 	stb	r2,3(r4)
  CPU->P.Z = (temp == 0) ? 1 : 0;
 800370c:	d0e6b217 	ldw	r3,-25912(gp)
 8003710:	e0bffe03 	ldbu	r2,-8(fp)
 8003714:	1005003a 	cmpeq	r2,r2,zero
 8003718:	18800105 	stb	r2,4(r3)
  printf("CPX!\n");
 800371c:	01020074 	movhi	r4,2049
 8003720:	2113b504 	addi	r4,r4,20180
 8003724:	80051d80 	call	80051d8 <puts>
  return;
}
 8003728:	e037883a 	mov	sp,fp
 800372c:	dfc00117 	ldw	ra,4(sp)
 8003730:	df000017 	ldw	fp,0(sp)
 8003734:	dec00204 	addi	sp,sp,8
 8003738:	f800283a 	ret

0800373c <CPY>:

void CPY( byte operand )
{
 800373c:	defffc04 	addi	sp,sp,-16
 8003740:	dfc00315 	stw	ra,12(sp)
 8003744:	df000215 	stw	fp,8(sp)
 8003748:	df000204 	addi	fp,sp,8
 800374c:	e13fff05 	stb	r4,-4(fp)
  byte temp = CPU->Y - operand;
 8003750:	d0a6b217 	ldw	r2,-25912(gp)
 8003754:	10c00303 	ldbu	r3,12(r2)
 8003758:	e0bfff03 	ldbu	r2,-4(fp)
 800375c:	1885c83a 	sub	r2,r3,r2
 8003760:	e0bffe05 	stb	r2,-8(fp)
  CPU->P.N = ((temp & 0x80) > 0) ? 1 : 0;
 8003764:	d0e6b217 	ldw	r3,-25912(gp)
 8003768:	e0bffe03 	ldbu	r2,-8(fp)
 800376c:	1080200c 	andi	r2,r2,128
 8003770:	10800048 	cmpgei	r2,r2,1
 8003774:	18800245 	stb	r2,9(r3)
  CPU->P.C = (CPU->Y >= operand) ? 1 : 0;
 8003778:	d126b217 	ldw	r4,-25912(gp)
 800377c:	d0a6b217 	ldw	r2,-25912(gp)
 8003780:	10800303 	ldbu	r2,12(r2)
 8003784:	10c03fcc 	andi	r3,r2,255
 8003788:	e0bfff03 	ldbu	r2,-4(fp)
 800378c:	1885403a 	cmpgeu	r2,r3,r2
 8003790:	208000c5 	stb	r2,3(r4)
  CPU->P.Z = (temp == 0) ? 1 : 0;
 8003794:	d0e6b217 	ldw	r3,-25912(gp)
 8003798:	e0bffe03 	ldbu	r2,-8(fp)
 800379c:	1005003a 	cmpeq	r2,r2,zero
 80037a0:	18800105 	stb	r2,4(r3)
  printf("CPY!\n");
 80037a4:	01020074 	movhi	r4,2049
 80037a8:	2113b704 	addi	r4,r4,20188
 80037ac:	80051d80 	call	80051d8 <puts>
  return;
}
 80037b0:	e037883a 	mov	sp,fp
 80037b4:	dfc00117 	ldw	ra,4(sp)
 80037b8:	df000017 	ldw	fp,0(sp)
 80037bc:	dec00204 	addi	sp,sp,8
 80037c0:	f800283a 	ret

080037c4 <DEC>:


void DEC( byte* operand )
{
 80037c4:	defffd04 	addi	sp,sp,-12
 80037c8:	dfc00215 	stw	ra,8(sp)
 80037cc:	df000115 	stw	fp,4(sp)
 80037d0:	df000104 	addi	fp,sp,4
 80037d4:	e13fff15 	stw	r4,-4(fp)
  (*operand) = ((*operand)-1) & 0xFF;
 80037d8:	e0bfff17 	ldw	r2,-4(fp)
 80037dc:	10800003 	ldbu	r2,0(r2)
 80037e0:	10bfffc4 	addi	r2,r2,-1
 80037e4:	1007883a 	mov	r3,r2
 80037e8:	00bfffc4 	movi	r2,-1
 80037ec:	1884703a 	and	r2,r3,r2
 80037f0:	1007883a 	mov	r3,r2
 80037f4:	e0bfff17 	ldw	r2,-4(fp)
 80037f8:	10c00005 	stb	r3,0(r2)
  CPU->P.N = (*operand) & 0x80;
 80037fc:	d126b217 	ldw	r4,-25912(gp)
 8003800:	e0bfff17 	ldw	r2,-4(fp)
 8003804:	10c00003 	ldbu	r3,0(r2)
 8003808:	00bfe004 	movi	r2,-128
 800380c:	1884703a 	and	r2,r3,r2
 8003810:	20800245 	stb	r2,9(r4)
  CPU->P.Z = ((*operand) == 0) ? 1 : 0;
 8003814:	d0e6b217 	ldw	r3,-25912(gp)
 8003818:	e0bfff17 	ldw	r2,-4(fp)
 800381c:	10800003 	ldbu	r2,0(r2)
 8003820:	10803fcc 	andi	r2,r2,255
 8003824:	1005003a 	cmpeq	r2,r2,zero
 8003828:	18800105 	stb	r2,4(r3)
  printf("DEC!\n");
 800382c:	01020074 	movhi	r4,2049
 8003830:	2113b904 	addi	r4,r4,20196
 8003834:	80051d80 	call	80051d8 <puts>
  return;
}
 8003838:	e037883a 	mov	sp,fp
 800383c:	dfc00117 	ldw	ra,4(sp)
 8003840:	df000017 	ldw	fp,0(sp)
 8003844:	dec00204 	addi	sp,sp,8
 8003848:	f800283a 	ret

0800384c <INC>:


void INC( byte* operand )
{
 800384c:	defffd04 	addi	sp,sp,-12
 8003850:	dfc00215 	stw	ra,8(sp)
 8003854:	df000115 	stw	fp,4(sp)
 8003858:	df000104 	addi	fp,sp,4
 800385c:	e13fff15 	stw	r4,-4(fp)
  (*operand) = ((*operand)+1) & 0xFF;
 8003860:	e0bfff17 	ldw	r2,-4(fp)
 8003864:	10800003 	ldbu	r2,0(r2)
 8003868:	10800044 	addi	r2,r2,1
 800386c:	1007883a 	mov	r3,r2
 8003870:	00bfffc4 	movi	r2,-1
 8003874:	1884703a 	and	r2,r3,r2
 8003878:	1007883a 	mov	r3,r2
 800387c:	e0bfff17 	ldw	r2,-4(fp)
 8003880:	10c00005 	stb	r3,0(r2)
  CPU->P.N = (((*operand) & 0x80) > 0) ? 1 :0;
 8003884:	d0e6b217 	ldw	r3,-25912(gp)
 8003888:	e0bfff17 	ldw	r2,-4(fp)
 800388c:	10800003 	ldbu	r2,0(r2)
 8003890:	10803fcc 	andi	r2,r2,255
 8003894:	1080200c 	andi	r2,r2,128
 8003898:	10800048 	cmpgei	r2,r2,1
 800389c:	18800245 	stb	r2,9(r3)
  CPU->P.Z = ((*operand) == 0) ? 1 : 0;
 80038a0:	d0e6b217 	ldw	r3,-25912(gp)
 80038a4:	e0bfff17 	ldw	r2,-4(fp)
 80038a8:	10800003 	ldbu	r2,0(r2)
 80038ac:	10803fcc 	andi	r2,r2,255
 80038b0:	1005003a 	cmpeq	r2,r2,zero
 80038b4:	18800105 	stb	r2,4(r3)
  printf("INC!\n");
 80038b8:	01020074 	movhi	r4,2049
 80038bc:	2113bb04 	addi	r4,r4,20204
 80038c0:	80051d80 	call	80051d8 <puts>
  return;
}
 80038c4:	e037883a 	mov	sp,fp
 80038c8:	dfc00117 	ldw	ra,4(sp)
 80038cc:	df000017 	ldw	fp,0(sp)
 80038d0:	dec00204 	addi	sp,sp,8
 80038d4:	f800283a 	ret

080038d8 <LDA>:

void LDA( byte operand )
{
 80038d8:	defffd04 	addi	sp,sp,-12
 80038dc:	dfc00215 	stw	ra,8(sp)
 80038e0:	df000115 	stw	fp,4(sp)
 80038e4:	df000104 	addi	fp,sp,4
 80038e8:	e13fff05 	stb	r4,-4(fp)
  CPU->A = operand;
 80038ec:	d0e6b217 	ldw	r3,-25912(gp)
 80038f0:	e0bfff03 	ldbu	r2,-4(fp)
 80038f4:	18800285 	stb	r2,10(r3)
  CPU->P.N = ((CPU->A & 0x80) > 0) ? 1 : 0;
 80038f8:	d0e6b217 	ldw	r3,-25912(gp)
 80038fc:	d0a6b217 	ldw	r2,-25912(gp)
 8003900:	10800283 	ldbu	r2,10(r2)
 8003904:	10803fcc 	andi	r2,r2,255
 8003908:	1080200c 	andi	r2,r2,128
 800390c:	10800048 	cmpgei	r2,r2,1
 8003910:	18800245 	stb	r2,9(r3)
  CPU->P.Z = (CPU->A == 0) ? 1 :0;
 8003914:	d0e6b217 	ldw	r3,-25912(gp)
 8003918:	d0a6b217 	ldw	r2,-25912(gp)
 800391c:	10800283 	ldbu	r2,10(r2)
 8003920:	10803fcc 	andi	r2,r2,255
 8003924:	1005003a 	cmpeq	r2,r2,zero
 8003928:	18800105 	stb	r2,4(r3)
  printf("LDA!\n");
 800392c:	01020074 	movhi	r4,2049
 8003930:	2113bd04 	addi	r4,r4,20212
 8003934:	80051d80 	call	80051d8 <puts>
  return;
}
 8003938:	e037883a 	mov	sp,fp
 800393c:	dfc00117 	ldw	ra,4(sp)
 8003940:	df000017 	ldw	fp,0(sp)
 8003944:	dec00204 	addi	sp,sp,8
 8003948:	f800283a 	ret

0800394c <LDX>:

void LDX( byte operand )
{
 800394c:	defffd04 	addi	sp,sp,-12
 8003950:	dfc00215 	stw	ra,8(sp)
 8003954:	df000115 	stw	fp,4(sp)
 8003958:	df000104 	addi	fp,sp,4
 800395c:	e13fff05 	stb	r4,-4(fp)
  CPU->X = operand;
 8003960:	d0e6b217 	ldw	r3,-25912(gp)
 8003964:	e0bfff03 	ldbu	r2,-4(fp)
 8003968:	188002c5 	stb	r2,11(r3)
  CPU->P.N = ((CPU->X & 0x80) > 0) ? 1 : 0;
 800396c:	d0e6b217 	ldw	r3,-25912(gp)
 8003970:	d0a6b217 	ldw	r2,-25912(gp)
 8003974:	108002c3 	ldbu	r2,11(r2)
 8003978:	10803fcc 	andi	r2,r2,255
 800397c:	1080200c 	andi	r2,r2,128
 8003980:	10800048 	cmpgei	r2,r2,1
 8003984:	18800245 	stb	r2,9(r3)
  CPU->P.Z = (CPU->X == 0) ? 1 :0;
 8003988:	d0e6b217 	ldw	r3,-25912(gp)
 800398c:	d0a6b217 	ldw	r2,-25912(gp)
 8003990:	108002c3 	ldbu	r2,11(r2)
 8003994:	10803fcc 	andi	r2,r2,255
 8003998:	1005003a 	cmpeq	r2,r2,zero
 800399c:	18800105 	stb	r2,4(r3)
  printf("LDX!\n");
 80039a0:	01020074 	movhi	r4,2049
 80039a4:	2113bf04 	addi	r4,r4,20220
 80039a8:	80051d80 	call	80051d8 <puts>
  return;
}
 80039ac:	e037883a 	mov	sp,fp
 80039b0:	dfc00117 	ldw	ra,4(sp)
 80039b4:	df000017 	ldw	fp,0(sp)
 80039b8:	dec00204 	addi	sp,sp,8
 80039bc:	f800283a 	ret

080039c0 <LDY>:

void LDY( byte operand )
{
 80039c0:	defffd04 	addi	sp,sp,-12
 80039c4:	dfc00215 	stw	ra,8(sp)
 80039c8:	df000115 	stw	fp,4(sp)
 80039cc:	df000104 	addi	fp,sp,4
 80039d0:	e13fff05 	stb	r4,-4(fp)
  CPU->Y = operand;
 80039d4:	d0e6b217 	ldw	r3,-25912(gp)
 80039d8:	e0bfff03 	ldbu	r2,-4(fp)
 80039dc:	18800305 	stb	r2,12(r3)
  CPU->P.N = ((CPU->Y & 0x80) > 0) ? 1 : 0;
 80039e0:	d0e6b217 	ldw	r3,-25912(gp)
 80039e4:	d0a6b217 	ldw	r2,-25912(gp)
 80039e8:	10800303 	ldbu	r2,12(r2)
 80039ec:	10803fcc 	andi	r2,r2,255
 80039f0:	1080200c 	andi	r2,r2,128
 80039f4:	10800048 	cmpgei	r2,r2,1
 80039f8:	18800245 	stb	r2,9(r3)
  CPU->P.Z = (CPU->Y == 0) ? 1 :0;
 80039fc:	d0e6b217 	ldw	r3,-25912(gp)
 8003a00:	d0a6b217 	ldw	r2,-25912(gp)
 8003a04:	10800303 	ldbu	r2,12(r2)
 8003a08:	10803fcc 	andi	r2,r2,255
 8003a0c:	1005003a 	cmpeq	r2,r2,zero
 8003a10:	18800105 	stb	r2,4(r3)
  printf("LDY!\n");
 8003a14:	01020074 	movhi	r4,2049
 8003a18:	2113c104 	addi	r4,r4,20228
 8003a1c:	80051d80 	call	80051d8 <puts>
  return;
}
 8003a20:	e037883a 	mov	sp,fp
 8003a24:	dfc00117 	ldw	ra,4(sp)
 8003a28:	df000017 	ldw	fp,0(sp)
 8003a2c:	dec00204 	addi	sp,sp,8
 8003a30:	f800283a 	ret

08003a34 <LSR>:

void LSR( byte* operand )
{
 8003a34:	defffd04 	addi	sp,sp,-12
 8003a38:	dfc00215 	stw	ra,8(sp)
 8003a3c:	df000115 	stw	fp,4(sp)
 8003a40:	df000104 	addi	fp,sp,4
 8003a44:	e13fff15 	stw	r4,-4(fp)
  CPU->P.N = 0x00;
 8003a48:	d0a6b217 	ldw	r2,-25912(gp)
 8003a4c:	10000245 	stb	zero,9(r2)
  CPU->P.C = (*operand) & 0x01;
 8003a50:	d0e6b217 	ldw	r3,-25912(gp)
 8003a54:	e0bfff17 	ldw	r2,-4(fp)
 8003a58:	10800003 	ldbu	r2,0(r2)
 8003a5c:	1080004c 	andi	r2,r2,1
 8003a60:	188000c5 	stb	r2,3(r3)
  (*operand) = ((*operand) >> 1) & 0x7F;
 8003a64:	e0bfff17 	ldw	r2,-4(fp)
 8003a68:	10800003 	ldbu	r2,0(r2)
 8003a6c:	10803fcc 	andi	r2,r2,255
 8003a70:	1004d07a 	srli	r2,r2,1
 8003a74:	10801fcc 	andi	r2,r2,127
 8003a78:	1007883a 	mov	r3,r2
 8003a7c:	e0bfff17 	ldw	r2,-4(fp)
 8003a80:	10c00005 	stb	r3,0(r2)
  CPU->P.Z = ((*operand) == 0) ? 1 : 0;
 8003a84:	d0e6b217 	ldw	r3,-25912(gp)
 8003a88:	e0bfff17 	ldw	r2,-4(fp)
 8003a8c:	10800003 	ldbu	r2,0(r2)
 8003a90:	10803fcc 	andi	r2,r2,255
 8003a94:	1005003a 	cmpeq	r2,r2,zero
 8003a98:	18800105 	stb	r2,4(r3)
  printf("LSR!\n");
 8003a9c:	01020074 	movhi	r4,2049
 8003aa0:	2113c304 	addi	r4,r4,20236
 8003aa4:	80051d80 	call	80051d8 <puts>
  return;
}
 8003aa8:	e037883a 	mov	sp,fp
 8003aac:	dfc00117 	ldw	ra,4(sp)
 8003ab0:	df000017 	ldw	fp,0(sp)
 8003ab4:	dec00204 	addi	sp,sp,8
 8003ab8:	f800283a 	ret

08003abc <ORA>:

void ORA( byte operand )
{
 8003abc:	defffd04 	addi	sp,sp,-12
 8003ac0:	dfc00215 	stw	ra,8(sp)
 8003ac4:	df000115 	stw	fp,4(sp)
 8003ac8:	df000104 	addi	fp,sp,4
 8003acc:	e13fff05 	stb	r4,-4(fp)
  CPU->A = CPU->A | (operand);
 8003ad0:	d126b217 	ldw	r4,-25912(gp)
 8003ad4:	d0a6b217 	ldw	r2,-25912(gp)
 8003ad8:	10c00283 	ldbu	r3,10(r2)
 8003adc:	e0bfff03 	ldbu	r2,-4(fp)
 8003ae0:	1884b03a 	or	r2,r3,r2
 8003ae4:	20800285 	stb	r2,10(r4)
  CPU->P.N = ((CPU->A & 0x80) > 0) ? 1 : 0;
 8003ae8:	d0e6b217 	ldw	r3,-25912(gp)
 8003aec:	d0a6b217 	ldw	r2,-25912(gp)
 8003af0:	10800283 	ldbu	r2,10(r2)
 8003af4:	10803fcc 	andi	r2,r2,255
 8003af8:	1080200c 	andi	r2,r2,128
 8003afc:	10800048 	cmpgei	r2,r2,1
 8003b00:	18800245 	stb	r2,9(r3)
  CPU->P.Z = (CPU->A == 0 ) ? 1 : 0;
 8003b04:	d0e6b217 	ldw	r3,-25912(gp)
 8003b08:	d0a6b217 	ldw	r2,-25912(gp)
 8003b0c:	10800283 	ldbu	r2,10(r2)
 8003b10:	10803fcc 	andi	r2,r2,255
 8003b14:	1005003a 	cmpeq	r2,r2,zero
 8003b18:	18800105 	stb	r2,4(r3)
  printf("ORA!\n");
 8003b1c:	01020074 	movhi	r4,2049
 8003b20:	2113c504 	addi	r4,r4,20244
 8003b24:	80051d80 	call	80051d8 <puts>
  return;
}
 8003b28:	e037883a 	mov	sp,fp
 8003b2c:	dfc00117 	ldw	ra,4(sp)
 8003b30:	df000017 	ldw	fp,0(sp)
 8003b34:	dec00204 	addi	sp,sp,8
 8003b38:	f800283a 	ret

08003b3c <ROL>:


void ROL( byte* operand )
{
 8003b3c:	defffc04 	addi	sp,sp,-16
 8003b40:	dfc00315 	stw	ra,12(sp)
 8003b44:	df000215 	stw	fp,8(sp)
 8003b48:	df000204 	addi	fp,sp,8
 8003b4c:	e13fff15 	stw	r4,-4(fp)
  byte temp = (*operand) & 0x80;
 8003b50:	e0bfff17 	ldw	r2,-4(fp)
 8003b54:	10c00003 	ldbu	r3,0(r2)
 8003b58:	00bfe004 	movi	r2,-128
 8003b5c:	1884703a 	and	r2,r3,r2
 8003b60:	e0bffe05 	stb	r2,-8(fp)
  (*operand) = ((*operand) << 1) & 0xFE;
 8003b64:	e0bfff17 	ldw	r2,-4(fp)
 8003b68:	10800003 	ldbu	r2,0(r2)
 8003b6c:	10803fcc 	andi	r2,r2,255
 8003b70:	1085883a 	add	r2,r2,r2
 8003b74:	1007883a 	mov	r3,r2
 8003b78:	00bfff84 	movi	r2,-2
 8003b7c:	1884703a 	and	r2,r3,r2
 8003b80:	1007883a 	mov	r3,r2
 8003b84:	e0bfff17 	ldw	r2,-4(fp)
 8003b88:	10c00005 	stb	r3,0(r2)
  (*operand) = (*operand) | CPU->P.C;
 8003b8c:	e0bfff17 	ldw	r2,-4(fp)
 8003b90:	10c00003 	ldbu	r3,0(r2)
 8003b94:	d0a6b217 	ldw	r2,-25912(gp)
 8003b98:	108000c3 	ldbu	r2,3(r2)
 8003b9c:	1884b03a 	or	r2,r3,r2
 8003ba0:	1007883a 	mov	r3,r2
 8003ba4:	e0bfff17 	ldw	r2,-4(fp)
 8003ba8:	10c00005 	stb	r3,0(r2)
  CPU->P.C = temp;
 8003bac:	d0e6b217 	ldw	r3,-25912(gp)
 8003bb0:	e0bffe03 	ldbu	r2,-8(fp)
 8003bb4:	188000c5 	stb	r2,3(r3)
  CPU->P.Z = ((*operand) == 0) ? 1 : 0;
 8003bb8:	d0e6b217 	ldw	r3,-25912(gp)
 8003bbc:	e0bfff17 	ldw	r2,-4(fp)
 8003bc0:	10800003 	ldbu	r2,0(r2)
 8003bc4:	10803fcc 	andi	r2,r2,255
 8003bc8:	1005003a 	cmpeq	r2,r2,zero
 8003bcc:	18800105 	stb	r2,4(r3)
  CPU->P.N = (((*operand) & 0x80) > 0) ? 1 : 0;
 8003bd0:	d0e6b217 	ldw	r3,-25912(gp)
 8003bd4:	e0bfff17 	ldw	r2,-4(fp)
 8003bd8:	10800003 	ldbu	r2,0(r2)
 8003bdc:	10803fcc 	andi	r2,r2,255
 8003be0:	1080200c 	andi	r2,r2,128
 8003be4:	10800048 	cmpgei	r2,r2,1
 8003be8:	18800245 	stb	r2,9(r3)
  printf("ROL!\n");
 8003bec:	01020074 	movhi	r4,2049
 8003bf0:	2113c704 	addi	r4,r4,20252
 8003bf4:	80051d80 	call	80051d8 <puts>
  return;
}
 8003bf8:	e037883a 	mov	sp,fp
 8003bfc:	dfc00117 	ldw	ra,4(sp)
 8003c00:	df000017 	ldw	fp,0(sp)
 8003c04:	dec00204 	addi	sp,sp,8
 8003c08:	f800283a 	ret

08003c0c <ROR>:

void ROR( byte* operand )
{
 8003c0c:	defffa04 	addi	sp,sp,-24
 8003c10:	dfc00515 	stw	ra,20(sp)
 8003c14:	df000415 	stw	fp,16(sp)
 8003c18:	df000404 	addi	fp,sp,16
 8003c1c:	e13ffd15 	stw	r4,-12(fp)
  byte temp = (*operand) & 0x01;
 8003c20:	e0bffd17 	ldw	r2,-12(fp)
 8003c24:	10800003 	ldbu	r2,0(r2)
 8003c28:	1080004c 	andi	r2,r2,1
 8003c2c:	e0bffc05 	stb	r2,-16(fp)
  (*operand) = ((*operand) >> 1) & 0x7F;
 8003c30:	e0bffd17 	ldw	r2,-12(fp)
 8003c34:	10800003 	ldbu	r2,0(r2)
 8003c38:	10803fcc 	andi	r2,r2,255
 8003c3c:	1004d07a 	srli	r2,r2,1
 8003c40:	10801fcc 	andi	r2,r2,127
 8003c44:	1007883a 	mov	r3,r2
 8003c48:	e0bffd17 	ldw	r2,-12(fp)
 8003c4c:	10c00005 	stb	r3,0(r2)
  (*operand) = (*operand) | ((CPU->P.C) ? 0x80 : 0x00);
 8003c50:	e0bffd17 	ldw	r2,-12(fp)
 8003c54:	10800003 	ldbu	r2,0(r2)
 8003c58:	e0bfff05 	stb	r2,-4(fp)
 8003c5c:	d0a6b217 	ldw	r2,-25912(gp)
 8003c60:	108000c3 	ldbu	r2,3(r2)
 8003c64:	10803fcc 	andi	r2,r2,255
 8003c68:	1005003a 	cmpeq	r2,r2,zero
 8003c6c:	1000031e 	bne	r2,zero,8003c7c <ROR+0x70>
 8003c70:	00bfe004 	movi	r2,-128
 8003c74:	e0bffe05 	stb	r2,-8(fp)
 8003c78:	00000106 	br	8003c80 <ROR+0x74>
 8003c7c:	e03ffe05 	stb	zero,-8(fp)
 8003c80:	e0ffff03 	ldbu	r3,-4(fp)
 8003c84:	e13ffe03 	ldbu	r4,-8(fp)
 8003c88:	1904b03a 	or	r2,r3,r4
 8003c8c:	1007883a 	mov	r3,r2
 8003c90:	e0bffd17 	ldw	r2,-12(fp)
 8003c94:	10c00005 	stb	r3,0(r2)
  CPU->P.C = temp;
 8003c98:	d0e6b217 	ldw	r3,-25912(gp)
 8003c9c:	e0bffc03 	ldbu	r2,-16(fp)
 8003ca0:	188000c5 	stb	r2,3(r3)
  CPU->P.Z = ((*operand) == 0) ? 1 : 0;
 8003ca4:	d0e6b217 	ldw	r3,-25912(gp)
 8003ca8:	e0bffd17 	ldw	r2,-12(fp)
 8003cac:	10800003 	ldbu	r2,0(r2)
 8003cb0:	10803fcc 	andi	r2,r2,255
 8003cb4:	1005003a 	cmpeq	r2,r2,zero
 8003cb8:	18800105 	stb	r2,4(r3)
  CPU->P.N = (((*operand) & 0x80) > 0) ? 1 : 0;  printf("ROR!\n");
 8003cbc:	d0e6b217 	ldw	r3,-25912(gp)
 8003cc0:	e0bffd17 	ldw	r2,-12(fp)
 8003cc4:	10800003 	ldbu	r2,0(r2)
 8003cc8:	10803fcc 	andi	r2,r2,255
 8003ccc:	1080200c 	andi	r2,r2,128
 8003cd0:	10800048 	cmpgei	r2,r2,1
 8003cd4:	18800245 	stb	r2,9(r3)
 8003cd8:	01020074 	movhi	r4,2049
 8003cdc:	2113c904 	addi	r4,r4,20260
 8003ce0:	80051d80 	call	80051d8 <puts>
  return;
}
 8003ce4:	e037883a 	mov	sp,fp
 8003ce8:	dfc00117 	ldw	ra,4(sp)
 8003cec:	df000017 	ldw	fp,0(sp)
 8003cf0:	dec00204 	addi	sp,sp,8
 8003cf4:	f800283a 	ret

08003cf8 <SBC>:

void SBC( byte operand )
{
 8003cf8:	defffa04 	addi	sp,sp,-24
 8003cfc:	dfc00515 	stw	ra,20(sp)
 8003d00:	df000415 	stw	fp,16(sp)
 8003d04:	df000404 	addi	fp,sp,16
 8003d08:	e13ffd05 	stb	r4,-12(fp)
  int temp = CPU->A - operand - (!CPU->P.C);
 8003d0c:	d0a6b217 	ldw	r2,-25912(gp)
 8003d10:	10800283 	ldbu	r2,10(r2)
 8003d14:	10c03fcc 	andi	r3,r2,255
 8003d18:	e0bffd03 	ldbu	r2,-12(fp)
 8003d1c:	1887c83a 	sub	r3,r3,r2
 8003d20:	d0a6b217 	ldw	r2,-25912(gp)
 8003d24:	108000c3 	ldbu	r2,3(r2)
 8003d28:	10803fcc 	andi	r2,r2,255
 8003d2c:	1005003a 	cmpeq	r2,r2,zero
 8003d30:	1885c83a 	sub	r2,r3,r2
 8003d34:	e0bffc15 	stw	r2,-16(fp)
  CPU->P.V = ( temp > 127 || temp < -128 )  ? 1 : 0;
 8003d38:	d0a6b217 	ldw	r2,-25912(gp)
 8003d3c:	e0bfff15 	stw	r2,-4(fp)
 8003d40:	e0bffc17 	ldw	r2,-16(fp)
 8003d44:	10802008 	cmpgei	r2,r2,128
 8003d48:	1000031e 	bne	r2,zero,8003d58 <SBC+0x60>
 8003d4c:	e0bffc17 	ldw	r2,-16(fp)
 8003d50:	10bfe008 	cmpgei	r2,r2,-128
 8003d54:	1000031e 	bne	r2,zero,8003d64 <SBC+0x6c>
 8003d58:	00c00044 	movi	r3,1
 8003d5c:	e0fffe15 	stw	r3,-8(fp)
 8003d60:	00000106 	br	8003d68 <SBC+0x70>
 8003d64:	e03ffe15 	stw	zero,-8(fp)
 8003d68:	e0fffe17 	ldw	r3,-8(fp)
 8003d6c:	1805883a 	mov	r2,r3
 8003d70:	e0ffff17 	ldw	r3,-4(fp)
 8003d74:	18800205 	stb	r2,8(r3)
  CPU->P.C = ((byte)temp > 0 ) ? 1 : 0;
 8003d78:	d0e6b217 	ldw	r3,-25912(gp)
 8003d7c:	e0bffc17 	ldw	r2,-16(fp)
 8003d80:	10803fcc 	andi	r2,r2,255
 8003d84:	1004c03a 	cmpne	r2,r2,zero
 8003d88:	188000c5 	stb	r2,3(r3)
  CPU->P.N = (((byte)temp & 0x80) > 0) ? 1 : 0;
 8003d8c:	d0e6b217 	ldw	r3,-25912(gp)
 8003d90:	e0bffc17 	ldw	r2,-16(fp)
 8003d94:	10803fcc 	andi	r2,r2,255
 8003d98:	1080200c 	andi	r2,r2,128
 8003d9c:	10800048 	cmpgei	r2,r2,1
 8003da0:	18800245 	stb	r2,9(r3)
  CPU->P.Z = (temp == 0 ) ? 1 : 0;
 8003da4:	d0e6b217 	ldw	r3,-25912(gp)
 8003da8:	e0bffc17 	ldw	r2,-16(fp)
 8003dac:	1005003a 	cmpeq	r2,r2,zero
 8003db0:	18800105 	stb	r2,4(r3)
  CPU->A = (byte)temp & 0xFF;
 8003db4:	d0e6b217 	ldw	r3,-25912(gp)
 8003db8:	e0bffc17 	ldw	r2,-16(fp)
 8003dbc:	18800285 	stb	r2,10(r3)
  printf("SBC!\n");
 8003dc0:	01020074 	movhi	r4,2049
 8003dc4:	2113cb04 	addi	r4,r4,20268
 8003dc8:	80051d80 	call	80051d8 <puts>
  return;
}
 8003dcc:	e037883a 	mov	sp,fp
 8003dd0:	dfc00117 	ldw	ra,4(sp)
 8003dd4:	df000017 	ldw	fp,0(sp)
 8003dd8:	dec00204 	addi	sp,sp,8
 8003ddc:	f800283a 	ret

08003de0 <main>:
#include "cpu.h"

//#define DEBUG        // Enables methods for debugging functions

int main()
{
 8003de0:	defffc04 	addi	sp,sp,-16
 8003de4:	dfc00315 	stw	ra,12(sp)
 8003de8:	df000215 	stw	fp,8(sp)
 8003dec:	df000204 	addi	fp,sp,8
  // Declare appropriate arrays and variables
  char* file_name = "SMB.nes";
 8003df0:	00820074 	movhi	r2,2049
 8003df4:	1093cd04 	addi	r2,r2,20276
 8003df8:	e0bfff15 	stw	r2,-4(fp)
  char* en = (char*) malloc(sizeof(char)*2); // Buffer for cpu cycle pauses
 8003dfc:	01000084 	movi	r4,2
 8003e00:	80047500 	call	8004750 <malloc>
 8003e04:	e0bffe15 	stw	r2,-8(fp)

  // Initialize CPU
  cpu_init();
 8003e08:	8002ed00 	call	8002ed0 <cpu_init>

  // Execute CPU instructions
  while(1)
  {
	// Check for interrupts
	if(CPU->RES == 1) // Reset
 8003e0c:	d0a6b217 	ldw	r2,-25912(gp)
 8003e10:	108004c3 	ldbu	r2,19(r2)
 8003e14:	10803fcc 	andi	r2,r2,255
 8003e18:	10800058 	cmpnei	r2,r2,1
 8003e1c:	1000071e 	bne	r2,zero,8003e3c <main+0x5c>
	{
		// Load NES rom from file
		// bootloader(); // Not implemented yet --> Gets filename for ROM
		cpu_reset();
 8003e20:	8002db00 	call	8002db0 <cpu_reset>
		load_rom(file_name);
 8003e24:	e13fff17 	ldw	r4,-4(fp)
 8003e28:	8003ef00 	call	8003ef0 <load_rom>
			else
				++c;
		}
		printf("\n\n");
		#endif
		printf("RES!\n");
 8003e2c:	01020074 	movhi	r4,2049
 8003e30:	2113cf04 	addi	r4,r4,20284
 8003e34:	80051d80 	call	80051d8 <puts>
 8003e38:	00001606 	br	8003e94 <main+0xb4>
	} // end RESET
	else if(CPU->NMI == 1) // Non-maskable interrupt (PPU)
 8003e3c:	d0a6b217 	ldw	r2,-25912(gp)
 8003e40:	10800483 	ldbu	r2,18(r2)
 8003e44:	10803fcc 	andi	r2,r2,255
 8003e48:	10800058 	cmpnei	r2,r2,1
 8003e4c:	1000041e 	bne	r2,zero,8003e60 <main+0x80>
	{
		printf("NMI!\n");
 8003e50:	01020074 	movhi	r4,2049
 8003e54:	2113d104 	addi	r4,r4,20292
 8003e58:	80051d80 	call	80051d8 <puts>
 8003e5c:	00000d06 	br	8003e94 <main+0xb4>
	}
	else if((CPU->IRQ == 1) && (CPU->P.I == 0)) // Interrupt Request
 8003e60:	d0a6b217 	ldw	r2,-25912(gp)
 8003e64:	10800503 	ldbu	r2,20(r2)
 8003e68:	10803fcc 	andi	r2,r2,255
 8003e6c:	10800058 	cmpnei	r2,r2,1
 8003e70:	1000081e 	bne	r2,zero,8003e94 <main+0xb4>
 8003e74:	d0a6b217 	ldw	r2,-25912(gp)
 8003e78:	10800143 	ldbu	r2,5(r2)
 8003e7c:	10803fcc 	andi	r2,r2,255
 8003e80:	1004c03a 	cmpne	r2,r2,zero
 8003e84:	1000031e 	bne	r2,zero,8003e94 <main+0xb4>
	{
		// Note that IRQ will not work if interrupts are disabled
		printf("IRQ!\n");
 8003e88:	01020074 	movhi	r4,2049
 8003e8c:	2113d304 	addi	r4,r4,20300
 8003e90:	80051d80 	call	80051d8 <puts>
	}

	CPU->IR = CPU->MEM[ CPU->PC ];	// Load next instruction
 8003e94:	d126b217 	ldw	r4,-25912(gp)
 8003e98:	d0a6b217 	ldw	r2,-25912(gp)
 8003e9c:	10c00617 	ldw	r3,24(r2)
 8003ea0:	d0a6b217 	ldw	r2,-25912(gp)
 8003ea4:	1080000b 	ldhu	r2,0(r2)
 8003ea8:	10bfffcc 	andi	r2,r2,65535
 8003eac:	1885883a 	add	r2,r3,r2
 8003eb0:	10800003 	ldbu	r2,0(r2)
 8003eb4:	20800445 	stb	r2,17(r4)
	cpu_status(); // Debug CPU
 8003eb8:	8002f240 	call	8002f24 <cpu_status>
	++CPU->PC;	  // Increment PC
 8003ebc:	d0e6b217 	ldw	r3,-25912(gp)
 8003ec0:	1880000b 	ldhu	r2,0(r3)
 8003ec4:	10800044 	addi	r2,r2,1
 8003ec8:	1880000d 	sth	r2,0(r3)
	cpu_exec();   // Tick CPU (Execute Instruction)
 8003ecc:	80001f00 	call	80001f0 <cpu_exec>

	// Wait until enter is pressed to step-through
	fgets(en, 2, stdin);
 8003ed0:	00820074 	movhi	r2,2049
 8003ed4:	109b8304 	addi	r2,r2,28172
 8003ed8:	10800017 	ldw	r2,0(r2)
 8003edc:	11800117 	ldw	r6,4(r2)
 8003ee0:	e13ffe17 	ldw	r4,-8(fp)
 8003ee4:	01400084 	movi	r5,2
 8003ee8:	80042a40 	call	80042a4 <fgets>
  }
 8003eec:	003fc706 	br	8003e0c <main+0x2c>

08003ef0 <load_rom>:
#include "sdcard.h"

void load_rom(char* rom)
{
 8003ef0:	defff904 	addi	sp,sp,-28
 8003ef4:	dfc00615 	stw	ra,24(sp)
 8003ef8:	df000515 	stw	fp,20(sp)
 8003efc:	df000504 	addi	fp,sp,20
 8003f00:	e13fff15 	stw	r4,-4(fp)
	int sd_fileh;

	// This functions links the verilog modules with C
	alt_up_sd_card_dev *sd_card_dev = alt_up_sd_card_open_dev(ALTERA_UP_SD_CARD_AVALON_INTERFACE_0_NAME);
 8003f04:	01020074 	movhi	r4,2049
 8003f08:	2113d504 	addi	r4,r4,20308
 8003f0c:	80123180 	call	8012318 <alt_up_sd_card_open_dev>
 8003f10:	e0bffd15 	stw	r2,-12(fp)

	// Checks if it was able to obtain the address of the SD Card Socket
	if(sd_card_dev == 0)
 8003f14:	e0bffd17 	ldw	r2,-12(fp)
 8003f18:	1004c03a 	cmpne	r2,r2,zero
 8003f1c:	1000041e 	bne	r2,zero,8003f30 <load_rom+0x40>
	{
		printf("ERROR: UNABLE TO OBATIN SD SOCKET ADDRESS\n");
 8003f20:	01020074 	movhi	r4,2049
 8003f24:	2113e004 	addi	r4,r4,20352
 8003f28:	80051d80 	call	80051d8 <puts>
		return;
 8003f2c:	00008606 	br	8004148 <load_rom+0x258>
	}

	// Checks if the SD Card is Present in the Socket
	if(!alt_up_sd_card_is_Present())
 8003f30:	80123dc0 	call	80123dc <alt_up_sd_card_is_Present>
 8003f34:	1004c03a 	cmpne	r2,r2,zero
 8003f38:	1000041e 	bne	r2,zero,8003f4c <load_rom+0x5c>
	{
		printf("ERROR: SD CARD NOT PRESENT\n");
 8003f3c:	01020074 	movhi	r4,2049
 8003f40:	2113eb04 	addi	r4,r4,20396
 8003f44:	80051d80 	call	80051d8 <puts>
		return;
 8003f48:	00007f06 	br	8004148 <load_rom+0x258>
	}

	// Check if the Card is Fat16
	if(alt_up_sd_card_is_FAT16())
 8003f4c:	80124a40 	call	80124a4 <alt_up_sd_card_is_FAT16>
 8003f50:	1005003a 	cmpeq	r2,r2,zero
 8003f54:	1000721e 	bne	r2,zero,8004120 <load_rom+0x230>
	{
		//opens the file to be read - 0 if successful
		printf("Opening %s...\n", rom);
 8003f58:	01020074 	movhi	r4,2049
 8003f5c:	2113f204 	addi	r4,r4,20424
 8003f60:	e17fff17 	ldw	r5,-4(fp)
 8003f64:	80050c00 	call	80050c0 <printf>
		sd_fileh = alt_up_sd_card_fopen(rom, false);
 8003f68:	e13fff17 	ldw	r4,-4(fp)
 8003f6c:	000b883a 	mov	r5,zero
 8003f70:	801299c0 	call	801299c <alt_up_sd_card_fopen>
 8003f74:	10bfffcc 	andi	r2,r2,65535
 8003f78:	10a0001c 	xori	r2,r2,32768
 8003f7c:	10a00004 	addi	r2,r2,-32768
 8003f80:	e0bffe15 	stw	r2,-8(fp)

		// Successful open
		if(sd_fileh == 0)
 8003f84:	e0bffe17 	ldw	r2,-8(fp)
 8003f88:	1004c03a 	cmpne	r2,r2,zero
 8003f8c:	1000601e 	bne	r2,zero,8004110 <load_rom+0x220>
		{
			char data = 0;
 8003f90:	e03ffc05 	stb	zero,-16(fp)
			int i = 0;
 8003f94:	e03ffb15 	stw	zero,-20(fp)

			// Skip 'NES' (4 bytes)
			for(i = 0; i < 4; i++)
 8003f98:	e03ffb15 	stw	zero,-20(fp)
 8003f9c:	00000906 	br	8003fc4 <load_rom+0xd4>
			  data = alt_up_sd_card_read(sd_fileh);
 8003fa0:	e0bffe17 	ldw	r2,-8(fp)
 8003fa4:	113fffcc 	andi	r4,r2,65535
 8003fa8:	2120001c 	xori	r4,r4,32768
 8003fac:	21200004 	addi	r4,r4,-32768
 8003fb0:	8012e600 	call	8012e60 <alt_up_sd_card_read>
 8003fb4:	e0bffc05 	stb	r2,-16(fp)
		{
			char data = 0;
			int i = 0;

			// Skip 'NES' (4 bytes)
			for(i = 0; i < 4; i++)
 8003fb8:	e0bffb17 	ldw	r2,-20(fp)
 8003fbc:	10800044 	addi	r2,r2,1
 8003fc0:	e0bffb15 	stw	r2,-20(fp)
 8003fc4:	e0bffb17 	ldw	r2,-20(fp)
 8003fc8:	10800110 	cmplti	r2,r2,4
 8003fcc:	103ff41e 	bne	r2,zero,8003fa0 <load_rom+0xb0>
			  data = alt_up_sd_card_read(sd_fileh);

			// Get PRG and CHR size
			prg_size = alt_up_sd_card_read(sd_fileh);
 8003fd0:	e0bffe17 	ldw	r2,-8(fp)
 8003fd4:	113fffcc 	andi	r4,r2,65535
 8003fd8:	2120001c 	xori	r4,r4,32768
 8003fdc:	21200004 	addi	r4,r4,-32768
 8003fe0:	8012e600 	call	8012e60 <alt_up_sd_card_read>
 8003fe4:	d0a6b305 	stb	r2,-25908(gp)
			chr_size = alt_up_sd_card_read(sd_fileh);
 8003fe8:	e0bffe17 	ldw	r2,-8(fp)
 8003fec:	113fffcc 	andi	r4,r2,65535
 8003ff0:	2120001c 	xori	r4,r4,32768
 8003ff4:	21200004 	addi	r4,r4,-32768
 8003ff8:	8012e600 	call	8012e60 <alt_up_sd_card_read>
 8003ffc:	d0a6b345 	stb	r2,-25907(gp)
			CHR_ROM = (byte*) malloc(sizeof(byte)*8*1024*chr_size);
 8004000:	d0a6b343 	ldbu	r2,-25907(gp)
 8004004:	10803fcc 	andi	r2,r2,255
 8004008:	1008937a 	slli	r4,r2,13
 800400c:	80047500 	call	8004750 <malloc>
 8004010:	d0a6b415 	stw	r2,-25904(gp)

			// Skip last 10 bytes of header
			for(i = 0; i < 10; i++)
 8004014:	e03ffb15 	stw	zero,-20(fp)
 8004018:	00000906 	br	8004040 <load_rom+0x150>
			  data = alt_up_sd_card_read(sd_fileh);
 800401c:	e0bffe17 	ldw	r2,-8(fp)
 8004020:	113fffcc 	andi	r4,r2,65535
 8004024:	2120001c 	xori	r4,r4,32768
 8004028:	21200004 	addi	r4,r4,-32768
 800402c:	8012e600 	call	8012e60 <alt_up_sd_card_read>
 8004030:	e0bffc05 	stb	r2,-16(fp)
			prg_size = alt_up_sd_card_read(sd_fileh);
			chr_size = alt_up_sd_card_read(sd_fileh);
			CHR_ROM = (byte*) malloc(sizeof(byte)*8*1024*chr_size);

			// Skip last 10 bytes of header
			for(i = 0; i < 10; i++)
 8004034:	e0bffb17 	ldw	r2,-20(fp)
 8004038:	10800044 	addi	r2,r2,1
 800403c:	e0bffb15 	stw	r2,-20(fp)
 8004040:	e0bffb17 	ldw	r2,-20(fp)
 8004044:	10800290 	cmplti	r2,r2,10
 8004048:	103ff41e 	bne	r2,zero,800401c <load_rom+0x12c>
			  data = alt_up_sd_card_read(sd_fileh);

			// Extract the PRG Data
			for(i = 0; i < (prg_size*16*1024); ++i)
 800404c:	e03ffb15 	stw	zero,-20(fp)
 8004050:	00001106 	br	8004098 <load_rom+0x1a8>
			{
			  data = alt_up_sd_card_read(sd_fileh);
 8004054:	e0bffe17 	ldw	r2,-8(fp)
 8004058:	113fffcc 	andi	r4,r2,65535
 800405c:	2120001c 	xori	r4,r4,32768
 8004060:	21200004 	addi	r4,r4,-32768
 8004064:	8012e600 	call	8012e60 <alt_up_sd_card_read>
 8004068:	e0bffc05 	stb	r2,-16(fp)
			  CPU->MEM[i+0x8000] = (byte)data;
 800406c:	d0a6b217 	ldw	r2,-25912(gp)
 8004070:	10c00617 	ldw	r3,24(r2)
 8004074:	e0bffb17 	ldw	r2,-20(fp)
 8004078:	1887883a 	add	r3,r3,r2
 800407c:	00a00014 	movui	r2,32768
 8004080:	1887883a 	add	r3,r3,r2
 8004084:	e0bffc03 	ldbu	r2,-16(fp)
 8004088:	18800005 	stb	r2,0(r3)
			// Skip last 10 bytes of header
			for(i = 0; i < 10; i++)
			  data = alt_up_sd_card_read(sd_fileh);

			// Extract the PRG Data
			for(i = 0; i < (prg_size*16*1024); ++i)
 800408c:	e0bffb17 	ldw	r2,-20(fp)
 8004090:	10800044 	addi	r2,r2,1
 8004094:	e0bffb15 	stw	r2,-20(fp)
 8004098:	d0a6b303 	ldbu	r2,-25908(gp)
 800409c:	10803fcc 	andi	r2,r2,255
 80040a0:	100693ba 	slli	r3,r2,14
 80040a4:	e0bffb17 	ldw	r2,-20(fp)
 80040a8:	10ffea16 	blt	r2,r3,8004054 <load_rom+0x164>
			  data = alt_up_sd_card_read(sd_fileh);
			  CPU->MEM[i+0x8000] = (byte)data;
			}

			// Extract CHR Data
			for(i = 0; i < (chr_size*8*1024); ++i)
 80040ac:	e03ffb15 	stw	zero,-20(fp)
 80040b0:	00000e06 	br	80040ec <load_rom+0x1fc>
			{
			  data = alt_up_sd_card_read(sd_fileh);
 80040b4:	e0bffe17 	ldw	r2,-8(fp)
 80040b8:	113fffcc 	andi	r4,r2,65535
 80040bc:	2120001c 	xori	r4,r4,32768
 80040c0:	21200004 	addi	r4,r4,-32768
 80040c4:	8012e600 	call	8012e60 <alt_up_sd_card_read>
 80040c8:	e0bffc05 	stb	r2,-16(fp)
			  CHR_ROM[i] = (byte) data;
 80040cc:	d0e6b417 	ldw	r3,-25904(gp)
 80040d0:	e0bffb17 	ldw	r2,-20(fp)
 80040d4:	1887883a 	add	r3,r3,r2
 80040d8:	e0bffc03 	ldbu	r2,-16(fp)
 80040dc:	18800005 	stb	r2,0(r3)
			  data = alt_up_sd_card_read(sd_fileh);
			  CPU->MEM[i+0x8000] = (byte)data;
			}

			// Extract CHR Data
			for(i = 0; i < (chr_size*8*1024); ++i)
 80040e0:	e0bffb17 	ldw	r2,-20(fp)
 80040e4:	10800044 	addi	r2,r2,1
 80040e8:	e0bffb15 	stw	r2,-20(fp)
 80040ec:	d0a6b343 	ldbu	r2,-25907(gp)
 80040f0:	10803fcc 	andi	r2,r2,255
 80040f4:	1006937a 	slli	r3,r2,13
 80040f8:	e0bffb17 	ldw	r2,-20(fp)
 80040fc:	10ffed16 	blt	r2,r3,80040b4 <load_rom+0x1c4>
			{
			  data = alt_up_sd_card_read(sd_fileh);
			  CHR_ROM[i] = (byte) data;
			}

			printf("Successfully Completed\n");
 8004100:	01020074 	movhi	r4,2049
 8004104:	2113f604 	addi	r4,r4,20440
 8004108:	80051d80 	call	80051d8 <puts>
 800410c:	00000706 	br	800412c <load_rom+0x23c>
		}
		else
			printf("ERROR: OPENING FILE\n");
 8004110:	01020074 	movhi	r4,2049
 8004114:	2113fc04 	addi	r4,r4,20464
 8004118:	80051d80 	call	80051d8 <puts>
 800411c:	00000306 	br	800412c <load_rom+0x23c>
	}
	else
		printf("ERROR: SD CARD NOT FAT16 FORMAT\n");
 8004120:	01020074 	movhi	r4,2049
 8004124:	21140104 	addi	r4,r4,20484
 8004128:	80051d80 	call	80051d8 <puts>


	printf("Done loading memory! prg_size, chr_size: %d %d\n", prg_size, chr_size);
 800412c:	d0a6b303 	ldbu	r2,-25908(gp)
 8004130:	11403fcc 	andi	r5,r2,255
 8004134:	d0a6b343 	ldbu	r2,-25907(gp)
 8004138:	11803fcc 	andi	r6,r2,255
 800413c:	01020074 	movhi	r4,2049
 8004140:	21140904 	addi	r4,r4,20516
 8004144:	80050c00 	call	80050c0 <printf>
	return;
}
 8004148:	e037883a 	mov	sp,fp
 800414c:	dfc00117 	ldw	ra,4(sp)
 8004150:	df000017 	ldw	fp,0(sp)
 8004154:	dec00204 	addi	sp,sp,8
 8004158:	f800283a 	ret

0800415c <_fgets_r>:
 800415c:	defff804 	addi	sp,sp,-32
 8004160:	00800044 	movi	r2,1
 8004164:	dd800615 	stw	r22,24(sp)
 8004168:	dd400515 	stw	r21,20(sp)
 800416c:	dc400115 	stw	r17,4(sp)
 8004170:	dc000015 	stw	r16,0(sp)
 8004174:	dfc00715 	stw	ra,28(sp)
 8004178:	dd000415 	stw	r20,16(sp)
 800417c:	dcc00315 	stw	r19,12(sp)
 8004180:	dc800215 	stw	r18,8(sp)
 8004184:	3021883a 	mov	r16,r6
 8004188:	282d883a 	mov	r22,r5
 800418c:	3823883a 	mov	r17,r7
 8004190:	202b883a 	mov	r21,r4
 8004194:	1180410e 	bge	r2,r6,800429c <_fgets_r+0x140>
 8004198:	20000226 	beq	r4,zero,80041a4 <_fgets_r+0x48>
 800419c:	20800e17 	ldw	r2,56(r4)
 80041a0:	10002e26 	beq	r2,zero,800425c <_fgets_r+0x100>
 80041a4:	853fffc4 	addi	r20,r16,-1
 80041a8:	b027883a 	mov	r19,r22
 80041ac:	88800117 	ldw	r2,4(r17)
 80041b0:	a809883a 	mov	r4,r21
 80041b4:	880b883a 	mov	r5,r17
 80041b8:	100d883a 	mov	r6,r2
 80041bc:	1000031e 	bne	r2,zero,80041cc <_fgets_r+0x70>
 80041c0:	80051ec0 	call	80051ec <__srefill_r>
 80041c4:	1000341e 	bne	r2,zero,8004298 <_fgets_r+0x13c>
 80041c8:	89800117 	ldw	r6,4(r17)
 80041cc:	01400284 	movi	r5,10
 80041d0:	3021883a 	mov	r16,r6
 80041d4:	8c800017 	ldw	r18,0(r17)
 80041d8:	a180012e 	bgeu	r20,r6,80041e0 <_fgets_r+0x84>
 80041dc:	a021883a 	mov	r16,r20
 80041e0:	9009883a 	mov	r4,r18
 80041e4:	800d883a 	mov	r6,r16
 80041e8:	8004ea40 	call	8004ea4 <memchr>
 80041ec:	1007883a 	mov	r3,r2
 80041f0:	900b883a 	mov	r5,r18
 80041f4:	9809883a 	mov	r4,r19
 80041f8:	800d883a 	mov	r6,r16
 80041fc:	1000191e 	bne	r2,zero,8004264 <_fgets_r+0x108>
 8004200:	88800117 	ldw	r2,4(r17)
 8004204:	88c00017 	ldw	r3,0(r17)
 8004208:	9c27883a 	add	r19,r19,r16
 800420c:	1405c83a 	sub	r2,r2,r16
 8004210:	1c07883a 	add	r3,r3,r16
 8004214:	88c00015 	stw	r3,0(r17)
 8004218:	88800115 	stw	r2,4(r17)
 800421c:	8004f880 	call	8004f88 <memcpy>
 8004220:	a407c83a 	sub	r3,r20,r16
 8004224:	1829883a 	mov	r20,r3
 8004228:	183fe01e 	bne	r3,zero,80041ac <_fgets_r+0x50>
 800422c:	98000005 	stb	zero,0(r19)
 8004230:	b005883a 	mov	r2,r22
 8004234:	dfc00717 	ldw	ra,28(sp)
 8004238:	dd800617 	ldw	r22,24(sp)
 800423c:	dd400517 	ldw	r21,20(sp)
 8004240:	dd000417 	ldw	r20,16(sp)
 8004244:	dcc00317 	ldw	r19,12(sp)
 8004248:	dc800217 	ldw	r18,8(sp)
 800424c:	dc400117 	ldw	r17,4(sp)
 8004250:	dc000017 	ldw	r16,0(sp)
 8004254:	dec00804 	addi	sp,sp,32
 8004258:	f800283a 	ret
 800425c:	80043300 	call	8004330 <__sinit>
 8004260:	003fd006 	br	80041a4 <_fgets_r+0x48>
 8004264:	88800117 	ldw	r2,4(r17)
 8004268:	18c00044 	addi	r3,r3,1
 800426c:	1ca1c83a 	sub	r16,r3,r18
 8004270:	1405c83a 	sub	r2,r2,r16
 8004274:	800d883a 	mov	r6,r16
 8004278:	88c00015 	stw	r3,0(r17)
 800427c:	88800115 	stw	r2,4(r17)
 8004280:	900b883a 	mov	r5,r18
 8004284:	9809883a 	mov	r4,r19
 8004288:	8004f880 	call	8004f88 <memcpy>
 800428c:	9c21883a 	add	r16,r19,r16
 8004290:	80000005 	stb	zero,0(r16)
 8004294:	003fe606 	br	8004230 <_fgets_r+0xd4>
 8004298:	9dbfe41e 	bne	r19,r22,800422c <_fgets_r+0xd0>
 800429c:	002d883a 	mov	r22,zero
 80042a0:	003fe306 	br	8004230 <_fgets_r+0xd4>

080042a4 <fgets>:
 80042a4:	00820074 	movhi	r2,2049
 80042a8:	109b8304 	addi	r2,r2,28172
 80042ac:	2013883a 	mov	r9,r4
 80042b0:	11000017 	ldw	r4,0(r2)
 80042b4:	2805883a 	mov	r2,r5
 80042b8:	300f883a 	mov	r7,r6
 80042bc:	480b883a 	mov	r5,r9
 80042c0:	100d883a 	mov	r6,r2
 80042c4:	800415c1 	jmpi	800415c <_fgets_r>

080042c8 <std>:
 80042c8:	00820034 	movhi	r2,2048
 80042cc:	10950f04 	addi	r2,r2,21564
 80042d0:	20800b15 	stw	r2,44(r4)
 80042d4:	00820034 	movhi	r2,2048
 80042d8:	10954a04 	addi	r2,r2,21800
 80042dc:	20800815 	stw	r2,32(r4)
 80042e0:	00c20034 	movhi	r3,2048
 80042e4:	18d52b04 	addi	r3,r3,21676
 80042e8:	00820034 	movhi	r2,2048
 80042ec:	10951104 	addi	r2,r2,21572
 80042f0:	2140030d 	sth	r5,12(r4)
 80042f4:	2180038d 	sth	r6,14(r4)
 80042f8:	20c00915 	stw	r3,36(r4)
 80042fc:	20800a15 	stw	r2,40(r4)
 8004300:	20000015 	stw	zero,0(r4)
 8004304:	20000115 	stw	zero,4(r4)
 8004308:	20000215 	stw	zero,8(r4)
 800430c:	20000415 	stw	zero,16(r4)
 8004310:	20000515 	stw	zero,20(r4)
 8004314:	20000615 	stw	zero,24(r4)
 8004318:	21000715 	stw	r4,28(r4)
 800431c:	f800283a 	ret

08004320 <__sfp_lock_acquire>:
 8004320:	f800283a 	ret

08004324 <__sfp_lock_release>:
 8004324:	f800283a 	ret

08004328 <__sinit_lock_acquire>:
 8004328:	f800283a 	ret

0800432c <__sinit_lock_release>:
 800432c:	f800283a 	ret

08004330 <__sinit>:
 8004330:	20800e17 	ldw	r2,56(r4)
 8004334:	defffd04 	addi	sp,sp,-12
 8004338:	dc400115 	stw	r17,4(sp)
 800433c:	dc000015 	stw	r16,0(sp)
 8004340:	dfc00215 	stw	ra,8(sp)
 8004344:	04400044 	movi	r17,1
 8004348:	01400104 	movi	r5,4
 800434c:	000d883a 	mov	r6,zero
 8004350:	2021883a 	mov	r16,r4
 8004354:	2200bb04 	addi	r8,r4,748
 8004358:	200f883a 	mov	r7,r4
 800435c:	10000526 	beq	r2,zero,8004374 <__sinit+0x44>
 8004360:	dfc00217 	ldw	ra,8(sp)
 8004364:	dc400117 	ldw	r17,4(sp)
 8004368:	dc000017 	ldw	r16,0(sp)
 800436c:	dec00304 	addi	sp,sp,12
 8004370:	f800283a 	ret
 8004374:	21000117 	ldw	r4,4(r4)
 8004378:	00820034 	movhi	r2,2048
 800437c:	10910504 	addi	r2,r2,17428
 8004380:	00c000c4 	movi	r3,3
 8004384:	80800f15 	stw	r2,60(r16)
 8004388:	80c0b915 	stw	r3,740(r16)
 800438c:	8200ba15 	stw	r8,744(r16)
 8004390:	84400e15 	stw	r17,56(r16)
 8004394:	8000b815 	stw	zero,736(r16)
 8004398:	80042c80 	call	80042c8 <std>
 800439c:	81000217 	ldw	r4,8(r16)
 80043a0:	880d883a 	mov	r6,r17
 80043a4:	800f883a 	mov	r7,r16
 80043a8:	01400284 	movi	r5,10
 80043ac:	80042c80 	call	80042c8 <std>
 80043b0:	81000317 	ldw	r4,12(r16)
 80043b4:	800f883a 	mov	r7,r16
 80043b8:	01400484 	movi	r5,18
 80043bc:	01800084 	movi	r6,2
 80043c0:	dfc00217 	ldw	ra,8(sp)
 80043c4:	dc400117 	ldw	r17,4(sp)
 80043c8:	dc000017 	ldw	r16,0(sp)
 80043cc:	dec00304 	addi	sp,sp,12
 80043d0:	80042c81 	jmpi	80042c8 <std>

080043d4 <__fp_lock>:
 80043d4:	0005883a 	mov	r2,zero
 80043d8:	f800283a 	ret

080043dc <__fp_unlock>:
 80043dc:	0005883a 	mov	r2,zero
 80043e0:	f800283a 	ret

080043e4 <__fp_unlock_all>:
 80043e4:	00820074 	movhi	r2,2049
 80043e8:	109b8304 	addi	r2,r2,28172
 80043ec:	11000017 	ldw	r4,0(r2)
 80043f0:	01420034 	movhi	r5,2048
 80043f4:	2950f704 	addi	r5,r5,17372
 80043f8:	80046841 	jmpi	8004684 <_fwalk>

080043fc <__fp_lock_all>:
 80043fc:	00820074 	movhi	r2,2049
 8004400:	109b8304 	addi	r2,r2,28172
 8004404:	11000017 	ldw	r4,0(r2)
 8004408:	01420034 	movhi	r5,2048
 800440c:	2950f504 	addi	r5,r5,17364
 8004410:	80046841 	jmpi	8004684 <_fwalk>

08004414 <_cleanup_r>:
 8004414:	01420074 	movhi	r5,2049
 8004418:	29641a04 	addi	r5,r5,-28568
 800441c:	80046841 	jmpi	8004684 <_fwalk>

08004420 <_cleanup>:
 8004420:	00820074 	movhi	r2,2049
 8004424:	109b8404 	addi	r2,r2,28176
 8004428:	11000017 	ldw	r4,0(r2)
 800442c:	80044141 	jmpi	8004414 <_cleanup_r>

08004430 <__sfmoreglue>:
 8004430:	defffc04 	addi	sp,sp,-16
 8004434:	dc000015 	stw	r16,0(sp)
 8004438:	2821883a 	mov	r16,r5
 800443c:	dc400115 	stw	r17,4(sp)
 8004440:	01401704 	movi	r5,92
 8004444:	2023883a 	mov	r17,r4
 8004448:	8009883a 	mov	r4,r16
 800444c:	dfc00315 	stw	ra,12(sp)
 8004450:	dcc00215 	stw	r19,8(sp)
 8004454:	800d84c0 	call	800d84c <__mulsi3>
 8004458:	11400304 	addi	r5,r2,12
 800445c:	8809883a 	mov	r4,r17
 8004460:	1027883a 	mov	r19,r2
 8004464:	80047640 	call	8004764 <_malloc_r>
 8004468:	10c00304 	addi	r3,r2,12
 800446c:	1023883a 	mov	r17,r2
 8004470:	1809883a 	mov	r4,r3
 8004474:	980d883a 	mov	r6,r19
 8004478:	000b883a 	mov	r5,zero
 800447c:	10000b26 	beq	r2,zero,80044ac <__sfmoreglue+0x7c>
 8004480:	14000115 	stw	r16,4(r2)
 8004484:	10c00215 	stw	r3,8(r2)
 8004488:	10000015 	stw	zero,0(r2)
 800448c:	80050280 	call	8005028 <memset>
 8004490:	8805883a 	mov	r2,r17
 8004494:	dfc00317 	ldw	ra,12(sp)
 8004498:	dcc00217 	ldw	r19,8(sp)
 800449c:	dc400117 	ldw	r17,4(sp)
 80044a0:	dc000017 	ldw	r16,0(sp)
 80044a4:	dec00404 	addi	sp,sp,16
 80044a8:	f800283a 	ret
 80044ac:	0023883a 	mov	r17,zero
 80044b0:	8805883a 	mov	r2,r17
 80044b4:	dfc00317 	ldw	ra,12(sp)
 80044b8:	dcc00217 	ldw	r19,8(sp)
 80044bc:	dc400117 	ldw	r17,4(sp)
 80044c0:	dc000017 	ldw	r16,0(sp)
 80044c4:	dec00404 	addi	sp,sp,16
 80044c8:	f800283a 	ret

080044cc <__sfp>:
 80044cc:	defffd04 	addi	sp,sp,-12
 80044d0:	00820074 	movhi	r2,2049
 80044d4:	109b8404 	addi	r2,r2,28176
 80044d8:	dc000015 	stw	r16,0(sp)
 80044dc:	14000017 	ldw	r16,0(r2)
 80044e0:	dc400115 	stw	r17,4(sp)
 80044e4:	dfc00215 	stw	ra,8(sp)
 80044e8:	80800e17 	ldw	r2,56(r16)
 80044ec:	2023883a 	mov	r17,r4
 80044f0:	10002626 	beq	r2,zero,800458c <__sfp+0xc0>
 80044f4:	8400b804 	addi	r16,r16,736
 80044f8:	80800117 	ldw	r2,4(r16)
 80044fc:	81000217 	ldw	r4,8(r16)
 8004500:	10ffffc4 	addi	r3,r2,-1
 8004504:	18000916 	blt	r3,zero,800452c <__sfp+0x60>
 8004508:	2080030f 	ldh	r2,12(r4)
 800450c:	10000b26 	beq	r2,zero,800453c <__sfp+0x70>
 8004510:	017fffc4 	movi	r5,-1
 8004514:	00000206 	br	8004520 <__sfp+0x54>
 8004518:	2080030f 	ldh	r2,12(r4)
 800451c:	10000726 	beq	r2,zero,800453c <__sfp+0x70>
 8004520:	18ffffc4 	addi	r3,r3,-1
 8004524:	21001704 	addi	r4,r4,92
 8004528:	197ffb1e 	bne	r3,r5,8004518 <__sfp+0x4c>
 800452c:	80800017 	ldw	r2,0(r16)
 8004530:	10001926 	beq	r2,zero,8004598 <__sfp+0xcc>
 8004534:	1021883a 	mov	r16,r2
 8004538:	003fef06 	br	80044f8 <__sfp+0x2c>
 800453c:	00bfffc4 	movi	r2,-1
 8004540:	00c00044 	movi	r3,1
 8004544:	2080038d 	sth	r2,14(r4)
 8004548:	20c0030d 	sth	r3,12(r4)
 800454c:	20000015 	stw	zero,0(r4)
 8004550:	20000215 	stw	zero,8(r4)
 8004554:	20000115 	stw	zero,4(r4)
 8004558:	20000415 	stw	zero,16(r4)
 800455c:	20000515 	stw	zero,20(r4)
 8004560:	20000615 	stw	zero,24(r4)
 8004564:	20000c15 	stw	zero,48(r4)
 8004568:	20000d15 	stw	zero,52(r4)
 800456c:	20001115 	stw	zero,68(r4)
 8004570:	20001215 	stw	zero,72(r4)
 8004574:	2005883a 	mov	r2,r4
 8004578:	dfc00217 	ldw	ra,8(sp)
 800457c:	dc400117 	ldw	r17,4(sp)
 8004580:	dc000017 	ldw	r16,0(sp)
 8004584:	dec00304 	addi	sp,sp,12
 8004588:	f800283a 	ret
 800458c:	8009883a 	mov	r4,r16
 8004590:	80043300 	call	8004330 <__sinit>
 8004594:	003fd706 	br	80044f4 <__sfp+0x28>
 8004598:	8809883a 	mov	r4,r17
 800459c:	01400104 	movi	r5,4
 80045a0:	80044300 	call	8004430 <__sfmoreglue>
 80045a4:	80800015 	stw	r2,0(r16)
 80045a8:	103fe21e 	bne	r2,zero,8004534 <__sfp+0x68>
 80045ac:	00800304 	movi	r2,12
 80045b0:	0009883a 	mov	r4,zero
 80045b4:	88800015 	stw	r2,0(r17)
 80045b8:	003fee06 	br	8004574 <__sfp+0xa8>

080045bc <_fwalk_reent>:
 80045bc:	defff704 	addi	sp,sp,-36
 80045c0:	dcc00315 	stw	r19,12(sp)
 80045c4:	24c0b804 	addi	r19,r4,736
 80045c8:	dd800615 	stw	r22,24(sp)
 80045cc:	dd400515 	stw	r21,20(sp)
 80045d0:	dfc00815 	stw	ra,32(sp)
 80045d4:	ddc00715 	stw	r23,28(sp)
 80045d8:	dd000415 	stw	r20,16(sp)
 80045dc:	dc800215 	stw	r18,8(sp)
 80045e0:	dc400115 	stw	r17,4(sp)
 80045e4:	dc000015 	stw	r16,0(sp)
 80045e8:	202b883a 	mov	r21,r4
 80045ec:	282d883a 	mov	r22,r5
 80045f0:	80043200 	call	8004320 <__sfp_lock_acquire>
 80045f4:	98002126 	beq	r19,zero,800467c <_fwalk_reent+0xc0>
 80045f8:	002f883a 	mov	r23,zero
 80045fc:	9c800117 	ldw	r18,4(r19)
 8004600:	9c000217 	ldw	r16,8(r19)
 8004604:	90bfffc4 	addi	r2,r18,-1
 8004608:	10000d16 	blt	r2,zero,8004640 <_fwalk_reent+0x84>
 800460c:	0023883a 	mov	r17,zero
 8004610:	053fffc4 	movi	r20,-1
 8004614:	8080030f 	ldh	r2,12(r16)
 8004618:	8c400044 	addi	r17,r17,1
 800461c:	10000626 	beq	r2,zero,8004638 <_fwalk_reent+0x7c>
 8004620:	8080038f 	ldh	r2,14(r16)
 8004624:	800b883a 	mov	r5,r16
 8004628:	a809883a 	mov	r4,r21
 800462c:	15000226 	beq	r2,r20,8004638 <_fwalk_reent+0x7c>
 8004630:	b03ee83a 	callr	r22
 8004634:	b8aeb03a 	or	r23,r23,r2
 8004638:	84001704 	addi	r16,r16,92
 800463c:	947ff51e 	bne	r18,r17,8004614 <_fwalk_reent+0x58>
 8004640:	9cc00017 	ldw	r19,0(r19)
 8004644:	983fed1e 	bne	r19,zero,80045fc <_fwalk_reent+0x40>
 8004648:	80043240 	call	8004324 <__sfp_lock_release>
 800464c:	b805883a 	mov	r2,r23
 8004650:	dfc00817 	ldw	ra,32(sp)
 8004654:	ddc00717 	ldw	r23,28(sp)
 8004658:	dd800617 	ldw	r22,24(sp)
 800465c:	dd400517 	ldw	r21,20(sp)
 8004660:	dd000417 	ldw	r20,16(sp)
 8004664:	dcc00317 	ldw	r19,12(sp)
 8004668:	dc800217 	ldw	r18,8(sp)
 800466c:	dc400117 	ldw	r17,4(sp)
 8004670:	dc000017 	ldw	r16,0(sp)
 8004674:	dec00904 	addi	sp,sp,36
 8004678:	f800283a 	ret
 800467c:	002f883a 	mov	r23,zero
 8004680:	003ff106 	br	8004648 <_fwalk_reent+0x8c>

08004684 <_fwalk>:
 8004684:	defff804 	addi	sp,sp,-32
 8004688:	dcc00315 	stw	r19,12(sp)
 800468c:	24c0b804 	addi	r19,r4,736
 8004690:	dd400515 	stw	r21,20(sp)
 8004694:	dfc00715 	stw	ra,28(sp)
 8004698:	dd800615 	stw	r22,24(sp)
 800469c:	dd000415 	stw	r20,16(sp)
 80046a0:	dc800215 	stw	r18,8(sp)
 80046a4:	dc400115 	stw	r17,4(sp)
 80046a8:	dc000015 	stw	r16,0(sp)
 80046ac:	282b883a 	mov	r21,r5
 80046b0:	80043200 	call	8004320 <__sfp_lock_acquire>
 80046b4:	98001f26 	beq	r19,zero,8004734 <_fwalk+0xb0>
 80046b8:	002d883a 	mov	r22,zero
 80046bc:	9c800117 	ldw	r18,4(r19)
 80046c0:	9c000217 	ldw	r16,8(r19)
 80046c4:	90bfffc4 	addi	r2,r18,-1
 80046c8:	10000c16 	blt	r2,zero,80046fc <_fwalk+0x78>
 80046cc:	0023883a 	mov	r17,zero
 80046d0:	053fffc4 	movi	r20,-1
 80046d4:	8080030f 	ldh	r2,12(r16)
 80046d8:	8c400044 	addi	r17,r17,1
 80046dc:	10000526 	beq	r2,zero,80046f4 <_fwalk+0x70>
 80046e0:	8080038f 	ldh	r2,14(r16)
 80046e4:	8009883a 	mov	r4,r16
 80046e8:	15000226 	beq	r2,r20,80046f4 <_fwalk+0x70>
 80046ec:	a83ee83a 	callr	r21
 80046f0:	b0acb03a 	or	r22,r22,r2
 80046f4:	84001704 	addi	r16,r16,92
 80046f8:	947ff61e 	bne	r18,r17,80046d4 <_fwalk+0x50>
 80046fc:	9cc00017 	ldw	r19,0(r19)
 8004700:	983fee1e 	bne	r19,zero,80046bc <_fwalk+0x38>
 8004704:	80043240 	call	8004324 <__sfp_lock_release>
 8004708:	b005883a 	mov	r2,r22
 800470c:	dfc00717 	ldw	ra,28(sp)
 8004710:	dd800617 	ldw	r22,24(sp)
 8004714:	dd400517 	ldw	r21,20(sp)
 8004718:	dd000417 	ldw	r20,16(sp)
 800471c:	dcc00317 	ldw	r19,12(sp)
 8004720:	dc800217 	ldw	r18,8(sp)
 8004724:	dc400117 	ldw	r17,4(sp)
 8004728:	dc000017 	ldw	r16,0(sp)
 800472c:	dec00804 	addi	sp,sp,32
 8004730:	f800283a 	ret
 8004734:	002d883a 	mov	r22,zero
 8004738:	003ff206 	br	8004704 <_fwalk+0x80>

0800473c <free>:
 800473c:	00820074 	movhi	r2,2049
 8004740:	109b8304 	addi	r2,r2,28172
 8004744:	200b883a 	mov	r5,r4
 8004748:	11000017 	ldw	r4,0(r2)
 800474c:	80093d81 	jmpi	80093d8 <_free_r>

08004750 <malloc>:
 8004750:	00820074 	movhi	r2,2049
 8004754:	109b8304 	addi	r2,r2,28172
 8004758:	200b883a 	mov	r5,r4
 800475c:	11000017 	ldw	r4,0(r2)
 8004760:	80047641 	jmpi	8004764 <_malloc_r>

08004764 <_malloc_r>:
 8004764:	defff604 	addi	sp,sp,-40
 8004768:	28c002c4 	addi	r3,r5,11
 800476c:	00800584 	movi	r2,22
 8004770:	dc800215 	stw	r18,8(sp)
 8004774:	dfc00915 	stw	ra,36(sp)
 8004778:	df000815 	stw	fp,32(sp)
 800477c:	ddc00715 	stw	r23,28(sp)
 8004780:	dd800615 	stw	r22,24(sp)
 8004784:	dd400515 	stw	r21,20(sp)
 8004788:	dd000415 	stw	r20,16(sp)
 800478c:	dcc00315 	stw	r19,12(sp)
 8004790:	dc400115 	stw	r17,4(sp)
 8004794:	dc000015 	stw	r16,0(sp)
 8004798:	2025883a 	mov	r18,r4
 800479c:	10c01236 	bltu	r2,r3,80047e8 <_malloc_r+0x84>
 80047a0:	04400404 	movi	r17,16
 80047a4:	8940142e 	bgeu	r17,r5,80047f8 <_malloc_r+0x94>
 80047a8:	00800304 	movi	r2,12
 80047ac:	0007883a 	mov	r3,zero
 80047b0:	90800015 	stw	r2,0(r18)
 80047b4:	1805883a 	mov	r2,r3
 80047b8:	dfc00917 	ldw	ra,36(sp)
 80047bc:	df000817 	ldw	fp,32(sp)
 80047c0:	ddc00717 	ldw	r23,28(sp)
 80047c4:	dd800617 	ldw	r22,24(sp)
 80047c8:	dd400517 	ldw	r21,20(sp)
 80047cc:	dd000417 	ldw	r20,16(sp)
 80047d0:	dcc00317 	ldw	r19,12(sp)
 80047d4:	dc800217 	ldw	r18,8(sp)
 80047d8:	dc400117 	ldw	r17,4(sp)
 80047dc:	dc000017 	ldw	r16,0(sp)
 80047e0:	dec00a04 	addi	sp,sp,40
 80047e4:	f800283a 	ret
 80047e8:	00bffe04 	movi	r2,-8
 80047ec:	18a2703a 	and	r17,r3,r2
 80047f0:	883fed16 	blt	r17,zero,80047a8 <_malloc_r+0x44>
 80047f4:	897fec36 	bltu	r17,r5,80047a8 <_malloc_r+0x44>
 80047f8:	9009883a 	mov	r4,r18
 80047fc:	800e5d00 	call	800e5d0 <__malloc_lock>
 8004800:	00807dc4 	movi	r2,503
 8004804:	14402b2e 	bgeu	r2,r17,80048b4 <_malloc_r+0x150>
 8004808:	8806d27a 	srli	r3,r17,9
 800480c:	18003f1e 	bne	r3,zero,800490c <_malloc_r+0x1a8>
 8004810:	880cd0fa 	srli	r6,r17,3
 8004814:	300490fa 	slli	r2,r6,3
 8004818:	02c20074 	movhi	r11,2049
 800481c:	5ad5f104 	addi	r11,r11,22468
 8004820:	12cb883a 	add	r5,r2,r11
 8004824:	2c000317 	ldw	r16,12(r5)
 8004828:	580f883a 	mov	r7,r11
 800482c:	2c00041e 	bne	r5,r16,8004840 <_malloc_r+0xdc>
 8004830:	00000a06 	br	800485c <_malloc_r+0xf8>
 8004834:	1800860e 	bge	r3,zero,8004a50 <_malloc_r+0x2ec>
 8004838:	84000317 	ldw	r16,12(r16)
 800483c:	2c000726 	beq	r5,r16,800485c <_malloc_r+0xf8>
 8004840:	80800117 	ldw	r2,4(r16)
 8004844:	00ffff04 	movi	r3,-4
 8004848:	10c8703a 	and	r4,r2,r3
 800484c:	2447c83a 	sub	r3,r4,r17
 8004850:	008003c4 	movi	r2,15
 8004854:	10fff70e 	bge	r2,r3,8004834 <_malloc_r+0xd0>
 8004858:	31bfffc4 	addi	r6,r6,-1
 800485c:	32400044 	addi	r9,r6,1
 8004860:	02820074 	movhi	r10,2049
 8004864:	5295f304 	addi	r10,r10,22476
 8004868:	54000217 	ldw	r16,8(r10)
 800486c:	8280a026 	beq	r16,r10,8004af0 <_malloc_r+0x38c>
 8004870:	80800117 	ldw	r2,4(r16)
 8004874:	00ffff04 	movi	r3,-4
 8004878:	10ca703a 	and	r5,r2,r3
 800487c:	2c4dc83a 	sub	r6,r5,r17
 8004880:	008003c4 	movi	r2,15
 8004884:	11808316 	blt	r2,r6,8004a94 <_malloc_r+0x330>
 8004888:	52800315 	stw	r10,12(r10)
 800488c:	52800215 	stw	r10,8(r10)
 8004890:	30002916 	blt	r6,zero,8004938 <_malloc_r+0x1d4>
 8004894:	8147883a 	add	r3,r16,r5
 8004898:	18800117 	ldw	r2,4(r3)
 800489c:	9009883a 	mov	r4,r18
 80048a0:	10800054 	ori	r2,r2,1
 80048a4:	18800115 	stw	r2,4(r3)
 80048a8:	800e5f00 	call	800e5f0 <__malloc_unlock>
 80048ac:	80c00204 	addi	r3,r16,8
 80048b0:	003fc006 	br	80047b4 <_malloc_r+0x50>
 80048b4:	02c20074 	movhi	r11,2049
 80048b8:	5ad5f104 	addi	r11,r11,22468
 80048bc:	8ac5883a 	add	r2,r17,r11
 80048c0:	14000317 	ldw	r16,12(r2)
 80048c4:	580f883a 	mov	r7,r11
 80048c8:	8806d0fa 	srli	r3,r17,3
 80048cc:	14006c26 	beq	r2,r16,8004a80 <_malloc_r+0x31c>
 80048d0:	80c00117 	ldw	r3,4(r16)
 80048d4:	00bfff04 	movi	r2,-4
 80048d8:	81800317 	ldw	r6,12(r16)
 80048dc:	1886703a 	and	r3,r3,r2
 80048e0:	80c7883a 	add	r3,r16,r3
 80048e4:	18800117 	ldw	r2,4(r3)
 80048e8:	81400217 	ldw	r5,8(r16)
 80048ec:	9009883a 	mov	r4,r18
 80048f0:	10800054 	ori	r2,r2,1
 80048f4:	18800115 	stw	r2,4(r3)
 80048f8:	31400215 	stw	r5,8(r6)
 80048fc:	29800315 	stw	r6,12(r5)
 8004900:	800e5f00 	call	800e5f0 <__malloc_unlock>
 8004904:	80c00204 	addi	r3,r16,8
 8004908:	003faa06 	br	80047b4 <_malloc_r+0x50>
 800490c:	00800104 	movi	r2,4
 8004910:	10c0052e 	bgeu	r2,r3,8004928 <_malloc_r+0x1c4>
 8004914:	00800504 	movi	r2,20
 8004918:	10c07836 	bltu	r2,r3,8004afc <_malloc_r+0x398>
 800491c:	198016c4 	addi	r6,r3,91
 8004920:	300490fa 	slli	r2,r6,3
 8004924:	003fbc06 	br	8004818 <_malloc_r+0xb4>
 8004928:	8804d1ba 	srli	r2,r17,6
 800492c:	11800e04 	addi	r6,r2,56
 8004930:	300490fa 	slli	r2,r6,3
 8004934:	003fb806 	br	8004818 <_malloc_r+0xb4>
 8004938:	00807fc4 	movi	r2,511
 800493c:	1140bb36 	bltu	r2,r5,8004c2c <_malloc_r+0x4c8>
 8004940:	2806d0fa 	srli	r3,r5,3
 8004944:	573ffe04 	addi	fp,r10,-8
 8004948:	00800044 	movi	r2,1
 800494c:	180890fa 	slli	r4,r3,3
 8004950:	1807d0ba 	srai	r3,r3,2
 8004954:	e1c00117 	ldw	r7,4(fp)
 8004958:	5909883a 	add	r4,r11,r4
 800495c:	21400217 	ldw	r5,8(r4)
 8004960:	10c4983a 	sll	r2,r2,r3
 8004964:	81000315 	stw	r4,12(r16)
 8004968:	81400215 	stw	r5,8(r16)
 800496c:	388eb03a 	or	r7,r7,r2
 8004970:	2c000315 	stw	r16,12(r5)
 8004974:	24000215 	stw	r16,8(r4)
 8004978:	e1c00115 	stw	r7,4(fp)
 800497c:	4807883a 	mov	r3,r9
 8004980:	4800cd16 	blt	r9,zero,8004cb8 <_malloc_r+0x554>
 8004984:	1807d0ba 	srai	r3,r3,2
 8004988:	00800044 	movi	r2,1
 800498c:	10c8983a 	sll	r4,r2,r3
 8004990:	39004436 	bltu	r7,r4,8004aa4 <_malloc_r+0x340>
 8004994:	21c4703a 	and	r2,r4,r7
 8004998:	10000a1e 	bne	r2,zero,80049c4 <_malloc_r+0x260>
 800499c:	2109883a 	add	r4,r4,r4
 80049a0:	00bfff04 	movi	r2,-4
 80049a4:	4884703a 	and	r2,r9,r2
 80049a8:	3906703a 	and	r3,r7,r4
 80049ac:	12400104 	addi	r9,r2,4
 80049b0:	1800041e 	bne	r3,zero,80049c4 <_malloc_r+0x260>
 80049b4:	2109883a 	add	r4,r4,r4
 80049b8:	3904703a 	and	r2,r7,r4
 80049bc:	4a400104 	addi	r9,r9,4
 80049c0:	103ffc26 	beq	r2,zero,80049b4 <_malloc_r+0x250>
 80049c4:	480490fa 	slli	r2,r9,3
 80049c8:	4819883a 	mov	r12,r9
 80049cc:	023fff04 	movi	r8,-4
 80049d0:	589b883a 	add	r13,r11,r2
 80049d4:	6807883a 	mov	r3,r13
 80049d8:	014003c4 	movi	r5,15
 80049dc:	1c000317 	ldw	r16,12(r3)
 80049e0:	1c00041e 	bne	r3,r16,80049f4 <_malloc_r+0x290>
 80049e4:	0000a706 	br	8004c84 <_malloc_r+0x520>
 80049e8:	3000ab0e 	bge	r6,zero,8004c98 <_malloc_r+0x534>
 80049ec:	84000317 	ldw	r16,12(r16)
 80049f0:	1c00a426 	beq	r3,r16,8004c84 <_malloc_r+0x520>
 80049f4:	80800117 	ldw	r2,4(r16)
 80049f8:	1204703a 	and	r2,r2,r8
 80049fc:	144dc83a 	sub	r6,r2,r17
 8004a00:	29bff90e 	bge	r5,r6,80049e8 <_malloc_r+0x284>
 8004a04:	81000317 	ldw	r4,12(r16)
 8004a08:	80c00217 	ldw	r3,8(r16)
 8004a0c:	89400054 	ori	r5,r17,1
 8004a10:	8445883a 	add	r2,r16,r17
 8004a14:	20c00215 	stw	r3,8(r4)
 8004a18:	19000315 	stw	r4,12(r3)
 8004a1c:	81400115 	stw	r5,4(r16)
 8004a20:	1187883a 	add	r3,r2,r6
 8004a24:	31000054 	ori	r4,r6,1
 8004a28:	50800315 	stw	r2,12(r10)
 8004a2c:	50800215 	stw	r2,8(r10)
 8004a30:	19800015 	stw	r6,0(r3)
 8004a34:	11000115 	stw	r4,4(r2)
 8004a38:	12800215 	stw	r10,8(r2)
 8004a3c:	12800315 	stw	r10,12(r2)
 8004a40:	9009883a 	mov	r4,r18
 8004a44:	800e5f00 	call	800e5f0 <__malloc_unlock>
 8004a48:	80c00204 	addi	r3,r16,8
 8004a4c:	003f5906 	br	80047b4 <_malloc_r+0x50>
 8004a50:	8109883a 	add	r4,r16,r4
 8004a54:	20800117 	ldw	r2,4(r4)
 8004a58:	80c00217 	ldw	r3,8(r16)
 8004a5c:	81400317 	ldw	r5,12(r16)
 8004a60:	10800054 	ori	r2,r2,1
 8004a64:	20800115 	stw	r2,4(r4)
 8004a68:	28c00215 	stw	r3,8(r5)
 8004a6c:	19400315 	stw	r5,12(r3)
 8004a70:	9009883a 	mov	r4,r18
 8004a74:	800e5f00 	call	800e5f0 <__malloc_unlock>
 8004a78:	80c00204 	addi	r3,r16,8
 8004a7c:	003f4d06 	br	80047b4 <_malloc_r+0x50>
 8004a80:	80800204 	addi	r2,r16,8
 8004a84:	14000317 	ldw	r16,12(r2)
 8004a88:	143f911e 	bne	r2,r16,80048d0 <_malloc_r+0x16c>
 8004a8c:	1a400084 	addi	r9,r3,2
 8004a90:	003f7306 	br	8004860 <_malloc_r+0xfc>
 8004a94:	88c00054 	ori	r3,r17,1
 8004a98:	8445883a 	add	r2,r16,r17
 8004a9c:	80c00115 	stw	r3,4(r16)
 8004aa0:	003fdf06 	br	8004a20 <_malloc_r+0x2bc>
 8004aa4:	e4000217 	ldw	r16,8(fp)
 8004aa8:	00bfff04 	movi	r2,-4
 8004aac:	80c00117 	ldw	r3,4(r16)
 8004ab0:	802d883a 	mov	r22,r16
 8004ab4:	18aa703a 	and	r21,r3,r2
 8004ab8:	ac401636 	bltu	r21,r17,8004b14 <_malloc_r+0x3b0>
 8004abc:	ac49c83a 	sub	r4,r21,r17
 8004ac0:	008003c4 	movi	r2,15
 8004ac4:	1100130e 	bge	r2,r4,8004b14 <_malloc_r+0x3b0>
 8004ac8:	88800054 	ori	r2,r17,1
 8004acc:	8447883a 	add	r3,r16,r17
 8004ad0:	80800115 	stw	r2,4(r16)
 8004ad4:	20800054 	ori	r2,r4,1
 8004ad8:	18800115 	stw	r2,4(r3)
 8004adc:	e0c00215 	stw	r3,8(fp)
 8004ae0:	9009883a 	mov	r4,r18
 8004ae4:	800e5f00 	call	800e5f0 <__malloc_unlock>
 8004ae8:	80c00204 	addi	r3,r16,8
 8004aec:	003f3106 	br	80047b4 <_malloc_r+0x50>
 8004af0:	39c00117 	ldw	r7,4(r7)
 8004af4:	573ffe04 	addi	fp,r10,-8
 8004af8:	003fa006 	br	800497c <_malloc_r+0x218>
 8004afc:	00801504 	movi	r2,84
 8004b00:	10c06736 	bltu	r2,r3,8004ca0 <_malloc_r+0x53c>
 8004b04:	8804d33a 	srli	r2,r17,12
 8004b08:	11801b84 	addi	r6,r2,110
 8004b0c:	300490fa 	slli	r2,r6,3
 8004b10:	003f4106 	br	8004818 <_malloc_r+0xb4>
 8004b14:	d0a6b517 	ldw	r2,-25900(gp)
 8004b18:	d0e00317 	ldw	r3,-32756(gp)
 8004b1c:	053fffc4 	movi	r20,-1
 8004b20:	10800404 	addi	r2,r2,16
 8004b24:	88a7883a 	add	r19,r17,r2
 8004b28:	1d000326 	beq	r3,r20,8004b38 <_malloc_r+0x3d4>
 8004b2c:	98c3ffc4 	addi	r3,r19,4095
 8004b30:	00bc0004 	movi	r2,-4096
 8004b34:	18a6703a 	and	r19,r3,r2
 8004b38:	9009883a 	mov	r4,r18
 8004b3c:	980b883a 	mov	r5,r19
 8004b40:	80053cc0 	call	80053cc <_sbrk_r>
 8004b44:	1009883a 	mov	r4,r2
 8004b48:	15000426 	beq	r2,r20,8004b5c <_malloc_r+0x3f8>
 8004b4c:	854b883a 	add	r5,r16,r21
 8004b50:	1029883a 	mov	r20,r2
 8004b54:	11405a2e 	bgeu	r2,r5,8004cc0 <_malloc_r+0x55c>
 8004b58:	87000c26 	beq	r16,fp,8004b8c <_malloc_r+0x428>
 8004b5c:	e4000217 	ldw	r16,8(fp)
 8004b60:	80c00117 	ldw	r3,4(r16)
 8004b64:	00bfff04 	movi	r2,-4
 8004b68:	1884703a 	and	r2,r3,r2
 8004b6c:	14400336 	bltu	r2,r17,8004b7c <_malloc_r+0x418>
 8004b70:	1449c83a 	sub	r4,r2,r17
 8004b74:	008003c4 	movi	r2,15
 8004b78:	113fd316 	blt	r2,r4,8004ac8 <_malloc_r+0x364>
 8004b7c:	9009883a 	mov	r4,r18
 8004b80:	800e5f00 	call	800e5f0 <__malloc_unlock>
 8004b84:	0007883a 	mov	r3,zero
 8004b88:	003f0a06 	br	80047b4 <_malloc_r+0x50>
 8004b8c:	05c200b4 	movhi	r23,2050
 8004b90:	bde25204 	addi	r23,r23,-30392
 8004b94:	b8800017 	ldw	r2,0(r23)
 8004b98:	988d883a 	add	r6,r19,r2
 8004b9c:	b9800015 	stw	r6,0(r23)
 8004ba0:	d0e00317 	ldw	r3,-32756(gp)
 8004ba4:	00bfffc4 	movi	r2,-1
 8004ba8:	18808e26 	beq	r3,r2,8004de4 <_malloc_r+0x680>
 8004bac:	2145c83a 	sub	r2,r4,r5
 8004bb0:	3085883a 	add	r2,r6,r2
 8004bb4:	b8800015 	stw	r2,0(r23)
 8004bb8:	20c001cc 	andi	r3,r4,7
 8004bbc:	18005f1e 	bne	r3,zero,8004d3c <_malloc_r+0x5d8>
 8004bc0:	000b883a 	mov	r5,zero
 8004bc4:	a4c5883a 	add	r2,r20,r19
 8004bc8:	1083ffcc 	andi	r2,r2,4095
 8004bcc:	00c40004 	movi	r3,4096
 8004bd0:	1887c83a 	sub	r3,r3,r2
 8004bd4:	28e7883a 	add	r19,r5,r3
 8004bd8:	9009883a 	mov	r4,r18
 8004bdc:	980b883a 	mov	r5,r19
 8004be0:	80053cc0 	call	80053cc <_sbrk_r>
 8004be4:	1007883a 	mov	r3,r2
 8004be8:	00bfffc4 	movi	r2,-1
 8004bec:	18807a26 	beq	r3,r2,8004dd8 <_malloc_r+0x674>
 8004bf0:	1d05c83a 	sub	r2,r3,r20
 8004bf4:	9885883a 	add	r2,r19,r2
 8004bf8:	10c00054 	ori	r3,r2,1
 8004bfc:	b8800017 	ldw	r2,0(r23)
 8004c00:	a021883a 	mov	r16,r20
 8004c04:	a0c00115 	stw	r3,4(r20)
 8004c08:	9885883a 	add	r2,r19,r2
 8004c0c:	b8800015 	stw	r2,0(r23)
 8004c10:	e5000215 	stw	r20,8(fp)
 8004c14:	b7003626 	beq	r22,fp,8004cf0 <_malloc_r+0x58c>
 8004c18:	018003c4 	movi	r6,15
 8004c1c:	35404b36 	bltu	r6,r21,8004d4c <_malloc_r+0x5e8>
 8004c20:	00800044 	movi	r2,1
 8004c24:	a0800115 	stw	r2,4(r20)
 8004c28:	003fcd06 	br	8004b60 <_malloc_r+0x3fc>
 8004c2c:	2808d27a 	srli	r4,r5,9
 8004c30:	2000371e 	bne	r4,zero,8004d10 <_malloc_r+0x5ac>
 8004c34:	2808d0fa 	srli	r4,r5,3
 8004c38:	200690fa 	slli	r3,r4,3
 8004c3c:	1ad1883a 	add	r8,r3,r11
 8004c40:	41800217 	ldw	r6,8(r8)
 8004c44:	41805b26 	beq	r8,r6,8004db4 <_malloc_r+0x650>
 8004c48:	30800117 	ldw	r2,4(r6)
 8004c4c:	00ffff04 	movi	r3,-4
 8004c50:	10c4703a 	and	r2,r2,r3
 8004c54:	2880022e 	bgeu	r5,r2,8004c60 <_malloc_r+0x4fc>
 8004c58:	31800217 	ldw	r6,8(r6)
 8004c5c:	41bffa1e 	bne	r8,r6,8004c48 <_malloc_r+0x4e4>
 8004c60:	32000317 	ldw	r8,12(r6)
 8004c64:	39c00117 	ldw	r7,4(r7)
 8004c68:	82000315 	stw	r8,12(r16)
 8004c6c:	81800215 	stw	r6,8(r16)
 8004c70:	07020074 	movhi	fp,2049
 8004c74:	e715f104 	addi	fp,fp,22468
 8004c78:	34000315 	stw	r16,12(r6)
 8004c7c:	44000215 	stw	r16,8(r8)
 8004c80:	003f3e06 	br	800497c <_malloc_r+0x218>
 8004c84:	63000044 	addi	r12,r12,1
 8004c88:	608000cc 	andi	r2,r12,3
 8004c8c:	10005d26 	beq	r2,zero,8004e04 <_malloc_r+0x6a0>
 8004c90:	18c00204 	addi	r3,r3,8
 8004c94:	003f5106 	br	80049dc <_malloc_r+0x278>
 8004c98:	8089883a 	add	r4,r16,r2
 8004c9c:	003f6d06 	br	8004a54 <_malloc_r+0x2f0>
 8004ca0:	00805504 	movi	r2,340
 8004ca4:	10c02036 	bltu	r2,r3,8004d28 <_malloc_r+0x5c4>
 8004ca8:	8804d3fa 	srli	r2,r17,15
 8004cac:	11801dc4 	addi	r6,r2,119
 8004cb0:	300490fa 	slli	r2,r6,3
 8004cb4:	003ed806 	br	8004818 <_malloc_r+0xb4>
 8004cb8:	48c000c4 	addi	r3,r9,3
 8004cbc:	003f3106 	br	8004984 <_malloc_r+0x220>
 8004cc0:	05c200b4 	movhi	r23,2050
 8004cc4:	bde25204 	addi	r23,r23,-30392
 8004cc8:	b8800017 	ldw	r2,0(r23)
 8004ccc:	988d883a 	add	r6,r19,r2
 8004cd0:	b9800015 	stw	r6,0(r23)
 8004cd4:	293fb21e 	bne	r5,r4,8004ba0 <_malloc_r+0x43c>
 8004cd8:	2083ffcc 	andi	r2,r4,4095
 8004cdc:	103fb01e 	bne	r2,zero,8004ba0 <_malloc_r+0x43c>
 8004ce0:	e4000217 	ldw	r16,8(fp)
 8004ce4:	9d45883a 	add	r2,r19,r21
 8004ce8:	10800054 	ori	r2,r2,1
 8004cec:	80800115 	stw	r2,4(r16)
 8004cf0:	b8c00017 	ldw	r3,0(r23)
 8004cf4:	d0a6b617 	ldw	r2,-25896(gp)
 8004cf8:	10c0012e 	bgeu	r2,r3,8004d00 <_malloc_r+0x59c>
 8004cfc:	d0e6b615 	stw	r3,-25896(gp)
 8004d00:	d0a6b717 	ldw	r2,-25892(gp)
 8004d04:	10ff962e 	bgeu	r2,r3,8004b60 <_malloc_r+0x3fc>
 8004d08:	d0e6b715 	stw	r3,-25892(gp)
 8004d0c:	003f9406 	br	8004b60 <_malloc_r+0x3fc>
 8004d10:	00800104 	movi	r2,4
 8004d14:	11001e36 	bltu	r2,r4,8004d90 <_malloc_r+0x62c>
 8004d18:	2804d1ba 	srli	r2,r5,6
 8004d1c:	11000e04 	addi	r4,r2,56
 8004d20:	200690fa 	slli	r3,r4,3
 8004d24:	003fc506 	br	8004c3c <_malloc_r+0x4d8>
 8004d28:	00815504 	movi	r2,1364
 8004d2c:	10c01d2e 	bgeu	r2,r3,8004da4 <_malloc_r+0x640>
 8004d30:	01801f84 	movi	r6,126
 8004d34:	0080fc04 	movi	r2,1008
 8004d38:	003eb706 	br	8004818 <_malloc_r+0xb4>
 8004d3c:	00800204 	movi	r2,8
 8004d40:	10cbc83a 	sub	r5,r2,r3
 8004d44:	2169883a 	add	r20,r4,r5
 8004d48:	003f9e06 	br	8004bc4 <_malloc_r+0x460>
 8004d4c:	00bffe04 	movi	r2,-8
 8004d50:	a93ffd04 	addi	r4,r21,-12
 8004d54:	2088703a 	and	r4,r4,r2
 8004d58:	b10b883a 	add	r5,r22,r4
 8004d5c:	00c00144 	movi	r3,5
 8004d60:	28c00215 	stw	r3,8(r5)
 8004d64:	28c00115 	stw	r3,4(r5)
 8004d68:	b0800117 	ldw	r2,4(r22)
 8004d6c:	1080004c 	andi	r2,r2,1
 8004d70:	2084b03a 	or	r2,r4,r2
 8004d74:	b0800115 	stw	r2,4(r22)
 8004d78:	313fdd2e 	bgeu	r6,r4,8004cf0 <_malloc_r+0x58c>
 8004d7c:	b1400204 	addi	r5,r22,8
 8004d80:	9009883a 	mov	r4,r18
 8004d84:	80093d80 	call	80093d8 <_free_r>
 8004d88:	e4000217 	ldw	r16,8(fp)
 8004d8c:	003fd806 	br	8004cf0 <_malloc_r+0x58c>
 8004d90:	00800504 	movi	r2,20
 8004d94:	11001536 	bltu	r2,r4,8004dec <_malloc_r+0x688>
 8004d98:	210016c4 	addi	r4,r4,91
 8004d9c:	200690fa 	slli	r3,r4,3
 8004da0:	003fa606 	br	8004c3c <_malloc_r+0x4d8>
 8004da4:	8804d4ba 	srli	r2,r17,18
 8004da8:	11801f04 	addi	r6,r2,124
 8004dac:	300490fa 	slli	r2,r6,3
 8004db0:	003e9906 	br	8004818 <_malloc_r+0xb4>
 8004db4:	2009d0ba 	srai	r4,r4,2
 8004db8:	01420074 	movhi	r5,2049
 8004dbc:	2955f104 	addi	r5,r5,22468
 8004dc0:	00c00044 	movi	r3,1
 8004dc4:	28800117 	ldw	r2,4(r5)
 8004dc8:	1906983a 	sll	r3,r3,r4
 8004dcc:	10c4b03a 	or	r2,r2,r3
 8004dd0:	28800115 	stw	r2,4(r5)
 8004dd4:	003fa306 	br	8004c64 <_malloc_r+0x500>
 8004dd8:	0027883a 	mov	r19,zero
 8004ddc:	00c00044 	movi	r3,1
 8004de0:	003f8606 	br	8004bfc <_malloc_r+0x498>
 8004de4:	d1200315 	stw	r4,-32756(gp)
 8004de8:	003f7306 	br	8004bb8 <_malloc_r+0x454>
 8004dec:	00801504 	movi	r2,84
 8004df0:	11001936 	bltu	r2,r4,8004e58 <_malloc_r+0x6f4>
 8004df4:	2804d33a 	srli	r2,r5,12
 8004df8:	11001b84 	addi	r4,r2,110
 8004dfc:	200690fa 	slli	r3,r4,3
 8004e00:	003f8e06 	br	8004c3c <_malloc_r+0x4d8>
 8004e04:	480b883a 	mov	r5,r9
 8004e08:	6807883a 	mov	r3,r13
 8004e0c:	288000cc 	andi	r2,r5,3
 8004e10:	18fffe04 	addi	r3,r3,-8
 8004e14:	297fffc4 	addi	r5,r5,-1
 8004e18:	10001526 	beq	r2,zero,8004e70 <_malloc_r+0x70c>
 8004e1c:	18800217 	ldw	r2,8(r3)
 8004e20:	10fffa26 	beq	r2,r3,8004e0c <_malloc_r+0x6a8>
 8004e24:	2109883a 	add	r4,r4,r4
 8004e28:	393f1e36 	bltu	r7,r4,8004aa4 <_malloc_r+0x340>
 8004e2c:	203f1d26 	beq	r4,zero,8004aa4 <_malloc_r+0x340>
 8004e30:	21c4703a 	and	r2,r4,r7
 8004e34:	10000226 	beq	r2,zero,8004e40 <_malloc_r+0x6dc>
 8004e38:	6013883a 	mov	r9,r12
 8004e3c:	003ee106 	br	80049c4 <_malloc_r+0x260>
 8004e40:	2109883a 	add	r4,r4,r4
 8004e44:	3904703a 	and	r2,r7,r4
 8004e48:	63000104 	addi	r12,r12,4
 8004e4c:	103ffc26 	beq	r2,zero,8004e40 <_malloc_r+0x6dc>
 8004e50:	6013883a 	mov	r9,r12
 8004e54:	003edb06 	br	80049c4 <_malloc_r+0x260>
 8004e58:	00805504 	movi	r2,340
 8004e5c:	11000836 	bltu	r2,r4,8004e80 <_malloc_r+0x71c>
 8004e60:	2804d3fa 	srli	r2,r5,15
 8004e64:	11001dc4 	addi	r4,r2,119
 8004e68:	200690fa 	slli	r3,r4,3
 8004e6c:	003f7306 	br	8004c3c <_malloc_r+0x4d8>
 8004e70:	0104303a 	nor	r2,zero,r4
 8004e74:	388e703a 	and	r7,r7,r2
 8004e78:	e1c00115 	stw	r7,4(fp)
 8004e7c:	003fe906 	br	8004e24 <_malloc_r+0x6c0>
 8004e80:	00815504 	movi	r2,1364
 8004e84:	1100032e 	bgeu	r2,r4,8004e94 <_malloc_r+0x730>
 8004e88:	01001f84 	movi	r4,126
 8004e8c:	00c0fc04 	movi	r3,1008
 8004e90:	003f6a06 	br	8004c3c <_malloc_r+0x4d8>
 8004e94:	2804d4ba 	srli	r2,r5,18
 8004e98:	11001f04 	addi	r4,r2,124
 8004e9c:	200690fa 	slli	r3,r4,3
 8004ea0:	003f6606 	br	8004c3c <_malloc_r+0x4d8>

08004ea4 <memchr>:
 8004ea4:	008000c4 	movi	r2,3
 8004ea8:	29403fcc 	andi	r5,r5,255
 8004eac:	2007883a 	mov	r3,r4
 8004eb0:	1180022e 	bgeu	r2,r6,8004ebc <memchr+0x18>
 8004eb4:	2084703a 	and	r2,r4,r2
 8004eb8:	10000b26 	beq	r2,zero,8004ee8 <memchr+0x44>
 8004ebc:	313fffc4 	addi	r4,r6,-1
 8004ec0:	3000051e 	bne	r6,zero,8004ed8 <memchr+0x34>
 8004ec4:	00002c06 	br	8004f78 <memchr+0xd4>
 8004ec8:	213fffc4 	addi	r4,r4,-1
 8004ecc:	00bfffc4 	movi	r2,-1
 8004ed0:	18c00044 	addi	r3,r3,1
 8004ed4:	20802826 	beq	r4,r2,8004f78 <memchr+0xd4>
 8004ed8:	18800003 	ldbu	r2,0(r3)
 8004edc:	28bffa1e 	bne	r5,r2,8004ec8 <memchr+0x24>
 8004ee0:	1805883a 	mov	r2,r3
 8004ee4:	f800283a 	ret
 8004ee8:	0011883a 	mov	r8,zero
 8004eec:	0007883a 	mov	r3,zero
 8004ef0:	01c00104 	movi	r7,4
 8004ef4:	4004923a 	slli	r2,r8,8
 8004ef8:	18c00044 	addi	r3,r3,1
 8004efc:	1151883a 	add	r8,r2,r5
 8004f00:	19fffc1e 	bne	r3,r7,8004ef4 <memchr+0x50>
 8004f04:	02bfbff4 	movhi	r10,65279
 8004f08:	52bfbfc4 	addi	r10,r10,-257
 8004f0c:	02602074 	movhi	r9,32897
 8004f10:	4a602004 	addi	r9,r9,-32640
 8004f14:	02c000c4 	movi	r11,3
 8004f18:	20800017 	ldw	r2,0(r4)
 8004f1c:	31bfff04 	addi	r6,r6,-4
 8004f20:	200f883a 	mov	r7,r4
 8004f24:	1204f03a 	xor	r2,r2,r8
 8004f28:	1287883a 	add	r3,r2,r10
 8004f2c:	1a46703a 	and	r3,r3,r9
 8004f30:	0084303a 	nor	r2,zero,r2
 8004f34:	10c4703a 	and	r2,r2,r3
 8004f38:	10000b26 	beq	r2,zero,8004f68 <memchr+0xc4>
 8004f3c:	20800003 	ldbu	r2,0(r4)
 8004f40:	28800f26 	beq	r5,r2,8004f80 <memchr+0xdc>
 8004f44:	20800043 	ldbu	r2,1(r4)
 8004f48:	21c00044 	addi	r7,r4,1
 8004f4c:	28800c26 	beq	r5,r2,8004f80 <memchr+0xdc>
 8004f50:	20800083 	ldbu	r2,2(r4)
 8004f54:	21c00084 	addi	r7,r4,2
 8004f58:	28800926 	beq	r5,r2,8004f80 <memchr+0xdc>
 8004f5c:	208000c3 	ldbu	r2,3(r4)
 8004f60:	21c000c4 	addi	r7,r4,3
 8004f64:	28800626 	beq	r5,r2,8004f80 <memchr+0xdc>
 8004f68:	21000104 	addi	r4,r4,4
 8004f6c:	59bfea36 	bltu	r11,r6,8004f18 <memchr+0x74>
 8004f70:	2007883a 	mov	r3,r4
 8004f74:	003fd106 	br	8004ebc <memchr+0x18>
 8004f78:	0005883a 	mov	r2,zero
 8004f7c:	f800283a 	ret
 8004f80:	3805883a 	mov	r2,r7
 8004f84:	f800283a 	ret

08004f88 <memcpy>:
 8004f88:	01c003c4 	movi	r7,15
 8004f8c:	2007883a 	mov	r3,r4
 8004f90:	3980032e 	bgeu	r7,r6,8004fa0 <memcpy+0x18>
 8004f94:	2904b03a 	or	r2,r5,r4
 8004f98:	108000cc 	andi	r2,r2,3
 8004f9c:	10000926 	beq	r2,zero,8004fc4 <memcpy+0x3c>
 8004fa0:	30000626 	beq	r6,zero,8004fbc <memcpy+0x34>
 8004fa4:	30cd883a 	add	r6,r6,r3
 8004fa8:	28800003 	ldbu	r2,0(r5)
 8004fac:	29400044 	addi	r5,r5,1
 8004fb0:	18800005 	stb	r2,0(r3)
 8004fb4:	18c00044 	addi	r3,r3,1
 8004fb8:	30fffb1e 	bne	r6,r3,8004fa8 <memcpy+0x20>
 8004fbc:	2005883a 	mov	r2,r4
 8004fc0:	f800283a 	ret
 8004fc4:	3811883a 	mov	r8,r7
 8004fc8:	200f883a 	mov	r7,r4
 8004fcc:	28c00017 	ldw	r3,0(r5)
 8004fd0:	31bffc04 	addi	r6,r6,-16
 8004fd4:	38c00015 	stw	r3,0(r7)
 8004fd8:	28800117 	ldw	r2,4(r5)
 8004fdc:	38800115 	stw	r2,4(r7)
 8004fe0:	28c00217 	ldw	r3,8(r5)
 8004fe4:	38c00215 	stw	r3,8(r7)
 8004fe8:	28800317 	ldw	r2,12(r5)
 8004fec:	29400404 	addi	r5,r5,16
 8004ff0:	38800315 	stw	r2,12(r7)
 8004ff4:	39c00404 	addi	r7,r7,16
 8004ff8:	41bff436 	bltu	r8,r6,8004fcc <memcpy+0x44>
 8004ffc:	008000c4 	movi	r2,3
 8005000:	1180072e 	bgeu	r2,r6,8005020 <memcpy+0x98>
 8005004:	1007883a 	mov	r3,r2
 8005008:	28800017 	ldw	r2,0(r5)
 800500c:	31bfff04 	addi	r6,r6,-4
 8005010:	29400104 	addi	r5,r5,4
 8005014:	38800015 	stw	r2,0(r7)
 8005018:	39c00104 	addi	r7,r7,4
 800501c:	19bffa36 	bltu	r3,r6,8005008 <memcpy+0x80>
 8005020:	3807883a 	mov	r3,r7
 8005024:	003fde06 	br	8004fa0 <memcpy+0x18>

08005028 <memset>:
 8005028:	008000c4 	movi	r2,3
 800502c:	29403fcc 	andi	r5,r5,255
 8005030:	2007883a 	mov	r3,r4
 8005034:	1180022e 	bgeu	r2,r6,8005040 <memset+0x18>
 8005038:	2084703a 	and	r2,r4,r2
 800503c:	10000826 	beq	r2,zero,8005060 <memset+0x38>
 8005040:	30000526 	beq	r6,zero,8005058 <memset+0x30>
 8005044:	2805883a 	mov	r2,r5
 8005048:	30cd883a 	add	r6,r6,r3
 800504c:	18800005 	stb	r2,0(r3)
 8005050:	18c00044 	addi	r3,r3,1
 8005054:	19bffd1e 	bne	r3,r6,800504c <memset+0x24>
 8005058:	2005883a 	mov	r2,r4
 800505c:	f800283a 	ret
 8005060:	2804923a 	slli	r2,r5,8
 8005064:	020003c4 	movi	r8,15
 8005068:	200f883a 	mov	r7,r4
 800506c:	2884b03a 	or	r2,r5,r2
 8005070:	1006943a 	slli	r3,r2,16
 8005074:	10c6b03a 	or	r3,r2,r3
 8005078:	41800a2e 	bgeu	r8,r6,80050a4 <memset+0x7c>
 800507c:	4005883a 	mov	r2,r8
 8005080:	31bffc04 	addi	r6,r6,-16
 8005084:	38c00015 	stw	r3,0(r7)
 8005088:	38c00115 	stw	r3,4(r7)
 800508c:	38c00215 	stw	r3,8(r7)
 8005090:	38c00315 	stw	r3,12(r7)
 8005094:	39c00404 	addi	r7,r7,16
 8005098:	11bff936 	bltu	r2,r6,8005080 <memset+0x58>
 800509c:	008000c4 	movi	r2,3
 80050a0:	1180052e 	bgeu	r2,r6,80050b8 <memset+0x90>
 80050a4:	31bfff04 	addi	r6,r6,-4
 80050a8:	008000c4 	movi	r2,3
 80050ac:	38c00015 	stw	r3,0(r7)
 80050b0:	39c00104 	addi	r7,r7,4
 80050b4:	11bffb36 	bltu	r2,r6,80050a4 <memset+0x7c>
 80050b8:	3807883a 	mov	r3,r7
 80050bc:	003fe006 	br	8005040 <memset+0x18>

080050c0 <printf>:
 80050c0:	defffb04 	addi	sp,sp,-20
 80050c4:	dfc00115 	stw	ra,4(sp)
 80050c8:	d9400215 	stw	r5,8(sp)
 80050cc:	d9800315 	stw	r6,12(sp)
 80050d0:	d9c00415 	stw	r7,16(sp)
 80050d4:	00820074 	movhi	r2,2049
 80050d8:	109b8304 	addi	r2,r2,28172
 80050dc:	10c00017 	ldw	r3,0(r2)
 80050e0:	200b883a 	mov	r5,r4
 80050e4:	d8800204 	addi	r2,sp,8
 80050e8:	19000217 	ldw	r4,8(r3)
 80050ec:	100d883a 	mov	r6,r2
 80050f0:	d8800015 	stw	r2,0(sp)
 80050f4:	80075180 	call	8007518 <__vfprintf_internal>
 80050f8:	dfc00117 	ldw	ra,4(sp)
 80050fc:	dec00504 	addi	sp,sp,20
 8005100:	f800283a 	ret

08005104 <_printf_r>:
 8005104:	defffc04 	addi	sp,sp,-16
 8005108:	dfc00115 	stw	ra,4(sp)
 800510c:	d9800215 	stw	r6,8(sp)
 8005110:	d9c00315 	stw	r7,12(sp)
 8005114:	280d883a 	mov	r6,r5
 8005118:	21400217 	ldw	r5,8(r4)
 800511c:	d8c00204 	addi	r3,sp,8
 8005120:	180f883a 	mov	r7,r3
 8005124:	d8c00015 	stw	r3,0(sp)
 8005128:	80056540 	call	8005654 <___vfprintf_internal_r>
 800512c:	dfc00117 	ldw	ra,4(sp)
 8005130:	dec00404 	addi	sp,sp,16
 8005134:	f800283a 	ret

08005138 <_puts_r>:
 8005138:	defff604 	addi	sp,sp,-40
 800513c:	dc400715 	stw	r17,28(sp)
 8005140:	2023883a 	mov	r17,r4
 8005144:	2809883a 	mov	r4,r5
 8005148:	dfc00915 	stw	ra,36(sp)
 800514c:	dcc00815 	stw	r19,32(sp)
 8005150:	2827883a 	mov	r19,r5
 8005154:	80055880 	call	8005588 <strlen>
 8005158:	89400217 	ldw	r5,8(r17)
 800515c:	00c20074 	movhi	r3,2049
 8005160:	18d41604 	addi	r3,r3,20568
 8005164:	01c00044 	movi	r7,1
 8005168:	12000044 	addi	r8,r2,1
 800516c:	d8c00515 	stw	r3,20(sp)
 8005170:	d9c00615 	stw	r7,24(sp)
 8005174:	d8c00304 	addi	r3,sp,12
 8005178:	01c00084 	movi	r7,2
 800517c:	8809883a 	mov	r4,r17
 8005180:	d80d883a 	mov	r6,sp
 8005184:	d8c00015 	stw	r3,0(sp)
 8005188:	dcc00315 	stw	r19,12(sp)
 800518c:	da000215 	stw	r8,8(sp)
 8005190:	d9c00115 	stw	r7,4(sp)
 8005194:	d8800415 	stw	r2,16(sp)
 8005198:	80096ec0 	call	80096ec <__sfvwrite_r>
 800519c:	00ffffc4 	movi	r3,-1
 80051a0:	10000626 	beq	r2,zero,80051bc <_puts_r+0x84>
 80051a4:	1805883a 	mov	r2,r3
 80051a8:	dfc00917 	ldw	ra,36(sp)
 80051ac:	dcc00817 	ldw	r19,32(sp)
 80051b0:	dc400717 	ldw	r17,28(sp)
 80051b4:	dec00a04 	addi	sp,sp,40
 80051b8:	f800283a 	ret
 80051bc:	00c00284 	movi	r3,10
 80051c0:	1805883a 	mov	r2,r3
 80051c4:	dfc00917 	ldw	ra,36(sp)
 80051c8:	dcc00817 	ldw	r19,32(sp)
 80051cc:	dc400717 	ldw	r17,28(sp)
 80051d0:	dec00a04 	addi	sp,sp,40
 80051d4:	f800283a 	ret

080051d8 <puts>:
 80051d8:	00820074 	movhi	r2,2049
 80051dc:	109b8304 	addi	r2,r2,28172
 80051e0:	200b883a 	mov	r5,r4
 80051e4:	11000017 	ldw	r4,0(r2)
 80051e8:	80051381 	jmpi	8005138 <_puts_r>

080051ec <__srefill_r>:
 80051ec:	defffd04 	addi	sp,sp,-12
 80051f0:	dc400115 	stw	r17,4(sp)
 80051f4:	dc000015 	stw	r16,0(sp)
 80051f8:	dfc00215 	stw	ra,8(sp)
 80051fc:	2023883a 	mov	r17,r4
 8005200:	2821883a 	mov	r16,r5
 8005204:	20000226 	beq	r4,zero,8005210 <__srefill_r+0x24>
 8005208:	20800e17 	ldw	r2,56(r4)
 800520c:	10004126 	beq	r2,zero,8005314 <__srefill_r+0x128>
 8005210:	80c0030b 	ldhu	r3,12(r16)
 8005214:	80000115 	stw	zero,4(r16)
 8005218:	1880080c 	andi	r2,r3,32
 800521c:	1000361e 	bne	r2,zero,80052f8 <__srefill_r+0x10c>
 8005220:	1880010c 	andi	r2,r3,4
 8005224:	1000211e 	bne	r2,zero,80052ac <__srefill_r+0xc0>
 8005228:	1880040c 	andi	r2,r3,16
 800522c:	10005026 	beq	r2,zero,8005370 <__srefill_r+0x184>
 8005230:	1880020c 	andi	r2,r3,8
 8005234:	1000541e 	bne	r2,zero,8005388 <__srefill_r+0x19c>
 8005238:	8080030b 	ldhu	r2,12(r16)
 800523c:	10800114 	ori	r2,r2,4
 8005240:	8080030d 	sth	r2,12(r16)
 8005244:	80800417 	ldw	r2,16(r16)
 8005248:	10004526 	beq	r2,zero,8005360 <__srefill_r+0x174>
 800524c:	8080030b 	ldhu	r2,12(r16)
 8005250:	108000cc 	andi	r2,r2,3
 8005254:	1000361e 	bne	r2,zero,8005330 <__srefill_r+0x144>
 8005258:	81800417 	ldw	r6,16(r16)
 800525c:	80c00817 	ldw	r3,32(r16)
 8005260:	81400717 	ldw	r5,28(r16)
 8005264:	81c00517 	ldw	r7,20(r16)
 8005268:	8809883a 	mov	r4,r17
 800526c:	81800015 	stw	r6,0(r16)
 8005270:	183ee83a 	callr	r3
 8005274:	80c0030b 	ldhu	r3,12(r16)
 8005278:	1009883a 	mov	r4,r2
 800527c:	80800115 	stw	r2,4(r16)
 8005280:	00b7ffc4 	movi	r2,-8193
 8005284:	1884703a 	and	r2,r3,r2
 8005288:	8080030d 	sth	r2,12(r16)
 800528c:	0100230e 	bge	zero,r4,800531c <__srefill_r+0x130>
 8005290:	0009883a 	mov	r4,zero
 8005294:	2005883a 	mov	r2,r4
 8005298:	dfc00217 	ldw	ra,8(sp)
 800529c:	dc400117 	ldw	r17,4(sp)
 80052a0:	dc000017 	ldw	r16,0(sp)
 80052a4:	dec00304 	addi	sp,sp,12
 80052a8:	f800283a 	ret
 80052ac:	81400c17 	ldw	r5,48(r16)
 80052b0:	283fe426 	beq	r5,zero,8005244 <__srefill_r+0x58>
 80052b4:	80801004 	addi	r2,r16,64
 80052b8:	28800226 	beq	r5,r2,80052c4 <__srefill_r+0xd8>
 80052bc:	8809883a 	mov	r4,r17
 80052c0:	80093d80 	call	80093d8 <_free_r>
 80052c4:	80800f17 	ldw	r2,60(r16)
 80052c8:	80000c15 	stw	zero,48(r16)
 80052cc:	80800115 	stw	r2,4(r16)
 80052d0:	103fdc26 	beq	r2,zero,8005244 <__srefill_r+0x58>
 80052d4:	80800e17 	ldw	r2,56(r16)
 80052d8:	0009883a 	mov	r4,zero
 80052dc:	80800015 	stw	r2,0(r16)
 80052e0:	2005883a 	mov	r2,r4
 80052e4:	dfc00217 	ldw	ra,8(sp)
 80052e8:	dc400117 	ldw	r17,4(sp)
 80052ec:	dc000017 	ldw	r16,0(sp)
 80052f0:	dec00304 	addi	sp,sp,12
 80052f4:	f800283a 	ret
 80052f8:	013fffc4 	movi	r4,-1
 80052fc:	2005883a 	mov	r2,r4
 8005300:	dfc00217 	ldw	ra,8(sp)
 8005304:	dc400117 	ldw	r17,4(sp)
 8005308:	dc000017 	ldw	r16,0(sp)
 800530c:	dec00304 	addi	sp,sp,12
 8005310:	f800283a 	ret
 8005314:	80043300 	call	8004330 <__sinit>
 8005318:	003fbd06 	br	8005210 <__srefill_r+0x24>
 800531c:	20000b1e 	bne	r4,zero,800534c <__srefill_r+0x160>
 8005320:	10800814 	ori	r2,r2,32
 8005324:	013fffc4 	movi	r4,-1
 8005328:	8080030d 	sth	r2,12(r16)
 800532c:	003fd906 	br	8005294 <__srefill_r+0xa8>
 8005330:	00820074 	movhi	r2,2049
 8005334:	109b8404 	addi	r2,r2,28176
 8005338:	11000017 	ldw	r4,0(r2)
 800533c:	01420034 	movhi	r5,2048
 8005340:	2954ec04 	addi	r5,r5,21424
 8005344:	80046840 	call	8004684 <_fwalk>
 8005348:	003fc306 	br	8005258 <__srefill_r+0x6c>
 800534c:	10801014 	ori	r2,r2,64
 8005350:	013fffc4 	movi	r4,-1
 8005354:	8080030d 	sth	r2,12(r16)
 8005358:	80000115 	stw	zero,4(r16)
 800535c:	003fcd06 	br	8005294 <__srefill_r+0xa8>
 8005360:	8809883a 	mov	r4,r17
 8005364:	800b883a 	mov	r5,r16
 8005368:	8009cc40 	call	8009cc4 <__smakebuf_r>
 800536c:	003fb706 	br	800524c <__srefill_r+0x60>
 8005370:	18c01014 	ori	r3,r3,64
 8005374:	00800244 	movi	r2,9
 8005378:	013fffc4 	movi	r4,-1
 800537c:	88800015 	stw	r2,0(r17)
 8005380:	80c0030d 	sth	r3,12(r16)
 8005384:	003fc306 	br	8005294 <__srefill_r+0xa8>
 8005388:	8809883a 	mov	r4,r17
 800538c:	800b883a 	mov	r5,r16
 8005390:	800907c0 	call	800907c <_fflush_r>
 8005394:	103fd81e 	bne	r2,zero,80052f8 <__srefill_r+0x10c>
 8005398:	8080030b 	ldhu	r2,12(r16)
 800539c:	80000215 	stw	zero,8(r16)
 80053a0:	80000615 	stw	zero,24(r16)
 80053a4:	10bffdcc 	andi	r2,r2,65527
 80053a8:	8080030d 	sth	r2,12(r16)
 80053ac:	003fa206 	br	8005238 <__srefill_r+0x4c>

080053b0 <lflush>:
 80053b0:	20c0030b 	ldhu	r3,12(r4)
 80053b4:	01400244 	movi	r5,9
 80053b8:	0005883a 	mov	r2,zero
 80053bc:	18c0024c 	andi	r3,r3,9
 80053c0:	19400126 	beq	r3,r5,80053c8 <lflush+0x18>
 80053c4:	f800283a 	ret
 80053c8:	80092781 	jmpi	8009278 <fflush>

080053cc <_sbrk_r>:
 80053cc:	defffd04 	addi	sp,sp,-12
 80053d0:	dc000015 	stw	r16,0(sp)
 80053d4:	040200b4 	movhi	r16,2050
 80053d8:	84223b04 	addi	r16,r16,-30484
 80053dc:	dc400115 	stw	r17,4(sp)
 80053e0:	80000015 	stw	zero,0(r16)
 80053e4:	2023883a 	mov	r17,r4
 80053e8:	2809883a 	mov	r4,r5
 80053ec:	dfc00215 	stw	ra,8(sp)
 80053f0:	800e80c0 	call	800e80c <sbrk>
 80053f4:	1007883a 	mov	r3,r2
 80053f8:	00bfffc4 	movi	r2,-1
 80053fc:	18800626 	beq	r3,r2,8005418 <_sbrk_r+0x4c>
 8005400:	1805883a 	mov	r2,r3
 8005404:	dfc00217 	ldw	ra,8(sp)
 8005408:	dc400117 	ldw	r17,4(sp)
 800540c:	dc000017 	ldw	r16,0(sp)
 8005410:	dec00304 	addi	sp,sp,12
 8005414:	f800283a 	ret
 8005418:	80800017 	ldw	r2,0(r16)
 800541c:	103ff826 	beq	r2,zero,8005400 <_sbrk_r+0x34>
 8005420:	88800015 	stw	r2,0(r17)
 8005424:	1805883a 	mov	r2,r3
 8005428:	dfc00217 	ldw	ra,8(sp)
 800542c:	dc400117 	ldw	r17,4(sp)
 8005430:	dc000017 	ldw	r16,0(sp)
 8005434:	dec00304 	addi	sp,sp,12
 8005438:	f800283a 	ret

0800543c <__sclose>:
 800543c:	2940038f 	ldh	r5,14(r5)
 8005440:	80076f01 	jmpi	80076f0 <_close_r>

08005444 <__sseek>:
 8005444:	defffe04 	addi	sp,sp,-8
 8005448:	dc000015 	stw	r16,0(sp)
 800544c:	2821883a 	mov	r16,r5
 8005450:	2940038f 	ldh	r5,14(r5)
 8005454:	dfc00115 	stw	ra,4(sp)
 8005458:	8009c4c0 	call	8009c4c <_lseek_r>
 800545c:	1007883a 	mov	r3,r2
 8005460:	00bfffc4 	movi	r2,-1
 8005464:	18800926 	beq	r3,r2,800548c <__sseek+0x48>
 8005468:	8080030b 	ldhu	r2,12(r16)
 800546c:	80c01415 	stw	r3,80(r16)
 8005470:	10840014 	ori	r2,r2,4096
 8005474:	8080030d 	sth	r2,12(r16)
 8005478:	1805883a 	mov	r2,r3
 800547c:	dfc00117 	ldw	ra,4(sp)
 8005480:	dc000017 	ldw	r16,0(sp)
 8005484:	dec00204 	addi	sp,sp,8
 8005488:	f800283a 	ret
 800548c:	8080030b 	ldhu	r2,12(r16)
 8005490:	10bbffcc 	andi	r2,r2,61439
 8005494:	8080030d 	sth	r2,12(r16)
 8005498:	1805883a 	mov	r2,r3
 800549c:	dfc00117 	ldw	ra,4(sp)
 80054a0:	dc000017 	ldw	r16,0(sp)
 80054a4:	dec00204 	addi	sp,sp,8
 80054a8:	f800283a 	ret

080054ac <__swrite>:
 80054ac:	2880030b 	ldhu	r2,12(r5)
 80054b0:	defffb04 	addi	sp,sp,-20
 80054b4:	dcc00315 	stw	r19,12(sp)
 80054b8:	1080400c 	andi	r2,r2,256
 80054bc:	dc800215 	stw	r18,8(sp)
 80054c0:	dc400115 	stw	r17,4(sp)
 80054c4:	dc000015 	stw	r16,0(sp)
 80054c8:	3027883a 	mov	r19,r6
 80054cc:	3825883a 	mov	r18,r7
 80054d0:	dfc00415 	stw	ra,16(sp)
 80054d4:	2821883a 	mov	r16,r5
 80054d8:	000d883a 	mov	r6,zero
 80054dc:	01c00084 	movi	r7,2
 80054e0:	2023883a 	mov	r17,r4
 80054e4:	10000226 	beq	r2,zero,80054f0 <__swrite+0x44>
 80054e8:	2940038f 	ldh	r5,14(r5)
 80054ec:	8009c4c0 	call	8009c4c <_lseek_r>
 80054f0:	8080030b 	ldhu	r2,12(r16)
 80054f4:	8140038f 	ldh	r5,14(r16)
 80054f8:	8809883a 	mov	r4,r17
 80054fc:	10bbffcc 	andi	r2,r2,61439
 8005500:	980d883a 	mov	r6,r19
 8005504:	900f883a 	mov	r7,r18
 8005508:	8080030d 	sth	r2,12(r16)
 800550c:	dfc00417 	ldw	ra,16(sp)
 8005510:	dcc00317 	ldw	r19,12(sp)
 8005514:	dc800217 	ldw	r18,8(sp)
 8005518:	dc400117 	ldw	r17,4(sp)
 800551c:	dc000017 	ldw	r16,0(sp)
 8005520:	dec00504 	addi	sp,sp,20
 8005524:	800753c1 	jmpi	800753c <_write_r>

08005528 <__sread>:
 8005528:	defffe04 	addi	sp,sp,-8
 800552c:	dc000015 	stw	r16,0(sp)
 8005530:	2821883a 	mov	r16,r5
 8005534:	2940038f 	ldh	r5,14(r5)
 8005538:	dfc00115 	stw	ra,4(sp)
 800553c:	800afc40 	call	800afc4 <_read_r>
 8005540:	1007883a 	mov	r3,r2
 8005544:	10000816 	blt	r2,zero,8005568 <__sread+0x40>
 8005548:	80801417 	ldw	r2,80(r16)
 800554c:	10c5883a 	add	r2,r2,r3
 8005550:	80801415 	stw	r2,80(r16)
 8005554:	1805883a 	mov	r2,r3
 8005558:	dfc00117 	ldw	ra,4(sp)
 800555c:	dc000017 	ldw	r16,0(sp)
 8005560:	dec00204 	addi	sp,sp,8
 8005564:	f800283a 	ret
 8005568:	8080030b 	ldhu	r2,12(r16)
 800556c:	10bbffcc 	andi	r2,r2,61439
 8005570:	8080030d 	sth	r2,12(r16)
 8005574:	1805883a 	mov	r2,r3
 8005578:	dfc00117 	ldw	ra,4(sp)
 800557c:	dc000017 	ldw	r16,0(sp)
 8005580:	dec00204 	addi	sp,sp,8
 8005584:	f800283a 	ret

08005588 <strlen>:
 8005588:	208000cc 	andi	r2,r4,3
 800558c:	2011883a 	mov	r8,r4
 8005590:	1000161e 	bne	r2,zero,80055ec <strlen+0x64>
 8005594:	20c00017 	ldw	r3,0(r4)
 8005598:	017fbff4 	movhi	r5,65279
 800559c:	297fbfc4 	addi	r5,r5,-257
 80055a0:	01e02074 	movhi	r7,32897
 80055a4:	39e02004 	addi	r7,r7,-32640
 80055a8:	1945883a 	add	r2,r3,r5
 80055ac:	11c4703a 	and	r2,r2,r7
 80055b0:	00c6303a 	nor	r3,zero,r3
 80055b4:	1886703a 	and	r3,r3,r2
 80055b8:	18000c1e 	bne	r3,zero,80055ec <strlen+0x64>
 80055bc:	280d883a 	mov	r6,r5
 80055c0:	380b883a 	mov	r5,r7
 80055c4:	21000104 	addi	r4,r4,4
 80055c8:	20800017 	ldw	r2,0(r4)
 80055cc:	1187883a 	add	r3,r2,r6
 80055d0:	1946703a 	and	r3,r3,r5
 80055d4:	0084303a 	nor	r2,zero,r2
 80055d8:	10c4703a 	and	r2,r2,r3
 80055dc:	103ff926 	beq	r2,zero,80055c4 <strlen+0x3c>
 80055e0:	20800007 	ldb	r2,0(r4)
 80055e4:	10000326 	beq	r2,zero,80055f4 <strlen+0x6c>
 80055e8:	21000044 	addi	r4,r4,1
 80055ec:	20800007 	ldb	r2,0(r4)
 80055f0:	103ffd1e 	bne	r2,zero,80055e8 <strlen+0x60>
 80055f4:	2205c83a 	sub	r2,r4,r8
 80055f8:	f800283a 	ret

080055fc <__sprint_r>:
 80055fc:	30800217 	ldw	r2,8(r6)
 8005600:	defffe04 	addi	sp,sp,-8
 8005604:	dc000015 	stw	r16,0(sp)
 8005608:	dfc00115 	stw	ra,4(sp)
 800560c:	3021883a 	mov	r16,r6
 8005610:	0007883a 	mov	r3,zero
 8005614:	1000061e 	bne	r2,zero,8005630 <__sprint_r+0x34>
 8005618:	1805883a 	mov	r2,r3
 800561c:	30000115 	stw	zero,4(r6)
 8005620:	dfc00117 	ldw	ra,4(sp)
 8005624:	dc000017 	ldw	r16,0(sp)
 8005628:	dec00204 	addi	sp,sp,8
 800562c:	f800283a 	ret
 8005630:	80096ec0 	call	80096ec <__sfvwrite_r>
 8005634:	1007883a 	mov	r3,r2
 8005638:	1805883a 	mov	r2,r3
 800563c:	80000115 	stw	zero,4(r16)
 8005640:	80000215 	stw	zero,8(r16)
 8005644:	dfc00117 	ldw	ra,4(sp)
 8005648:	dc000017 	ldw	r16,0(sp)
 800564c:	dec00204 	addi	sp,sp,8
 8005650:	f800283a 	ret

08005654 <___vfprintf_internal_r>:
 8005654:	defea404 	addi	sp,sp,-1392
 8005658:	dd815815 	stw	r22,1376(sp)
 800565c:	dc015215 	stw	r16,1352(sp)
 8005660:	d9c15115 	stw	r7,1348(sp)
 8005664:	dfc15b15 	stw	ra,1388(sp)
 8005668:	df015a15 	stw	fp,1384(sp)
 800566c:	ddc15915 	stw	r23,1380(sp)
 8005670:	dd415715 	stw	r21,1372(sp)
 8005674:	dd015615 	stw	r20,1368(sp)
 8005678:	dcc15515 	stw	r19,1364(sp)
 800567c:	dc815415 	stw	r18,1360(sp)
 8005680:	dc415315 	stw	r17,1356(sp)
 8005684:	282d883a 	mov	r22,r5
 8005688:	3021883a 	mov	r16,r6
 800568c:	d9014f15 	stw	r4,1340(sp)
 8005690:	8009b900 	call	8009b90 <_localeconv_r>
 8005694:	10800017 	ldw	r2,0(r2)
 8005698:	d9c15117 	ldw	r7,1348(sp)
 800569c:	d8814915 	stw	r2,1316(sp)
 80056a0:	d8814f17 	ldw	r2,1340(sp)
 80056a4:	10000226 	beq	r2,zero,80056b0 <___vfprintf_internal_r+0x5c>
 80056a8:	10800e17 	ldw	r2,56(r2)
 80056ac:	10020d26 	beq	r2,zero,8005ee4 <___vfprintf_internal_r+0x890>
 80056b0:	b080030b 	ldhu	r2,12(r22)
 80056b4:	1080020c 	andi	r2,r2,8
 80056b8:	10020e26 	beq	r2,zero,8005ef4 <___vfprintf_internal_r+0x8a0>
 80056bc:	b0800417 	ldw	r2,16(r22)
 80056c0:	10020c26 	beq	r2,zero,8005ef4 <___vfprintf_internal_r+0x8a0>
 80056c4:	b200030b 	ldhu	r8,12(r22)
 80056c8:	00800284 	movi	r2,10
 80056cc:	40c0068c 	andi	r3,r8,26
 80056d0:	18802f1e 	bne	r3,r2,8005790 <___vfprintf_internal_r+0x13c>
 80056d4:	b080038f 	ldh	r2,14(r22)
 80056d8:	10002d16 	blt	r2,zero,8005790 <___vfprintf_internal_r+0x13c>
 80056dc:	b240038b 	ldhu	r9,14(r22)
 80056e0:	b2800717 	ldw	r10,28(r22)
 80056e4:	b2c00917 	ldw	r11,36(r22)
 80056e8:	d9014f17 	ldw	r4,1340(sp)
 80056ec:	dc402904 	addi	r17,sp,164
 80056f0:	d8804004 	addi	r2,sp,256
 80056f4:	00c10004 	movi	r3,1024
 80056f8:	423fff4c 	andi	r8,r8,65533
 80056fc:	800d883a 	mov	r6,r16
 8005700:	880b883a 	mov	r5,r17
 8005704:	da002c0d 	sth	r8,176(sp)
 8005708:	da402c8d 	sth	r9,178(sp)
 800570c:	da803015 	stw	r10,192(sp)
 8005710:	dac03215 	stw	r11,200(sp)
 8005714:	d8802d15 	stw	r2,180(sp)
 8005718:	d8c02e15 	stw	r3,184(sp)
 800571c:	d8802915 	stw	r2,164(sp)
 8005720:	d8c02b15 	stw	r3,172(sp)
 8005724:	d8002f15 	stw	zero,188(sp)
 8005728:	80056540 	call	8005654 <___vfprintf_internal_r>
 800572c:	d8814b15 	stw	r2,1324(sp)
 8005730:	10000416 	blt	r2,zero,8005744 <___vfprintf_internal_r+0xf0>
 8005734:	d9014f17 	ldw	r4,1340(sp)
 8005738:	880b883a 	mov	r5,r17
 800573c:	800907c0 	call	800907c <_fflush_r>
 8005740:	1002321e 	bne	r2,zero,800600c <___vfprintf_internal_r+0x9b8>
 8005744:	d8802c0b 	ldhu	r2,176(sp)
 8005748:	1080100c 	andi	r2,r2,64
 800574c:	10000326 	beq	r2,zero,800575c <___vfprintf_internal_r+0x108>
 8005750:	b080030b 	ldhu	r2,12(r22)
 8005754:	10801014 	ori	r2,r2,64
 8005758:	b080030d 	sth	r2,12(r22)
 800575c:	d8814b17 	ldw	r2,1324(sp)
 8005760:	dfc15b17 	ldw	ra,1388(sp)
 8005764:	df015a17 	ldw	fp,1384(sp)
 8005768:	ddc15917 	ldw	r23,1380(sp)
 800576c:	dd815817 	ldw	r22,1376(sp)
 8005770:	dd415717 	ldw	r21,1372(sp)
 8005774:	dd015617 	ldw	r20,1368(sp)
 8005778:	dcc15517 	ldw	r19,1364(sp)
 800577c:	dc815417 	ldw	r18,1360(sp)
 8005780:	dc415317 	ldw	r17,1356(sp)
 8005784:	dc015217 	ldw	r16,1352(sp)
 8005788:	dec15c04 	addi	sp,sp,1392
 800578c:	f800283a 	ret
 8005790:	0005883a 	mov	r2,zero
 8005794:	0007883a 	mov	r3,zero
 8005798:	dd401904 	addi	r21,sp,100
 800579c:	d8814215 	stw	r2,1288(sp)
 80057a0:	802f883a 	mov	r23,r16
 80057a4:	d8c14315 	stw	r3,1292(sp)
 80057a8:	d8014b15 	stw	zero,1324(sp)
 80057ac:	d8014815 	stw	zero,1312(sp)
 80057b0:	d8014415 	stw	zero,1296(sp)
 80057b4:	d8014715 	stw	zero,1308(sp)
 80057b8:	dd400c15 	stw	r21,48(sp)
 80057bc:	d8000e15 	stw	zero,56(sp)
 80057c0:	d8000d15 	stw	zero,52(sp)
 80057c4:	b8800007 	ldb	r2,0(r23)
 80057c8:	10001926 	beq	r2,zero,8005830 <___vfprintf_internal_r+0x1dc>
 80057cc:	00c00944 	movi	r3,37
 80057d0:	10c01726 	beq	r2,r3,8005830 <___vfprintf_internal_r+0x1dc>
 80057d4:	b821883a 	mov	r16,r23
 80057d8:	00000106 	br	80057e0 <___vfprintf_internal_r+0x18c>
 80057dc:	10c00326 	beq	r2,r3,80057ec <___vfprintf_internal_r+0x198>
 80057e0:	84000044 	addi	r16,r16,1
 80057e4:	80800007 	ldb	r2,0(r16)
 80057e8:	103ffc1e 	bne	r2,zero,80057dc <___vfprintf_internal_r+0x188>
 80057ec:	85e7c83a 	sub	r19,r16,r23
 80057f0:	98000e26 	beq	r19,zero,800582c <___vfprintf_internal_r+0x1d8>
 80057f4:	dc800e17 	ldw	r18,56(sp)
 80057f8:	dc400d17 	ldw	r17,52(sp)
 80057fc:	008001c4 	movi	r2,7
 8005800:	94e5883a 	add	r18,r18,r19
 8005804:	8c400044 	addi	r17,r17,1
 8005808:	adc00015 	stw	r23,0(r21)
 800580c:	dc800e15 	stw	r18,56(sp)
 8005810:	acc00115 	stw	r19,4(r21)
 8005814:	dc400d15 	stw	r17,52(sp)
 8005818:	14428b16 	blt	r2,r17,8006248 <___vfprintf_internal_r+0xbf4>
 800581c:	ad400204 	addi	r21,r21,8
 8005820:	d9014b17 	ldw	r4,1324(sp)
 8005824:	24c9883a 	add	r4,r4,r19
 8005828:	d9014b15 	stw	r4,1324(sp)
 800582c:	802f883a 	mov	r23,r16
 8005830:	b8800007 	ldb	r2,0(r23)
 8005834:	10013c26 	beq	r2,zero,8005d28 <___vfprintf_internal_r+0x6d4>
 8005838:	bdc00044 	addi	r23,r23,1
 800583c:	d8000405 	stb	zero,16(sp)
 8005840:	b8c00007 	ldb	r3,0(r23)
 8005844:	04ffffc4 	movi	r19,-1
 8005848:	d8014c15 	stw	zero,1328(sp)
 800584c:	d8014a15 	stw	zero,1320(sp)
 8005850:	d8c14d15 	stw	r3,1332(sp)
 8005854:	bdc00044 	addi	r23,r23,1
 8005858:	d9414d17 	ldw	r5,1332(sp)
 800585c:	00801604 	movi	r2,88
 8005860:	28fff804 	addi	r3,r5,-32
 8005864:	10c06036 	bltu	r2,r3,80059e8 <___vfprintf_internal_r+0x394>
 8005868:	18c5883a 	add	r2,r3,r3
 800586c:	1085883a 	add	r2,r2,r2
 8005870:	00c20034 	movhi	r3,2048
 8005874:	18d62104 	addi	r3,r3,22660
 8005878:	10c5883a 	add	r2,r2,r3
 800587c:	11000017 	ldw	r4,0(r2)
 8005880:	2000683a 	jmp	r4
 8005884:	080067f8 	rdprs	zero,at,415
 8005888:	080059e8 	cmpgeui	zero,at,359
 800588c:	080059e8 	cmpgeui	zero,at,359
 8005890:	080067e4 	muli	zero,at,415
 8005894:	080059e8 	cmpgeui	zero,at,359
 8005898:	080059e8 	cmpgeui	zero,at,359
 800589c:	080059e8 	cmpgeui	zero,at,359
 80058a0:	080059e8 	cmpgeui	zero,at,359
 80058a4:	080059e8 	cmpgeui	zero,at,359
 80058a8:	080059e8 	cmpgeui	zero,at,359
 80058ac:	080065c4 	addi	zero,at,407
 80058b0:	080067d4 	ori	zero,at,415
 80058b4:	080059e8 	cmpgeui	zero,at,359
 80058b8:	080065dc 	xori	zero,at,407
 80058bc:	0800687c 	xorhi	zero,at,417
 80058c0:	080059e8 	cmpgeui	zero,at,359
 80058c4:	08006868 	cmpgeui	zero,at,417
 80058c8:	08006824 	muli	zero,at,416
 80058cc:	08006824 	muli	zero,at,416
 80058d0:	08006824 	muli	zero,at,416
 80058d4:	08006824 	muli	zero,at,416
 80058d8:	08006824 	muli	zero,at,416
 80058dc:	08006824 	muli	zero,at,416
 80058e0:	08006824 	muli	zero,at,416
 80058e4:	08006824 	muli	zero,at,416
 80058e8:	08006824 	muli	zero,at,416
 80058ec:	080059e8 	cmpgeui	zero,at,359
 80058f0:	080059e8 	cmpgeui	zero,at,359
 80058f4:	080059e8 	cmpgeui	zero,at,359
 80058f8:	080059e8 	cmpgeui	zero,at,359
 80058fc:	080059e8 	cmpgeui	zero,at,359
 8005900:	080059e8 	cmpgeui	zero,at,359
 8005904:	080059e8 	cmpgeui	zero,at,359
 8005908:	080059e8 	cmpgeui	zero,at,359
 800590c:	080059e8 	cmpgeui	zero,at,359
 8005910:	080059e8 	cmpgeui	zero,at,359
 8005914:	08006040 	call	800604 <__alt_mem_onchip_memory2_0+0x7fe604>
 8005918:	080066ac 	andhi	zero,at,410
 800591c:	080059e8 	cmpgeui	zero,at,359
 8005920:	080066ac 	andhi	zero,at,410
 8005924:	080059e8 	cmpgeui	zero,at,359
 8005928:	080059e8 	cmpgeui	zero,at,359
 800592c:	080059e8 	cmpgeui	zero,at,359
 8005930:	080059e8 	cmpgeui	zero,at,359
 8005934:	08006810 	cmplti	zero,at,416
 8005938:	080059e8 	cmpgeui	zero,at,359
 800593c:	080059e8 	cmpgeui	zero,at,359
 8005940:	080060f4 	orhi	zero,at,387
 8005944:	080059e8 	cmpgeui	zero,at,359
 8005948:	080059e8 	cmpgeui	zero,at,359
 800594c:	080059e8 	cmpgeui	zero,at,359
 8005950:	080059e8 	cmpgeui	zero,at,359
 8005954:	080059e8 	cmpgeui	zero,at,359
 8005958:	08006140 	call	800614 <__alt_mem_onchip_memory2_0+0x7fe614>
 800595c:	080059e8 	cmpgeui	zero,at,359
 8005960:	080059e8 	cmpgeui	zero,at,359
 8005964:	08006760 	cmpeqi	zero,at,413
 8005968:	080059e8 	cmpgeui	zero,at,359
 800596c:	080059e8 	cmpgeui	zero,at,359
 8005970:	080059e8 	cmpgeui	zero,at,359
 8005974:	080059e8 	cmpgeui	zero,at,359
 8005978:	080059e8 	cmpgeui	zero,at,359
 800597c:	080059e8 	cmpgeui	zero,at,359
 8005980:	080059e8 	cmpgeui	zero,at,359
 8005984:	080059e8 	cmpgeui	zero,at,359
 8005988:	080059e8 	cmpgeui	zero,at,359
 800598c:	080059e8 	cmpgeui	zero,at,359
 8005990:	08006734 	orhi	zero,at,412
 8005994:	0800604c 	andi	zero,at,385
 8005998:	080066ac 	andhi	zero,at,410
 800599c:	080066ac 	andhi	zero,at,410
 80059a0:	080066ac 	andhi	zero,at,410
 80059a4:	08006698 	cmpnei	zero,at,410
 80059a8:	0800604c 	andi	zero,at,385
 80059ac:	080059e8 	cmpgeui	zero,at,359
 80059b0:	080059e8 	cmpgeui	zero,at,359
 80059b4:	08006620 	cmpeqi	zero,at,408
 80059b8:	080059e8 	cmpgeui	zero,at,359
 80059bc:	080065f0 	cmpltui	zero,at,407
 80059c0:	08006100 	call	800610 <__alt_mem_onchip_memory2_0+0x7fe610>
 80059c4:	08006650 	cmplti	zero,at,409
 80059c8:	0800663c 	xorhi	zero,at,408
 80059cc:	080059e8 	cmpgeui	zero,at,359
 80059d0:	080068e4 	muli	zero,at,419
 80059d4:	080059e8 	cmpgeui	zero,at,359
 80059d8:	0800614c 	andi	zero,at,389
 80059dc:	080059e8 	cmpgeui	zero,at,359
 80059e0:	080059e8 	cmpgeui	zero,at,359
 80059e4:	080067c4 	addi	zero,at,415
 80059e8:	d9014d17 	ldw	r4,1332(sp)
 80059ec:	2000ce26 	beq	r4,zero,8005d28 <___vfprintf_internal_r+0x6d4>
 80059f0:	01400044 	movi	r5,1
 80059f4:	d9800f04 	addi	r6,sp,60
 80059f8:	d9c14015 	stw	r7,1280(sp)
 80059fc:	d9414515 	stw	r5,1300(sp)
 8005a00:	d9814115 	stw	r6,1284(sp)
 8005a04:	280f883a 	mov	r7,r5
 8005a08:	d9000f05 	stb	r4,60(sp)
 8005a0c:	d8000405 	stb	zero,16(sp)
 8005a10:	d8014615 	stw	zero,1304(sp)
 8005a14:	d8c14c17 	ldw	r3,1328(sp)
 8005a18:	1880008c 	andi	r2,r3,2
 8005a1c:	1005003a 	cmpeq	r2,r2,zero
 8005a20:	d8815015 	stw	r2,1344(sp)
 8005a24:	1000031e 	bne	r2,zero,8005a34 <___vfprintf_internal_r+0x3e0>
 8005a28:	d9014517 	ldw	r4,1300(sp)
 8005a2c:	21000084 	addi	r4,r4,2
 8005a30:	d9014515 	stw	r4,1300(sp)
 8005a34:	d9414c17 	ldw	r5,1328(sp)
 8005a38:	2940210c 	andi	r5,r5,132
 8005a3c:	d9414e15 	stw	r5,1336(sp)
 8005a40:	28002d1e 	bne	r5,zero,8005af8 <___vfprintf_internal_r+0x4a4>
 8005a44:	d9814a17 	ldw	r6,1320(sp)
 8005a48:	d8814517 	ldw	r2,1300(sp)
 8005a4c:	30a1c83a 	sub	r16,r6,r2
 8005a50:	0400290e 	bge	zero,r16,8005af8 <___vfprintf_internal_r+0x4a4>
 8005a54:	00800404 	movi	r2,16
 8005a58:	14045e0e 	bge	r2,r16,8006bd4 <___vfprintf_internal_r+0x1580>
 8005a5c:	dc800e17 	ldw	r18,56(sp)
 8005a60:	dc400d17 	ldw	r17,52(sp)
 8005a64:	1027883a 	mov	r19,r2
 8005a68:	07020074 	movhi	fp,2049
 8005a6c:	e7143284 	addi	fp,fp,20682
 8005a70:	050001c4 	movi	r20,7
 8005a74:	00000306 	br	8005a84 <___vfprintf_internal_r+0x430>
 8005a78:	843ffc04 	addi	r16,r16,-16
 8005a7c:	ad400204 	addi	r21,r21,8
 8005a80:	9c00130e 	bge	r19,r16,8005ad0 <___vfprintf_internal_r+0x47c>
 8005a84:	94800404 	addi	r18,r18,16
 8005a88:	8c400044 	addi	r17,r17,1
 8005a8c:	af000015 	stw	fp,0(r21)
 8005a90:	acc00115 	stw	r19,4(r21)
 8005a94:	dc800e15 	stw	r18,56(sp)
 8005a98:	dc400d15 	stw	r17,52(sp)
 8005a9c:	a47ff60e 	bge	r20,r17,8005a78 <___vfprintf_internal_r+0x424>
 8005aa0:	d9014f17 	ldw	r4,1340(sp)
 8005aa4:	b00b883a 	mov	r5,r22
 8005aa8:	d9800c04 	addi	r6,sp,48
 8005aac:	d9c15115 	stw	r7,1348(sp)
 8005ab0:	80055fc0 	call	80055fc <__sprint_r>
 8005ab4:	d9c15117 	ldw	r7,1348(sp)
 8005ab8:	10009e1e 	bne	r2,zero,8005d34 <___vfprintf_internal_r+0x6e0>
 8005abc:	843ffc04 	addi	r16,r16,-16
 8005ac0:	dc800e17 	ldw	r18,56(sp)
 8005ac4:	dc400d17 	ldw	r17,52(sp)
 8005ac8:	dd401904 	addi	r21,sp,100
 8005acc:	9c3fed16 	blt	r19,r16,8005a84 <___vfprintf_internal_r+0x430>
 8005ad0:	9425883a 	add	r18,r18,r16
 8005ad4:	8c400044 	addi	r17,r17,1
 8005ad8:	008001c4 	movi	r2,7
 8005adc:	af000015 	stw	fp,0(r21)
 8005ae0:	ac000115 	stw	r16,4(r21)
 8005ae4:	dc800e15 	stw	r18,56(sp)
 8005ae8:	dc400d15 	stw	r17,52(sp)
 8005aec:	1441f516 	blt	r2,r17,80062c4 <___vfprintf_internal_r+0xc70>
 8005af0:	ad400204 	addi	r21,r21,8
 8005af4:	00000206 	br	8005b00 <___vfprintf_internal_r+0x4ac>
 8005af8:	dc800e17 	ldw	r18,56(sp)
 8005afc:	dc400d17 	ldw	r17,52(sp)
 8005b00:	d8800407 	ldb	r2,16(sp)
 8005b04:	10000b26 	beq	r2,zero,8005b34 <___vfprintf_internal_r+0x4e0>
 8005b08:	00800044 	movi	r2,1
 8005b0c:	94800044 	addi	r18,r18,1
 8005b10:	8c400044 	addi	r17,r17,1
 8005b14:	a8800115 	stw	r2,4(r21)
 8005b18:	d8c00404 	addi	r3,sp,16
 8005b1c:	008001c4 	movi	r2,7
 8005b20:	a8c00015 	stw	r3,0(r21)
 8005b24:	dc800e15 	stw	r18,56(sp)
 8005b28:	dc400d15 	stw	r17,52(sp)
 8005b2c:	1441da16 	blt	r2,r17,8006298 <___vfprintf_internal_r+0xc44>
 8005b30:	ad400204 	addi	r21,r21,8
 8005b34:	d9015017 	ldw	r4,1344(sp)
 8005b38:	20000b1e 	bne	r4,zero,8005b68 <___vfprintf_internal_r+0x514>
 8005b3c:	d8800444 	addi	r2,sp,17
 8005b40:	94800084 	addi	r18,r18,2
 8005b44:	8c400044 	addi	r17,r17,1
 8005b48:	a8800015 	stw	r2,0(r21)
 8005b4c:	00c00084 	movi	r3,2
 8005b50:	008001c4 	movi	r2,7
 8005b54:	a8c00115 	stw	r3,4(r21)
 8005b58:	dc800e15 	stw	r18,56(sp)
 8005b5c:	dc400d15 	stw	r17,52(sp)
 8005b60:	1441c216 	blt	r2,r17,800626c <___vfprintf_internal_r+0xc18>
 8005b64:	ad400204 	addi	r21,r21,8
 8005b68:	d9414e17 	ldw	r5,1336(sp)
 8005b6c:	00802004 	movi	r2,128
 8005b70:	2880b126 	beq	r5,r2,8005e38 <___vfprintf_internal_r+0x7e4>
 8005b74:	d8c14617 	ldw	r3,1304(sp)
 8005b78:	19e1c83a 	sub	r16,r3,r7
 8005b7c:	0400260e 	bge	zero,r16,8005c18 <___vfprintf_internal_r+0x5c4>
 8005b80:	00800404 	movi	r2,16
 8005b84:	1403cf0e 	bge	r2,r16,8006ac4 <___vfprintf_internal_r+0x1470>
 8005b88:	1027883a 	mov	r19,r2
 8005b8c:	07020074 	movhi	fp,2049
 8005b90:	e7142e84 	addi	fp,fp,20666
 8005b94:	050001c4 	movi	r20,7
 8005b98:	00000306 	br	8005ba8 <___vfprintf_internal_r+0x554>
 8005b9c:	843ffc04 	addi	r16,r16,-16
 8005ba0:	ad400204 	addi	r21,r21,8
 8005ba4:	9c00130e 	bge	r19,r16,8005bf4 <___vfprintf_internal_r+0x5a0>
 8005ba8:	94800404 	addi	r18,r18,16
 8005bac:	8c400044 	addi	r17,r17,1
 8005bb0:	af000015 	stw	fp,0(r21)
 8005bb4:	acc00115 	stw	r19,4(r21)
 8005bb8:	dc800e15 	stw	r18,56(sp)
 8005bbc:	dc400d15 	stw	r17,52(sp)
 8005bc0:	a47ff60e 	bge	r20,r17,8005b9c <___vfprintf_internal_r+0x548>
 8005bc4:	d9014f17 	ldw	r4,1340(sp)
 8005bc8:	b00b883a 	mov	r5,r22
 8005bcc:	d9800c04 	addi	r6,sp,48
 8005bd0:	d9c15115 	stw	r7,1348(sp)
 8005bd4:	80055fc0 	call	80055fc <__sprint_r>
 8005bd8:	d9c15117 	ldw	r7,1348(sp)
 8005bdc:	1000551e 	bne	r2,zero,8005d34 <___vfprintf_internal_r+0x6e0>
 8005be0:	843ffc04 	addi	r16,r16,-16
 8005be4:	dc800e17 	ldw	r18,56(sp)
 8005be8:	dc400d17 	ldw	r17,52(sp)
 8005bec:	dd401904 	addi	r21,sp,100
 8005bf0:	9c3fed16 	blt	r19,r16,8005ba8 <___vfprintf_internal_r+0x554>
 8005bf4:	9425883a 	add	r18,r18,r16
 8005bf8:	8c400044 	addi	r17,r17,1
 8005bfc:	008001c4 	movi	r2,7
 8005c00:	af000015 	stw	fp,0(r21)
 8005c04:	ac000115 	stw	r16,4(r21)
 8005c08:	dc800e15 	stw	r18,56(sp)
 8005c0c:	dc400d15 	stw	r17,52(sp)
 8005c10:	14418216 	blt	r2,r17,800621c <___vfprintf_internal_r+0xbc8>
 8005c14:	ad400204 	addi	r21,r21,8
 8005c18:	d9014c17 	ldw	r4,1328(sp)
 8005c1c:	2080400c 	andi	r2,r4,256
 8005c20:	10004a1e 	bne	r2,zero,8005d4c <___vfprintf_internal_r+0x6f8>
 8005c24:	d9414117 	ldw	r5,1284(sp)
 8005c28:	91e5883a 	add	r18,r18,r7
 8005c2c:	8c400044 	addi	r17,r17,1
 8005c30:	008001c4 	movi	r2,7
 8005c34:	a9400015 	stw	r5,0(r21)
 8005c38:	a9c00115 	stw	r7,4(r21)
 8005c3c:	dc800e15 	stw	r18,56(sp)
 8005c40:	dc400d15 	stw	r17,52(sp)
 8005c44:	14416716 	blt	r2,r17,80061e4 <___vfprintf_internal_r+0xb90>
 8005c48:	a8c00204 	addi	r3,r21,8
 8005c4c:	d9814c17 	ldw	r6,1328(sp)
 8005c50:	3080010c 	andi	r2,r6,4
 8005c54:	10002826 	beq	r2,zero,8005cf8 <___vfprintf_internal_r+0x6a4>
 8005c58:	d8814a17 	ldw	r2,1320(sp)
 8005c5c:	d9014517 	ldw	r4,1300(sp)
 8005c60:	1121c83a 	sub	r16,r2,r4
 8005c64:	0400240e 	bge	zero,r16,8005cf8 <___vfprintf_internal_r+0x6a4>
 8005c68:	00800404 	movi	r2,16
 8005c6c:	1404550e 	bge	r2,r16,8006dc4 <___vfprintf_internal_r+0x1770>
 8005c70:	dc400d17 	ldw	r17,52(sp)
 8005c74:	1027883a 	mov	r19,r2
 8005c78:	07020074 	movhi	fp,2049
 8005c7c:	e7143284 	addi	fp,fp,20682
 8005c80:	050001c4 	movi	r20,7
 8005c84:	00000306 	br	8005c94 <___vfprintf_internal_r+0x640>
 8005c88:	843ffc04 	addi	r16,r16,-16
 8005c8c:	18c00204 	addi	r3,r3,8
 8005c90:	9c00110e 	bge	r19,r16,8005cd8 <___vfprintf_internal_r+0x684>
 8005c94:	94800404 	addi	r18,r18,16
 8005c98:	8c400044 	addi	r17,r17,1
 8005c9c:	1f000015 	stw	fp,0(r3)
 8005ca0:	1cc00115 	stw	r19,4(r3)
 8005ca4:	dc800e15 	stw	r18,56(sp)
 8005ca8:	dc400d15 	stw	r17,52(sp)
 8005cac:	a47ff60e 	bge	r20,r17,8005c88 <___vfprintf_internal_r+0x634>
 8005cb0:	d9014f17 	ldw	r4,1340(sp)
 8005cb4:	b00b883a 	mov	r5,r22
 8005cb8:	d9800c04 	addi	r6,sp,48
 8005cbc:	80055fc0 	call	80055fc <__sprint_r>
 8005cc0:	10001c1e 	bne	r2,zero,8005d34 <___vfprintf_internal_r+0x6e0>
 8005cc4:	843ffc04 	addi	r16,r16,-16
 8005cc8:	dc800e17 	ldw	r18,56(sp)
 8005ccc:	dc400d17 	ldw	r17,52(sp)
 8005cd0:	d8c01904 	addi	r3,sp,100
 8005cd4:	9c3fef16 	blt	r19,r16,8005c94 <___vfprintf_internal_r+0x640>
 8005cd8:	9425883a 	add	r18,r18,r16
 8005cdc:	8c400044 	addi	r17,r17,1
 8005ce0:	008001c4 	movi	r2,7
 8005ce4:	1f000015 	stw	fp,0(r3)
 8005ce8:	1c000115 	stw	r16,4(r3)
 8005cec:	dc800e15 	stw	r18,56(sp)
 8005cf0:	dc400d15 	stw	r17,52(sp)
 8005cf4:	1440cb16 	blt	r2,r17,8006024 <___vfprintf_internal_r+0x9d0>
 8005cf8:	d8814a17 	ldw	r2,1320(sp)
 8005cfc:	d9414517 	ldw	r5,1300(sp)
 8005d00:	1140010e 	bge	r2,r5,8005d08 <___vfprintf_internal_r+0x6b4>
 8005d04:	2805883a 	mov	r2,r5
 8005d08:	d9814b17 	ldw	r6,1324(sp)
 8005d0c:	308d883a 	add	r6,r6,r2
 8005d10:	d9814b15 	stw	r6,1324(sp)
 8005d14:	90013b1e 	bne	r18,zero,8006204 <___vfprintf_internal_r+0xbb0>
 8005d18:	d9c14017 	ldw	r7,1280(sp)
 8005d1c:	dd401904 	addi	r21,sp,100
 8005d20:	d8000d15 	stw	zero,52(sp)
 8005d24:	003ea706 	br	80057c4 <___vfprintf_internal_r+0x170>
 8005d28:	d8800e17 	ldw	r2,56(sp)
 8005d2c:	1005451e 	bne	r2,zero,8007244 <___vfprintf_internal_r+0x1bf0>
 8005d30:	d8000d15 	stw	zero,52(sp)
 8005d34:	b080030b 	ldhu	r2,12(r22)
 8005d38:	1080100c 	andi	r2,r2,64
 8005d3c:	103e8726 	beq	r2,zero,800575c <___vfprintf_internal_r+0x108>
 8005d40:	00bfffc4 	movi	r2,-1
 8005d44:	d8814b15 	stw	r2,1324(sp)
 8005d48:	003e8406 	br	800575c <___vfprintf_internal_r+0x108>
 8005d4c:	d9814d17 	ldw	r6,1332(sp)
 8005d50:	00801944 	movi	r2,101
 8005d54:	11806e16 	blt	r2,r6,8005f10 <___vfprintf_internal_r+0x8bc>
 8005d58:	d9414717 	ldw	r5,1308(sp)
 8005d5c:	00c00044 	movi	r3,1
 8005d60:	1943490e 	bge	r3,r5,8006a88 <___vfprintf_internal_r+0x1434>
 8005d64:	d8814117 	ldw	r2,1284(sp)
 8005d68:	94800044 	addi	r18,r18,1
 8005d6c:	8c400044 	addi	r17,r17,1
 8005d70:	a8800015 	stw	r2,0(r21)
 8005d74:	008001c4 	movi	r2,7
 8005d78:	a8c00115 	stw	r3,4(r21)
 8005d7c:	dc800e15 	stw	r18,56(sp)
 8005d80:	dc400d15 	stw	r17,52(sp)
 8005d84:	1441ca16 	blt	r2,r17,80064b0 <___vfprintf_internal_r+0xe5c>
 8005d88:	a8c00204 	addi	r3,r21,8
 8005d8c:	d9014917 	ldw	r4,1316(sp)
 8005d90:	00800044 	movi	r2,1
 8005d94:	94800044 	addi	r18,r18,1
 8005d98:	8c400044 	addi	r17,r17,1
 8005d9c:	18800115 	stw	r2,4(r3)
 8005da0:	008001c4 	movi	r2,7
 8005da4:	19000015 	stw	r4,0(r3)
 8005da8:	dc800e15 	stw	r18,56(sp)
 8005dac:	dc400d15 	stw	r17,52(sp)
 8005db0:	1441b616 	blt	r2,r17,800648c <___vfprintf_internal_r+0xe38>
 8005db4:	1cc00204 	addi	r19,r3,8
 8005db8:	d9014217 	ldw	r4,1288(sp)
 8005dbc:	d9414317 	ldw	r5,1292(sp)
 8005dc0:	000d883a 	mov	r6,zero
 8005dc4:	000f883a 	mov	r7,zero
 8005dc8:	800d17c0 	call	800d17c <__nedf2>
 8005dcc:	10017426 	beq	r2,zero,80063a0 <___vfprintf_internal_r+0xd4c>
 8005dd0:	d9414717 	ldw	r5,1308(sp)
 8005dd4:	d9814117 	ldw	r6,1284(sp)
 8005dd8:	8c400044 	addi	r17,r17,1
 8005ddc:	2c85883a 	add	r2,r5,r18
 8005de0:	14bfffc4 	addi	r18,r2,-1
 8005de4:	28bfffc4 	addi	r2,r5,-1
 8005de8:	30c00044 	addi	r3,r6,1
 8005dec:	98800115 	stw	r2,4(r19)
 8005df0:	008001c4 	movi	r2,7
 8005df4:	98c00015 	stw	r3,0(r19)
 8005df8:	dc800e15 	stw	r18,56(sp)
 8005dfc:	dc400d15 	stw	r17,52(sp)
 8005e00:	14418e16 	blt	r2,r17,800643c <___vfprintf_internal_r+0xde8>
 8005e04:	9cc00204 	addi	r19,r19,8
 8005e08:	d9414817 	ldw	r5,1312(sp)
 8005e0c:	d8800804 	addi	r2,sp,32
 8005e10:	8c400044 	addi	r17,r17,1
 8005e14:	9165883a 	add	r18,r18,r5
 8005e18:	98800015 	stw	r2,0(r19)
 8005e1c:	008001c4 	movi	r2,7
 8005e20:	99400115 	stw	r5,4(r19)
 8005e24:	dc800e15 	stw	r18,56(sp)
 8005e28:	dc400d15 	stw	r17,52(sp)
 8005e2c:	1440ed16 	blt	r2,r17,80061e4 <___vfprintf_internal_r+0xb90>
 8005e30:	98c00204 	addi	r3,r19,8
 8005e34:	003f8506 	br	8005c4c <___vfprintf_internal_r+0x5f8>
 8005e38:	d9814a17 	ldw	r6,1320(sp)
 8005e3c:	d8814517 	ldw	r2,1300(sp)
 8005e40:	30a1c83a 	sub	r16,r6,r2
 8005e44:	043f4b0e 	bge	zero,r16,8005b74 <___vfprintf_internal_r+0x520>
 8005e48:	00800404 	movi	r2,16
 8005e4c:	14043a0e 	bge	r2,r16,8006f38 <___vfprintf_internal_r+0x18e4>
 8005e50:	1027883a 	mov	r19,r2
 8005e54:	07020074 	movhi	fp,2049
 8005e58:	e7142e84 	addi	fp,fp,20666
 8005e5c:	050001c4 	movi	r20,7
 8005e60:	00000306 	br	8005e70 <___vfprintf_internal_r+0x81c>
 8005e64:	843ffc04 	addi	r16,r16,-16
 8005e68:	ad400204 	addi	r21,r21,8
 8005e6c:	9c00130e 	bge	r19,r16,8005ebc <___vfprintf_internal_r+0x868>
 8005e70:	94800404 	addi	r18,r18,16
 8005e74:	8c400044 	addi	r17,r17,1
 8005e78:	af000015 	stw	fp,0(r21)
 8005e7c:	acc00115 	stw	r19,4(r21)
 8005e80:	dc800e15 	stw	r18,56(sp)
 8005e84:	dc400d15 	stw	r17,52(sp)
 8005e88:	a47ff60e 	bge	r20,r17,8005e64 <___vfprintf_internal_r+0x810>
 8005e8c:	d9014f17 	ldw	r4,1340(sp)
 8005e90:	b00b883a 	mov	r5,r22
 8005e94:	d9800c04 	addi	r6,sp,48
 8005e98:	d9c15115 	stw	r7,1348(sp)
 8005e9c:	80055fc0 	call	80055fc <__sprint_r>
 8005ea0:	d9c15117 	ldw	r7,1348(sp)
 8005ea4:	103fa31e 	bne	r2,zero,8005d34 <___vfprintf_internal_r+0x6e0>
 8005ea8:	843ffc04 	addi	r16,r16,-16
 8005eac:	dc800e17 	ldw	r18,56(sp)
 8005eb0:	dc400d17 	ldw	r17,52(sp)
 8005eb4:	dd401904 	addi	r21,sp,100
 8005eb8:	9c3fed16 	blt	r19,r16,8005e70 <___vfprintf_internal_r+0x81c>
 8005ebc:	9425883a 	add	r18,r18,r16
 8005ec0:	8c400044 	addi	r17,r17,1
 8005ec4:	008001c4 	movi	r2,7
 8005ec8:	af000015 	stw	fp,0(r21)
 8005ecc:	ac000115 	stw	r16,4(r21)
 8005ed0:	dc800e15 	stw	r18,56(sp)
 8005ed4:	dc400d15 	stw	r17,52(sp)
 8005ed8:	14416116 	blt	r2,r17,8006460 <___vfprintf_internal_r+0xe0c>
 8005edc:	ad400204 	addi	r21,r21,8
 8005ee0:	003f2406 	br	8005b74 <___vfprintf_internal_r+0x520>
 8005ee4:	d9014f17 	ldw	r4,1340(sp)
 8005ee8:	80043300 	call	8004330 <__sinit>
 8005eec:	d9c15117 	ldw	r7,1348(sp)
 8005ef0:	003def06 	br	80056b0 <___vfprintf_internal_r+0x5c>
 8005ef4:	d9014f17 	ldw	r4,1340(sp)
 8005ef8:	b00b883a 	mov	r5,r22
 8005efc:	d9c15115 	stw	r7,1348(sp)
 8005f00:	80075b40 	call	80075b4 <__swsetup_r>
 8005f04:	d9c15117 	ldw	r7,1348(sp)
 8005f08:	103dee26 	beq	r2,zero,80056c4 <___vfprintf_internal_r+0x70>
 8005f0c:	003f8c06 	br	8005d40 <___vfprintf_internal_r+0x6ec>
 8005f10:	d9014217 	ldw	r4,1288(sp)
 8005f14:	d9414317 	ldw	r5,1292(sp)
 8005f18:	000d883a 	mov	r6,zero
 8005f1c:	000f883a 	mov	r7,zero
 8005f20:	800d0f40 	call	800d0f4 <__eqdf2>
 8005f24:	1000f21e 	bne	r2,zero,80062f0 <___vfprintf_internal_r+0xc9c>
 8005f28:	00820074 	movhi	r2,2049
 8005f2c:	10942e04 	addi	r2,r2,20664
 8005f30:	94800044 	addi	r18,r18,1
 8005f34:	8c400044 	addi	r17,r17,1
 8005f38:	a8800015 	stw	r2,0(r21)
 8005f3c:	00c00044 	movi	r3,1
 8005f40:	008001c4 	movi	r2,7
 8005f44:	a8c00115 	stw	r3,4(r21)
 8005f48:	dc800e15 	stw	r18,56(sp)
 8005f4c:	dc400d15 	stw	r17,52(sp)
 8005f50:	14430016 	blt	r2,r17,8006b54 <___vfprintf_internal_r+0x1500>
 8005f54:	a8c00204 	addi	r3,r21,8
 8005f58:	d8800517 	ldw	r2,20(sp)
 8005f5c:	d9014717 	ldw	r4,1308(sp)
 8005f60:	11015c0e 	bge	r2,r4,80064d4 <___vfprintf_internal_r+0xe80>
 8005f64:	dc400d17 	ldw	r17,52(sp)
 8005f68:	d9814917 	ldw	r6,1316(sp)
 8005f6c:	00800044 	movi	r2,1
 8005f70:	94800044 	addi	r18,r18,1
 8005f74:	8c400044 	addi	r17,r17,1
 8005f78:	18800115 	stw	r2,4(r3)
 8005f7c:	008001c4 	movi	r2,7
 8005f80:	19800015 	stw	r6,0(r3)
 8005f84:	dc800e15 	stw	r18,56(sp)
 8005f88:	dc400d15 	stw	r17,52(sp)
 8005f8c:	14431616 	blt	r2,r17,8006be8 <___vfprintf_internal_r+0x1594>
 8005f90:	18c00204 	addi	r3,r3,8
 8005f94:	d8814717 	ldw	r2,1308(sp)
 8005f98:	143fffc4 	addi	r16,r2,-1
 8005f9c:	043f2b0e 	bge	zero,r16,8005c4c <___vfprintf_internal_r+0x5f8>
 8005fa0:	00800404 	movi	r2,16
 8005fa4:	1402a80e 	bge	r2,r16,8006a48 <___vfprintf_internal_r+0x13f4>
 8005fa8:	dc400d17 	ldw	r17,52(sp)
 8005fac:	1027883a 	mov	r19,r2
 8005fb0:	07020074 	movhi	fp,2049
 8005fb4:	e7142e84 	addi	fp,fp,20666
 8005fb8:	050001c4 	movi	r20,7
 8005fbc:	00000306 	br	8005fcc <___vfprintf_internal_r+0x978>
 8005fc0:	18c00204 	addi	r3,r3,8
 8005fc4:	843ffc04 	addi	r16,r16,-16
 8005fc8:	9c02a20e 	bge	r19,r16,8006a54 <___vfprintf_internal_r+0x1400>
 8005fcc:	94800404 	addi	r18,r18,16
 8005fd0:	8c400044 	addi	r17,r17,1
 8005fd4:	1f000015 	stw	fp,0(r3)
 8005fd8:	1cc00115 	stw	r19,4(r3)
 8005fdc:	dc800e15 	stw	r18,56(sp)
 8005fe0:	dc400d15 	stw	r17,52(sp)
 8005fe4:	a47ff60e 	bge	r20,r17,8005fc0 <___vfprintf_internal_r+0x96c>
 8005fe8:	d9014f17 	ldw	r4,1340(sp)
 8005fec:	b00b883a 	mov	r5,r22
 8005ff0:	d9800c04 	addi	r6,sp,48
 8005ff4:	80055fc0 	call	80055fc <__sprint_r>
 8005ff8:	103f4e1e 	bne	r2,zero,8005d34 <___vfprintf_internal_r+0x6e0>
 8005ffc:	dc800e17 	ldw	r18,56(sp)
 8006000:	dc400d17 	ldw	r17,52(sp)
 8006004:	d8c01904 	addi	r3,sp,100
 8006008:	003fee06 	br	8005fc4 <___vfprintf_internal_r+0x970>
 800600c:	d8802c0b 	ldhu	r2,176(sp)
 8006010:	00ffffc4 	movi	r3,-1
 8006014:	d8c14b15 	stw	r3,1324(sp)
 8006018:	1080100c 	andi	r2,r2,64
 800601c:	103dcc1e 	bne	r2,zero,8005750 <___vfprintf_internal_r+0xfc>
 8006020:	003dce06 	br	800575c <___vfprintf_internal_r+0x108>
 8006024:	d9014f17 	ldw	r4,1340(sp)
 8006028:	b00b883a 	mov	r5,r22
 800602c:	d9800c04 	addi	r6,sp,48
 8006030:	80055fc0 	call	80055fc <__sprint_r>
 8006034:	103f3f1e 	bne	r2,zero,8005d34 <___vfprintf_internal_r+0x6e0>
 8006038:	dc800e17 	ldw	r18,56(sp)
 800603c:	003f2e06 	br	8005cf8 <___vfprintf_internal_r+0x6a4>
 8006040:	d9414c17 	ldw	r5,1328(sp)
 8006044:	29400414 	ori	r5,r5,16
 8006048:	d9414c15 	stw	r5,1328(sp)
 800604c:	d9814c17 	ldw	r6,1328(sp)
 8006050:	3080080c 	andi	r2,r6,32
 8006054:	10014f1e 	bne	r2,zero,8006594 <___vfprintf_internal_r+0xf40>
 8006058:	d8c14c17 	ldw	r3,1328(sp)
 800605c:	1880040c 	andi	r2,r3,16
 8006060:	1002f01e 	bne	r2,zero,8006c24 <___vfprintf_internal_r+0x15d0>
 8006064:	d9014c17 	ldw	r4,1328(sp)
 8006068:	2080100c 	andi	r2,r4,64
 800606c:	1002ed26 	beq	r2,zero,8006c24 <___vfprintf_internal_r+0x15d0>
 8006070:	3880000f 	ldh	r2,0(r7)
 8006074:	39c00104 	addi	r7,r7,4
 8006078:	d9c14015 	stw	r7,1280(sp)
 800607c:	1023d7fa 	srai	r17,r2,31
 8006080:	1021883a 	mov	r16,r2
 8006084:	88037816 	blt	r17,zero,8006e68 <___vfprintf_internal_r+0x1814>
 8006088:	01000044 	movi	r4,1
 800608c:	98000416 	blt	r19,zero,80060a0 <___vfprintf_internal_r+0xa4c>
 8006090:	d8c14c17 	ldw	r3,1328(sp)
 8006094:	00bfdfc4 	movi	r2,-129
 8006098:	1886703a 	and	r3,r3,r2
 800609c:	d8c14c15 	stw	r3,1328(sp)
 80060a0:	8444b03a 	or	r2,r16,r17
 80060a4:	10022c1e 	bne	r2,zero,8006958 <___vfprintf_internal_r+0x1304>
 80060a8:	98022b1e 	bne	r19,zero,8006958 <___vfprintf_internal_r+0x1304>
 80060ac:	20803fcc 	andi	r2,r4,255
 80060b0:	1002a126 	beq	r2,zero,8006b38 <___vfprintf_internal_r+0x14e4>
 80060b4:	d8c01904 	addi	r3,sp,100
 80060b8:	dd000f04 	addi	r20,sp,60
 80060bc:	d8c14115 	stw	r3,1284(sp)
 80060c0:	d8c14117 	ldw	r3,1284(sp)
 80060c4:	dcc14515 	stw	r19,1300(sp)
 80060c8:	a0c5c83a 	sub	r2,r20,r3
 80060cc:	11c00a04 	addi	r7,r2,40
 80060d0:	99c0010e 	bge	r19,r7,80060d8 <___vfprintf_internal_r+0xa84>
 80060d4:	d9c14515 	stw	r7,1300(sp)
 80060d8:	dcc14615 	stw	r19,1304(sp)
 80060dc:	d8800407 	ldb	r2,16(sp)
 80060e0:	103e4c26 	beq	r2,zero,8005a14 <___vfprintf_internal_r+0x3c0>
 80060e4:	d8814517 	ldw	r2,1300(sp)
 80060e8:	10800044 	addi	r2,r2,1
 80060ec:	d8814515 	stw	r2,1300(sp)
 80060f0:	003e4806 	br	8005a14 <___vfprintf_internal_r+0x3c0>
 80060f4:	d9814c17 	ldw	r6,1328(sp)
 80060f8:	31800414 	ori	r6,r6,16
 80060fc:	d9814c15 	stw	r6,1328(sp)
 8006100:	d8c14c17 	ldw	r3,1328(sp)
 8006104:	1880080c 	andi	r2,r3,32
 8006108:	1001271e 	bne	r2,zero,80065a8 <___vfprintf_internal_r+0xf54>
 800610c:	d9414c17 	ldw	r5,1328(sp)
 8006110:	2880040c 	andi	r2,r5,16
 8006114:	1002bc1e 	bne	r2,zero,8006c08 <___vfprintf_internal_r+0x15b4>
 8006118:	d9814c17 	ldw	r6,1328(sp)
 800611c:	3080100c 	andi	r2,r6,64
 8006120:	1002b926 	beq	r2,zero,8006c08 <___vfprintf_internal_r+0x15b4>
 8006124:	3c00000b 	ldhu	r16,0(r7)
 8006128:	0009883a 	mov	r4,zero
 800612c:	39c00104 	addi	r7,r7,4
 8006130:	0023883a 	mov	r17,zero
 8006134:	d9c14015 	stw	r7,1280(sp)
 8006138:	d8000405 	stb	zero,16(sp)
 800613c:	003fd306 	br	800608c <___vfprintf_internal_r+0xa38>
 8006140:	d9014c17 	ldw	r4,1328(sp)
 8006144:	21000414 	ori	r4,r4,16
 8006148:	d9014c15 	stw	r4,1328(sp)
 800614c:	d9414c17 	ldw	r5,1328(sp)
 8006150:	2880080c 	andi	r2,r5,32
 8006154:	1001081e 	bne	r2,zero,8006578 <___vfprintf_internal_r+0xf24>
 8006158:	d8c14c17 	ldw	r3,1328(sp)
 800615c:	1880040c 	andi	r2,r3,16
 8006160:	1002b61e 	bne	r2,zero,8006c3c <___vfprintf_internal_r+0x15e8>
 8006164:	d9014c17 	ldw	r4,1328(sp)
 8006168:	2080100c 	andi	r2,r4,64
 800616c:	1002b326 	beq	r2,zero,8006c3c <___vfprintf_internal_r+0x15e8>
 8006170:	3c00000b 	ldhu	r16,0(r7)
 8006174:	01000044 	movi	r4,1
 8006178:	39c00104 	addi	r7,r7,4
 800617c:	0023883a 	mov	r17,zero
 8006180:	d9c14015 	stw	r7,1280(sp)
 8006184:	d8000405 	stb	zero,16(sp)
 8006188:	003fc006 	br	800608c <___vfprintf_internal_r+0xa38>
 800618c:	d9014f17 	ldw	r4,1340(sp)
 8006190:	b00b883a 	mov	r5,r22
 8006194:	d9800c04 	addi	r6,sp,48
 8006198:	80055fc0 	call	80055fc <__sprint_r>
 800619c:	103ee51e 	bne	r2,zero,8005d34 <___vfprintf_internal_r+0x6e0>
 80061a0:	dc800e17 	ldw	r18,56(sp)
 80061a4:	d8c01904 	addi	r3,sp,100
 80061a8:	d9814c17 	ldw	r6,1328(sp)
 80061ac:	3080004c 	andi	r2,r6,1
 80061b0:	1005003a 	cmpeq	r2,r2,zero
 80061b4:	103ea51e 	bne	r2,zero,8005c4c <___vfprintf_internal_r+0x5f8>
 80061b8:	00800044 	movi	r2,1
 80061bc:	dc400d17 	ldw	r17,52(sp)
 80061c0:	18800115 	stw	r2,4(r3)
 80061c4:	d8814917 	ldw	r2,1316(sp)
 80061c8:	94800044 	addi	r18,r18,1
 80061cc:	8c400044 	addi	r17,r17,1
 80061d0:	18800015 	stw	r2,0(r3)
 80061d4:	008001c4 	movi	r2,7
 80061d8:	dc800e15 	stw	r18,56(sp)
 80061dc:	dc400d15 	stw	r17,52(sp)
 80061e0:	1442240e 	bge	r2,r17,8006a74 <___vfprintf_internal_r+0x1420>
 80061e4:	d9014f17 	ldw	r4,1340(sp)
 80061e8:	b00b883a 	mov	r5,r22
 80061ec:	d9800c04 	addi	r6,sp,48
 80061f0:	80055fc0 	call	80055fc <__sprint_r>
 80061f4:	103ecf1e 	bne	r2,zero,8005d34 <___vfprintf_internal_r+0x6e0>
 80061f8:	dc800e17 	ldw	r18,56(sp)
 80061fc:	d8c01904 	addi	r3,sp,100
 8006200:	003e9206 	br	8005c4c <___vfprintf_internal_r+0x5f8>
 8006204:	d9014f17 	ldw	r4,1340(sp)
 8006208:	b00b883a 	mov	r5,r22
 800620c:	d9800c04 	addi	r6,sp,48
 8006210:	80055fc0 	call	80055fc <__sprint_r>
 8006214:	103ec026 	beq	r2,zero,8005d18 <___vfprintf_internal_r+0x6c4>
 8006218:	003ec606 	br	8005d34 <___vfprintf_internal_r+0x6e0>
 800621c:	d9014f17 	ldw	r4,1340(sp)
 8006220:	b00b883a 	mov	r5,r22
 8006224:	d9800c04 	addi	r6,sp,48
 8006228:	d9c15115 	stw	r7,1348(sp)
 800622c:	80055fc0 	call	80055fc <__sprint_r>
 8006230:	d9c15117 	ldw	r7,1348(sp)
 8006234:	103ebf1e 	bne	r2,zero,8005d34 <___vfprintf_internal_r+0x6e0>
 8006238:	dc800e17 	ldw	r18,56(sp)
 800623c:	dc400d17 	ldw	r17,52(sp)
 8006240:	dd401904 	addi	r21,sp,100
 8006244:	003e7406 	br	8005c18 <___vfprintf_internal_r+0x5c4>
 8006248:	d9014f17 	ldw	r4,1340(sp)
 800624c:	b00b883a 	mov	r5,r22
 8006250:	d9800c04 	addi	r6,sp,48
 8006254:	d9c15115 	stw	r7,1348(sp)
 8006258:	80055fc0 	call	80055fc <__sprint_r>
 800625c:	d9c15117 	ldw	r7,1348(sp)
 8006260:	103eb41e 	bne	r2,zero,8005d34 <___vfprintf_internal_r+0x6e0>
 8006264:	dd401904 	addi	r21,sp,100
 8006268:	003d6d06 	br	8005820 <___vfprintf_internal_r+0x1cc>
 800626c:	d9014f17 	ldw	r4,1340(sp)
 8006270:	b00b883a 	mov	r5,r22
 8006274:	d9800c04 	addi	r6,sp,48
 8006278:	d9c15115 	stw	r7,1348(sp)
 800627c:	80055fc0 	call	80055fc <__sprint_r>
 8006280:	d9c15117 	ldw	r7,1348(sp)
 8006284:	103eab1e 	bne	r2,zero,8005d34 <___vfprintf_internal_r+0x6e0>
 8006288:	dc800e17 	ldw	r18,56(sp)
 800628c:	dc400d17 	ldw	r17,52(sp)
 8006290:	dd401904 	addi	r21,sp,100
 8006294:	003e3406 	br	8005b68 <___vfprintf_internal_r+0x514>
 8006298:	d9014f17 	ldw	r4,1340(sp)
 800629c:	b00b883a 	mov	r5,r22
 80062a0:	d9800c04 	addi	r6,sp,48
 80062a4:	d9c15115 	stw	r7,1348(sp)
 80062a8:	80055fc0 	call	80055fc <__sprint_r>
 80062ac:	d9c15117 	ldw	r7,1348(sp)
 80062b0:	103ea01e 	bne	r2,zero,8005d34 <___vfprintf_internal_r+0x6e0>
 80062b4:	dc800e17 	ldw	r18,56(sp)
 80062b8:	dc400d17 	ldw	r17,52(sp)
 80062bc:	dd401904 	addi	r21,sp,100
 80062c0:	003e1c06 	br	8005b34 <___vfprintf_internal_r+0x4e0>
 80062c4:	d9014f17 	ldw	r4,1340(sp)
 80062c8:	b00b883a 	mov	r5,r22
 80062cc:	d9800c04 	addi	r6,sp,48
 80062d0:	d9c15115 	stw	r7,1348(sp)
 80062d4:	80055fc0 	call	80055fc <__sprint_r>
 80062d8:	d9c15117 	ldw	r7,1348(sp)
 80062dc:	103e951e 	bne	r2,zero,8005d34 <___vfprintf_internal_r+0x6e0>
 80062e0:	dc800e17 	ldw	r18,56(sp)
 80062e4:	dc400d17 	ldw	r17,52(sp)
 80062e8:	dd401904 	addi	r21,sp,100
 80062ec:	003e0406 	br	8005b00 <___vfprintf_internal_r+0x4ac>
 80062f0:	d9000517 	ldw	r4,20(sp)
 80062f4:	0102580e 	bge	zero,r4,8006c58 <___vfprintf_internal_r+0x1604>
 80062f8:	d9814717 	ldw	r6,1308(sp)
 80062fc:	21807a16 	blt	r4,r6,80064e8 <___vfprintf_internal_r+0xe94>
 8006300:	d8814117 	ldw	r2,1284(sp)
 8006304:	91a5883a 	add	r18,r18,r6
 8006308:	8c400044 	addi	r17,r17,1
 800630c:	a8800015 	stw	r2,0(r21)
 8006310:	008001c4 	movi	r2,7
 8006314:	a9800115 	stw	r6,4(r21)
 8006318:	dc800e15 	stw	r18,56(sp)
 800631c:	dc400d15 	stw	r17,52(sp)
 8006320:	1442fc16 	blt	r2,r17,8006f14 <___vfprintf_internal_r+0x18c0>
 8006324:	a8c00204 	addi	r3,r21,8
 8006328:	d9414717 	ldw	r5,1308(sp)
 800632c:	2161c83a 	sub	r16,r4,r5
 8006330:	043f9d0e 	bge	zero,r16,80061a8 <___vfprintf_internal_r+0xb54>
 8006334:	00800404 	movi	r2,16
 8006338:	1402190e 	bge	r2,r16,8006ba0 <___vfprintf_internal_r+0x154c>
 800633c:	dc400d17 	ldw	r17,52(sp)
 8006340:	1027883a 	mov	r19,r2
 8006344:	07020074 	movhi	fp,2049
 8006348:	e7142e84 	addi	fp,fp,20666
 800634c:	050001c4 	movi	r20,7
 8006350:	00000306 	br	8006360 <___vfprintf_internal_r+0xd0c>
 8006354:	18c00204 	addi	r3,r3,8
 8006358:	843ffc04 	addi	r16,r16,-16
 800635c:	9c02130e 	bge	r19,r16,8006bac <___vfprintf_internal_r+0x1558>
 8006360:	94800404 	addi	r18,r18,16
 8006364:	8c400044 	addi	r17,r17,1
 8006368:	1f000015 	stw	fp,0(r3)
 800636c:	1cc00115 	stw	r19,4(r3)
 8006370:	dc800e15 	stw	r18,56(sp)
 8006374:	dc400d15 	stw	r17,52(sp)
 8006378:	a47ff60e 	bge	r20,r17,8006354 <___vfprintf_internal_r+0xd00>
 800637c:	d9014f17 	ldw	r4,1340(sp)
 8006380:	b00b883a 	mov	r5,r22
 8006384:	d9800c04 	addi	r6,sp,48
 8006388:	80055fc0 	call	80055fc <__sprint_r>
 800638c:	103e691e 	bne	r2,zero,8005d34 <___vfprintf_internal_r+0x6e0>
 8006390:	dc800e17 	ldw	r18,56(sp)
 8006394:	dc400d17 	ldw	r17,52(sp)
 8006398:	d8c01904 	addi	r3,sp,100
 800639c:	003fee06 	br	8006358 <___vfprintf_internal_r+0xd04>
 80063a0:	d8814717 	ldw	r2,1308(sp)
 80063a4:	143fffc4 	addi	r16,r2,-1
 80063a8:	043e970e 	bge	zero,r16,8005e08 <___vfprintf_internal_r+0x7b4>
 80063ac:	00800404 	movi	r2,16
 80063b0:	1400180e 	bge	r2,r16,8006414 <___vfprintf_internal_r+0xdc0>
 80063b4:	1029883a 	mov	r20,r2
 80063b8:	07020074 	movhi	fp,2049
 80063bc:	e7142e84 	addi	fp,fp,20666
 80063c0:	054001c4 	movi	r21,7
 80063c4:	00000306 	br	80063d4 <___vfprintf_internal_r+0xd80>
 80063c8:	9cc00204 	addi	r19,r19,8
 80063cc:	843ffc04 	addi	r16,r16,-16
 80063d0:	a400120e 	bge	r20,r16,800641c <___vfprintf_internal_r+0xdc8>
 80063d4:	94800404 	addi	r18,r18,16
 80063d8:	8c400044 	addi	r17,r17,1
 80063dc:	9f000015 	stw	fp,0(r19)
 80063e0:	9d000115 	stw	r20,4(r19)
 80063e4:	dc800e15 	stw	r18,56(sp)
 80063e8:	dc400d15 	stw	r17,52(sp)
 80063ec:	ac7ff60e 	bge	r21,r17,80063c8 <___vfprintf_internal_r+0xd74>
 80063f0:	d9014f17 	ldw	r4,1340(sp)
 80063f4:	b00b883a 	mov	r5,r22
 80063f8:	d9800c04 	addi	r6,sp,48
 80063fc:	80055fc0 	call	80055fc <__sprint_r>
 8006400:	103e4c1e 	bne	r2,zero,8005d34 <___vfprintf_internal_r+0x6e0>
 8006404:	dc800e17 	ldw	r18,56(sp)
 8006408:	dc400d17 	ldw	r17,52(sp)
 800640c:	dcc01904 	addi	r19,sp,100
 8006410:	003fee06 	br	80063cc <___vfprintf_internal_r+0xd78>
 8006414:	07020074 	movhi	fp,2049
 8006418:	e7142e84 	addi	fp,fp,20666
 800641c:	9425883a 	add	r18,r18,r16
 8006420:	8c400044 	addi	r17,r17,1
 8006424:	008001c4 	movi	r2,7
 8006428:	9f000015 	stw	fp,0(r19)
 800642c:	9c000115 	stw	r16,4(r19)
 8006430:	dc800e15 	stw	r18,56(sp)
 8006434:	dc400d15 	stw	r17,52(sp)
 8006438:	147e720e 	bge	r2,r17,8005e04 <___vfprintf_internal_r+0x7b0>
 800643c:	d9014f17 	ldw	r4,1340(sp)
 8006440:	b00b883a 	mov	r5,r22
 8006444:	d9800c04 	addi	r6,sp,48
 8006448:	80055fc0 	call	80055fc <__sprint_r>
 800644c:	103e391e 	bne	r2,zero,8005d34 <___vfprintf_internal_r+0x6e0>
 8006450:	dc800e17 	ldw	r18,56(sp)
 8006454:	dc400d17 	ldw	r17,52(sp)
 8006458:	dcc01904 	addi	r19,sp,100
 800645c:	003e6a06 	br	8005e08 <___vfprintf_internal_r+0x7b4>
 8006460:	d9014f17 	ldw	r4,1340(sp)
 8006464:	b00b883a 	mov	r5,r22
 8006468:	d9800c04 	addi	r6,sp,48
 800646c:	d9c15115 	stw	r7,1348(sp)
 8006470:	80055fc0 	call	80055fc <__sprint_r>
 8006474:	d9c15117 	ldw	r7,1348(sp)
 8006478:	103e2e1e 	bne	r2,zero,8005d34 <___vfprintf_internal_r+0x6e0>
 800647c:	dc800e17 	ldw	r18,56(sp)
 8006480:	dc400d17 	ldw	r17,52(sp)
 8006484:	dd401904 	addi	r21,sp,100
 8006488:	003dba06 	br	8005b74 <___vfprintf_internal_r+0x520>
 800648c:	d9014f17 	ldw	r4,1340(sp)
 8006490:	b00b883a 	mov	r5,r22
 8006494:	d9800c04 	addi	r6,sp,48
 8006498:	80055fc0 	call	80055fc <__sprint_r>
 800649c:	103e251e 	bne	r2,zero,8005d34 <___vfprintf_internal_r+0x6e0>
 80064a0:	dc800e17 	ldw	r18,56(sp)
 80064a4:	dc400d17 	ldw	r17,52(sp)
 80064a8:	dcc01904 	addi	r19,sp,100
 80064ac:	003e4206 	br	8005db8 <___vfprintf_internal_r+0x764>
 80064b0:	d9014f17 	ldw	r4,1340(sp)
 80064b4:	b00b883a 	mov	r5,r22
 80064b8:	d9800c04 	addi	r6,sp,48
 80064bc:	80055fc0 	call	80055fc <__sprint_r>
 80064c0:	103e1c1e 	bne	r2,zero,8005d34 <___vfprintf_internal_r+0x6e0>
 80064c4:	dc800e17 	ldw	r18,56(sp)
 80064c8:	dc400d17 	ldw	r17,52(sp)
 80064cc:	d8c01904 	addi	r3,sp,100
 80064d0:	003e2e06 	br	8005d8c <___vfprintf_internal_r+0x738>
 80064d4:	d9414c17 	ldw	r5,1328(sp)
 80064d8:	2880004c 	andi	r2,r5,1
 80064dc:	1005003a 	cmpeq	r2,r2,zero
 80064e0:	103dda1e 	bne	r2,zero,8005c4c <___vfprintf_internal_r+0x5f8>
 80064e4:	003e9f06 	br	8005f64 <___vfprintf_internal_r+0x910>
 80064e8:	d8c14117 	ldw	r3,1284(sp)
 80064ec:	9125883a 	add	r18,r18,r4
 80064f0:	8c400044 	addi	r17,r17,1
 80064f4:	008001c4 	movi	r2,7
 80064f8:	a8c00015 	stw	r3,0(r21)
 80064fc:	a9000115 	stw	r4,4(r21)
 8006500:	dc800e15 	stw	r18,56(sp)
 8006504:	dc400d15 	stw	r17,52(sp)
 8006508:	14426c16 	blt	r2,r17,8006ebc <___vfprintf_internal_r+0x1868>
 800650c:	a8c00204 	addi	r3,r21,8
 8006510:	d9414917 	ldw	r5,1316(sp)
 8006514:	00800044 	movi	r2,1
 8006518:	94800044 	addi	r18,r18,1
 800651c:	8c400044 	addi	r17,r17,1
 8006520:	18800115 	stw	r2,4(r3)
 8006524:	008001c4 	movi	r2,7
 8006528:	19400015 	stw	r5,0(r3)
 800652c:	dc800e15 	stw	r18,56(sp)
 8006530:	dc400d15 	stw	r17,52(sp)
 8006534:	2021883a 	mov	r16,r4
 8006538:	14425616 	blt	r2,r17,8006e94 <___vfprintf_internal_r+0x1840>
 800653c:	19400204 	addi	r5,r3,8
 8006540:	d9814717 	ldw	r6,1308(sp)
 8006544:	8c400044 	addi	r17,r17,1
 8006548:	dc400d15 	stw	r17,52(sp)
 800654c:	3107c83a 	sub	r3,r6,r4
 8006550:	d9014117 	ldw	r4,1284(sp)
 8006554:	90e5883a 	add	r18,r18,r3
 8006558:	28c00115 	stw	r3,4(r5)
 800655c:	8105883a 	add	r2,r16,r4
 8006560:	28800015 	stw	r2,0(r5)
 8006564:	008001c4 	movi	r2,7
 8006568:	dc800e15 	stw	r18,56(sp)
 800656c:	147f1d16 	blt	r2,r17,80061e4 <___vfprintf_internal_r+0xb90>
 8006570:	28c00204 	addi	r3,r5,8
 8006574:	003db506 	br	8005c4c <___vfprintf_internal_r+0x5f8>
 8006578:	3c000017 	ldw	r16,0(r7)
 800657c:	3c400117 	ldw	r17,4(r7)
 8006580:	39800204 	addi	r6,r7,8
 8006584:	01000044 	movi	r4,1
 8006588:	d9814015 	stw	r6,1280(sp)
 800658c:	d8000405 	stb	zero,16(sp)
 8006590:	003ebe06 	br	800608c <___vfprintf_internal_r+0xa38>
 8006594:	3c000017 	ldw	r16,0(r7)
 8006598:	3c400117 	ldw	r17,4(r7)
 800659c:	38800204 	addi	r2,r7,8
 80065a0:	d8814015 	stw	r2,1280(sp)
 80065a4:	003eb706 	br	8006084 <___vfprintf_internal_r+0xa30>
 80065a8:	3c000017 	ldw	r16,0(r7)
 80065ac:	3c400117 	ldw	r17,4(r7)
 80065b0:	39000204 	addi	r4,r7,8
 80065b4:	d9014015 	stw	r4,1280(sp)
 80065b8:	0009883a 	mov	r4,zero
 80065bc:	d8000405 	stb	zero,16(sp)
 80065c0:	003eb206 	br	800608c <___vfprintf_internal_r+0xa38>
 80065c4:	38c00017 	ldw	r3,0(r7)
 80065c8:	39c00104 	addi	r7,r7,4
 80065cc:	d8c14a15 	stw	r3,1320(sp)
 80065d0:	1800d70e 	bge	r3,zero,8006930 <___vfprintf_internal_r+0x12dc>
 80065d4:	00c7c83a 	sub	r3,zero,r3
 80065d8:	d8c14a15 	stw	r3,1320(sp)
 80065dc:	d9014c17 	ldw	r4,1328(sp)
 80065e0:	b8c00007 	ldb	r3,0(r23)
 80065e4:	21000114 	ori	r4,r4,4
 80065e8:	d9014c15 	stw	r4,1328(sp)
 80065ec:	003c9806 	br	8005850 <___vfprintf_internal_r+0x1fc>
 80065f0:	d9814c17 	ldw	r6,1328(sp)
 80065f4:	3080080c 	andi	r2,r6,32
 80065f8:	1001f626 	beq	r2,zero,8006dd4 <___vfprintf_internal_r+0x1780>
 80065fc:	d9014b17 	ldw	r4,1324(sp)
 8006600:	38800017 	ldw	r2,0(r7)
 8006604:	39c00104 	addi	r7,r7,4
 8006608:	d9c14015 	stw	r7,1280(sp)
 800660c:	2007d7fa 	srai	r3,r4,31
 8006610:	d9c14017 	ldw	r7,1280(sp)
 8006614:	11000015 	stw	r4,0(r2)
 8006618:	10c00115 	stw	r3,4(r2)
 800661c:	003c6906 	br	80057c4 <___vfprintf_internal_r+0x170>
 8006620:	b8c00007 	ldb	r3,0(r23)
 8006624:	00801b04 	movi	r2,108
 8006628:	18825526 	beq	r3,r2,8006f80 <___vfprintf_internal_r+0x192c>
 800662c:	d9414c17 	ldw	r5,1328(sp)
 8006630:	29400414 	ori	r5,r5,16
 8006634:	d9414c15 	stw	r5,1328(sp)
 8006638:	003c8506 	br	8005850 <___vfprintf_internal_r+0x1fc>
 800663c:	d9814c17 	ldw	r6,1328(sp)
 8006640:	b8c00007 	ldb	r3,0(r23)
 8006644:	31800814 	ori	r6,r6,32
 8006648:	d9814c15 	stw	r6,1328(sp)
 800664c:	003c8006 	br	8005850 <___vfprintf_internal_r+0x1fc>
 8006650:	d8814c17 	ldw	r2,1328(sp)
 8006654:	3c000017 	ldw	r16,0(r7)
 8006658:	00c01e04 	movi	r3,120
 800665c:	10800094 	ori	r2,r2,2
 8006660:	d8814c15 	stw	r2,1328(sp)
 8006664:	39c00104 	addi	r7,r7,4
 8006668:	01420074 	movhi	r5,2049
 800666c:	29541704 	addi	r5,r5,20572
 8006670:	00800c04 	movi	r2,48
 8006674:	0023883a 	mov	r17,zero
 8006678:	01000084 	movi	r4,2
 800667c:	d9c14015 	stw	r7,1280(sp)
 8006680:	d8c14d15 	stw	r3,1332(sp)
 8006684:	d9414415 	stw	r5,1296(sp)
 8006688:	d8800445 	stb	r2,17(sp)
 800668c:	d8c00485 	stb	r3,18(sp)
 8006690:	d8000405 	stb	zero,16(sp)
 8006694:	003e7d06 	br	800608c <___vfprintf_internal_r+0xa38>
 8006698:	d8814c17 	ldw	r2,1328(sp)
 800669c:	b8c00007 	ldb	r3,0(r23)
 80066a0:	10801014 	ori	r2,r2,64
 80066a4:	d8814c15 	stw	r2,1328(sp)
 80066a8:	003c6906 	br	8005850 <___vfprintf_internal_r+0x1fc>
 80066ac:	d9414c17 	ldw	r5,1328(sp)
 80066b0:	2880020c 	andi	r2,r5,8
 80066b4:	1001e526 	beq	r2,zero,8006e4c <___vfprintf_internal_r+0x17f8>
 80066b8:	39800017 	ldw	r6,0(r7)
 80066bc:	38800204 	addi	r2,r7,8
 80066c0:	d8814015 	stw	r2,1280(sp)
 80066c4:	d9814215 	stw	r6,1288(sp)
 80066c8:	39c00117 	ldw	r7,4(r7)
 80066cc:	d9c14315 	stw	r7,1292(sp)
 80066d0:	d9014217 	ldw	r4,1288(sp)
 80066d4:	d9414317 	ldw	r5,1292(sp)
 80066d8:	800b6300 	call	800b630 <__isinfd>
 80066dc:	10021d26 	beq	r2,zero,8006f54 <___vfprintf_internal_r+0x1900>
 80066e0:	d9014217 	ldw	r4,1288(sp)
 80066e4:	d9414317 	ldw	r5,1292(sp)
 80066e8:	000d883a 	mov	r6,zero
 80066ec:	000f883a 	mov	r7,zero
 80066f0:	800d3140 	call	800d314 <__ltdf2>
 80066f4:	1002d016 	blt	r2,zero,8007238 <___vfprintf_internal_r+0x1be4>
 80066f8:	d9414d17 	ldw	r5,1332(sp)
 80066fc:	008011c4 	movi	r2,71
 8006700:	11421016 	blt	r2,r5,8006f44 <___vfprintf_internal_r+0x18f0>
 8006704:	01820074 	movhi	r6,2049
 8006708:	31941c04 	addi	r6,r6,20592
 800670c:	d9814115 	stw	r6,1284(sp)
 8006710:	d9014c17 	ldw	r4,1328(sp)
 8006714:	00c000c4 	movi	r3,3
 8006718:	00bfdfc4 	movi	r2,-129
 800671c:	2088703a 	and	r4,r4,r2
 8006720:	180f883a 	mov	r7,r3
 8006724:	d8c14515 	stw	r3,1300(sp)
 8006728:	d9014c15 	stw	r4,1328(sp)
 800672c:	d8014615 	stw	zero,1304(sp)
 8006730:	003e6a06 	br	80060dc <___vfprintf_internal_r+0xa88>
 8006734:	38800017 	ldw	r2,0(r7)
 8006738:	00c00044 	movi	r3,1
 800673c:	39c00104 	addi	r7,r7,4
 8006740:	d9c14015 	stw	r7,1280(sp)
 8006744:	d9000f04 	addi	r4,sp,60
 8006748:	180f883a 	mov	r7,r3
 800674c:	d8c14515 	stw	r3,1300(sp)
 8006750:	d9014115 	stw	r4,1284(sp)
 8006754:	d8800f05 	stb	r2,60(sp)
 8006758:	d8000405 	stb	zero,16(sp)
 800675c:	003cac06 	br	8005a10 <___vfprintf_internal_r+0x3bc>
 8006760:	01420074 	movhi	r5,2049
 8006764:	29542204 	addi	r5,r5,20616
 8006768:	d9414415 	stw	r5,1296(sp)
 800676c:	d9814c17 	ldw	r6,1328(sp)
 8006770:	3080080c 	andi	r2,r6,32
 8006774:	1000ff26 	beq	r2,zero,8006b74 <___vfprintf_internal_r+0x1520>
 8006778:	3c000017 	ldw	r16,0(r7)
 800677c:	3c400117 	ldw	r17,4(r7)
 8006780:	38800204 	addi	r2,r7,8
 8006784:	d8814015 	stw	r2,1280(sp)
 8006788:	d9414c17 	ldw	r5,1328(sp)
 800678c:	2880004c 	andi	r2,r5,1
 8006790:	1005003a 	cmpeq	r2,r2,zero
 8006794:	1000b91e 	bne	r2,zero,8006a7c <___vfprintf_internal_r+0x1428>
 8006798:	8444b03a 	or	r2,r16,r17
 800679c:	1000b726 	beq	r2,zero,8006a7c <___vfprintf_internal_r+0x1428>
 80067a0:	d9814d17 	ldw	r6,1332(sp)
 80067a4:	29400094 	ori	r5,r5,2
 80067a8:	00800c04 	movi	r2,48
 80067ac:	01000084 	movi	r4,2
 80067b0:	d9414c15 	stw	r5,1328(sp)
 80067b4:	d8800445 	stb	r2,17(sp)
 80067b8:	d9800485 	stb	r6,18(sp)
 80067bc:	d8000405 	stb	zero,16(sp)
 80067c0:	003e3206 	br	800608c <___vfprintf_internal_r+0xa38>
 80067c4:	01820074 	movhi	r6,2049
 80067c8:	31941704 	addi	r6,r6,20572
 80067cc:	d9814415 	stw	r6,1296(sp)
 80067d0:	003fe606 	br	800676c <___vfprintf_internal_r+0x1118>
 80067d4:	00800ac4 	movi	r2,43
 80067d8:	d8800405 	stb	r2,16(sp)
 80067dc:	b8c00007 	ldb	r3,0(r23)
 80067e0:	003c1b06 	br	8005850 <___vfprintf_internal_r+0x1fc>
 80067e4:	d8814c17 	ldw	r2,1328(sp)
 80067e8:	b8c00007 	ldb	r3,0(r23)
 80067ec:	10800054 	ori	r2,r2,1
 80067f0:	d8814c15 	stw	r2,1328(sp)
 80067f4:	003c1606 	br	8005850 <___vfprintf_internal_r+0x1fc>
 80067f8:	d8800407 	ldb	r2,16(sp)
 80067fc:	10004c1e 	bne	r2,zero,8006930 <___vfprintf_internal_r+0x12dc>
 8006800:	00800804 	movi	r2,32
 8006804:	d8800405 	stb	r2,16(sp)
 8006808:	b8c00007 	ldb	r3,0(r23)
 800680c:	003c1006 	br	8005850 <___vfprintf_internal_r+0x1fc>
 8006810:	d9814c17 	ldw	r6,1328(sp)
 8006814:	b8c00007 	ldb	r3,0(r23)
 8006818:	31800214 	ori	r6,r6,8
 800681c:	d9814c15 	stw	r6,1328(sp)
 8006820:	003c0b06 	br	8005850 <___vfprintf_internal_r+0x1fc>
 8006824:	0009883a 	mov	r4,zero
 8006828:	04000244 	movi	r16,9
 800682c:	01400284 	movi	r5,10
 8006830:	d9c15115 	stw	r7,1348(sp)
 8006834:	800d84c0 	call	800d84c <__mulsi3>
 8006838:	b9000007 	ldb	r4,0(r23)
 800683c:	d8c14d17 	ldw	r3,1332(sp)
 8006840:	bdc00044 	addi	r23,r23,1
 8006844:	d9014d15 	stw	r4,1332(sp)
 8006848:	d9414d17 	ldw	r5,1332(sp)
 800684c:	1885883a 	add	r2,r3,r2
 8006850:	113ff404 	addi	r4,r2,-48
 8006854:	28bff404 	addi	r2,r5,-48
 8006858:	d9c15117 	ldw	r7,1348(sp)
 800685c:	80bff32e 	bgeu	r16,r2,800682c <___vfprintf_internal_r+0x11d8>
 8006860:	d9014a15 	stw	r4,1320(sp)
 8006864:	003bfc06 	br	8005858 <___vfprintf_internal_r+0x204>
 8006868:	d8814c17 	ldw	r2,1328(sp)
 800686c:	b8c00007 	ldb	r3,0(r23)
 8006870:	10802014 	ori	r2,r2,128
 8006874:	d8814c15 	stw	r2,1328(sp)
 8006878:	003bf506 	br	8005850 <___vfprintf_internal_r+0x1fc>
 800687c:	b8c00007 	ldb	r3,0(r23)
 8006880:	00800a84 	movi	r2,42
 8006884:	bdc00044 	addi	r23,r23,1
 8006888:	18831826 	beq	r3,r2,80074ec <___vfprintf_internal_r+0x1e98>
 800688c:	d8c14d15 	stw	r3,1332(sp)
 8006890:	18bff404 	addi	r2,r3,-48
 8006894:	00c00244 	movi	r3,9
 8006898:	18827b36 	bltu	r3,r2,8007288 <___vfprintf_internal_r+0x1c34>
 800689c:	1821883a 	mov	r16,r3
 80068a0:	0009883a 	mov	r4,zero
 80068a4:	01400284 	movi	r5,10
 80068a8:	d9c15115 	stw	r7,1348(sp)
 80068ac:	800d84c0 	call	800d84c <__mulsi3>
 80068b0:	d9414d17 	ldw	r5,1332(sp)
 80068b4:	b9800007 	ldb	r6,0(r23)
 80068b8:	d9c15117 	ldw	r7,1348(sp)
 80068bc:	1145883a 	add	r2,r2,r5
 80068c0:	113ff404 	addi	r4,r2,-48
 80068c4:	30bff404 	addi	r2,r6,-48
 80068c8:	d9814d15 	stw	r6,1332(sp)
 80068cc:	bdc00044 	addi	r23,r23,1
 80068d0:	80bff42e 	bgeu	r16,r2,80068a4 <___vfprintf_internal_r+0x1250>
 80068d4:	2027883a 	mov	r19,r4
 80068d8:	203bdf0e 	bge	r4,zero,8005858 <___vfprintf_internal_r+0x204>
 80068dc:	04ffffc4 	movi	r19,-1
 80068e0:	003bdd06 	br	8005858 <___vfprintf_internal_r+0x204>
 80068e4:	d8000405 	stb	zero,16(sp)
 80068e8:	39800017 	ldw	r6,0(r7)
 80068ec:	39c00104 	addi	r7,r7,4
 80068f0:	d9c14015 	stw	r7,1280(sp)
 80068f4:	d9814115 	stw	r6,1284(sp)
 80068f8:	3001c926 	beq	r6,zero,8007020 <___vfprintf_internal_r+0x19cc>
 80068fc:	98000e16 	blt	r19,zero,8006938 <___vfprintf_internal_r+0x12e4>
 8006900:	d9014117 	ldw	r4,1284(sp)
 8006904:	000b883a 	mov	r5,zero
 8006908:	980d883a 	mov	r6,r19
 800690c:	8004ea40 	call	8004ea4 <memchr>
 8006910:	10025926 	beq	r2,zero,8007278 <___vfprintf_internal_r+0x1c24>
 8006914:	d8c14117 	ldw	r3,1284(sp)
 8006918:	10cfc83a 	sub	r7,r2,r3
 800691c:	99c19e16 	blt	r19,r7,8006f98 <___vfprintf_internal_r+0x1944>
 8006920:	d9c14515 	stw	r7,1300(sp)
 8006924:	38000916 	blt	r7,zero,800694c <___vfprintf_internal_r+0x12f8>
 8006928:	d8014615 	stw	zero,1304(sp)
 800692c:	003deb06 	br	80060dc <___vfprintf_internal_r+0xa88>
 8006930:	b8c00007 	ldb	r3,0(r23)
 8006934:	003bc606 	br	8005850 <___vfprintf_internal_r+0x1fc>
 8006938:	d9014117 	ldw	r4,1284(sp)
 800693c:	80055880 	call	8005588 <strlen>
 8006940:	d8814515 	stw	r2,1300(sp)
 8006944:	100f883a 	mov	r7,r2
 8006948:	103ff70e 	bge	r2,zero,8006928 <___vfprintf_internal_r+0x12d4>
 800694c:	d8014515 	stw	zero,1300(sp)
 8006950:	d8014615 	stw	zero,1304(sp)
 8006954:	003de106 	br	80060dc <___vfprintf_internal_r+0xa88>
 8006958:	20c03fcc 	andi	r3,r4,255
 800695c:	00800044 	movi	r2,1
 8006960:	18802d26 	beq	r3,r2,8006a18 <___vfprintf_internal_r+0x13c4>
 8006964:	18800e36 	bltu	r3,r2,80069a0 <___vfprintf_internal_r+0x134c>
 8006968:	00800084 	movi	r2,2
 800696c:	1880fa26 	beq	r3,r2,8006d58 <___vfprintf_internal_r+0x1704>
 8006970:	01020074 	movhi	r4,2049
 8006974:	21142704 	addi	r4,r4,20636
 8006978:	80055880 	call	8005588 <strlen>
 800697c:	100f883a 	mov	r7,r2
 8006980:	dcc14515 	stw	r19,1300(sp)
 8006984:	9880010e 	bge	r19,r2,800698c <___vfprintf_internal_r+0x1338>
 8006988:	d8814515 	stw	r2,1300(sp)
 800698c:	00820074 	movhi	r2,2049
 8006990:	10942704 	addi	r2,r2,20636
 8006994:	dcc14615 	stw	r19,1304(sp)
 8006998:	d8814115 	stw	r2,1284(sp)
 800699c:	003dcf06 	br	80060dc <___vfprintf_internal_r+0xa88>
 80069a0:	d9401904 	addi	r5,sp,100
 80069a4:	dd000f04 	addi	r20,sp,60
 80069a8:	d9414115 	stw	r5,1284(sp)
 80069ac:	880a977a 	slli	r5,r17,29
 80069b0:	d9814117 	ldw	r6,1284(sp)
 80069b4:	8004d0fa 	srli	r2,r16,3
 80069b8:	8806d0fa 	srli	r3,r17,3
 80069bc:	810001cc 	andi	r4,r16,7
 80069c0:	2884b03a 	or	r2,r5,r2
 80069c4:	31bfffc4 	addi	r6,r6,-1
 80069c8:	21000c04 	addi	r4,r4,48
 80069cc:	d9814115 	stw	r6,1284(sp)
 80069d0:	10cab03a 	or	r5,r2,r3
 80069d4:	31000005 	stb	r4,0(r6)
 80069d8:	1021883a 	mov	r16,r2
 80069dc:	1823883a 	mov	r17,r3
 80069e0:	283ff21e 	bne	r5,zero,80069ac <___vfprintf_internal_r+0x1358>
 80069e4:	d8c14c17 	ldw	r3,1328(sp)
 80069e8:	1880004c 	andi	r2,r3,1
 80069ec:	1005003a 	cmpeq	r2,r2,zero
 80069f0:	103db31e 	bne	r2,zero,80060c0 <___vfprintf_internal_r+0xa6c>
 80069f4:	20803fcc 	andi	r2,r4,255
 80069f8:	1080201c 	xori	r2,r2,128
 80069fc:	10bfe004 	addi	r2,r2,-128
 8006a00:	00c00c04 	movi	r3,48
 8006a04:	10fdae26 	beq	r2,r3,80060c0 <___vfprintf_internal_r+0xa6c>
 8006a08:	31bfffc4 	addi	r6,r6,-1
 8006a0c:	d9814115 	stw	r6,1284(sp)
 8006a10:	30c00005 	stb	r3,0(r6)
 8006a14:	003daa06 	br	80060c0 <___vfprintf_internal_r+0xa6c>
 8006a18:	88800068 	cmpgeui	r2,r17,1
 8006a1c:	10002c1e 	bne	r2,zero,8006ad0 <___vfprintf_internal_r+0x147c>
 8006a20:	8800021e 	bne	r17,zero,8006a2c <___vfprintf_internal_r+0x13d8>
 8006a24:	00800244 	movi	r2,9
 8006a28:	14002936 	bltu	r2,r16,8006ad0 <___vfprintf_internal_r+0x147c>
 8006a2c:	d90018c4 	addi	r4,sp,99
 8006a30:	dd000f04 	addi	r20,sp,60
 8006a34:	d9014115 	stw	r4,1284(sp)
 8006a38:	d9014117 	ldw	r4,1284(sp)
 8006a3c:	80800c04 	addi	r2,r16,48
 8006a40:	20800005 	stb	r2,0(r4)
 8006a44:	003d9e06 	br	80060c0 <___vfprintf_internal_r+0xa6c>
 8006a48:	dc400d17 	ldw	r17,52(sp)
 8006a4c:	07020074 	movhi	fp,2049
 8006a50:	e7142e84 	addi	fp,fp,20666
 8006a54:	9425883a 	add	r18,r18,r16
 8006a58:	8c400044 	addi	r17,r17,1
 8006a5c:	008001c4 	movi	r2,7
 8006a60:	1f000015 	stw	fp,0(r3)
 8006a64:	1c000115 	stw	r16,4(r3)
 8006a68:	dc800e15 	stw	r18,56(sp)
 8006a6c:	dc400d15 	stw	r17,52(sp)
 8006a70:	147ddc16 	blt	r2,r17,80061e4 <___vfprintf_internal_r+0xb90>
 8006a74:	18c00204 	addi	r3,r3,8
 8006a78:	003c7406 	br	8005c4c <___vfprintf_internal_r+0x5f8>
 8006a7c:	01000084 	movi	r4,2
 8006a80:	d8000405 	stb	zero,16(sp)
 8006a84:	003d8106 	br	800608c <___vfprintf_internal_r+0xa38>
 8006a88:	d9814c17 	ldw	r6,1328(sp)
 8006a8c:	30c4703a 	and	r2,r6,r3
 8006a90:	1005003a 	cmpeq	r2,r2,zero
 8006a94:	103cb326 	beq	r2,zero,8005d64 <___vfprintf_internal_r+0x710>
 8006a98:	d9014117 	ldw	r4,1284(sp)
 8006a9c:	94800044 	addi	r18,r18,1
 8006aa0:	8c400044 	addi	r17,r17,1
 8006aa4:	008001c4 	movi	r2,7
 8006aa8:	a9000015 	stw	r4,0(r21)
 8006aac:	a8c00115 	stw	r3,4(r21)
 8006ab0:	dc800e15 	stw	r18,56(sp)
 8006ab4:	dc400d15 	stw	r17,52(sp)
 8006ab8:	147e6016 	blt	r2,r17,800643c <___vfprintf_internal_r+0xde8>
 8006abc:	acc00204 	addi	r19,r21,8
 8006ac0:	003cd106 	br	8005e08 <___vfprintf_internal_r+0x7b4>
 8006ac4:	07020074 	movhi	fp,2049
 8006ac8:	e7142e84 	addi	fp,fp,20666
 8006acc:	003c4906 	br	8005bf4 <___vfprintf_internal_r+0x5a0>
 8006ad0:	dd000f04 	addi	r20,sp,60
 8006ad4:	dc801904 	addi	r18,sp,100
 8006ad8:	8009883a 	mov	r4,r16
 8006adc:	880b883a 	mov	r5,r17
 8006ae0:	01800284 	movi	r6,10
 8006ae4:	000f883a 	mov	r7,zero
 8006ae8:	800bf740 	call	800bf74 <__umoddi3>
 8006aec:	12000c04 	addi	r8,r2,48
 8006af0:	94bfffc4 	addi	r18,r18,-1
 8006af4:	8009883a 	mov	r4,r16
 8006af8:	880b883a 	mov	r5,r17
 8006afc:	01800284 	movi	r6,10
 8006b00:	000f883a 	mov	r7,zero
 8006b04:	92000005 	stb	r8,0(r18)
 8006b08:	800b9080 	call	800b908 <__udivdi3>
 8006b0c:	1009883a 	mov	r4,r2
 8006b10:	1021883a 	mov	r16,r2
 8006b14:	18800068 	cmpgeui	r2,r3,1
 8006b18:	1823883a 	mov	r17,r3
 8006b1c:	103fee1e 	bne	r2,zero,8006ad8 <___vfprintf_internal_r+0x1484>
 8006b20:	1800021e 	bne	r3,zero,8006b2c <___vfprintf_internal_r+0x14d8>
 8006b24:	00800244 	movi	r2,9
 8006b28:	113feb36 	bltu	r2,r4,8006ad8 <___vfprintf_internal_r+0x1484>
 8006b2c:	94bfffc4 	addi	r18,r18,-1
 8006b30:	dc814115 	stw	r18,1284(sp)
 8006b34:	003fc006 	br	8006a38 <___vfprintf_internal_r+0x13e4>
 8006b38:	d9014c17 	ldw	r4,1328(sp)
 8006b3c:	2080004c 	andi	r2,r4,1
 8006b40:	10009a1e 	bne	r2,zero,8006dac <___vfprintf_internal_r+0x1758>
 8006b44:	d9401904 	addi	r5,sp,100
 8006b48:	dd000f04 	addi	r20,sp,60
 8006b4c:	d9414115 	stw	r5,1284(sp)
 8006b50:	003d5b06 	br	80060c0 <___vfprintf_internal_r+0xa6c>
 8006b54:	d9014f17 	ldw	r4,1340(sp)
 8006b58:	b00b883a 	mov	r5,r22
 8006b5c:	d9800c04 	addi	r6,sp,48
 8006b60:	80055fc0 	call	80055fc <__sprint_r>
 8006b64:	103c731e 	bne	r2,zero,8005d34 <___vfprintf_internal_r+0x6e0>
 8006b68:	dc800e17 	ldw	r18,56(sp)
 8006b6c:	d8c01904 	addi	r3,sp,100
 8006b70:	003cf906 	br	8005f58 <___vfprintf_internal_r+0x904>
 8006b74:	d8c14c17 	ldw	r3,1328(sp)
 8006b78:	1880040c 	andi	r2,r3,16
 8006b7c:	1000711e 	bne	r2,zero,8006d44 <___vfprintf_internal_r+0x16f0>
 8006b80:	d9014c17 	ldw	r4,1328(sp)
 8006b84:	2080100c 	andi	r2,r4,64
 8006b88:	10006e26 	beq	r2,zero,8006d44 <___vfprintf_internal_r+0x16f0>
 8006b8c:	3c00000b 	ldhu	r16,0(r7)
 8006b90:	0023883a 	mov	r17,zero
 8006b94:	39c00104 	addi	r7,r7,4
 8006b98:	d9c14015 	stw	r7,1280(sp)
 8006b9c:	003efa06 	br	8006788 <___vfprintf_internal_r+0x1134>
 8006ba0:	dc400d17 	ldw	r17,52(sp)
 8006ba4:	07020074 	movhi	fp,2049
 8006ba8:	e7142e84 	addi	fp,fp,20666
 8006bac:	9425883a 	add	r18,r18,r16
 8006bb0:	8c400044 	addi	r17,r17,1
 8006bb4:	008001c4 	movi	r2,7
 8006bb8:	1f000015 	stw	fp,0(r3)
 8006bbc:	1c000115 	stw	r16,4(r3)
 8006bc0:	dc800e15 	stw	r18,56(sp)
 8006bc4:	dc400d15 	stw	r17,52(sp)
 8006bc8:	147d7016 	blt	r2,r17,800618c <___vfprintf_internal_r+0xb38>
 8006bcc:	18c00204 	addi	r3,r3,8
 8006bd0:	003d7506 	br	80061a8 <___vfprintf_internal_r+0xb54>
 8006bd4:	dc800e17 	ldw	r18,56(sp)
 8006bd8:	dc400d17 	ldw	r17,52(sp)
 8006bdc:	07020074 	movhi	fp,2049
 8006be0:	e7143284 	addi	fp,fp,20682
 8006be4:	003bba06 	br	8005ad0 <___vfprintf_internal_r+0x47c>
 8006be8:	d9014f17 	ldw	r4,1340(sp)
 8006bec:	b00b883a 	mov	r5,r22
 8006bf0:	d9800c04 	addi	r6,sp,48
 8006bf4:	80055fc0 	call	80055fc <__sprint_r>
 8006bf8:	103c4e1e 	bne	r2,zero,8005d34 <___vfprintf_internal_r+0x6e0>
 8006bfc:	dc800e17 	ldw	r18,56(sp)
 8006c00:	d8c01904 	addi	r3,sp,100
 8006c04:	003ce306 	br	8005f94 <___vfprintf_internal_r+0x940>
 8006c08:	3c000017 	ldw	r16,0(r7)
 8006c0c:	0009883a 	mov	r4,zero
 8006c10:	39c00104 	addi	r7,r7,4
 8006c14:	0023883a 	mov	r17,zero
 8006c18:	d9c14015 	stw	r7,1280(sp)
 8006c1c:	d8000405 	stb	zero,16(sp)
 8006c20:	003d1a06 	br	800608c <___vfprintf_internal_r+0xa38>
 8006c24:	38800017 	ldw	r2,0(r7)
 8006c28:	39c00104 	addi	r7,r7,4
 8006c2c:	d9c14015 	stw	r7,1280(sp)
 8006c30:	1023d7fa 	srai	r17,r2,31
 8006c34:	1021883a 	mov	r16,r2
 8006c38:	003d1206 	br	8006084 <___vfprintf_internal_r+0xa30>
 8006c3c:	3c000017 	ldw	r16,0(r7)
 8006c40:	01000044 	movi	r4,1
 8006c44:	39c00104 	addi	r7,r7,4
 8006c48:	0023883a 	mov	r17,zero
 8006c4c:	d9c14015 	stw	r7,1280(sp)
 8006c50:	d8000405 	stb	zero,16(sp)
 8006c54:	003d0d06 	br	800608c <___vfprintf_internal_r+0xa38>
 8006c58:	00820074 	movhi	r2,2049
 8006c5c:	10942e04 	addi	r2,r2,20664
 8006c60:	94800044 	addi	r18,r18,1
 8006c64:	8c400044 	addi	r17,r17,1
 8006c68:	a8800015 	stw	r2,0(r21)
 8006c6c:	00c00044 	movi	r3,1
 8006c70:	008001c4 	movi	r2,7
 8006c74:	a8c00115 	stw	r3,4(r21)
 8006c78:	dc800e15 	stw	r18,56(sp)
 8006c7c:	dc400d15 	stw	r17,52(sp)
 8006c80:	1440ca16 	blt	r2,r17,8006fac <___vfprintf_internal_r+0x1958>
 8006c84:	a8c00204 	addi	r3,r21,8
 8006c88:	2000061e 	bne	r4,zero,8006ca4 <___vfprintf_internal_r+0x1650>
 8006c8c:	d9414717 	ldw	r5,1308(sp)
 8006c90:	2800041e 	bne	r5,zero,8006ca4 <___vfprintf_internal_r+0x1650>
 8006c94:	d9814c17 	ldw	r6,1328(sp)
 8006c98:	3080004c 	andi	r2,r6,1
 8006c9c:	1005003a 	cmpeq	r2,r2,zero
 8006ca0:	103bea1e 	bne	r2,zero,8005c4c <___vfprintf_internal_r+0x5f8>
 8006ca4:	00800044 	movi	r2,1
 8006ca8:	dc400d17 	ldw	r17,52(sp)
 8006cac:	18800115 	stw	r2,4(r3)
 8006cb0:	d8814917 	ldw	r2,1316(sp)
 8006cb4:	94800044 	addi	r18,r18,1
 8006cb8:	8c400044 	addi	r17,r17,1
 8006cbc:	18800015 	stw	r2,0(r3)
 8006cc0:	008001c4 	movi	r2,7
 8006cc4:	dc800e15 	stw	r18,56(sp)
 8006cc8:	dc400d15 	stw	r17,52(sp)
 8006ccc:	1440ca16 	blt	r2,r17,8006ff8 <___vfprintf_internal_r+0x19a4>
 8006cd0:	18c00204 	addi	r3,r3,8
 8006cd4:	0121c83a 	sub	r16,zero,r4
 8006cd8:	0400500e 	bge	zero,r16,8006e1c <___vfprintf_internal_r+0x17c8>
 8006cdc:	00800404 	movi	r2,16
 8006ce0:	1400800e 	bge	r2,r16,8006ee4 <___vfprintf_internal_r+0x1890>
 8006ce4:	1027883a 	mov	r19,r2
 8006ce8:	07020074 	movhi	fp,2049
 8006cec:	e7142e84 	addi	fp,fp,20666
 8006cf0:	050001c4 	movi	r20,7
 8006cf4:	00000306 	br	8006d04 <___vfprintf_internal_r+0x16b0>
 8006cf8:	18c00204 	addi	r3,r3,8
 8006cfc:	843ffc04 	addi	r16,r16,-16
 8006d00:	9c007a0e 	bge	r19,r16,8006eec <___vfprintf_internal_r+0x1898>
 8006d04:	94800404 	addi	r18,r18,16
 8006d08:	8c400044 	addi	r17,r17,1
 8006d0c:	1f000015 	stw	fp,0(r3)
 8006d10:	1cc00115 	stw	r19,4(r3)
 8006d14:	dc800e15 	stw	r18,56(sp)
 8006d18:	dc400d15 	stw	r17,52(sp)
 8006d1c:	a47ff60e 	bge	r20,r17,8006cf8 <___vfprintf_internal_r+0x16a4>
 8006d20:	d9014f17 	ldw	r4,1340(sp)
 8006d24:	b00b883a 	mov	r5,r22
 8006d28:	d9800c04 	addi	r6,sp,48
 8006d2c:	80055fc0 	call	80055fc <__sprint_r>
 8006d30:	103c001e 	bne	r2,zero,8005d34 <___vfprintf_internal_r+0x6e0>
 8006d34:	dc800e17 	ldw	r18,56(sp)
 8006d38:	dc400d17 	ldw	r17,52(sp)
 8006d3c:	d8c01904 	addi	r3,sp,100
 8006d40:	003fee06 	br	8006cfc <___vfprintf_internal_r+0x16a8>
 8006d44:	3c000017 	ldw	r16,0(r7)
 8006d48:	0023883a 	mov	r17,zero
 8006d4c:	39c00104 	addi	r7,r7,4
 8006d50:	d9c14015 	stw	r7,1280(sp)
 8006d54:	003e8c06 	br	8006788 <___vfprintf_internal_r+0x1134>
 8006d58:	d9401904 	addi	r5,sp,100
 8006d5c:	dd000f04 	addi	r20,sp,60
 8006d60:	d9414115 	stw	r5,1284(sp)
 8006d64:	d9814417 	ldw	r6,1296(sp)
 8006d68:	880a973a 	slli	r5,r17,28
 8006d6c:	8004d13a 	srli	r2,r16,4
 8006d70:	810003cc 	andi	r4,r16,15
 8006d74:	3109883a 	add	r4,r6,r4
 8006d78:	2884b03a 	or	r2,r5,r2
 8006d7c:	21400003 	ldbu	r5,0(r4)
 8006d80:	d9014117 	ldw	r4,1284(sp)
 8006d84:	8806d13a 	srli	r3,r17,4
 8006d88:	1021883a 	mov	r16,r2
 8006d8c:	213fffc4 	addi	r4,r4,-1
 8006d90:	d9014115 	stw	r4,1284(sp)
 8006d94:	d9814117 	ldw	r6,1284(sp)
 8006d98:	10c8b03a 	or	r4,r2,r3
 8006d9c:	1823883a 	mov	r17,r3
 8006da0:	31400005 	stb	r5,0(r6)
 8006da4:	203fef1e 	bne	r4,zero,8006d64 <___vfprintf_internal_r+0x1710>
 8006da8:	003cc506 	br	80060c0 <___vfprintf_internal_r+0xa6c>
 8006dac:	00800c04 	movi	r2,48
 8006db0:	d98018c4 	addi	r6,sp,99
 8006db4:	dd000f04 	addi	r20,sp,60
 8006db8:	d88018c5 	stb	r2,99(sp)
 8006dbc:	d9814115 	stw	r6,1284(sp)
 8006dc0:	003cbf06 	br	80060c0 <___vfprintf_internal_r+0xa6c>
 8006dc4:	dc400d17 	ldw	r17,52(sp)
 8006dc8:	07020074 	movhi	fp,2049
 8006dcc:	e7143284 	addi	fp,fp,20682
 8006dd0:	003bc106 	br	8005cd8 <___vfprintf_internal_r+0x684>
 8006dd4:	d9414c17 	ldw	r5,1328(sp)
 8006dd8:	2880040c 	andi	r2,r5,16
 8006ddc:	10007c26 	beq	r2,zero,8006fd0 <___vfprintf_internal_r+0x197c>
 8006de0:	38800017 	ldw	r2,0(r7)
 8006de4:	39c00104 	addi	r7,r7,4
 8006de8:	d9c14015 	stw	r7,1280(sp)
 8006dec:	d9814b17 	ldw	r6,1324(sp)
 8006df0:	d9c14017 	ldw	r7,1280(sp)
 8006df4:	11800015 	stw	r6,0(r2)
 8006df8:	003a7206 	br	80057c4 <___vfprintf_internal_r+0x170>
 8006dfc:	d9014f17 	ldw	r4,1340(sp)
 8006e00:	b00b883a 	mov	r5,r22
 8006e04:	d9800c04 	addi	r6,sp,48
 8006e08:	80055fc0 	call	80055fc <__sprint_r>
 8006e0c:	103bc91e 	bne	r2,zero,8005d34 <___vfprintf_internal_r+0x6e0>
 8006e10:	dc800e17 	ldw	r18,56(sp)
 8006e14:	dc400d17 	ldw	r17,52(sp)
 8006e18:	d8c01904 	addi	r3,sp,100
 8006e1c:	d9014717 	ldw	r4,1308(sp)
 8006e20:	d9414117 	ldw	r5,1284(sp)
 8006e24:	8c400044 	addi	r17,r17,1
 8006e28:	9125883a 	add	r18,r18,r4
 8006e2c:	008001c4 	movi	r2,7
 8006e30:	19400015 	stw	r5,0(r3)
 8006e34:	19000115 	stw	r4,4(r3)
 8006e38:	dc800e15 	stw	r18,56(sp)
 8006e3c:	dc400d15 	stw	r17,52(sp)
 8006e40:	147ce816 	blt	r2,r17,80061e4 <___vfprintf_internal_r+0xb90>
 8006e44:	18c00204 	addi	r3,r3,8
 8006e48:	003b8006 	br	8005c4c <___vfprintf_internal_r+0x5f8>
 8006e4c:	38c00017 	ldw	r3,0(r7)
 8006e50:	39000204 	addi	r4,r7,8
 8006e54:	d9014015 	stw	r4,1280(sp)
 8006e58:	d8c14215 	stw	r3,1288(sp)
 8006e5c:	39c00117 	ldw	r7,4(r7)
 8006e60:	d9c14315 	stw	r7,1292(sp)
 8006e64:	003e1a06 	br	80066d0 <___vfprintf_internal_r+0x107c>
 8006e68:	0005883a 	mov	r2,zero
 8006e6c:	1409c83a 	sub	r4,r2,r16
 8006e70:	1105803a 	cmpltu	r2,r2,r4
 8006e74:	044bc83a 	sub	r5,zero,r17
 8006e78:	2885c83a 	sub	r2,r5,r2
 8006e7c:	2021883a 	mov	r16,r4
 8006e80:	1023883a 	mov	r17,r2
 8006e84:	01000044 	movi	r4,1
 8006e88:	00800b44 	movi	r2,45
 8006e8c:	d8800405 	stb	r2,16(sp)
 8006e90:	003c7e06 	br	800608c <___vfprintf_internal_r+0xa38>
 8006e94:	d9014f17 	ldw	r4,1340(sp)
 8006e98:	b00b883a 	mov	r5,r22
 8006e9c:	d9800c04 	addi	r6,sp,48
 8006ea0:	80055fc0 	call	80055fc <__sprint_r>
 8006ea4:	103ba31e 	bne	r2,zero,8005d34 <___vfprintf_internal_r+0x6e0>
 8006ea8:	dc800e17 	ldw	r18,56(sp)
 8006eac:	dc400d17 	ldw	r17,52(sp)
 8006eb0:	d9000517 	ldw	r4,20(sp)
 8006eb4:	d9401904 	addi	r5,sp,100
 8006eb8:	003da106 	br	8006540 <___vfprintf_internal_r+0xeec>
 8006ebc:	d9014f17 	ldw	r4,1340(sp)
 8006ec0:	b00b883a 	mov	r5,r22
 8006ec4:	d9800c04 	addi	r6,sp,48
 8006ec8:	80055fc0 	call	80055fc <__sprint_r>
 8006ecc:	103b991e 	bne	r2,zero,8005d34 <___vfprintf_internal_r+0x6e0>
 8006ed0:	dc800e17 	ldw	r18,56(sp)
 8006ed4:	dc400d17 	ldw	r17,52(sp)
 8006ed8:	d9000517 	ldw	r4,20(sp)
 8006edc:	d8c01904 	addi	r3,sp,100
 8006ee0:	003d8b06 	br	8006510 <___vfprintf_internal_r+0xebc>
 8006ee4:	07020074 	movhi	fp,2049
 8006ee8:	e7142e84 	addi	fp,fp,20666
 8006eec:	9425883a 	add	r18,r18,r16
 8006ef0:	8c400044 	addi	r17,r17,1
 8006ef4:	008001c4 	movi	r2,7
 8006ef8:	1f000015 	stw	fp,0(r3)
 8006efc:	1c000115 	stw	r16,4(r3)
 8006f00:	dc800e15 	stw	r18,56(sp)
 8006f04:	dc400d15 	stw	r17,52(sp)
 8006f08:	147fbc16 	blt	r2,r17,8006dfc <___vfprintf_internal_r+0x17a8>
 8006f0c:	18c00204 	addi	r3,r3,8
 8006f10:	003fc206 	br	8006e1c <___vfprintf_internal_r+0x17c8>
 8006f14:	d9014f17 	ldw	r4,1340(sp)
 8006f18:	b00b883a 	mov	r5,r22
 8006f1c:	d9800c04 	addi	r6,sp,48
 8006f20:	80055fc0 	call	80055fc <__sprint_r>
 8006f24:	103b831e 	bne	r2,zero,8005d34 <___vfprintf_internal_r+0x6e0>
 8006f28:	dc800e17 	ldw	r18,56(sp)
 8006f2c:	d9000517 	ldw	r4,20(sp)
 8006f30:	d8c01904 	addi	r3,sp,100
 8006f34:	003cfc06 	br	8006328 <___vfprintf_internal_r+0xcd4>
 8006f38:	07020074 	movhi	fp,2049
 8006f3c:	e7142e84 	addi	fp,fp,20666
 8006f40:	003bde06 	br	8005ebc <___vfprintf_internal_r+0x868>
 8006f44:	00820074 	movhi	r2,2049
 8006f48:	10941d04 	addi	r2,r2,20596
 8006f4c:	d8814115 	stw	r2,1284(sp)
 8006f50:	003def06 	br	8006710 <___vfprintf_internal_r+0x10bc>
 8006f54:	d9014217 	ldw	r4,1288(sp)
 8006f58:	d9414317 	ldw	r5,1292(sp)
 8006f5c:	800b6700 	call	800b670 <__isnand>
 8006f60:	10003926 	beq	r2,zero,8007048 <___vfprintf_internal_r+0x19f4>
 8006f64:	d9414d17 	ldw	r5,1332(sp)
 8006f68:	008011c4 	movi	r2,71
 8006f6c:	1140ce16 	blt	r2,r5,80072a8 <___vfprintf_internal_r+0x1c54>
 8006f70:	01820074 	movhi	r6,2049
 8006f74:	31941e04 	addi	r6,r6,20600
 8006f78:	d9814115 	stw	r6,1284(sp)
 8006f7c:	003de406 	br	8006710 <___vfprintf_internal_r+0x10bc>
 8006f80:	d9014c17 	ldw	r4,1328(sp)
 8006f84:	bdc00044 	addi	r23,r23,1
 8006f88:	b8c00007 	ldb	r3,0(r23)
 8006f8c:	21000814 	ori	r4,r4,32
 8006f90:	d9014c15 	stw	r4,1328(sp)
 8006f94:	003a2e06 	br	8005850 <___vfprintf_internal_r+0x1fc>
 8006f98:	dcc14515 	stw	r19,1300(sp)
 8006f9c:	98011016 	blt	r19,zero,80073e0 <___vfprintf_internal_r+0x1d8c>
 8006fa0:	980f883a 	mov	r7,r19
 8006fa4:	d8014615 	stw	zero,1304(sp)
 8006fa8:	003c4c06 	br	80060dc <___vfprintf_internal_r+0xa88>
 8006fac:	d9014f17 	ldw	r4,1340(sp)
 8006fb0:	b00b883a 	mov	r5,r22
 8006fb4:	d9800c04 	addi	r6,sp,48
 8006fb8:	80055fc0 	call	80055fc <__sprint_r>
 8006fbc:	103b5d1e 	bne	r2,zero,8005d34 <___vfprintf_internal_r+0x6e0>
 8006fc0:	dc800e17 	ldw	r18,56(sp)
 8006fc4:	d9000517 	ldw	r4,20(sp)
 8006fc8:	d8c01904 	addi	r3,sp,100
 8006fcc:	003f2e06 	br	8006c88 <___vfprintf_internal_r+0x1634>
 8006fd0:	d8c14c17 	ldw	r3,1328(sp)
 8006fd4:	1880100c 	andi	r2,r3,64
 8006fd8:	1000a026 	beq	r2,zero,800725c <___vfprintf_internal_r+0x1c08>
 8006fdc:	38800017 	ldw	r2,0(r7)
 8006fe0:	39c00104 	addi	r7,r7,4
 8006fe4:	d9c14015 	stw	r7,1280(sp)
 8006fe8:	d9014b17 	ldw	r4,1324(sp)
 8006fec:	d9c14017 	ldw	r7,1280(sp)
 8006ff0:	1100000d 	sth	r4,0(r2)
 8006ff4:	0039f306 	br	80057c4 <___vfprintf_internal_r+0x170>
 8006ff8:	d9014f17 	ldw	r4,1340(sp)
 8006ffc:	b00b883a 	mov	r5,r22
 8007000:	d9800c04 	addi	r6,sp,48
 8007004:	80055fc0 	call	80055fc <__sprint_r>
 8007008:	103b4a1e 	bne	r2,zero,8005d34 <___vfprintf_internal_r+0x6e0>
 800700c:	dc800e17 	ldw	r18,56(sp)
 8007010:	dc400d17 	ldw	r17,52(sp)
 8007014:	d9000517 	ldw	r4,20(sp)
 8007018:	d8c01904 	addi	r3,sp,100
 800701c:	003f2d06 	br	8006cd4 <___vfprintf_internal_r+0x1680>
 8007020:	00800184 	movi	r2,6
 8007024:	14c09a36 	bltu	r2,r19,8007290 <___vfprintf_internal_r+0x1c3c>
 8007028:	dcc14515 	stw	r19,1300(sp)
 800702c:	9800010e 	bge	r19,zero,8007034 <___vfprintf_internal_r+0x19e0>
 8007030:	d8014515 	stw	zero,1300(sp)
 8007034:	00820074 	movhi	r2,2049
 8007038:	10942004 	addi	r2,r2,20608
 800703c:	980f883a 	mov	r7,r19
 8007040:	d8814115 	stw	r2,1284(sp)
 8007044:	003a7206 	br	8005a10 <___vfprintf_internal_r+0x3bc>
 8007048:	00bfffc4 	movi	r2,-1
 800704c:	9880e226 	beq	r19,r2,80073d8 <___vfprintf_internal_r+0x1d84>
 8007050:	d9414d17 	ldw	r5,1332(sp)
 8007054:	008019c4 	movi	r2,103
 8007058:	2880dc26 	beq	r5,r2,80073cc <___vfprintf_internal_r+0x1d78>
 800705c:	008011c4 	movi	r2,71
 8007060:	2880da26 	beq	r5,r2,80073cc <___vfprintf_internal_r+0x1d78>
 8007064:	d9414c17 	ldw	r5,1328(sp)
 8007068:	d9014317 	ldw	r4,1292(sp)
 800706c:	d9814217 	ldw	r6,1288(sp)
 8007070:	29404014 	ori	r5,r5,256
 8007074:	d9414c15 	stw	r5,1328(sp)
 8007078:	2000cc16 	blt	r4,zero,80073ac <___vfprintf_internal_r+0x1d58>
 800707c:	3021883a 	mov	r16,r6
 8007080:	2023883a 	mov	r17,r4
 8007084:	0039883a 	mov	fp,zero
 8007088:	d9414d17 	ldw	r5,1332(sp)
 800708c:	00801984 	movi	r2,102
 8007090:	2880b726 	beq	r5,r2,8007370 <___vfprintf_internal_r+0x1d1c>
 8007094:	00801184 	movi	r2,70
 8007098:	2880b526 	beq	r5,r2,8007370 <___vfprintf_internal_r+0x1d1c>
 800709c:	00801944 	movi	r2,101
 80070a0:	2880c826 	beq	r5,r2,80073c4 <___vfprintf_internal_r+0x1d70>
 80070a4:	00801144 	movi	r2,69
 80070a8:	2880c626 	beq	r5,r2,80073c4 <___vfprintf_internal_r+0x1d70>
 80070ac:	9829883a 	mov	r20,r19
 80070b0:	d9014f17 	ldw	r4,1340(sp)
 80070b4:	d8800504 	addi	r2,sp,20
 80070b8:	880d883a 	mov	r6,r17
 80070bc:	d8800115 	stw	r2,4(sp)
 80070c0:	d8c00604 	addi	r3,sp,24
 80070c4:	d8800704 	addi	r2,sp,28
 80070c8:	800b883a 	mov	r5,r16
 80070cc:	01c00084 	movi	r7,2
 80070d0:	d8c00215 	stw	r3,8(sp)
 80070d4:	d8800315 	stw	r2,12(sp)
 80070d8:	dd000015 	stw	r20,0(sp)
 80070dc:	80079a40 	call	80079a4 <_dtoa_r>
 80070e0:	d9814d17 	ldw	r6,1332(sp)
 80070e4:	d8814115 	stw	r2,1284(sp)
 80070e8:	008019c4 	movi	r2,103
 80070ec:	30809526 	beq	r6,r2,8007344 <___vfprintf_internal_r+0x1cf0>
 80070f0:	d8c14d17 	ldw	r3,1332(sp)
 80070f4:	008011c4 	movi	r2,71
 80070f8:	18809226 	beq	r3,r2,8007344 <___vfprintf_internal_r+0x1cf0>
 80070fc:	d9414117 	ldw	r5,1284(sp)
 8007100:	d9814d17 	ldw	r6,1332(sp)
 8007104:	00801984 	movi	r2,102
 8007108:	2d25883a 	add	r18,r5,r20
 800710c:	30808626 	beq	r6,r2,8007328 <___vfprintf_internal_r+0x1cd4>
 8007110:	00801184 	movi	r2,70
 8007114:	30808426 	beq	r6,r2,8007328 <___vfprintf_internal_r+0x1cd4>
 8007118:	000d883a 	mov	r6,zero
 800711c:	000f883a 	mov	r7,zero
 8007120:	880b883a 	mov	r5,r17
 8007124:	8009883a 	mov	r4,r16
 8007128:	800d0f40 	call	800d0f4 <__eqdf2>
 800712c:	1000751e 	bne	r2,zero,8007304 <___vfprintf_internal_r+0x1cb0>
 8007130:	9005883a 	mov	r2,r18
 8007134:	dc800715 	stw	r18,28(sp)
 8007138:	d9014117 	ldw	r4,1284(sp)
 800713c:	d9414d17 	ldw	r5,1332(sp)
 8007140:	00c019c4 	movi	r3,103
 8007144:	1125c83a 	sub	r18,r2,r4
 8007148:	28c06826 	beq	r5,r3,80072ec <___vfprintf_internal_r+0x1c98>
 800714c:	008011c4 	movi	r2,71
 8007150:	28806626 	beq	r5,r2,80072ec <___vfprintf_internal_r+0x1c98>
 8007154:	d9000517 	ldw	r4,20(sp)
 8007158:	d8c14d17 	ldw	r3,1332(sp)
 800715c:	00801944 	movi	r2,101
 8007160:	10c05516 	blt	r2,r3,80072b8 <___vfprintf_internal_r+0x1c64>
 8007164:	213fffc4 	addi	r4,r4,-1
 8007168:	d9000515 	stw	r4,20(sp)
 800716c:	d8c00805 	stb	r3,32(sp)
 8007170:	2021883a 	mov	r16,r4
 8007174:	2000c116 	blt	r4,zero,800747c <___vfprintf_internal_r+0x1e28>
 8007178:	00800ac4 	movi	r2,43
 800717c:	d8800845 	stb	r2,33(sp)
 8007180:	00800244 	movi	r2,9
 8007184:	1400af0e 	bge	r2,r16,8007444 <___vfprintf_internal_r+0x1df0>
 8007188:	1027883a 	mov	r19,r2
 800718c:	dc400b84 	addi	r17,sp,46
 8007190:	8009883a 	mov	r4,r16
 8007194:	01400284 	movi	r5,10
 8007198:	800d7dc0 	call	800d7dc <__modsi3>
 800719c:	10800c04 	addi	r2,r2,48
 80071a0:	8c7fffc4 	addi	r17,r17,-1
 80071a4:	8009883a 	mov	r4,r16
 80071a8:	01400284 	movi	r5,10
 80071ac:	88800005 	stb	r2,0(r17)
 80071b0:	800d77c0 	call	800d77c <__divsi3>
 80071b4:	1021883a 	mov	r16,r2
 80071b8:	98bff516 	blt	r19,r2,8007190 <___vfprintf_internal_r+0x1b3c>
 80071bc:	10c00c04 	addi	r3,r2,48
 80071c0:	d88009c4 	addi	r2,sp,39
 80071c4:	108001c4 	addi	r2,r2,7
 80071c8:	897fffc4 	addi	r5,r17,-1
 80071cc:	88ffffc5 	stb	r3,-1(r17)
 80071d0:	2880a72e 	bgeu	r5,r2,8007470 <___vfprintf_internal_r+0x1e1c>
 80071d4:	1009883a 	mov	r4,r2
 80071d8:	d9800804 	addi	r6,sp,32
 80071dc:	d8c00884 	addi	r3,sp,34
 80071e0:	28800003 	ldbu	r2,0(r5)
 80071e4:	29400044 	addi	r5,r5,1
 80071e8:	18800005 	stb	r2,0(r3)
 80071ec:	18c00044 	addi	r3,r3,1
 80071f0:	293ffb36 	bltu	r5,r4,80071e0 <___vfprintf_internal_r+0x1b8c>
 80071f4:	1987c83a 	sub	r3,r3,r6
 80071f8:	00800044 	movi	r2,1
 80071fc:	d8c14815 	stw	r3,1312(sp)
 8007200:	90cf883a 	add	r7,r18,r3
 8007204:	1480960e 	bge	r2,r18,8007460 <___vfprintf_internal_r+0x1e0c>
 8007208:	39c00044 	addi	r7,r7,1
 800720c:	d9c14515 	stw	r7,1300(sp)
 8007210:	38003416 	blt	r7,zero,80072e4 <___vfprintf_internal_r+0x1c90>
 8007214:	e0803fcc 	andi	r2,fp,255
 8007218:	1080201c 	xori	r2,r2,128
 800721c:	10bfe004 	addi	r2,r2,-128
 8007220:	10004e26 	beq	r2,zero,800735c <___vfprintf_internal_r+0x1d08>
 8007224:	00800b44 	movi	r2,45
 8007228:	dc814715 	stw	r18,1308(sp)
 800722c:	d8014615 	stw	zero,1304(sp)
 8007230:	d8800405 	stb	r2,16(sp)
 8007234:	003bab06 	br	80060e4 <___vfprintf_internal_r+0xa90>
 8007238:	00800b44 	movi	r2,45
 800723c:	d8800405 	stb	r2,16(sp)
 8007240:	003d2d06 	br	80066f8 <___vfprintf_internal_r+0x10a4>
 8007244:	d9014f17 	ldw	r4,1340(sp)
 8007248:	b00b883a 	mov	r5,r22
 800724c:	d9800c04 	addi	r6,sp,48
 8007250:	80055fc0 	call	80055fc <__sprint_r>
 8007254:	103ab71e 	bne	r2,zero,8005d34 <___vfprintf_internal_r+0x6e0>
 8007258:	003ab506 	br	8005d30 <___vfprintf_internal_r+0x6dc>
 800725c:	38800017 	ldw	r2,0(r7)
 8007260:	39c00104 	addi	r7,r7,4
 8007264:	d9c14015 	stw	r7,1280(sp)
 8007268:	d9414b17 	ldw	r5,1324(sp)
 800726c:	d9c14017 	ldw	r7,1280(sp)
 8007270:	11400015 	stw	r5,0(r2)
 8007274:	00395306 	br	80057c4 <___vfprintf_internal_r+0x170>
 8007278:	980f883a 	mov	r7,r19
 800727c:	dcc14515 	stw	r19,1300(sp)
 8007280:	d8014615 	stw	zero,1304(sp)
 8007284:	003b9506 	br	80060dc <___vfprintf_internal_r+0xa88>
 8007288:	0027883a 	mov	r19,zero
 800728c:	00397206 	br	8005858 <___vfprintf_internal_r+0x204>
 8007290:	00c20074 	movhi	r3,2049
 8007294:	18d42004 	addi	r3,r3,20608
 8007298:	100f883a 	mov	r7,r2
 800729c:	d8814515 	stw	r2,1300(sp)
 80072a0:	d8c14115 	stw	r3,1284(sp)
 80072a4:	0039da06 	br	8005a10 <___vfprintf_internal_r+0x3bc>
 80072a8:	00820074 	movhi	r2,2049
 80072ac:	10941f04 	addi	r2,r2,20604
 80072b0:	d8814115 	stw	r2,1284(sp)
 80072b4:	003d1606 	br	8006710 <___vfprintf_internal_r+0x10bc>
 80072b8:	d9414d17 	ldw	r5,1332(sp)
 80072bc:	00801984 	movi	r2,102
 80072c0:	28804926 	beq	r5,r2,80073e8 <___vfprintf_internal_r+0x1d94>
 80072c4:	200f883a 	mov	r7,r4
 80072c8:	24805716 	blt	r4,r18,8007428 <___vfprintf_internal_r+0x1dd4>
 80072cc:	d9414c17 	ldw	r5,1328(sp)
 80072d0:	2880004c 	andi	r2,r5,1
 80072d4:	10000126 	beq	r2,zero,80072dc <___vfprintf_internal_r+0x1c88>
 80072d8:	21c00044 	addi	r7,r4,1
 80072dc:	d9c14515 	stw	r7,1300(sp)
 80072e0:	383fcc0e 	bge	r7,zero,8007214 <___vfprintf_internal_r+0x1bc0>
 80072e4:	d8014515 	stw	zero,1300(sp)
 80072e8:	003fca06 	br	8007214 <___vfprintf_internal_r+0x1bc0>
 80072ec:	d9000517 	ldw	r4,20(sp)
 80072f0:	00bfff04 	movi	r2,-4
 80072f4:	1100480e 	bge	r2,r4,8007418 <___vfprintf_internal_r+0x1dc4>
 80072f8:	99004716 	blt	r19,r4,8007418 <___vfprintf_internal_r+0x1dc4>
 80072fc:	d8c14d15 	stw	r3,1332(sp)
 8007300:	003ff006 	br	80072c4 <___vfprintf_internal_r+0x1c70>
 8007304:	d8800717 	ldw	r2,28(sp)
 8007308:	14bf8b2e 	bgeu	r2,r18,8007138 <___vfprintf_internal_r+0x1ae4>
 800730c:	9007883a 	mov	r3,r18
 8007310:	01000c04 	movi	r4,48
 8007314:	11000005 	stb	r4,0(r2)
 8007318:	10800044 	addi	r2,r2,1
 800731c:	d8800715 	stw	r2,28(sp)
 8007320:	18bffc1e 	bne	r3,r2,8007314 <___vfprintf_internal_r+0x1cc0>
 8007324:	003f8406 	br	8007138 <___vfprintf_internal_r+0x1ae4>
 8007328:	d8814117 	ldw	r2,1284(sp)
 800732c:	10c00007 	ldb	r3,0(r2)
 8007330:	00800c04 	movi	r2,48
 8007334:	18805b26 	beq	r3,r2,80074a4 <___vfprintf_internal_r+0x1e50>
 8007338:	d9000517 	ldw	r4,20(sp)
 800733c:	9125883a 	add	r18,r18,r4
 8007340:	003f7506 	br	8007118 <___vfprintf_internal_r+0x1ac4>
 8007344:	d9014c17 	ldw	r4,1328(sp)
 8007348:	2080004c 	andi	r2,r4,1
 800734c:	1005003a 	cmpeq	r2,r2,zero
 8007350:	103f6a26 	beq	r2,zero,80070fc <___vfprintf_internal_r+0x1aa8>
 8007354:	d8800717 	ldw	r2,28(sp)
 8007358:	003f7706 	br	8007138 <___vfprintf_internal_r+0x1ae4>
 800735c:	d9c14515 	stw	r7,1300(sp)
 8007360:	38004d16 	blt	r7,zero,8007498 <___vfprintf_internal_r+0x1e44>
 8007364:	dc814715 	stw	r18,1308(sp)
 8007368:	d8014615 	stw	zero,1304(sp)
 800736c:	003b5b06 	br	80060dc <___vfprintf_internal_r+0xa88>
 8007370:	d9014f17 	ldw	r4,1340(sp)
 8007374:	d8800504 	addi	r2,sp,20
 8007378:	d8800115 	stw	r2,4(sp)
 800737c:	d8c00604 	addi	r3,sp,24
 8007380:	d8800704 	addi	r2,sp,28
 8007384:	800b883a 	mov	r5,r16
 8007388:	880d883a 	mov	r6,r17
 800738c:	01c000c4 	movi	r7,3
 8007390:	d8c00215 	stw	r3,8(sp)
 8007394:	d8800315 	stw	r2,12(sp)
 8007398:	dcc00015 	stw	r19,0(sp)
 800739c:	9829883a 	mov	r20,r19
 80073a0:	80079a40 	call	80079a4 <_dtoa_r>
 80073a4:	d8814115 	stw	r2,1284(sp)
 80073a8:	003f5106 	br	80070f0 <___vfprintf_internal_r+0x1a9c>
 80073ac:	d8c14217 	ldw	r3,1288(sp)
 80073b0:	d9014317 	ldw	r4,1292(sp)
 80073b4:	07000b44 	movi	fp,45
 80073b8:	1821883a 	mov	r16,r3
 80073bc:	2460003c 	xorhi	r17,r4,32768
 80073c0:	003f3106 	br	8007088 <___vfprintf_internal_r+0x1a34>
 80073c4:	9d000044 	addi	r20,r19,1
 80073c8:	003f3906 	br	80070b0 <___vfprintf_internal_r+0x1a5c>
 80073cc:	983f251e 	bne	r19,zero,8007064 <___vfprintf_internal_r+0x1a10>
 80073d0:	04c00044 	movi	r19,1
 80073d4:	003f2306 	br	8007064 <___vfprintf_internal_r+0x1a10>
 80073d8:	04c00184 	movi	r19,6
 80073dc:	003f2106 	br	8007064 <___vfprintf_internal_r+0x1a10>
 80073e0:	d8014515 	stw	zero,1300(sp)
 80073e4:	003eee06 	br	8006fa0 <___vfprintf_internal_r+0x194c>
 80073e8:	200f883a 	mov	r7,r4
 80073ec:	0100370e 	bge	zero,r4,80074cc <___vfprintf_internal_r+0x1e78>
 80073f0:	9800031e 	bne	r19,zero,8007400 <___vfprintf_internal_r+0x1dac>
 80073f4:	d9814c17 	ldw	r6,1328(sp)
 80073f8:	3080004c 	andi	r2,r6,1
 80073fc:	103fb726 	beq	r2,zero,80072dc <___vfprintf_internal_r+0x1c88>
 8007400:	20800044 	addi	r2,r4,1
 8007404:	98a7883a 	add	r19,r19,r2
 8007408:	dcc14515 	stw	r19,1300(sp)
 800740c:	980f883a 	mov	r7,r19
 8007410:	983f800e 	bge	r19,zero,8007214 <___vfprintf_internal_r+0x1bc0>
 8007414:	003fb306 	br	80072e4 <___vfprintf_internal_r+0x1c90>
 8007418:	d9814d17 	ldw	r6,1332(sp)
 800741c:	31bfff84 	addi	r6,r6,-2
 8007420:	d9814d15 	stw	r6,1332(sp)
 8007424:	003f4c06 	br	8007158 <___vfprintf_internal_r+0x1b04>
 8007428:	0100180e 	bge	zero,r4,800748c <___vfprintf_internal_r+0x1e38>
 800742c:	00800044 	movi	r2,1
 8007430:	1485883a 	add	r2,r2,r18
 8007434:	d8814515 	stw	r2,1300(sp)
 8007438:	100f883a 	mov	r7,r2
 800743c:	103f750e 	bge	r2,zero,8007214 <___vfprintf_internal_r+0x1bc0>
 8007440:	003fa806 	br	80072e4 <___vfprintf_internal_r+0x1c90>
 8007444:	80c00c04 	addi	r3,r16,48
 8007448:	00800c04 	movi	r2,48
 800744c:	d8c008c5 	stb	r3,35(sp)
 8007450:	d9800804 	addi	r6,sp,32
 8007454:	d8c00904 	addi	r3,sp,36
 8007458:	d8800885 	stb	r2,34(sp)
 800745c:	003f6506 	br	80071f4 <___vfprintf_internal_r+0x1ba0>
 8007460:	d9014c17 	ldw	r4,1328(sp)
 8007464:	2084703a 	and	r2,r4,r2
 8007468:	103f9c26 	beq	r2,zero,80072dc <___vfprintf_internal_r+0x1c88>
 800746c:	003f6606 	br	8007208 <___vfprintf_internal_r+0x1bb4>
 8007470:	d9800804 	addi	r6,sp,32
 8007474:	d8c00884 	addi	r3,sp,34
 8007478:	003f5e06 	br	80071f4 <___vfprintf_internal_r+0x1ba0>
 800747c:	00800b44 	movi	r2,45
 8007480:	0121c83a 	sub	r16,zero,r4
 8007484:	d8800845 	stb	r2,33(sp)
 8007488:	003f3d06 	br	8007180 <___vfprintf_internal_r+0x1b2c>
 800748c:	00800084 	movi	r2,2
 8007490:	1105c83a 	sub	r2,r2,r4
 8007494:	003fe606 	br	8007430 <___vfprintf_internal_r+0x1ddc>
 8007498:	d8014515 	stw	zero,1300(sp)
 800749c:	dc814715 	stw	r18,1308(sp)
 80074a0:	003fb106 	br	8007368 <___vfprintf_internal_r+0x1d14>
 80074a4:	000d883a 	mov	r6,zero
 80074a8:	000f883a 	mov	r7,zero
 80074ac:	8009883a 	mov	r4,r16
 80074b0:	880b883a 	mov	r5,r17
 80074b4:	800d17c0 	call	800d17c <__nedf2>
 80074b8:	103f9f26 	beq	r2,zero,8007338 <___vfprintf_internal_r+0x1ce4>
 80074bc:	00800044 	movi	r2,1
 80074c0:	1509c83a 	sub	r4,r2,r20
 80074c4:	d9000515 	stw	r4,20(sp)
 80074c8:	003f9b06 	br	8007338 <___vfprintf_internal_r+0x1ce4>
 80074cc:	98000d1e 	bne	r19,zero,8007504 <___vfprintf_internal_r+0x1eb0>
 80074d0:	d8c14c17 	ldw	r3,1328(sp)
 80074d4:	1880004c 	andi	r2,r3,1
 80074d8:	10000a1e 	bne	r2,zero,8007504 <___vfprintf_internal_r+0x1eb0>
 80074dc:	01000044 	movi	r4,1
 80074e0:	200f883a 	mov	r7,r4
 80074e4:	d9014515 	stw	r4,1300(sp)
 80074e8:	003f4a06 	br	8007214 <___vfprintf_internal_r+0x1bc0>
 80074ec:	3cc00017 	ldw	r19,0(r7)
 80074f0:	39c00104 	addi	r7,r7,4
 80074f4:	983d0e0e 	bge	r19,zero,8006930 <___vfprintf_internal_r+0x12dc>
 80074f8:	b8c00007 	ldb	r3,0(r23)
 80074fc:	04ffffc4 	movi	r19,-1
 8007500:	0038d306 	br	8005850 <___vfprintf_internal_r+0x1fc>
 8007504:	9cc00084 	addi	r19,r19,2
 8007508:	dcc14515 	stw	r19,1300(sp)
 800750c:	980f883a 	mov	r7,r19
 8007510:	983f400e 	bge	r19,zero,8007214 <___vfprintf_internal_r+0x1bc0>
 8007514:	003f7306 	br	80072e4 <___vfprintf_internal_r+0x1c90>

08007518 <__vfprintf_internal>:
 8007518:	00820074 	movhi	r2,2049
 800751c:	109b8304 	addi	r2,r2,28172
 8007520:	2013883a 	mov	r9,r4
 8007524:	11000017 	ldw	r4,0(r2)
 8007528:	2805883a 	mov	r2,r5
 800752c:	300f883a 	mov	r7,r6
 8007530:	480b883a 	mov	r5,r9
 8007534:	100d883a 	mov	r6,r2
 8007538:	80056541 	jmpi	8005654 <___vfprintf_internal_r>

0800753c <_write_r>:
 800753c:	defffd04 	addi	sp,sp,-12
 8007540:	dc000015 	stw	r16,0(sp)
 8007544:	040200b4 	movhi	r16,2050
 8007548:	84223b04 	addi	r16,r16,-30484
 800754c:	dc400115 	stw	r17,4(sp)
 8007550:	80000015 	stw	zero,0(r16)
 8007554:	2023883a 	mov	r17,r4
 8007558:	2809883a 	mov	r4,r5
 800755c:	300b883a 	mov	r5,r6
 8007560:	380d883a 	mov	r6,r7
 8007564:	dfc00215 	stw	ra,8(sp)
 8007568:	800e8c80 	call	800e8c8 <write>
 800756c:	1007883a 	mov	r3,r2
 8007570:	00bfffc4 	movi	r2,-1
 8007574:	18800626 	beq	r3,r2,8007590 <_write_r+0x54>
 8007578:	1805883a 	mov	r2,r3
 800757c:	dfc00217 	ldw	ra,8(sp)
 8007580:	dc400117 	ldw	r17,4(sp)
 8007584:	dc000017 	ldw	r16,0(sp)
 8007588:	dec00304 	addi	sp,sp,12
 800758c:	f800283a 	ret
 8007590:	80800017 	ldw	r2,0(r16)
 8007594:	103ff826 	beq	r2,zero,8007578 <_write_r+0x3c>
 8007598:	88800015 	stw	r2,0(r17)
 800759c:	1805883a 	mov	r2,r3
 80075a0:	dfc00217 	ldw	ra,8(sp)
 80075a4:	dc400117 	ldw	r17,4(sp)
 80075a8:	dc000017 	ldw	r16,0(sp)
 80075ac:	dec00304 	addi	sp,sp,12
 80075b0:	f800283a 	ret

080075b4 <__swsetup_r>:
 80075b4:	00820074 	movhi	r2,2049
 80075b8:	109b8304 	addi	r2,r2,28172
 80075bc:	10c00017 	ldw	r3,0(r2)
 80075c0:	defffd04 	addi	sp,sp,-12
 80075c4:	dc400115 	stw	r17,4(sp)
 80075c8:	dc000015 	stw	r16,0(sp)
 80075cc:	dfc00215 	stw	ra,8(sp)
 80075d0:	2023883a 	mov	r17,r4
 80075d4:	2821883a 	mov	r16,r5
 80075d8:	18000226 	beq	r3,zero,80075e4 <__swsetup_r+0x30>
 80075dc:	18800e17 	ldw	r2,56(r3)
 80075e0:	10001f26 	beq	r2,zero,8007660 <__swsetup_r+0xac>
 80075e4:	8100030b 	ldhu	r4,12(r16)
 80075e8:	2080020c 	andi	r2,r4,8
 80075ec:	10002826 	beq	r2,zero,8007690 <__swsetup_r+0xdc>
 80075f0:	81400417 	ldw	r5,16(r16)
 80075f4:	28001d26 	beq	r5,zero,800766c <__swsetup_r+0xb8>
 80075f8:	2080004c 	andi	r2,r4,1
 80075fc:	1005003a 	cmpeq	r2,r2,zero
 8007600:	10000b26 	beq	r2,zero,8007630 <__swsetup_r+0x7c>
 8007604:	2080008c 	andi	r2,r4,2
 8007608:	10001226 	beq	r2,zero,8007654 <__swsetup_r+0xa0>
 800760c:	0005883a 	mov	r2,zero
 8007610:	80800215 	stw	r2,8(r16)
 8007614:	28000b26 	beq	r5,zero,8007644 <__swsetup_r+0x90>
 8007618:	0005883a 	mov	r2,zero
 800761c:	dfc00217 	ldw	ra,8(sp)
 8007620:	dc400117 	ldw	r17,4(sp)
 8007624:	dc000017 	ldw	r16,0(sp)
 8007628:	dec00304 	addi	sp,sp,12
 800762c:	f800283a 	ret
 8007630:	80800517 	ldw	r2,20(r16)
 8007634:	80000215 	stw	zero,8(r16)
 8007638:	0085c83a 	sub	r2,zero,r2
 800763c:	80800615 	stw	r2,24(r16)
 8007640:	283ff51e 	bne	r5,zero,8007618 <__swsetup_r+0x64>
 8007644:	2080200c 	andi	r2,r4,128
 8007648:	103ff326 	beq	r2,zero,8007618 <__swsetup_r+0x64>
 800764c:	00bfffc4 	movi	r2,-1
 8007650:	003ff206 	br	800761c <__swsetup_r+0x68>
 8007654:	80800517 	ldw	r2,20(r16)
 8007658:	80800215 	stw	r2,8(r16)
 800765c:	003fed06 	br	8007614 <__swsetup_r+0x60>
 8007660:	1809883a 	mov	r4,r3
 8007664:	80043300 	call	8004330 <__sinit>
 8007668:	003fde06 	br	80075e4 <__swsetup_r+0x30>
 800766c:	20c0a00c 	andi	r3,r4,640
 8007670:	00808004 	movi	r2,512
 8007674:	18bfe026 	beq	r3,r2,80075f8 <__swsetup_r+0x44>
 8007678:	8809883a 	mov	r4,r17
 800767c:	800b883a 	mov	r5,r16
 8007680:	8009cc40 	call	8009cc4 <__smakebuf_r>
 8007684:	8100030b 	ldhu	r4,12(r16)
 8007688:	81400417 	ldw	r5,16(r16)
 800768c:	003fda06 	br	80075f8 <__swsetup_r+0x44>
 8007690:	2080040c 	andi	r2,r4,16
 8007694:	103fed26 	beq	r2,zero,800764c <__swsetup_r+0x98>
 8007698:	2080010c 	andi	r2,r4,4
 800769c:	10001226 	beq	r2,zero,80076e8 <__swsetup_r+0x134>
 80076a0:	81400c17 	ldw	r5,48(r16)
 80076a4:	28000526 	beq	r5,zero,80076bc <__swsetup_r+0x108>
 80076a8:	80801004 	addi	r2,r16,64
 80076ac:	28800226 	beq	r5,r2,80076b8 <__swsetup_r+0x104>
 80076b0:	8809883a 	mov	r4,r17
 80076b4:	80093d80 	call	80093d8 <_free_r>
 80076b8:	80000c15 	stw	zero,48(r16)
 80076bc:	8080030b 	ldhu	r2,12(r16)
 80076c0:	81400417 	ldw	r5,16(r16)
 80076c4:	80000115 	stw	zero,4(r16)
 80076c8:	10bff6cc 	andi	r2,r2,65499
 80076cc:	8080030d 	sth	r2,12(r16)
 80076d0:	81400015 	stw	r5,0(r16)
 80076d4:	8080030b 	ldhu	r2,12(r16)
 80076d8:	10800214 	ori	r2,r2,8
 80076dc:	113fffcc 	andi	r4,r2,65535
 80076e0:	8080030d 	sth	r2,12(r16)
 80076e4:	003fc306 	br	80075f4 <__swsetup_r+0x40>
 80076e8:	81400417 	ldw	r5,16(r16)
 80076ec:	003ff906 	br	80076d4 <__swsetup_r+0x120>

080076f0 <_close_r>:
 80076f0:	defffd04 	addi	sp,sp,-12
 80076f4:	dc000015 	stw	r16,0(sp)
 80076f8:	040200b4 	movhi	r16,2050
 80076fc:	84223b04 	addi	r16,r16,-30484
 8007700:	dc400115 	stw	r17,4(sp)
 8007704:	80000015 	stw	zero,0(r16)
 8007708:	2023883a 	mov	r17,r4
 800770c:	2809883a 	mov	r4,r5
 8007710:	dfc00215 	stw	ra,8(sp)
 8007714:	800df3c0 	call	800df3c <close>
 8007718:	1007883a 	mov	r3,r2
 800771c:	00bfffc4 	movi	r2,-1
 8007720:	18800626 	beq	r3,r2,800773c <_close_r+0x4c>
 8007724:	1805883a 	mov	r2,r3
 8007728:	dfc00217 	ldw	ra,8(sp)
 800772c:	dc400117 	ldw	r17,4(sp)
 8007730:	dc000017 	ldw	r16,0(sp)
 8007734:	dec00304 	addi	sp,sp,12
 8007738:	f800283a 	ret
 800773c:	80800017 	ldw	r2,0(r16)
 8007740:	103ff826 	beq	r2,zero,8007724 <_close_r+0x34>
 8007744:	88800015 	stw	r2,0(r17)
 8007748:	1805883a 	mov	r2,r3
 800774c:	dfc00217 	ldw	ra,8(sp)
 8007750:	dc400117 	ldw	r17,4(sp)
 8007754:	dc000017 	ldw	r16,0(sp)
 8007758:	dec00304 	addi	sp,sp,12
 800775c:	f800283a 	ret

08007760 <quorem>:
 8007760:	28c00417 	ldw	r3,16(r5)
 8007764:	20800417 	ldw	r2,16(r4)
 8007768:	defff104 	addi	sp,sp,-60
 800776c:	dfc00e15 	stw	ra,56(sp)
 8007770:	df000d15 	stw	fp,52(sp)
 8007774:	ddc00c15 	stw	r23,48(sp)
 8007778:	dd800b15 	stw	r22,44(sp)
 800777c:	dd400a15 	stw	r21,40(sp)
 8007780:	dd000915 	stw	r20,36(sp)
 8007784:	dcc00815 	stw	r19,32(sp)
 8007788:	dc800715 	stw	r18,28(sp)
 800778c:	dc400615 	stw	r17,24(sp)
 8007790:	dc000515 	stw	r16,20(sp)
 8007794:	d9000315 	stw	r4,12(sp)
 8007798:	d9400415 	stw	r5,16(sp)
 800779c:	10c07f16 	blt	r2,r3,800799c <quorem+0x23c>
 80077a0:	1d3fffc4 	addi	r20,r3,-1
 80077a4:	d8c00417 	ldw	r3,16(sp)
 80077a8:	d9000317 	ldw	r4,12(sp)
 80077ac:	a505883a 	add	r2,r20,r20
 80077b0:	1085883a 	add	r2,r2,r2
 80077b4:	1cc00504 	addi	r19,r3,20
 80077b8:	25c00504 	addi	r23,r4,20
 80077bc:	98ad883a 	add	r22,r19,r2
 80077c0:	15c7883a 	add	r3,r2,r23
 80077c4:	b1400017 	ldw	r5,0(r22)
 80077c8:	19000017 	ldw	r4,0(r3)
 80077cc:	d8c00015 	stw	r3,0(sp)
 80077d0:	29400044 	addi	r5,r5,1
 80077d4:	d9000215 	stw	r4,8(sp)
 80077d8:	800d83c0 	call	800d83c <__udivsi3>
 80077dc:	1039883a 	mov	fp,r2
 80077e0:	10003d1e 	bne	r2,zero,80078d8 <quorem+0x178>
 80077e4:	d9400417 	ldw	r5,16(sp)
 80077e8:	d9000317 	ldw	r4,12(sp)
 80077ec:	800a0940 	call	800a094 <__mcmp>
 80077f0:	10002c16 	blt	r2,zero,80078a4 <quorem+0x144>
 80077f4:	e7000044 	addi	fp,fp,1
 80077f8:	b80f883a 	mov	r7,r23
 80077fc:	0011883a 	mov	r8,zero
 8007800:	0009883a 	mov	r4,zero
 8007804:	99400017 	ldw	r5,0(r19)
 8007808:	38c00017 	ldw	r3,0(r7)
 800780c:	9cc00104 	addi	r19,r19,4
 8007810:	28bfffcc 	andi	r2,r5,65535
 8007814:	2085883a 	add	r2,r4,r2
 8007818:	11bfffcc 	andi	r6,r2,65535
 800781c:	193fffcc 	andi	r4,r3,65535
 8007820:	1004d43a 	srli	r2,r2,16
 8007824:	280ad43a 	srli	r5,r5,16
 8007828:	2189c83a 	sub	r4,r4,r6
 800782c:	2209883a 	add	r4,r4,r8
 8007830:	1806d43a 	srli	r3,r3,16
 8007834:	288b883a 	add	r5,r5,r2
 8007838:	200dd43a 	srai	r6,r4,16
 800783c:	28bfffcc 	andi	r2,r5,65535
 8007840:	1887c83a 	sub	r3,r3,r2
 8007844:	1987883a 	add	r3,r3,r6
 8007848:	3900000d 	sth	r4,0(r7)
 800784c:	38c0008d 	sth	r3,2(r7)
 8007850:	2808d43a 	srli	r4,r5,16
 8007854:	39c00104 	addi	r7,r7,4
 8007858:	1811d43a 	srai	r8,r3,16
 800785c:	b4ffe92e 	bgeu	r22,r19,8007804 <quorem+0xa4>
 8007860:	a505883a 	add	r2,r20,r20
 8007864:	1085883a 	add	r2,r2,r2
 8007868:	b885883a 	add	r2,r23,r2
 800786c:	10c00017 	ldw	r3,0(r2)
 8007870:	18000c1e 	bne	r3,zero,80078a4 <quorem+0x144>
 8007874:	113fff04 	addi	r4,r2,-4
 8007878:	b900082e 	bgeu	r23,r4,800789c <quorem+0x13c>
 800787c:	10bfff17 	ldw	r2,-4(r2)
 8007880:	10000326 	beq	r2,zero,8007890 <quorem+0x130>
 8007884:	00000506 	br	800789c <quorem+0x13c>
 8007888:	20800017 	ldw	r2,0(r4)
 800788c:	1000031e 	bne	r2,zero,800789c <quorem+0x13c>
 8007890:	213fff04 	addi	r4,r4,-4
 8007894:	a53fffc4 	addi	r20,r20,-1
 8007898:	b93ffb36 	bltu	r23,r4,8007888 <quorem+0x128>
 800789c:	d9000317 	ldw	r4,12(sp)
 80078a0:	25000415 	stw	r20,16(r4)
 80078a4:	e005883a 	mov	r2,fp
 80078a8:	dfc00e17 	ldw	ra,56(sp)
 80078ac:	df000d17 	ldw	fp,52(sp)
 80078b0:	ddc00c17 	ldw	r23,48(sp)
 80078b4:	dd800b17 	ldw	r22,44(sp)
 80078b8:	dd400a17 	ldw	r21,40(sp)
 80078bc:	dd000917 	ldw	r20,36(sp)
 80078c0:	dcc00817 	ldw	r19,32(sp)
 80078c4:	dc800717 	ldw	r18,28(sp)
 80078c8:	dc400617 	ldw	r17,24(sp)
 80078cc:	dc000517 	ldw	r16,20(sp)
 80078d0:	dec00f04 	addi	sp,sp,60
 80078d4:	f800283a 	ret
 80078d8:	b823883a 	mov	r17,r23
 80078dc:	9825883a 	mov	r18,r19
 80078e0:	d8000115 	stw	zero,4(sp)
 80078e4:	002b883a 	mov	r21,zero
 80078e8:	94000017 	ldw	r16,0(r18)
 80078ec:	e009883a 	mov	r4,fp
 80078f0:	94800104 	addi	r18,r18,4
 80078f4:	817fffcc 	andi	r5,r16,65535
 80078f8:	800d84c0 	call	800d84c <__mulsi3>
 80078fc:	800ad43a 	srli	r5,r16,16
 8007900:	e009883a 	mov	r4,fp
 8007904:	a8a1883a 	add	r16,r21,r2
 8007908:	800d84c0 	call	800d84c <__mulsi3>
 800790c:	89000017 	ldw	r4,0(r17)
 8007910:	80ffffcc 	andi	r3,r16,65535
 8007914:	8020d43a 	srli	r16,r16,16
 8007918:	217fffcc 	andi	r5,r4,65535
 800791c:	28cbc83a 	sub	r5,r5,r3
 8007920:	d8c00117 	ldw	r3,4(sp)
 8007924:	2008d43a 	srli	r4,r4,16
 8007928:	1405883a 	add	r2,r2,r16
 800792c:	28cb883a 	add	r5,r5,r3
 8007930:	280dd43a 	srai	r6,r5,16
 8007934:	10ffffcc 	andi	r3,r2,65535
 8007938:	20c9c83a 	sub	r4,r4,r3
 800793c:	2189883a 	add	r4,r4,r6
 8007940:	8900008d 	sth	r4,2(r17)
 8007944:	2009d43a 	srai	r4,r4,16
 8007948:	8940000d 	sth	r5,0(r17)
 800794c:	102ad43a 	srli	r21,r2,16
 8007950:	8c400104 	addi	r17,r17,4
 8007954:	d9000115 	stw	r4,4(sp)
 8007958:	b4bfe32e 	bgeu	r22,r18,80078e8 <quorem+0x188>
 800795c:	d9000217 	ldw	r4,8(sp)
 8007960:	203fa01e 	bne	r4,zero,80077e4 <quorem+0x84>
 8007964:	d8800017 	ldw	r2,0(sp)
 8007968:	10ffff04 	addi	r3,r2,-4
 800796c:	b8c0082e 	bgeu	r23,r3,8007990 <quorem+0x230>
 8007970:	10bfff17 	ldw	r2,-4(r2)
 8007974:	10000326 	beq	r2,zero,8007984 <quorem+0x224>
 8007978:	00000506 	br	8007990 <quorem+0x230>
 800797c:	18800017 	ldw	r2,0(r3)
 8007980:	1000031e 	bne	r2,zero,8007990 <quorem+0x230>
 8007984:	18ffff04 	addi	r3,r3,-4
 8007988:	a53fffc4 	addi	r20,r20,-1
 800798c:	b8fffb36 	bltu	r23,r3,800797c <quorem+0x21c>
 8007990:	d8c00317 	ldw	r3,12(sp)
 8007994:	1d000415 	stw	r20,16(r3)
 8007998:	003f9206 	br	80077e4 <quorem+0x84>
 800799c:	0005883a 	mov	r2,zero
 80079a0:	003fc106 	br	80078a8 <quorem+0x148>

080079a4 <_dtoa_r>:
 80079a4:	22001017 	ldw	r8,64(r4)
 80079a8:	deffda04 	addi	sp,sp,-152
 80079ac:	dd402115 	stw	r21,132(sp)
 80079b0:	dd002015 	stw	r20,128(sp)
 80079b4:	dc801e15 	stw	r18,120(sp)
 80079b8:	dc401d15 	stw	r17,116(sp)
 80079bc:	dfc02515 	stw	ra,148(sp)
 80079c0:	df002415 	stw	fp,144(sp)
 80079c4:	ddc02315 	stw	r23,140(sp)
 80079c8:	dd802215 	stw	r22,136(sp)
 80079cc:	dcc01f15 	stw	r19,124(sp)
 80079d0:	dc001c15 	stw	r16,112(sp)
 80079d4:	d9001615 	stw	r4,88(sp)
 80079d8:	3023883a 	mov	r17,r6
 80079dc:	2829883a 	mov	r20,r5
 80079e0:	d9c01715 	stw	r7,92(sp)
 80079e4:	dc802817 	ldw	r18,160(sp)
 80079e8:	302b883a 	mov	r21,r6
 80079ec:	40000a26 	beq	r8,zero,8007a18 <_dtoa_r+0x74>
 80079f0:	20801117 	ldw	r2,68(r4)
 80079f4:	400b883a 	mov	r5,r8
 80079f8:	40800115 	stw	r2,4(r8)
 80079fc:	20c01117 	ldw	r3,68(r4)
 8007a00:	00800044 	movi	r2,1
 8007a04:	10c4983a 	sll	r2,r2,r3
 8007a08:	40800215 	stw	r2,8(r8)
 8007a0c:	8009f380 	call	8009f38 <_Bfree>
 8007a10:	d8c01617 	ldw	r3,88(sp)
 8007a14:	18001015 	stw	zero,64(r3)
 8007a18:	8800a316 	blt	r17,zero,8007ca8 <_dtoa_r+0x304>
 8007a1c:	90000015 	stw	zero,0(r18)
 8007a20:	a8dffc2c 	andhi	r3,r21,32752
 8007a24:	009ffc34 	movhi	r2,32752
 8007a28:	18809126 	beq	r3,r2,8007c70 <_dtoa_r+0x2cc>
 8007a2c:	000d883a 	mov	r6,zero
 8007a30:	000f883a 	mov	r7,zero
 8007a34:	a009883a 	mov	r4,r20
 8007a38:	a80b883a 	mov	r5,r21
 8007a3c:	dd001215 	stw	r20,72(sp)
 8007a40:	dd401315 	stw	r21,76(sp)
 8007a44:	800d17c0 	call	800d17c <__nedf2>
 8007a48:	1000171e 	bne	r2,zero,8007aa8 <_dtoa_r+0x104>
 8007a4c:	d9802717 	ldw	r6,156(sp)
 8007a50:	00800044 	movi	r2,1
 8007a54:	30800015 	stw	r2,0(r6)
 8007a58:	d8802917 	ldw	r2,164(sp)
 8007a5c:	10029b26 	beq	r2,zero,80084cc <_dtoa_r+0xb28>
 8007a60:	d9002917 	ldw	r4,164(sp)
 8007a64:	00820074 	movhi	r2,2049
 8007a68:	10942e44 	addi	r2,r2,20665
 8007a6c:	10ffffc4 	addi	r3,r2,-1
 8007a70:	20800015 	stw	r2,0(r4)
 8007a74:	1805883a 	mov	r2,r3
 8007a78:	dfc02517 	ldw	ra,148(sp)
 8007a7c:	df002417 	ldw	fp,144(sp)
 8007a80:	ddc02317 	ldw	r23,140(sp)
 8007a84:	dd802217 	ldw	r22,136(sp)
 8007a88:	dd402117 	ldw	r21,132(sp)
 8007a8c:	dd002017 	ldw	r20,128(sp)
 8007a90:	dcc01f17 	ldw	r19,124(sp)
 8007a94:	dc801e17 	ldw	r18,120(sp)
 8007a98:	dc401d17 	ldw	r17,116(sp)
 8007a9c:	dc001c17 	ldw	r16,112(sp)
 8007aa0:	dec02604 	addi	sp,sp,152
 8007aa4:	f800283a 	ret
 8007aa8:	d9001617 	ldw	r4,88(sp)
 8007aac:	d9401217 	ldw	r5,72(sp)
 8007ab0:	d8800104 	addi	r2,sp,4
 8007ab4:	a80d883a 	mov	r6,r21
 8007ab8:	d9c00204 	addi	r7,sp,8
 8007abc:	d8800015 	stw	r2,0(sp)
 8007ac0:	800a5740 	call	800a574 <__d2b>
 8007ac4:	d8800715 	stw	r2,28(sp)
 8007ac8:	a804d53a 	srli	r2,r21,20
 8007acc:	1101ffcc 	andi	r4,r2,2047
 8007ad0:	20008626 	beq	r4,zero,8007cec <_dtoa_r+0x348>
 8007ad4:	d8c01217 	ldw	r3,72(sp)
 8007ad8:	00800434 	movhi	r2,16
 8007adc:	10bfffc4 	addi	r2,r2,-1
 8007ae0:	ddc00117 	ldw	r23,4(sp)
 8007ae4:	a884703a 	and	r2,r21,r2
 8007ae8:	1811883a 	mov	r8,r3
 8007aec:	124ffc34 	orhi	r9,r2,16368
 8007af0:	25bf0044 	addi	r22,r4,-1023
 8007af4:	d8000815 	stw	zero,32(sp)
 8007af8:	0005883a 	mov	r2,zero
 8007afc:	00cffe34 	movhi	r3,16376
 8007b00:	480b883a 	mov	r5,r9
 8007b04:	4009883a 	mov	r4,r8
 8007b08:	180f883a 	mov	r7,r3
 8007b0c:	100d883a 	mov	r6,r2
 8007b10:	800c9e40 	call	800c9e4 <__subdf3>
 8007b14:	0218dbf4 	movhi	r8,25455
 8007b18:	4210d844 	addi	r8,r8,17249
 8007b1c:	024ff4f4 	movhi	r9,16339
 8007b20:	4a61e9c4 	addi	r9,r9,-30809
 8007b24:	480f883a 	mov	r7,r9
 8007b28:	400d883a 	mov	r6,r8
 8007b2c:	180b883a 	mov	r5,r3
 8007b30:	1009883a 	mov	r4,r2
 8007b34:	800cad80 	call	800cad8 <__muldf3>
 8007b38:	0222d874 	movhi	r8,35681
 8007b3c:	42322cc4 	addi	r8,r8,-14157
 8007b40:	024ff1f4 	movhi	r9,16327
 8007b44:	4a628a04 	addi	r9,r9,-30168
 8007b48:	480f883a 	mov	r7,r9
 8007b4c:	400d883a 	mov	r6,r8
 8007b50:	180b883a 	mov	r5,r3
 8007b54:	1009883a 	mov	r4,r2
 8007b58:	800ca640 	call	800ca64 <__adddf3>
 8007b5c:	b009883a 	mov	r4,r22
 8007b60:	1021883a 	mov	r16,r2
 8007b64:	1823883a 	mov	r17,r3
 8007b68:	800d39c0 	call	800d39c <__floatsidf>
 8007b6c:	021427f4 	movhi	r8,20639
 8007b70:	421e7ec4 	addi	r8,r8,31227
 8007b74:	024ff4f4 	movhi	r9,16339
 8007b78:	4a5104c4 	addi	r9,r9,17427
 8007b7c:	480f883a 	mov	r7,r9
 8007b80:	400d883a 	mov	r6,r8
 8007b84:	180b883a 	mov	r5,r3
 8007b88:	1009883a 	mov	r4,r2
 8007b8c:	800cad80 	call	800cad8 <__muldf3>
 8007b90:	180f883a 	mov	r7,r3
 8007b94:	880b883a 	mov	r5,r17
 8007b98:	100d883a 	mov	r6,r2
 8007b9c:	8009883a 	mov	r4,r16
 8007ba0:	800ca640 	call	800ca64 <__adddf3>
 8007ba4:	1009883a 	mov	r4,r2
 8007ba8:	180b883a 	mov	r5,r3
 8007bac:	1021883a 	mov	r16,r2
 8007bb0:	1823883a 	mov	r17,r3
 8007bb4:	800d4940 	call	800d494 <__fixdfsi>
 8007bb8:	000d883a 	mov	r6,zero
 8007bbc:	000f883a 	mov	r7,zero
 8007bc0:	8009883a 	mov	r4,r16
 8007bc4:	880b883a 	mov	r5,r17
 8007bc8:	d8800d15 	stw	r2,52(sp)
 8007bcc:	800d3140 	call	800d314 <__ltdf2>
 8007bd0:	10031716 	blt	r2,zero,8008830 <_dtoa_r+0xe8c>
 8007bd4:	d8c00d17 	ldw	r3,52(sp)
 8007bd8:	00800584 	movi	r2,22
 8007bdc:	10c1482e 	bgeu	r2,r3,8008100 <_dtoa_r+0x75c>
 8007be0:	01000044 	movi	r4,1
 8007be4:	d9000c15 	stw	r4,48(sp)
 8007be8:	bd85c83a 	sub	r2,r23,r22
 8007bec:	11bfffc4 	addi	r6,r2,-1
 8007bf0:	30030b16 	blt	r6,zero,8008820 <_dtoa_r+0xe7c>
 8007bf4:	d9800a15 	stw	r6,40(sp)
 8007bf8:	d8001115 	stw	zero,68(sp)
 8007bfc:	d8c00d17 	ldw	r3,52(sp)
 8007c00:	1802ff16 	blt	r3,zero,8008800 <_dtoa_r+0xe5c>
 8007c04:	d9000a17 	ldw	r4,40(sp)
 8007c08:	d8c00915 	stw	r3,36(sp)
 8007c0c:	d8001015 	stw	zero,64(sp)
 8007c10:	20c9883a 	add	r4,r4,r3
 8007c14:	d9000a15 	stw	r4,40(sp)
 8007c18:	d9001717 	ldw	r4,92(sp)
 8007c1c:	00800244 	movi	r2,9
 8007c20:	11004636 	bltu	r2,r4,8007d3c <_dtoa_r+0x398>
 8007c24:	00800144 	movi	r2,5
 8007c28:	11020416 	blt	r2,r4,800843c <_dtoa_r+0xa98>
 8007c2c:	04400044 	movi	r17,1
 8007c30:	d8c01717 	ldw	r3,92(sp)
 8007c34:	00800144 	movi	r2,5
 8007c38:	10c1ed36 	bltu	r2,r3,80083f0 <_dtoa_r+0xa4c>
 8007c3c:	18c5883a 	add	r2,r3,r3
 8007c40:	1085883a 	add	r2,r2,r2
 8007c44:	00c20034 	movhi	r3,2048
 8007c48:	18df1604 	addi	r3,r3,31832
 8007c4c:	10c5883a 	add	r2,r2,r3
 8007c50:	11000017 	ldw	r4,0(r2)
 8007c54:	2000683a 	jmp	r4
 8007c58:	08007d44 	addi	zero,at,501
 8007c5c:	08007d44 	addi	zero,at,501
 8007c60:	08008744 	addi	zero,at,541
 8007c64:	0800871c 	xori	zero,at,540
 8007c68:	08008760 	cmpeqi	zero,at,541
 8007c6c:	0800876c 	andhi	zero,at,541
 8007c70:	d9002717 	ldw	r4,156(sp)
 8007c74:	0089c3c4 	movi	r2,9999
 8007c78:	20800015 	stw	r2,0(r4)
 8007c7c:	a0001026 	beq	r20,zero,8007cc0 <_dtoa_r+0x31c>
 8007c80:	00c20074 	movhi	r3,2049
 8007c84:	18d43a04 	addi	r3,r3,20712
 8007c88:	d9802917 	ldw	r6,164(sp)
 8007c8c:	303f7926 	beq	r6,zero,8007a74 <_dtoa_r+0xd0>
 8007c90:	188000c7 	ldb	r2,3(r3)
 8007c94:	190000c4 	addi	r4,r3,3
 8007c98:	1000101e 	bne	r2,zero,8007cdc <_dtoa_r+0x338>
 8007c9c:	d8802917 	ldw	r2,164(sp)
 8007ca0:	11000015 	stw	r4,0(r2)
 8007ca4:	003f7306 	br	8007a74 <_dtoa_r+0xd0>
 8007ca8:	00a00034 	movhi	r2,32768
 8007cac:	10bfffc4 	addi	r2,r2,-1
 8007cb0:	00c00044 	movi	r3,1
 8007cb4:	88aa703a 	and	r21,r17,r2
 8007cb8:	90c00015 	stw	r3,0(r18)
 8007cbc:	003f5806 	br	8007a20 <_dtoa_r+0x7c>
 8007cc0:	00800434 	movhi	r2,16
 8007cc4:	10bfffc4 	addi	r2,r2,-1
 8007cc8:	a884703a 	and	r2,r21,r2
 8007ccc:	103fec1e 	bne	r2,zero,8007c80 <_dtoa_r+0x2dc>
 8007cd0:	00c20074 	movhi	r3,2049
 8007cd4:	18d43704 	addi	r3,r3,20700
 8007cd8:	003feb06 	br	8007c88 <_dtoa_r+0x2e4>
 8007cdc:	d8802917 	ldw	r2,164(sp)
 8007ce0:	19000204 	addi	r4,r3,8
 8007ce4:	11000015 	stw	r4,0(r2)
 8007ce8:	003f6206 	br	8007a74 <_dtoa_r+0xd0>
 8007cec:	ddc00117 	ldw	r23,4(sp)
 8007cf0:	d8800217 	ldw	r2,8(sp)
 8007cf4:	01000804 	movi	r4,32
 8007cf8:	b8c10c84 	addi	r3,r23,1074
 8007cfc:	18a3883a 	add	r17,r3,r2
 8007d00:	2441b80e 	bge	r4,r17,80083e4 <_dtoa_r+0xa40>
 8007d04:	00c01004 	movi	r3,64
 8007d08:	1c47c83a 	sub	r3,r3,r17
 8007d0c:	88bff804 	addi	r2,r17,-32
 8007d10:	a8c6983a 	sll	r3,r21,r3
 8007d14:	a084d83a 	srl	r2,r20,r2
 8007d18:	1888b03a 	or	r4,r3,r2
 8007d1c:	800d56c0 	call	800d56c <__floatunsidf>
 8007d20:	1011883a 	mov	r8,r2
 8007d24:	00bf8434 	movhi	r2,65040
 8007d28:	01000044 	movi	r4,1
 8007d2c:	10d3883a 	add	r9,r2,r3
 8007d30:	8dbef344 	addi	r22,r17,-1075
 8007d34:	d9000815 	stw	r4,32(sp)
 8007d38:	003f6f06 	br	8007af8 <_dtoa_r+0x154>
 8007d3c:	d8001715 	stw	zero,92(sp)
 8007d40:	04400044 	movi	r17,1
 8007d44:	00bfffc4 	movi	r2,-1
 8007d48:	00c00044 	movi	r3,1
 8007d4c:	d8800e15 	stw	r2,56(sp)
 8007d50:	d8002615 	stw	zero,152(sp)
 8007d54:	d8800f15 	stw	r2,60(sp)
 8007d58:	d8c00b15 	stw	r3,44(sp)
 8007d5c:	1021883a 	mov	r16,r2
 8007d60:	d8801617 	ldw	r2,88(sp)
 8007d64:	10001115 	stw	zero,68(r2)
 8007d68:	d8801617 	ldw	r2,88(sp)
 8007d6c:	11401117 	ldw	r5,68(r2)
 8007d70:	1009883a 	mov	r4,r2
 8007d74:	800a4b80 	call	800a4b8 <_Balloc>
 8007d78:	d8c01617 	ldw	r3,88(sp)
 8007d7c:	d8800515 	stw	r2,20(sp)
 8007d80:	18801015 	stw	r2,64(r3)
 8007d84:	00800384 	movi	r2,14
 8007d88:	14006836 	bltu	r2,r16,8007f2c <_dtoa_r+0x588>
 8007d8c:	8805003a 	cmpeq	r2,r17,zero
 8007d90:	1000661e 	bne	r2,zero,8007f2c <_dtoa_r+0x588>
 8007d94:	d9000d17 	ldw	r4,52(sp)
 8007d98:	0102300e 	bge	zero,r4,800865c <_dtoa_r+0xcb8>
 8007d9c:	208003cc 	andi	r2,r4,15
 8007da0:	100490fa 	slli	r2,r2,3
 8007da4:	2025d13a 	srai	r18,r4,4
 8007da8:	00c20074 	movhi	r3,2049
 8007dac:	18d44b04 	addi	r3,r3,20780
 8007db0:	10c5883a 	add	r2,r2,r3
 8007db4:	90c0040c 	andi	r3,r18,16
 8007db8:	14000017 	ldw	r16,0(r2)
 8007dbc:	14400117 	ldw	r17,4(r2)
 8007dc0:	18036a1e 	bne	r3,zero,8008b6c <_dtoa_r+0x11c8>
 8007dc4:	05800084 	movi	r22,2
 8007dc8:	90001026 	beq	r18,zero,8007e0c <_dtoa_r+0x468>
 8007dcc:	04c20074 	movhi	r19,2049
 8007dd0:	9cd47d04 	addi	r19,r19,20980
 8007dd4:	9080004c 	andi	r2,r18,1
 8007dd8:	1005003a 	cmpeq	r2,r2,zero
 8007ddc:	1000081e 	bne	r2,zero,8007e00 <_dtoa_r+0x45c>
 8007de0:	99800017 	ldw	r6,0(r19)
 8007de4:	99c00117 	ldw	r7,4(r19)
 8007de8:	880b883a 	mov	r5,r17
 8007dec:	8009883a 	mov	r4,r16
 8007df0:	800cad80 	call	800cad8 <__muldf3>
 8007df4:	1021883a 	mov	r16,r2
 8007df8:	b5800044 	addi	r22,r22,1
 8007dfc:	1823883a 	mov	r17,r3
 8007e00:	9025d07a 	srai	r18,r18,1
 8007e04:	9cc00204 	addi	r19,r19,8
 8007e08:	903ff21e 	bne	r18,zero,8007dd4 <_dtoa_r+0x430>
 8007e0c:	a80b883a 	mov	r5,r21
 8007e10:	a009883a 	mov	r4,r20
 8007e14:	880f883a 	mov	r7,r17
 8007e18:	800d883a 	mov	r6,r16
 8007e1c:	800ce9c0 	call	800ce9c <__divdf3>
 8007e20:	1029883a 	mov	r20,r2
 8007e24:	182b883a 	mov	r21,r3
 8007e28:	d8c00c17 	ldw	r3,48(sp)
 8007e2c:	1805003a 	cmpeq	r2,r3,zero
 8007e30:	1000081e 	bne	r2,zero,8007e54 <_dtoa_r+0x4b0>
 8007e34:	0005883a 	mov	r2,zero
 8007e38:	00cffc34 	movhi	r3,16368
 8007e3c:	180f883a 	mov	r7,r3
 8007e40:	a009883a 	mov	r4,r20
 8007e44:	a80b883a 	mov	r5,r21
 8007e48:	100d883a 	mov	r6,r2
 8007e4c:	800d3140 	call	800d314 <__ltdf2>
 8007e50:	1003fe16 	blt	r2,zero,8008e4c <_dtoa_r+0x14a8>
 8007e54:	b009883a 	mov	r4,r22
 8007e58:	800d39c0 	call	800d39c <__floatsidf>
 8007e5c:	180b883a 	mov	r5,r3
 8007e60:	1009883a 	mov	r4,r2
 8007e64:	a00d883a 	mov	r6,r20
 8007e68:	a80f883a 	mov	r7,r21
 8007e6c:	800cad80 	call	800cad8 <__muldf3>
 8007e70:	0011883a 	mov	r8,zero
 8007e74:	02500734 	movhi	r9,16412
 8007e78:	1009883a 	mov	r4,r2
 8007e7c:	180b883a 	mov	r5,r3
 8007e80:	480f883a 	mov	r7,r9
 8007e84:	400d883a 	mov	r6,r8
 8007e88:	800ca640 	call	800ca64 <__adddf3>
 8007e8c:	d9000f17 	ldw	r4,60(sp)
 8007e90:	102d883a 	mov	r22,r2
 8007e94:	00bf3034 	movhi	r2,64704
 8007e98:	18b9883a 	add	fp,r3,r2
 8007e9c:	e02f883a 	mov	r23,fp
 8007ea0:	20028f1e 	bne	r4,zero,80088e0 <_dtoa_r+0xf3c>
 8007ea4:	0005883a 	mov	r2,zero
 8007ea8:	00d00534 	movhi	r3,16404
 8007eac:	a009883a 	mov	r4,r20
 8007eb0:	a80b883a 	mov	r5,r21
 8007eb4:	180f883a 	mov	r7,r3
 8007eb8:	100d883a 	mov	r6,r2
 8007ebc:	800c9e40 	call	800c9e4 <__subdf3>
 8007ec0:	1009883a 	mov	r4,r2
 8007ec4:	e00f883a 	mov	r7,fp
 8007ec8:	180b883a 	mov	r5,r3
 8007ecc:	b00d883a 	mov	r6,r22
 8007ed0:	1025883a 	mov	r18,r2
 8007ed4:	1827883a 	mov	r19,r3
 8007ed8:	800d2040 	call	800d204 <__gtdf2>
 8007edc:	00834f16 	blt	zero,r2,8008c1c <_dtoa_r+0x1278>
 8007ee0:	e0e0003c 	xorhi	r3,fp,32768
 8007ee4:	9009883a 	mov	r4,r18
 8007ee8:	980b883a 	mov	r5,r19
 8007eec:	180f883a 	mov	r7,r3
 8007ef0:	b00d883a 	mov	r6,r22
 8007ef4:	800d3140 	call	800d314 <__ltdf2>
 8007ef8:	1000080e 	bge	r2,zero,8007f1c <_dtoa_r+0x578>
 8007efc:	0027883a 	mov	r19,zero
 8007f00:	0025883a 	mov	r18,zero
 8007f04:	d8802617 	ldw	r2,152(sp)
 8007f08:	df000517 	ldw	fp,20(sp)
 8007f0c:	d8000615 	stw	zero,24(sp)
 8007f10:	0084303a 	nor	r2,zero,r2
 8007f14:	d8800d15 	stw	r2,52(sp)
 8007f18:	00019b06 	br	8008588 <_dtoa_r+0xbe4>
 8007f1c:	d9801217 	ldw	r6,72(sp)
 8007f20:	d8801317 	ldw	r2,76(sp)
 8007f24:	3029883a 	mov	r20,r6
 8007f28:	102b883a 	mov	r21,r2
 8007f2c:	d8c00217 	ldw	r3,8(sp)
 8007f30:	18008516 	blt	r3,zero,8008148 <_dtoa_r+0x7a4>
 8007f34:	d9000d17 	ldw	r4,52(sp)
 8007f38:	00800384 	movi	r2,14
 8007f3c:	11008216 	blt	r2,r4,8008148 <_dtoa_r+0x7a4>
 8007f40:	200490fa 	slli	r2,r4,3
 8007f44:	d9802617 	ldw	r6,152(sp)
 8007f48:	00c20074 	movhi	r3,2049
 8007f4c:	18d44b04 	addi	r3,r3,20780
 8007f50:	10c5883a 	add	r2,r2,r3
 8007f54:	14800017 	ldw	r18,0(r2)
 8007f58:	14c00117 	ldw	r19,4(r2)
 8007f5c:	30031e16 	blt	r6,zero,8008bd8 <_dtoa_r+0x1234>
 8007f60:	d9000517 	ldw	r4,20(sp)
 8007f64:	d8c00f17 	ldw	r3,60(sp)
 8007f68:	a823883a 	mov	r17,r21
 8007f6c:	a021883a 	mov	r16,r20
 8007f70:	192b883a 	add	r21,r3,r4
 8007f74:	2039883a 	mov	fp,r4
 8007f78:	00000f06 	br	8007fb8 <_dtoa_r+0x614>
 8007f7c:	0005883a 	mov	r2,zero
 8007f80:	00d00934 	movhi	r3,16420
 8007f84:	5009883a 	mov	r4,r10
 8007f88:	580b883a 	mov	r5,r11
 8007f8c:	180f883a 	mov	r7,r3
 8007f90:	100d883a 	mov	r6,r2
 8007f94:	800cad80 	call	800cad8 <__muldf3>
 8007f98:	180b883a 	mov	r5,r3
 8007f9c:	000d883a 	mov	r6,zero
 8007fa0:	000f883a 	mov	r7,zero
 8007fa4:	1009883a 	mov	r4,r2
 8007fa8:	1021883a 	mov	r16,r2
 8007fac:	1823883a 	mov	r17,r3
 8007fb0:	800d17c0 	call	800d17c <__nedf2>
 8007fb4:	10004526 	beq	r2,zero,80080cc <_dtoa_r+0x728>
 8007fb8:	900d883a 	mov	r6,r18
 8007fbc:	980f883a 	mov	r7,r19
 8007fc0:	8009883a 	mov	r4,r16
 8007fc4:	880b883a 	mov	r5,r17
 8007fc8:	800ce9c0 	call	800ce9c <__divdf3>
 8007fcc:	180b883a 	mov	r5,r3
 8007fd0:	1009883a 	mov	r4,r2
 8007fd4:	800d4940 	call	800d494 <__fixdfsi>
 8007fd8:	1009883a 	mov	r4,r2
 8007fdc:	1029883a 	mov	r20,r2
 8007fe0:	800d39c0 	call	800d39c <__floatsidf>
 8007fe4:	180f883a 	mov	r7,r3
 8007fe8:	9009883a 	mov	r4,r18
 8007fec:	980b883a 	mov	r5,r19
 8007ff0:	100d883a 	mov	r6,r2
 8007ff4:	800cad80 	call	800cad8 <__muldf3>
 8007ff8:	180f883a 	mov	r7,r3
 8007ffc:	880b883a 	mov	r5,r17
 8008000:	8009883a 	mov	r4,r16
 8008004:	100d883a 	mov	r6,r2
 8008008:	800c9e40 	call	800c9e4 <__subdf3>
 800800c:	1015883a 	mov	r10,r2
 8008010:	a0800c04 	addi	r2,r20,48
 8008014:	e0800005 	stb	r2,0(fp)
 8008018:	e7000044 	addi	fp,fp,1
 800801c:	1817883a 	mov	r11,r3
 8008020:	e57fd61e 	bne	fp,r21,8007f7c <_dtoa_r+0x5d8>
 8008024:	500d883a 	mov	r6,r10
 8008028:	180f883a 	mov	r7,r3
 800802c:	5009883a 	mov	r4,r10
 8008030:	180b883a 	mov	r5,r3
 8008034:	800ca640 	call	800ca64 <__adddf3>
 8008038:	100d883a 	mov	r6,r2
 800803c:	9009883a 	mov	r4,r18
 8008040:	980b883a 	mov	r5,r19
 8008044:	180f883a 	mov	r7,r3
 8008048:	1021883a 	mov	r16,r2
 800804c:	1823883a 	mov	r17,r3
 8008050:	800d3140 	call	800d314 <__ltdf2>
 8008054:	10000816 	blt	r2,zero,8008078 <_dtoa_r+0x6d4>
 8008058:	980b883a 	mov	r5,r19
 800805c:	800d883a 	mov	r6,r16
 8008060:	880f883a 	mov	r7,r17
 8008064:	9009883a 	mov	r4,r18
 8008068:	800d0f40 	call	800d0f4 <__eqdf2>
 800806c:	1000171e 	bne	r2,zero,80080cc <_dtoa_r+0x728>
 8008070:	a080004c 	andi	r2,r20,1
 8008074:	10001526 	beq	r2,zero,80080cc <_dtoa_r+0x728>
 8008078:	d8800d17 	ldw	r2,52(sp)
 800807c:	d8800415 	stw	r2,16(sp)
 8008080:	e009883a 	mov	r4,fp
 8008084:	213fffc4 	addi	r4,r4,-1
 8008088:	20c00007 	ldb	r3,0(r4)
 800808c:	00800e44 	movi	r2,57
 8008090:	1880081e 	bne	r3,r2,80080b4 <_dtoa_r+0x710>
 8008094:	d8800517 	ldw	r2,20(sp)
 8008098:	113ffa1e 	bne	r2,r4,8008084 <_dtoa_r+0x6e0>
 800809c:	d8c00417 	ldw	r3,16(sp)
 80080a0:	d9800517 	ldw	r6,20(sp)
 80080a4:	00800c04 	movi	r2,48
 80080a8:	18c00044 	addi	r3,r3,1
 80080ac:	d8c00415 	stw	r3,16(sp)
 80080b0:	30800005 	stb	r2,0(r6)
 80080b4:	20800003 	ldbu	r2,0(r4)
 80080b8:	d8c00417 	ldw	r3,16(sp)
 80080bc:	27000044 	addi	fp,r4,1
 80080c0:	10800044 	addi	r2,r2,1
 80080c4:	d8c00d15 	stw	r3,52(sp)
 80080c8:	20800005 	stb	r2,0(r4)
 80080cc:	d9001617 	ldw	r4,88(sp)
 80080d0:	d9400717 	ldw	r5,28(sp)
 80080d4:	8009f380 	call	8009f38 <_Bfree>
 80080d8:	e0000005 	stb	zero,0(fp)
 80080dc:	d9800d17 	ldw	r6,52(sp)
 80080e0:	d8c02717 	ldw	r3,156(sp)
 80080e4:	d9002917 	ldw	r4,164(sp)
 80080e8:	30800044 	addi	r2,r6,1
 80080ec:	18800015 	stw	r2,0(r3)
 80080f0:	20029c26 	beq	r4,zero,8008b64 <_dtoa_r+0x11c0>
 80080f4:	d8c00517 	ldw	r3,20(sp)
 80080f8:	27000015 	stw	fp,0(r4)
 80080fc:	003e5d06 	br	8007a74 <_dtoa_r+0xd0>
 8008100:	d9800d17 	ldw	r6,52(sp)
 8008104:	00c20074 	movhi	r3,2049
 8008108:	18d44b04 	addi	r3,r3,20780
 800810c:	d9001217 	ldw	r4,72(sp)
 8008110:	300490fa 	slli	r2,r6,3
 8008114:	d9401317 	ldw	r5,76(sp)
 8008118:	10c5883a 	add	r2,r2,r3
 800811c:	12000017 	ldw	r8,0(r2)
 8008120:	12400117 	ldw	r9,4(r2)
 8008124:	400d883a 	mov	r6,r8
 8008128:	480f883a 	mov	r7,r9
 800812c:	800d3140 	call	800d314 <__ltdf2>
 8008130:	1000030e 	bge	r2,zero,8008140 <_dtoa_r+0x79c>
 8008134:	d8800d17 	ldw	r2,52(sp)
 8008138:	10bfffc4 	addi	r2,r2,-1
 800813c:	d8800d15 	stw	r2,52(sp)
 8008140:	d8000c15 	stw	zero,48(sp)
 8008144:	003ea806 	br	8007be8 <_dtoa_r+0x244>
 8008148:	d9000b17 	ldw	r4,44(sp)
 800814c:	202cc03a 	cmpne	r22,r4,zero
 8008150:	b000c71e 	bne	r22,zero,8008470 <_dtoa_r+0xacc>
 8008154:	dc001117 	ldw	r16,68(sp)
 8008158:	dc801017 	ldw	r18,64(sp)
 800815c:	0027883a 	mov	r19,zero
 8008160:	04000b0e 	bge	zero,r16,8008190 <_dtoa_r+0x7ec>
 8008164:	d8c00a17 	ldw	r3,40(sp)
 8008168:	00c0090e 	bge	zero,r3,8008190 <_dtoa_r+0x7ec>
 800816c:	8005883a 	mov	r2,r16
 8008170:	1c011316 	blt	r3,r16,80085c0 <_dtoa_r+0xc1c>
 8008174:	d9000a17 	ldw	r4,40(sp)
 8008178:	d9801117 	ldw	r6,68(sp)
 800817c:	80a1c83a 	sub	r16,r16,r2
 8008180:	2089c83a 	sub	r4,r4,r2
 8008184:	308dc83a 	sub	r6,r6,r2
 8008188:	d9000a15 	stw	r4,40(sp)
 800818c:	d9801115 	stw	r6,68(sp)
 8008190:	d8801017 	ldw	r2,64(sp)
 8008194:	0080150e 	bge	zero,r2,80081ec <_dtoa_r+0x848>
 8008198:	d8c00b17 	ldw	r3,44(sp)
 800819c:	1805003a 	cmpeq	r2,r3,zero
 80081a0:	1001c91e 	bne	r2,zero,80088c8 <_dtoa_r+0xf24>
 80081a4:	04800e0e 	bge	zero,r18,80081e0 <_dtoa_r+0x83c>
 80081a8:	d9001617 	ldw	r4,88(sp)
 80081ac:	980b883a 	mov	r5,r19
 80081b0:	900d883a 	mov	r6,r18
 80081b4:	800ad840 	call	800ad84 <__pow5mult>
 80081b8:	d9001617 	ldw	r4,88(sp)
 80081bc:	d9800717 	ldw	r6,28(sp)
 80081c0:	100b883a 	mov	r5,r2
 80081c4:	1027883a 	mov	r19,r2
 80081c8:	800a9c80 	call	800a9c8 <__multiply>
 80081cc:	d9001617 	ldw	r4,88(sp)
 80081d0:	d9400717 	ldw	r5,28(sp)
 80081d4:	1023883a 	mov	r17,r2
 80081d8:	8009f380 	call	8009f38 <_Bfree>
 80081dc:	dc400715 	stw	r17,28(sp)
 80081e0:	d9001017 	ldw	r4,64(sp)
 80081e4:	248dc83a 	sub	r6,r4,r18
 80081e8:	30010e1e 	bne	r6,zero,8008624 <_dtoa_r+0xc80>
 80081ec:	d9001617 	ldw	r4,88(sp)
 80081f0:	04400044 	movi	r17,1
 80081f4:	880b883a 	mov	r5,r17
 80081f8:	800ac1c0 	call	800ac1c <__i2b>
 80081fc:	d9800917 	ldw	r6,36(sp)
 8008200:	1025883a 	mov	r18,r2
 8008204:	0180040e 	bge	zero,r6,8008218 <_dtoa_r+0x874>
 8008208:	d9001617 	ldw	r4,88(sp)
 800820c:	100b883a 	mov	r5,r2
 8008210:	800ad840 	call	800ad84 <__pow5mult>
 8008214:	1025883a 	mov	r18,r2
 8008218:	d8801717 	ldw	r2,92(sp)
 800821c:	8880f30e 	bge	r17,r2,80085ec <_dtoa_r+0xc48>
 8008220:	0023883a 	mov	r17,zero
 8008224:	d9800917 	ldw	r6,36(sp)
 8008228:	30019e1e 	bne	r6,zero,80088a4 <_dtoa_r+0xf00>
 800822c:	00c00044 	movi	r3,1
 8008230:	d9000a17 	ldw	r4,40(sp)
 8008234:	20c5883a 	add	r2,r4,r3
 8008238:	10c007cc 	andi	r3,r2,31
 800823c:	1800841e 	bne	r3,zero,8008450 <_dtoa_r+0xaac>
 8008240:	00800704 	movi	r2,28
 8008244:	d9000a17 	ldw	r4,40(sp)
 8008248:	d9801117 	ldw	r6,68(sp)
 800824c:	80a1883a 	add	r16,r16,r2
 8008250:	2089883a 	add	r4,r4,r2
 8008254:	308d883a 	add	r6,r6,r2
 8008258:	d9000a15 	stw	r4,40(sp)
 800825c:	d9801115 	stw	r6,68(sp)
 8008260:	d8801117 	ldw	r2,68(sp)
 8008264:	0080050e 	bge	zero,r2,800827c <_dtoa_r+0x8d8>
 8008268:	d9400717 	ldw	r5,28(sp)
 800826c:	d9001617 	ldw	r4,88(sp)
 8008270:	100d883a 	mov	r6,r2
 8008274:	800a87c0 	call	800a87c <__lshift>
 8008278:	d8800715 	stw	r2,28(sp)
 800827c:	d8c00a17 	ldw	r3,40(sp)
 8008280:	00c0050e 	bge	zero,r3,8008298 <_dtoa_r+0x8f4>
 8008284:	d9001617 	ldw	r4,88(sp)
 8008288:	900b883a 	mov	r5,r18
 800828c:	180d883a 	mov	r6,r3
 8008290:	800a87c0 	call	800a87c <__lshift>
 8008294:	1025883a 	mov	r18,r2
 8008298:	d9000c17 	ldw	r4,48(sp)
 800829c:	2005003a 	cmpeq	r2,r4,zero
 80082a0:	10016f26 	beq	r2,zero,8008860 <_dtoa_r+0xebc>
 80082a4:	d9000f17 	ldw	r4,60(sp)
 80082a8:	0102170e 	bge	zero,r4,8008b08 <_dtoa_r+0x1164>
 80082ac:	d9800b17 	ldw	r6,44(sp)
 80082b0:	3005003a 	cmpeq	r2,r6,zero
 80082b4:	1000881e 	bne	r2,zero,80084d8 <_dtoa_r+0xb34>
 80082b8:	0400050e 	bge	zero,r16,80082d0 <_dtoa_r+0x92c>
 80082bc:	d9001617 	ldw	r4,88(sp)
 80082c0:	980b883a 	mov	r5,r19
 80082c4:	800d883a 	mov	r6,r16
 80082c8:	800a87c0 	call	800a87c <__lshift>
 80082cc:	1027883a 	mov	r19,r2
 80082d0:	8804c03a 	cmpne	r2,r17,zero
 80082d4:	1002541e 	bne	r2,zero,8008c28 <_dtoa_r+0x1284>
 80082d8:	980b883a 	mov	r5,r19
 80082dc:	dd800517 	ldw	r22,20(sp)
 80082e0:	dcc00615 	stw	r19,24(sp)
 80082e4:	a700004c 	andi	fp,r20,1
 80082e8:	2827883a 	mov	r19,r5
 80082ec:	d9000717 	ldw	r4,28(sp)
 80082f0:	900b883a 	mov	r5,r18
 80082f4:	80077600 	call	8007760 <quorem>
 80082f8:	d9000717 	ldw	r4,28(sp)
 80082fc:	d9400617 	ldw	r5,24(sp)
 8008300:	1023883a 	mov	r17,r2
 8008304:	8dc00c04 	addi	r23,r17,48
 8008308:	800a0940 	call	800a094 <__mcmp>
 800830c:	d9001617 	ldw	r4,88(sp)
 8008310:	900b883a 	mov	r5,r18
 8008314:	980d883a 	mov	r6,r19
 8008318:	1029883a 	mov	r20,r2
 800831c:	800a6f00 	call	800a6f0 <__mdiff>
 8008320:	102b883a 	mov	r21,r2
 8008324:	10800317 	ldw	r2,12(r2)
 8008328:	1001281e 	bne	r2,zero,80087cc <_dtoa_r+0xe28>
 800832c:	d9000717 	ldw	r4,28(sp)
 8008330:	a80b883a 	mov	r5,r21
 8008334:	800a0940 	call	800a094 <__mcmp>
 8008338:	d9001617 	ldw	r4,88(sp)
 800833c:	1021883a 	mov	r16,r2
 8008340:	a80b883a 	mov	r5,r21
 8008344:	8009f380 	call	8009f38 <_Bfree>
 8008348:	8000041e 	bne	r16,zero,800835c <_dtoa_r+0x9b8>
 800834c:	d8801717 	ldw	r2,92(sp)
 8008350:	1000021e 	bne	r2,zero,800835c <_dtoa_r+0x9b8>
 8008354:	e004c03a 	cmpne	r2,fp,zero
 8008358:	10011726 	beq	r2,zero,80087b8 <_dtoa_r+0xe14>
 800835c:	a0010616 	blt	r20,zero,8008778 <_dtoa_r+0xdd4>
 8008360:	a000041e 	bne	r20,zero,8008374 <_dtoa_r+0x9d0>
 8008364:	d8c01717 	ldw	r3,92(sp)
 8008368:	1800021e 	bne	r3,zero,8008374 <_dtoa_r+0x9d0>
 800836c:	e004c03a 	cmpne	r2,fp,zero
 8008370:	10010126 	beq	r2,zero,8008778 <_dtoa_r+0xdd4>
 8008374:	04023d16 	blt	zero,r16,8008c6c <_dtoa_r+0x12c8>
 8008378:	b5c00005 	stb	r23,0(r22)
 800837c:	d9800517 	ldw	r6,20(sp)
 8008380:	d9000f17 	ldw	r4,60(sp)
 8008384:	b5800044 	addi	r22,r22,1
 8008388:	3105883a 	add	r2,r6,r4
 800838c:	b0806526 	beq	r22,r2,8008524 <_dtoa_r+0xb80>
 8008390:	d9400717 	ldw	r5,28(sp)
 8008394:	d9001617 	ldw	r4,88(sp)
 8008398:	01800284 	movi	r6,10
 800839c:	000f883a 	mov	r7,zero
 80083a0:	800ac580 	call	800ac58 <__multadd>
 80083a4:	d8800715 	stw	r2,28(sp)
 80083a8:	d8800617 	ldw	r2,24(sp)
 80083ac:	14c10c26 	beq	r2,r19,80087e0 <_dtoa_r+0xe3c>
 80083b0:	d9400617 	ldw	r5,24(sp)
 80083b4:	d9001617 	ldw	r4,88(sp)
 80083b8:	01800284 	movi	r6,10
 80083bc:	000f883a 	mov	r7,zero
 80083c0:	800ac580 	call	800ac58 <__multadd>
 80083c4:	d9001617 	ldw	r4,88(sp)
 80083c8:	980b883a 	mov	r5,r19
 80083cc:	01800284 	movi	r6,10
 80083d0:	000f883a 	mov	r7,zero
 80083d4:	d8800615 	stw	r2,24(sp)
 80083d8:	800ac580 	call	800ac58 <__multadd>
 80083dc:	1027883a 	mov	r19,r2
 80083e0:	003fc206 	br	80082ec <_dtoa_r+0x948>
 80083e4:	2445c83a 	sub	r2,r4,r17
 80083e8:	a088983a 	sll	r4,r20,r2
 80083ec:	003e4b06 	br	8007d1c <_dtoa_r+0x378>
 80083f0:	01bfffc4 	movi	r6,-1
 80083f4:	00800044 	movi	r2,1
 80083f8:	d9800e15 	stw	r6,56(sp)
 80083fc:	d9800f15 	stw	r6,60(sp)
 8008400:	d8800b15 	stw	r2,44(sp)
 8008404:	d8c01617 	ldw	r3,88(sp)
 8008408:	008005c4 	movi	r2,23
 800840c:	18001115 	stw	zero,68(r3)
 8008410:	1580082e 	bgeu	r2,r22,8008434 <_dtoa_r+0xa90>
 8008414:	00c00104 	movi	r3,4
 8008418:	0009883a 	mov	r4,zero
 800841c:	18c7883a 	add	r3,r3,r3
 8008420:	18800504 	addi	r2,r3,20
 8008424:	21000044 	addi	r4,r4,1
 8008428:	b0bffc2e 	bgeu	r22,r2,800841c <_dtoa_r+0xa78>
 800842c:	d9801617 	ldw	r6,88(sp)
 8008430:	31001115 	stw	r4,68(r6)
 8008434:	dc000f17 	ldw	r16,60(sp)
 8008438:	003e4b06 	br	8007d68 <_dtoa_r+0x3c4>
 800843c:	d9801717 	ldw	r6,92(sp)
 8008440:	0023883a 	mov	r17,zero
 8008444:	31bfff04 	addi	r6,r6,-4
 8008448:	d9801715 	stw	r6,92(sp)
 800844c:	003df806 	br	8007c30 <_dtoa_r+0x28c>
 8008450:	00800804 	movi	r2,32
 8008454:	10c9c83a 	sub	r4,r2,r3
 8008458:	00c00104 	movi	r3,4
 800845c:	19005a16 	blt	r3,r4,80085c8 <_dtoa_r+0xc24>
 8008460:	008000c4 	movi	r2,3
 8008464:	113f7e16 	blt	r2,r4,8008260 <_dtoa_r+0x8bc>
 8008468:	20800704 	addi	r2,r4,28
 800846c:	003f7506 	br	8008244 <_dtoa_r+0x8a0>
 8008470:	d9801717 	ldw	r6,92(sp)
 8008474:	00800044 	movi	r2,1
 8008478:	1180a10e 	bge	r2,r6,8008700 <_dtoa_r+0xd5c>
 800847c:	d9800f17 	ldw	r6,60(sp)
 8008480:	d8c01017 	ldw	r3,64(sp)
 8008484:	30bfffc4 	addi	r2,r6,-1
 8008488:	1881c616 	blt	r3,r2,8008ba4 <_dtoa_r+0x1200>
 800848c:	18a5c83a 	sub	r18,r3,r2
 8008490:	d8800f17 	ldw	r2,60(sp)
 8008494:	10026216 	blt	r2,zero,8008e20 <_dtoa_r+0x147c>
 8008498:	dc001117 	ldw	r16,68(sp)
 800849c:	1007883a 	mov	r3,r2
 80084a0:	d9800a17 	ldw	r6,40(sp)
 80084a4:	d8801117 	ldw	r2,68(sp)
 80084a8:	d9001617 	ldw	r4,88(sp)
 80084ac:	30cd883a 	add	r6,r6,r3
 80084b0:	10c5883a 	add	r2,r2,r3
 80084b4:	01400044 	movi	r5,1
 80084b8:	d9800a15 	stw	r6,40(sp)
 80084bc:	d8801115 	stw	r2,68(sp)
 80084c0:	800ac1c0 	call	800ac1c <__i2b>
 80084c4:	1027883a 	mov	r19,r2
 80084c8:	003f2506 	br	8008160 <_dtoa_r+0x7bc>
 80084cc:	00c20074 	movhi	r3,2049
 80084d0:	18d42e04 	addi	r3,r3,20664
 80084d4:	003d6706 	br	8007a74 <_dtoa_r+0xd0>
 80084d8:	dd800517 	ldw	r22,20(sp)
 80084dc:	04000044 	movi	r16,1
 80084e0:	00000706 	br	8008500 <_dtoa_r+0xb5c>
 80084e4:	d9400717 	ldw	r5,28(sp)
 80084e8:	d9001617 	ldw	r4,88(sp)
 80084ec:	01800284 	movi	r6,10
 80084f0:	000f883a 	mov	r7,zero
 80084f4:	800ac580 	call	800ac58 <__multadd>
 80084f8:	d8800715 	stw	r2,28(sp)
 80084fc:	84000044 	addi	r16,r16,1
 8008500:	d9000717 	ldw	r4,28(sp)
 8008504:	900b883a 	mov	r5,r18
 8008508:	80077600 	call	8007760 <quorem>
 800850c:	15c00c04 	addi	r23,r2,48
 8008510:	b5c00005 	stb	r23,0(r22)
 8008514:	d8c00f17 	ldw	r3,60(sp)
 8008518:	b5800044 	addi	r22,r22,1
 800851c:	80fff116 	blt	r16,r3,80084e4 <_dtoa_r+0xb40>
 8008520:	d8000615 	stw	zero,24(sp)
 8008524:	d9400717 	ldw	r5,28(sp)
 8008528:	d9001617 	ldw	r4,88(sp)
 800852c:	01800044 	movi	r6,1
 8008530:	800a87c0 	call	800a87c <__lshift>
 8008534:	1009883a 	mov	r4,r2
 8008538:	900b883a 	mov	r5,r18
 800853c:	d8800715 	stw	r2,28(sp)
 8008540:	800a0940 	call	800a094 <__mcmp>
 8008544:	00803c0e 	bge	zero,r2,8008638 <_dtoa_r+0xc94>
 8008548:	b009883a 	mov	r4,r22
 800854c:	213fffc4 	addi	r4,r4,-1
 8008550:	21400003 	ldbu	r5,0(r4)
 8008554:	00800e44 	movi	r2,57
 8008558:	28c03fcc 	andi	r3,r5,255
 800855c:	18c0201c 	xori	r3,r3,128
 8008560:	18ffe004 	addi	r3,r3,-128
 8008564:	1881981e 	bne	r3,r2,8008bc8 <_dtoa_r+0x1224>
 8008568:	d9800517 	ldw	r6,20(sp)
 800856c:	21bff71e 	bne	r4,r6,800854c <_dtoa_r+0xba8>
 8008570:	d8800d17 	ldw	r2,52(sp)
 8008574:	37000044 	addi	fp,r6,1
 8008578:	10800044 	addi	r2,r2,1
 800857c:	d8800d15 	stw	r2,52(sp)
 8008580:	00800c44 	movi	r2,49
 8008584:	30800005 	stb	r2,0(r6)
 8008588:	d9001617 	ldw	r4,88(sp)
 800858c:	900b883a 	mov	r5,r18
 8008590:	8009f380 	call	8009f38 <_Bfree>
 8008594:	983ecd26 	beq	r19,zero,80080cc <_dtoa_r+0x728>
 8008598:	d8c00617 	ldw	r3,24(sp)
 800859c:	18000426 	beq	r3,zero,80085b0 <_dtoa_r+0xc0c>
 80085a0:	1cc00326 	beq	r3,r19,80085b0 <_dtoa_r+0xc0c>
 80085a4:	d9001617 	ldw	r4,88(sp)
 80085a8:	180b883a 	mov	r5,r3
 80085ac:	8009f380 	call	8009f38 <_Bfree>
 80085b0:	d9001617 	ldw	r4,88(sp)
 80085b4:	980b883a 	mov	r5,r19
 80085b8:	8009f380 	call	8009f38 <_Bfree>
 80085bc:	003ec306 	br	80080cc <_dtoa_r+0x728>
 80085c0:	1805883a 	mov	r2,r3
 80085c4:	003eeb06 	br	8008174 <_dtoa_r+0x7d0>
 80085c8:	d9800a17 	ldw	r6,40(sp)
 80085cc:	d8c01117 	ldw	r3,68(sp)
 80085d0:	20bfff04 	addi	r2,r4,-4
 80085d4:	308d883a 	add	r6,r6,r2
 80085d8:	1887883a 	add	r3,r3,r2
 80085dc:	80a1883a 	add	r16,r16,r2
 80085e0:	d9800a15 	stw	r6,40(sp)
 80085e4:	d8c01115 	stw	r3,68(sp)
 80085e8:	003f1d06 	br	8008260 <_dtoa_r+0x8bc>
 80085ec:	a03f0c1e 	bne	r20,zero,8008220 <_dtoa_r+0x87c>
 80085f0:	00800434 	movhi	r2,16
 80085f4:	10bfffc4 	addi	r2,r2,-1
 80085f8:	a884703a 	and	r2,r21,r2
 80085fc:	103f081e 	bne	r2,zero,8008220 <_dtoa_r+0x87c>
 8008600:	a89ffc2c 	andhi	r2,r21,32752
 8008604:	103f0626 	beq	r2,zero,8008220 <_dtoa_r+0x87c>
 8008608:	d8c01117 	ldw	r3,68(sp)
 800860c:	d9000a17 	ldw	r4,40(sp)
 8008610:	18c00044 	addi	r3,r3,1
 8008614:	21000044 	addi	r4,r4,1
 8008618:	d8c01115 	stw	r3,68(sp)
 800861c:	d9000a15 	stw	r4,40(sp)
 8008620:	003f0006 	br	8008224 <_dtoa_r+0x880>
 8008624:	d9400717 	ldw	r5,28(sp)
 8008628:	d9001617 	ldw	r4,88(sp)
 800862c:	800ad840 	call	800ad84 <__pow5mult>
 8008630:	d8800715 	stw	r2,28(sp)
 8008634:	003eed06 	br	80081ec <_dtoa_r+0x848>
 8008638:	1000021e 	bne	r2,zero,8008644 <_dtoa_r+0xca0>
 800863c:	b880004c 	andi	r2,r23,1
 8008640:	103fc11e 	bne	r2,zero,8008548 <_dtoa_r+0xba4>
 8008644:	b5bfffc4 	addi	r22,r22,-1
 8008648:	b0c00007 	ldb	r3,0(r22)
 800864c:	00800c04 	movi	r2,48
 8008650:	18bffc26 	beq	r3,r2,8008644 <_dtoa_r+0xca0>
 8008654:	b7000044 	addi	fp,r22,1
 8008658:	003fcb06 	br	8008588 <_dtoa_r+0xbe4>
 800865c:	d9800d17 	ldw	r6,52(sp)
 8008660:	018fc83a 	sub	r7,zero,r6
 8008664:	3801f726 	beq	r7,zero,8008e44 <_dtoa_r+0x14a0>
 8008668:	398003cc 	andi	r6,r7,15
 800866c:	300c90fa 	slli	r6,r6,3
 8008670:	01420074 	movhi	r5,2049
 8008674:	29544b04 	addi	r5,r5,20780
 8008678:	d9001217 	ldw	r4,72(sp)
 800867c:	314d883a 	add	r6,r6,r5
 8008680:	30c00117 	ldw	r3,4(r6)
 8008684:	30800017 	ldw	r2,0(r6)
 8008688:	d9401317 	ldw	r5,76(sp)
 800868c:	3821d13a 	srai	r16,r7,4
 8008690:	100d883a 	mov	r6,r2
 8008694:	180f883a 	mov	r7,r3
 8008698:	800cad80 	call	800cad8 <__muldf3>
 800869c:	1011883a 	mov	r8,r2
 80086a0:	1813883a 	mov	r9,r3
 80086a4:	1029883a 	mov	r20,r2
 80086a8:	182b883a 	mov	r21,r3
 80086ac:	8001e526 	beq	r16,zero,8008e44 <_dtoa_r+0x14a0>
 80086b0:	05800084 	movi	r22,2
 80086b4:	04420074 	movhi	r17,2049
 80086b8:	8c547d04 	addi	r17,r17,20980
 80086bc:	8080004c 	andi	r2,r16,1
 80086c0:	1005003a 	cmpeq	r2,r2,zero
 80086c4:	1000081e 	bne	r2,zero,80086e8 <_dtoa_r+0xd44>
 80086c8:	89800017 	ldw	r6,0(r17)
 80086cc:	89c00117 	ldw	r7,4(r17)
 80086d0:	480b883a 	mov	r5,r9
 80086d4:	4009883a 	mov	r4,r8
 80086d8:	800cad80 	call	800cad8 <__muldf3>
 80086dc:	1011883a 	mov	r8,r2
 80086e0:	b5800044 	addi	r22,r22,1
 80086e4:	1813883a 	mov	r9,r3
 80086e8:	8021d07a 	srai	r16,r16,1
 80086ec:	8c400204 	addi	r17,r17,8
 80086f0:	803ff21e 	bne	r16,zero,80086bc <_dtoa_r+0xd18>
 80086f4:	4029883a 	mov	r20,r8
 80086f8:	482b883a 	mov	r21,r9
 80086fc:	003dca06 	br	8007e28 <_dtoa_r+0x484>
 8008700:	d9000817 	ldw	r4,32(sp)
 8008704:	2005003a 	cmpeq	r2,r4,zero
 8008708:	1001f61e 	bne	r2,zero,8008ee4 <_dtoa_r+0x1540>
 800870c:	dc001117 	ldw	r16,68(sp)
 8008710:	dc801017 	ldw	r18,64(sp)
 8008714:	18c10cc4 	addi	r3,r3,1075
 8008718:	003f6106 	br	80084a0 <_dtoa_r+0xafc>
 800871c:	d8000b15 	stw	zero,44(sp)
 8008720:	d9802617 	ldw	r6,152(sp)
 8008724:	d8c00d17 	ldw	r3,52(sp)
 8008728:	30800044 	addi	r2,r6,1
 800872c:	18ad883a 	add	r22,r3,r2
 8008730:	b13fffc4 	addi	r4,r22,-1
 8008734:	d9000e15 	stw	r4,56(sp)
 8008738:	0581f60e 	bge	zero,r22,8008f14 <_dtoa_r+0x1570>
 800873c:	dd800f15 	stw	r22,60(sp)
 8008740:	003f3006 	br	8008404 <_dtoa_r+0xa60>
 8008744:	d8000b15 	stw	zero,44(sp)
 8008748:	d9002617 	ldw	r4,152(sp)
 800874c:	0101eb0e 	bge	zero,r4,8008efc <_dtoa_r+0x1558>
 8008750:	202d883a 	mov	r22,r4
 8008754:	d9000e15 	stw	r4,56(sp)
 8008758:	d9000f15 	stw	r4,60(sp)
 800875c:	003f2906 	br	8008404 <_dtoa_r+0xa60>
 8008760:	01800044 	movi	r6,1
 8008764:	d9800b15 	stw	r6,44(sp)
 8008768:	003ff706 	br	8008748 <_dtoa_r+0xda4>
 800876c:	01000044 	movi	r4,1
 8008770:	d9000b15 	stw	r4,44(sp)
 8008774:	003fea06 	br	8008720 <_dtoa_r+0xd7c>
 8008778:	04000c0e 	bge	zero,r16,80087ac <_dtoa_r+0xe08>
 800877c:	d9400717 	ldw	r5,28(sp)
 8008780:	d9001617 	ldw	r4,88(sp)
 8008784:	01800044 	movi	r6,1
 8008788:	800a87c0 	call	800a87c <__lshift>
 800878c:	1009883a 	mov	r4,r2
 8008790:	900b883a 	mov	r5,r18
 8008794:	d8800715 	stw	r2,28(sp)
 8008798:	800a0940 	call	800a094 <__mcmp>
 800879c:	0081e00e 	bge	zero,r2,8008f20 <_dtoa_r+0x157c>
 80087a0:	bdc00044 	addi	r23,r23,1
 80087a4:	00800e84 	movi	r2,58
 80087a8:	b881a226 	beq	r23,r2,8008e34 <_dtoa_r+0x1490>
 80087ac:	b7000044 	addi	fp,r22,1
 80087b0:	b5c00005 	stb	r23,0(r22)
 80087b4:	003f7406 	br	8008588 <_dtoa_r+0xbe4>
 80087b8:	00800e44 	movi	r2,57
 80087bc:	b8819d26 	beq	r23,r2,8008e34 <_dtoa_r+0x1490>
 80087c0:	053ffa0e 	bge	zero,r20,80087ac <_dtoa_r+0xe08>
 80087c4:	8dc00c44 	addi	r23,r17,49
 80087c8:	003ff806 	br	80087ac <_dtoa_r+0xe08>
 80087cc:	d9001617 	ldw	r4,88(sp)
 80087d0:	a80b883a 	mov	r5,r21
 80087d4:	04000044 	movi	r16,1
 80087d8:	8009f380 	call	8009f38 <_Bfree>
 80087dc:	003edf06 	br	800835c <_dtoa_r+0x9b8>
 80087e0:	d9001617 	ldw	r4,88(sp)
 80087e4:	980b883a 	mov	r5,r19
 80087e8:	01800284 	movi	r6,10
 80087ec:	000f883a 	mov	r7,zero
 80087f0:	800ac580 	call	800ac58 <__multadd>
 80087f4:	1027883a 	mov	r19,r2
 80087f8:	d8800615 	stw	r2,24(sp)
 80087fc:	003ebb06 	br	80082ec <_dtoa_r+0x948>
 8008800:	d9801117 	ldw	r6,68(sp)
 8008804:	d8800d17 	ldw	r2,52(sp)
 8008808:	d8000915 	stw	zero,36(sp)
 800880c:	308dc83a 	sub	r6,r6,r2
 8008810:	0087c83a 	sub	r3,zero,r2
 8008814:	d9801115 	stw	r6,68(sp)
 8008818:	d8c01015 	stw	r3,64(sp)
 800881c:	003cfe06 	br	8007c18 <_dtoa_r+0x274>
 8008820:	018dc83a 	sub	r6,zero,r6
 8008824:	d9801115 	stw	r6,68(sp)
 8008828:	d8000a15 	stw	zero,40(sp)
 800882c:	003cf306 	br	8007bfc <_dtoa_r+0x258>
 8008830:	d9000d17 	ldw	r4,52(sp)
 8008834:	800d39c0 	call	800d39c <__floatsidf>
 8008838:	880b883a 	mov	r5,r17
 800883c:	8009883a 	mov	r4,r16
 8008840:	180f883a 	mov	r7,r3
 8008844:	100d883a 	mov	r6,r2
 8008848:	800d17c0 	call	800d17c <__nedf2>
 800884c:	103ce126 	beq	r2,zero,8007bd4 <_dtoa_r+0x230>
 8008850:	d9800d17 	ldw	r6,52(sp)
 8008854:	31bfffc4 	addi	r6,r6,-1
 8008858:	d9800d15 	stw	r6,52(sp)
 800885c:	003cdd06 	br	8007bd4 <_dtoa_r+0x230>
 8008860:	d9000717 	ldw	r4,28(sp)
 8008864:	900b883a 	mov	r5,r18
 8008868:	800a0940 	call	800a094 <__mcmp>
 800886c:	103e8d0e 	bge	r2,zero,80082a4 <_dtoa_r+0x900>
 8008870:	d9400717 	ldw	r5,28(sp)
 8008874:	d9001617 	ldw	r4,88(sp)
 8008878:	01800284 	movi	r6,10
 800887c:	000f883a 	mov	r7,zero
 8008880:	800ac580 	call	800ac58 <__multadd>
 8008884:	d9800d17 	ldw	r6,52(sp)
 8008888:	d8800715 	stw	r2,28(sp)
 800888c:	31bfffc4 	addi	r6,r6,-1
 8008890:	d9800d15 	stw	r6,52(sp)
 8008894:	b001a71e 	bne	r22,zero,8008f34 <_dtoa_r+0x1590>
 8008898:	d8800e17 	ldw	r2,56(sp)
 800889c:	d8800f15 	stw	r2,60(sp)
 80088a0:	003e8006 	br	80082a4 <_dtoa_r+0x900>
 80088a4:	90800417 	ldw	r2,16(r18)
 80088a8:	1085883a 	add	r2,r2,r2
 80088ac:	1085883a 	add	r2,r2,r2
 80088b0:	1485883a 	add	r2,r2,r18
 80088b4:	11000417 	ldw	r4,16(r2)
 80088b8:	8009f600 	call	8009f60 <__hi0bits>
 80088bc:	00c00804 	movi	r3,32
 80088c0:	1887c83a 	sub	r3,r3,r2
 80088c4:	003e5a06 	br	8008230 <_dtoa_r+0x88c>
 80088c8:	d9400717 	ldw	r5,28(sp)
 80088cc:	d9801017 	ldw	r6,64(sp)
 80088d0:	d9001617 	ldw	r4,88(sp)
 80088d4:	800ad840 	call	800ad84 <__pow5mult>
 80088d8:	d8800715 	stw	r2,28(sp)
 80088dc:	003e4306 	br	80081ec <_dtoa_r+0x848>
 80088e0:	d9800f17 	ldw	r6,60(sp)
 80088e4:	d8800d17 	ldw	r2,52(sp)
 80088e8:	d9800315 	stw	r6,12(sp)
 80088ec:	d8800415 	stw	r2,16(sp)
 80088f0:	d8c00b17 	ldw	r3,44(sp)
 80088f4:	1805003a 	cmpeq	r2,r3,zero
 80088f8:	1000e21e 	bne	r2,zero,8008c84 <_dtoa_r+0x12e0>
 80088fc:	d9000317 	ldw	r4,12(sp)
 8008900:	0005883a 	mov	r2,zero
 8008904:	00cff834 	movhi	r3,16352
 8008908:	200c90fa 	slli	r6,r4,3
 800890c:	01020074 	movhi	r4,2049
 8008910:	21144b04 	addi	r4,r4,20780
 8008914:	180b883a 	mov	r5,r3
 8008918:	310d883a 	add	r6,r6,r4
 800891c:	327fff17 	ldw	r9,-4(r6)
 8008920:	323ffe17 	ldw	r8,-8(r6)
 8008924:	1009883a 	mov	r4,r2
 8008928:	480f883a 	mov	r7,r9
 800892c:	400d883a 	mov	r6,r8
 8008930:	800ce9c0 	call	800ce9c <__divdf3>
 8008934:	180b883a 	mov	r5,r3
 8008938:	b00d883a 	mov	r6,r22
 800893c:	b80f883a 	mov	r7,r23
 8008940:	1009883a 	mov	r4,r2
 8008944:	800c9e40 	call	800c9e4 <__subdf3>
 8008948:	a80b883a 	mov	r5,r21
 800894c:	a009883a 	mov	r4,r20
 8008950:	d8c01915 	stw	r3,100(sp)
 8008954:	d8801815 	stw	r2,96(sp)
 8008958:	800d4940 	call	800d494 <__fixdfsi>
 800895c:	1009883a 	mov	r4,r2
 8008960:	1027883a 	mov	r19,r2
 8008964:	800d39c0 	call	800d39c <__floatsidf>
 8008968:	a80b883a 	mov	r5,r21
 800896c:	a009883a 	mov	r4,r20
 8008970:	180f883a 	mov	r7,r3
 8008974:	100d883a 	mov	r6,r2
 8008978:	800c9e40 	call	800c9e4 <__subdf3>
 800897c:	d9801817 	ldw	r6,96(sp)
 8008980:	1823883a 	mov	r17,r3
 8008984:	d8801415 	stw	r2,80(sp)
 8008988:	302d883a 	mov	r22,r6
 800898c:	d9800517 	ldw	r6,20(sp)
 8008990:	9cc00c04 	addi	r19,r19,48
 8008994:	dc401515 	stw	r17,84(sp)
 8008998:	d8c01917 	ldw	r3,100(sp)
 800899c:	34c00005 	stb	r19,0(r6)
 80089a0:	d8800517 	ldw	r2,20(sp)
 80089a4:	d9401917 	ldw	r5,100(sp)
 80089a8:	d9801417 	ldw	r6,80(sp)
 80089ac:	b009883a 	mov	r4,r22
 80089b0:	880f883a 	mov	r7,r17
 80089b4:	182f883a 	mov	r23,r3
 80089b8:	17000044 	addi	fp,r2,1
 80089bc:	800d2040 	call	800d204 <__gtdf2>
 80089c0:	00804e16 	blt	zero,r2,8008afc <_dtoa_r+0x1158>
 80089c4:	d9801417 	ldw	r6,80(sp)
 80089c8:	0005883a 	mov	r2,zero
 80089cc:	00cffc34 	movhi	r3,16368
 80089d0:	180b883a 	mov	r5,r3
 80089d4:	880f883a 	mov	r7,r17
 80089d8:	1009883a 	mov	r4,r2
 80089dc:	800c9e40 	call	800c9e4 <__subdf3>
 80089e0:	d9401917 	ldw	r5,100(sp)
 80089e4:	180f883a 	mov	r7,r3
 80089e8:	b009883a 	mov	r4,r22
 80089ec:	100d883a 	mov	r6,r2
 80089f0:	800d2040 	call	800d204 <__gtdf2>
 80089f4:	00bda216 	blt	zero,r2,8008080 <_dtoa_r+0x6dc>
 80089f8:	d8c00317 	ldw	r3,12(sp)
 80089fc:	00800044 	movi	r2,1
 8008a00:	10c01216 	blt	r2,r3,8008a4c <_dtoa_r+0x10a8>
 8008a04:	003d4506 	br	8007f1c <_dtoa_r+0x578>
 8008a08:	d9801417 	ldw	r6,80(sp)
 8008a0c:	0005883a 	mov	r2,zero
 8008a10:	00cffc34 	movhi	r3,16368
 8008a14:	180b883a 	mov	r5,r3
 8008a18:	880f883a 	mov	r7,r17
 8008a1c:	1009883a 	mov	r4,r2
 8008a20:	800c9e40 	call	800c9e4 <__subdf3>
 8008a24:	d9c01b17 	ldw	r7,108(sp)
 8008a28:	180b883a 	mov	r5,r3
 8008a2c:	1009883a 	mov	r4,r2
 8008a30:	b00d883a 	mov	r6,r22
 8008a34:	800d3140 	call	800d314 <__ltdf2>
 8008a38:	103d9116 	blt	r2,zero,8008080 <_dtoa_r+0x6dc>
 8008a3c:	d9800517 	ldw	r6,20(sp)
 8008a40:	d9000317 	ldw	r4,12(sp)
 8008a44:	3105883a 	add	r2,r6,r4
 8008a48:	e0bd3426 	beq	fp,r2,8007f1c <_dtoa_r+0x578>
 8008a4c:	04500934 	movhi	r17,16420
 8008a50:	0021883a 	mov	r16,zero
 8008a54:	b80b883a 	mov	r5,r23
 8008a58:	b009883a 	mov	r4,r22
 8008a5c:	800d883a 	mov	r6,r16
 8008a60:	880f883a 	mov	r7,r17
 8008a64:	800cad80 	call	800cad8 <__muldf3>
 8008a68:	d9401517 	ldw	r5,84(sp)
 8008a6c:	d9001417 	ldw	r4,80(sp)
 8008a70:	880f883a 	mov	r7,r17
 8008a74:	000d883a 	mov	r6,zero
 8008a78:	d8801a15 	stw	r2,104(sp)
 8008a7c:	d8c01b15 	stw	r3,108(sp)
 8008a80:	800cad80 	call	800cad8 <__muldf3>
 8008a84:	180b883a 	mov	r5,r3
 8008a88:	1009883a 	mov	r4,r2
 8008a8c:	1823883a 	mov	r17,r3
 8008a90:	1021883a 	mov	r16,r2
 8008a94:	800d4940 	call	800d494 <__fixdfsi>
 8008a98:	1009883a 	mov	r4,r2
 8008a9c:	102b883a 	mov	r21,r2
 8008aa0:	800d39c0 	call	800d39c <__floatsidf>
 8008aa4:	880b883a 	mov	r5,r17
 8008aa8:	8009883a 	mov	r4,r16
 8008aac:	180f883a 	mov	r7,r3
 8008ab0:	100d883a 	mov	r6,r2
 8008ab4:	800c9e40 	call	800c9e4 <__subdf3>
 8008ab8:	1021883a 	mov	r16,r2
 8008abc:	d9001b17 	ldw	r4,108(sp)
 8008ac0:	1823883a 	mov	r17,r3
 8008ac4:	dc001415 	stw	r16,80(sp)
 8008ac8:	ad400c04 	addi	r21,r21,48
 8008acc:	dc401515 	stw	r17,84(sp)
 8008ad0:	d8801a17 	ldw	r2,104(sp)
 8008ad4:	e5400005 	stb	r21,0(fp)
 8008ad8:	202f883a 	mov	r23,r4
 8008adc:	d9c01b17 	ldw	r7,108(sp)
 8008ae0:	d9001417 	ldw	r4,80(sp)
 8008ae4:	880b883a 	mov	r5,r17
 8008ae8:	100d883a 	mov	r6,r2
 8008aec:	102d883a 	mov	r22,r2
 8008af0:	e7000044 	addi	fp,fp,1
 8008af4:	800d3140 	call	800d314 <__ltdf2>
 8008af8:	103fc30e 	bge	r2,zero,8008a08 <_dtoa_r+0x1064>
 8008afc:	d9000417 	ldw	r4,16(sp)
 8008b00:	d9000d15 	stw	r4,52(sp)
 8008b04:	003d7106 	br	80080cc <_dtoa_r+0x728>
 8008b08:	d9801717 	ldw	r6,92(sp)
 8008b0c:	00800084 	movi	r2,2
 8008b10:	11bde60e 	bge	r2,r6,80082ac <_dtoa_r+0x908>
 8008b14:	203cfb1e 	bne	r4,zero,8007f04 <_dtoa_r+0x560>
 8008b18:	d9001617 	ldw	r4,88(sp)
 8008b1c:	900b883a 	mov	r5,r18
 8008b20:	01800144 	movi	r6,5
 8008b24:	000f883a 	mov	r7,zero
 8008b28:	800ac580 	call	800ac58 <__multadd>
 8008b2c:	d9000717 	ldw	r4,28(sp)
 8008b30:	100b883a 	mov	r5,r2
 8008b34:	1025883a 	mov	r18,r2
 8008b38:	800a0940 	call	800a094 <__mcmp>
 8008b3c:	00bcf10e 	bge	zero,r2,8007f04 <_dtoa_r+0x560>
 8008b40:	d8c00d17 	ldw	r3,52(sp)
 8008b44:	d9000517 	ldw	r4,20(sp)
 8008b48:	d8000615 	stw	zero,24(sp)
 8008b4c:	18c00044 	addi	r3,r3,1
 8008b50:	d8c00d15 	stw	r3,52(sp)
 8008b54:	00800c44 	movi	r2,49
 8008b58:	27000044 	addi	fp,r4,1
 8008b5c:	20800005 	stb	r2,0(r4)
 8008b60:	003e8906 	br	8008588 <_dtoa_r+0xbe4>
 8008b64:	d8c00517 	ldw	r3,20(sp)
 8008b68:	003bc206 	br	8007a74 <_dtoa_r+0xd0>
 8008b6c:	01820074 	movhi	r6,2049
 8008b70:	31947d04 	addi	r6,r6,20980
 8008b74:	30c00917 	ldw	r3,36(r6)
 8008b78:	30800817 	ldw	r2,32(r6)
 8008b7c:	d9001217 	ldw	r4,72(sp)
 8008b80:	d9401317 	ldw	r5,76(sp)
 8008b84:	180f883a 	mov	r7,r3
 8008b88:	100d883a 	mov	r6,r2
 8008b8c:	800ce9c0 	call	800ce9c <__divdf3>
 8008b90:	948003cc 	andi	r18,r18,15
 8008b94:	058000c4 	movi	r22,3
 8008b98:	1029883a 	mov	r20,r2
 8008b9c:	182b883a 	mov	r21,r3
 8008ba0:	003c8906 	br	8007dc8 <_dtoa_r+0x424>
 8008ba4:	d9001017 	ldw	r4,64(sp)
 8008ba8:	d9800917 	ldw	r6,36(sp)
 8008bac:	0025883a 	mov	r18,zero
 8008bb0:	1105c83a 	sub	r2,r2,r4
 8008bb4:	2089883a 	add	r4,r4,r2
 8008bb8:	308d883a 	add	r6,r6,r2
 8008bbc:	d9001015 	stw	r4,64(sp)
 8008bc0:	d9800915 	stw	r6,36(sp)
 8008bc4:	003e3206 	br	8008490 <_dtoa_r+0xaec>
 8008bc8:	28800044 	addi	r2,r5,1
 8008bcc:	27000044 	addi	fp,r4,1
 8008bd0:	20800005 	stb	r2,0(r4)
 8008bd4:	003e6c06 	br	8008588 <_dtoa_r+0xbe4>
 8008bd8:	d8800f17 	ldw	r2,60(sp)
 8008bdc:	00bce016 	blt	zero,r2,8007f60 <_dtoa_r+0x5bc>
 8008be0:	d9800f17 	ldw	r6,60(sp)
 8008be4:	303cc51e 	bne	r6,zero,8007efc <_dtoa_r+0x558>
 8008be8:	0005883a 	mov	r2,zero
 8008bec:	00d00534 	movhi	r3,16404
 8008bf0:	980b883a 	mov	r5,r19
 8008bf4:	180f883a 	mov	r7,r3
 8008bf8:	9009883a 	mov	r4,r18
 8008bfc:	100d883a 	mov	r6,r2
 8008c00:	800cad80 	call	800cad8 <__muldf3>
 8008c04:	180b883a 	mov	r5,r3
 8008c08:	a80f883a 	mov	r7,r21
 8008c0c:	1009883a 	mov	r4,r2
 8008c10:	a00d883a 	mov	r6,r20
 8008c14:	800d28c0 	call	800d28c <__gedf2>
 8008c18:	103cb80e 	bge	r2,zero,8007efc <_dtoa_r+0x558>
 8008c1c:	0027883a 	mov	r19,zero
 8008c20:	0025883a 	mov	r18,zero
 8008c24:	003fc606 	br	8008b40 <_dtoa_r+0x119c>
 8008c28:	99400117 	ldw	r5,4(r19)
 8008c2c:	d9001617 	ldw	r4,88(sp)
 8008c30:	800a4b80 	call	800a4b8 <_Balloc>
 8008c34:	99800417 	ldw	r6,16(r19)
 8008c38:	11000304 	addi	r4,r2,12
 8008c3c:	99400304 	addi	r5,r19,12
 8008c40:	318d883a 	add	r6,r6,r6
 8008c44:	318d883a 	add	r6,r6,r6
 8008c48:	31800204 	addi	r6,r6,8
 8008c4c:	1023883a 	mov	r17,r2
 8008c50:	8004f880 	call	8004f88 <memcpy>
 8008c54:	d9001617 	ldw	r4,88(sp)
 8008c58:	880b883a 	mov	r5,r17
 8008c5c:	01800044 	movi	r6,1
 8008c60:	800a87c0 	call	800a87c <__lshift>
 8008c64:	100b883a 	mov	r5,r2
 8008c68:	003d9c06 	br	80082dc <_dtoa_r+0x938>
 8008c6c:	00800e44 	movi	r2,57
 8008c70:	b8807026 	beq	r23,r2,8008e34 <_dtoa_r+0x1490>
 8008c74:	b8800044 	addi	r2,r23,1
 8008c78:	b7000044 	addi	fp,r22,1
 8008c7c:	b0800005 	stb	r2,0(r22)
 8008c80:	003e4106 	br	8008588 <_dtoa_r+0xbe4>
 8008c84:	d8800317 	ldw	r2,12(sp)
 8008c88:	01820074 	movhi	r6,2049
 8008c8c:	31944b04 	addi	r6,r6,20780
 8008c90:	b009883a 	mov	r4,r22
 8008c94:	100e90fa 	slli	r7,r2,3
 8008c98:	b80b883a 	mov	r5,r23
 8008c9c:	398f883a 	add	r7,r7,r6
 8008ca0:	38bffe17 	ldw	r2,-8(r7)
 8008ca4:	d9800517 	ldw	r6,20(sp)
 8008ca8:	38ffff17 	ldw	r3,-4(r7)
 8008cac:	37000044 	addi	fp,r6,1
 8008cb0:	180f883a 	mov	r7,r3
 8008cb4:	100d883a 	mov	r6,r2
 8008cb8:	800cad80 	call	800cad8 <__muldf3>
 8008cbc:	a80b883a 	mov	r5,r21
 8008cc0:	a009883a 	mov	r4,r20
 8008cc4:	182f883a 	mov	r23,r3
 8008cc8:	102d883a 	mov	r22,r2
 8008ccc:	800d4940 	call	800d494 <__fixdfsi>
 8008cd0:	1009883a 	mov	r4,r2
 8008cd4:	1027883a 	mov	r19,r2
 8008cd8:	800d39c0 	call	800d39c <__floatsidf>
 8008cdc:	a80b883a 	mov	r5,r21
 8008ce0:	a009883a 	mov	r4,r20
 8008ce4:	180f883a 	mov	r7,r3
 8008ce8:	100d883a 	mov	r6,r2
 8008cec:	800c9e40 	call	800c9e4 <__subdf3>
 8008cf0:	180b883a 	mov	r5,r3
 8008cf4:	d8c00517 	ldw	r3,20(sp)
 8008cf8:	9cc00c04 	addi	r19,r19,48
 8008cfc:	1009883a 	mov	r4,r2
 8008d00:	1cc00005 	stb	r19,0(r3)
 8008d04:	2021883a 	mov	r16,r4
 8008d08:	d9000317 	ldw	r4,12(sp)
 8008d0c:	00800044 	movi	r2,1
 8008d10:	2823883a 	mov	r17,r5
 8008d14:	20802226 	beq	r4,r2,8008da0 <_dtoa_r+0x13fc>
 8008d18:	1029883a 	mov	r20,r2
 8008d1c:	0005883a 	mov	r2,zero
 8008d20:	00d00934 	movhi	r3,16420
 8008d24:	180f883a 	mov	r7,r3
 8008d28:	100d883a 	mov	r6,r2
 8008d2c:	880b883a 	mov	r5,r17
 8008d30:	8009883a 	mov	r4,r16
 8008d34:	800cad80 	call	800cad8 <__muldf3>
 8008d38:	180b883a 	mov	r5,r3
 8008d3c:	1009883a 	mov	r4,r2
 8008d40:	1823883a 	mov	r17,r3
 8008d44:	1021883a 	mov	r16,r2
 8008d48:	800d4940 	call	800d494 <__fixdfsi>
 8008d4c:	1009883a 	mov	r4,r2
 8008d50:	102b883a 	mov	r21,r2
 8008d54:	800d39c0 	call	800d39c <__floatsidf>
 8008d58:	880b883a 	mov	r5,r17
 8008d5c:	8009883a 	mov	r4,r16
 8008d60:	180f883a 	mov	r7,r3
 8008d64:	100d883a 	mov	r6,r2
 8008d68:	800c9e40 	call	800c9e4 <__subdf3>
 8008d6c:	180b883a 	mov	r5,r3
 8008d70:	d8c00517 	ldw	r3,20(sp)
 8008d74:	1009883a 	mov	r4,r2
 8008d78:	ad400c04 	addi	r21,r21,48
 8008d7c:	1d05883a 	add	r2,r3,r20
 8008d80:	15400005 	stb	r21,0(r2)
 8008d84:	2021883a 	mov	r16,r4
 8008d88:	d9000317 	ldw	r4,12(sp)
 8008d8c:	a5000044 	addi	r20,r20,1
 8008d90:	2823883a 	mov	r17,r5
 8008d94:	a13fe11e 	bne	r20,r4,8008d1c <_dtoa_r+0x1378>
 8008d98:	e505883a 	add	r2,fp,r20
 8008d9c:	173fffc4 	addi	fp,r2,-1
 8008da0:	0025883a 	mov	r18,zero
 8008da4:	04cff834 	movhi	r19,16352
 8008da8:	b009883a 	mov	r4,r22
 8008dac:	b80b883a 	mov	r5,r23
 8008db0:	900d883a 	mov	r6,r18
 8008db4:	980f883a 	mov	r7,r19
 8008db8:	800ca640 	call	800ca64 <__adddf3>
 8008dbc:	180b883a 	mov	r5,r3
 8008dc0:	1009883a 	mov	r4,r2
 8008dc4:	800d883a 	mov	r6,r16
 8008dc8:	880f883a 	mov	r7,r17
 8008dcc:	800d3140 	call	800d314 <__ltdf2>
 8008dd0:	103cab16 	blt	r2,zero,8008080 <_dtoa_r+0x6dc>
 8008dd4:	0009883a 	mov	r4,zero
 8008dd8:	980b883a 	mov	r5,r19
 8008ddc:	b80f883a 	mov	r7,r23
 8008de0:	b00d883a 	mov	r6,r22
 8008de4:	800c9e40 	call	800c9e4 <__subdf3>
 8008de8:	180b883a 	mov	r5,r3
 8008dec:	880f883a 	mov	r7,r17
 8008df0:	1009883a 	mov	r4,r2
 8008df4:	800d883a 	mov	r6,r16
 8008df8:	800d2040 	call	800d204 <__gtdf2>
 8008dfc:	00bc470e 	bge	zero,r2,8007f1c <_dtoa_r+0x578>
 8008e00:	00c00c04 	movi	r3,48
 8008e04:	e73fffc4 	addi	fp,fp,-1
 8008e08:	e0800007 	ldb	r2,0(fp)
 8008e0c:	10fffd26 	beq	r2,r3,8008e04 <_dtoa_r+0x1460>
 8008e10:	d9800417 	ldw	r6,16(sp)
 8008e14:	e7000044 	addi	fp,fp,1
 8008e18:	d9800d15 	stw	r6,52(sp)
 8008e1c:	003cab06 	br	80080cc <_dtoa_r+0x728>
 8008e20:	d8c00f17 	ldw	r3,60(sp)
 8008e24:	d9001117 	ldw	r4,68(sp)
 8008e28:	20e1c83a 	sub	r16,r4,r3
 8008e2c:	0007883a 	mov	r3,zero
 8008e30:	003d9b06 	br	80084a0 <_dtoa_r+0xafc>
 8008e34:	00800e44 	movi	r2,57
 8008e38:	b0800005 	stb	r2,0(r22)
 8008e3c:	b5800044 	addi	r22,r22,1
 8008e40:	003dc106 	br	8008548 <_dtoa_r+0xba4>
 8008e44:	05800084 	movi	r22,2
 8008e48:	003bf706 	br	8007e28 <_dtoa_r+0x484>
 8008e4c:	d9000f17 	ldw	r4,60(sp)
 8008e50:	013c000e 	bge	zero,r4,8007e54 <_dtoa_r+0x4b0>
 8008e54:	d9800e17 	ldw	r6,56(sp)
 8008e58:	01bc300e 	bge	zero,r6,8007f1c <_dtoa_r+0x578>
 8008e5c:	0005883a 	mov	r2,zero
 8008e60:	00d00934 	movhi	r3,16420
 8008e64:	a80b883a 	mov	r5,r21
 8008e68:	180f883a 	mov	r7,r3
 8008e6c:	a009883a 	mov	r4,r20
 8008e70:	100d883a 	mov	r6,r2
 8008e74:	800cad80 	call	800cad8 <__muldf3>
 8008e78:	b1000044 	addi	r4,r22,1
 8008e7c:	1021883a 	mov	r16,r2
 8008e80:	1823883a 	mov	r17,r3
 8008e84:	800d39c0 	call	800d39c <__floatsidf>
 8008e88:	880b883a 	mov	r5,r17
 8008e8c:	8009883a 	mov	r4,r16
 8008e90:	180f883a 	mov	r7,r3
 8008e94:	100d883a 	mov	r6,r2
 8008e98:	800cad80 	call	800cad8 <__muldf3>
 8008e9c:	0011883a 	mov	r8,zero
 8008ea0:	02500734 	movhi	r9,16412
 8008ea4:	180b883a 	mov	r5,r3
 8008ea8:	480f883a 	mov	r7,r9
 8008eac:	1009883a 	mov	r4,r2
 8008eb0:	400d883a 	mov	r6,r8
 8008eb4:	800ca640 	call	800ca64 <__adddf3>
 8008eb8:	102d883a 	mov	r22,r2
 8008ebc:	00bf3034 	movhi	r2,64704
 8008ec0:	10ef883a 	add	r23,r2,r3
 8008ec4:	d8800d17 	ldw	r2,52(sp)
 8008ec8:	d8c00e17 	ldw	r3,56(sp)
 8008ecc:	8029883a 	mov	r20,r16
 8008ed0:	10bfffc4 	addi	r2,r2,-1
 8008ed4:	882b883a 	mov	r21,r17
 8008ed8:	d8800415 	stw	r2,16(sp)
 8008edc:	d8c00315 	stw	r3,12(sp)
 8008ee0:	003e8306 	br	80088f0 <_dtoa_r+0xf4c>
 8008ee4:	d8800117 	ldw	r2,4(sp)
 8008ee8:	dc001117 	ldw	r16,68(sp)
 8008eec:	dc801017 	ldw	r18,64(sp)
 8008ef0:	00c00d84 	movi	r3,54
 8008ef4:	1887c83a 	sub	r3,r3,r2
 8008ef8:	003d6906 	br	80084a0 <_dtoa_r+0xafc>
 8008efc:	01800044 	movi	r6,1
 8008f00:	3021883a 	mov	r16,r6
 8008f04:	d9800f15 	stw	r6,60(sp)
 8008f08:	d9802615 	stw	r6,152(sp)
 8008f0c:	d9800e15 	stw	r6,56(sp)
 8008f10:	003b9306 	br	8007d60 <_dtoa_r+0x3bc>
 8008f14:	b021883a 	mov	r16,r22
 8008f18:	dd800f15 	stw	r22,60(sp)
 8008f1c:	003b9006 	br	8007d60 <_dtoa_r+0x3bc>
 8008f20:	103e221e 	bne	r2,zero,80087ac <_dtoa_r+0xe08>
 8008f24:	b880004c 	andi	r2,r23,1
 8008f28:	1005003a 	cmpeq	r2,r2,zero
 8008f2c:	103e1f1e 	bne	r2,zero,80087ac <_dtoa_r+0xe08>
 8008f30:	003e1b06 	br	80087a0 <_dtoa_r+0xdfc>
 8008f34:	d9001617 	ldw	r4,88(sp)
 8008f38:	980b883a 	mov	r5,r19
 8008f3c:	01800284 	movi	r6,10
 8008f40:	000f883a 	mov	r7,zero
 8008f44:	800ac580 	call	800ac58 <__multadd>
 8008f48:	d8c00e17 	ldw	r3,56(sp)
 8008f4c:	1027883a 	mov	r19,r2
 8008f50:	d8c00f15 	stw	r3,60(sp)
 8008f54:	003cd306 	br	80082a4 <_dtoa_r+0x900>

08008f58 <_fclose_r>:
 8008f58:	defffc04 	addi	sp,sp,-16
 8008f5c:	dc400115 	stw	r17,4(sp)
 8008f60:	dc000015 	stw	r16,0(sp)
 8008f64:	dfc00315 	stw	ra,12(sp)
 8008f68:	dc800215 	stw	r18,8(sp)
 8008f6c:	2821883a 	mov	r16,r5
 8008f70:	2023883a 	mov	r17,r4
 8008f74:	28002926 	beq	r5,zero,800901c <_fclose_r+0xc4>
 8008f78:	80043200 	call	8004320 <__sfp_lock_acquire>
 8008f7c:	88000226 	beq	r17,zero,8008f88 <_fclose_r+0x30>
 8008f80:	88800e17 	ldw	r2,56(r17)
 8008f84:	10002d26 	beq	r2,zero,800903c <_fclose_r+0xe4>
 8008f88:	8080030f 	ldh	r2,12(r16)
 8008f8c:	10002226 	beq	r2,zero,8009018 <_fclose_r+0xc0>
 8008f90:	8809883a 	mov	r4,r17
 8008f94:	800b883a 	mov	r5,r16
 8008f98:	800907c0 	call	800907c <_fflush_r>
 8008f9c:	1025883a 	mov	r18,r2
 8008fa0:	80800b17 	ldw	r2,44(r16)
 8008fa4:	10000426 	beq	r2,zero,8008fb8 <_fclose_r+0x60>
 8008fa8:	81400717 	ldw	r5,28(r16)
 8008fac:	8809883a 	mov	r4,r17
 8008fb0:	103ee83a 	callr	r2
 8008fb4:	10002a16 	blt	r2,zero,8009060 <_fclose_r+0x108>
 8008fb8:	8080030b 	ldhu	r2,12(r16)
 8008fbc:	1080200c 	andi	r2,r2,128
 8008fc0:	1000231e 	bne	r2,zero,8009050 <_fclose_r+0xf8>
 8008fc4:	81400c17 	ldw	r5,48(r16)
 8008fc8:	28000526 	beq	r5,zero,8008fe0 <_fclose_r+0x88>
 8008fcc:	80801004 	addi	r2,r16,64
 8008fd0:	28800226 	beq	r5,r2,8008fdc <_fclose_r+0x84>
 8008fd4:	8809883a 	mov	r4,r17
 8008fd8:	80093d80 	call	80093d8 <_free_r>
 8008fdc:	80000c15 	stw	zero,48(r16)
 8008fe0:	81401117 	ldw	r5,68(r16)
 8008fe4:	28000326 	beq	r5,zero,8008ff4 <_fclose_r+0x9c>
 8008fe8:	8809883a 	mov	r4,r17
 8008fec:	80093d80 	call	80093d8 <_free_r>
 8008ff0:	80001115 	stw	zero,68(r16)
 8008ff4:	8000030d 	sth	zero,12(r16)
 8008ff8:	80043240 	call	8004324 <__sfp_lock_release>
 8008ffc:	9005883a 	mov	r2,r18
 8009000:	dfc00317 	ldw	ra,12(sp)
 8009004:	dc800217 	ldw	r18,8(sp)
 8009008:	dc400117 	ldw	r17,4(sp)
 800900c:	dc000017 	ldw	r16,0(sp)
 8009010:	dec00404 	addi	sp,sp,16
 8009014:	f800283a 	ret
 8009018:	80043240 	call	8004324 <__sfp_lock_release>
 800901c:	0025883a 	mov	r18,zero
 8009020:	9005883a 	mov	r2,r18
 8009024:	dfc00317 	ldw	ra,12(sp)
 8009028:	dc800217 	ldw	r18,8(sp)
 800902c:	dc400117 	ldw	r17,4(sp)
 8009030:	dc000017 	ldw	r16,0(sp)
 8009034:	dec00404 	addi	sp,sp,16
 8009038:	f800283a 	ret
 800903c:	8809883a 	mov	r4,r17
 8009040:	80043300 	call	8004330 <__sinit>
 8009044:	8080030f 	ldh	r2,12(r16)
 8009048:	103fd11e 	bne	r2,zero,8008f90 <_fclose_r+0x38>
 800904c:	003ff206 	br	8009018 <_fclose_r+0xc0>
 8009050:	81400417 	ldw	r5,16(r16)
 8009054:	8809883a 	mov	r4,r17
 8009058:	80093d80 	call	80093d8 <_free_r>
 800905c:	003fd906 	br	8008fc4 <_fclose_r+0x6c>
 8009060:	04bfffc4 	movi	r18,-1
 8009064:	003fd406 	br	8008fb8 <_fclose_r+0x60>

08009068 <fclose>:
 8009068:	00820074 	movhi	r2,2049
 800906c:	109b8304 	addi	r2,r2,28172
 8009070:	200b883a 	mov	r5,r4
 8009074:	11000017 	ldw	r4,0(r2)
 8009078:	8008f581 	jmpi	8008f58 <_fclose_r>

0800907c <_fflush_r>:
 800907c:	defffb04 	addi	sp,sp,-20
 8009080:	dcc00315 	stw	r19,12(sp)
 8009084:	dc800215 	stw	r18,8(sp)
 8009088:	dfc00415 	stw	ra,16(sp)
 800908c:	dc400115 	stw	r17,4(sp)
 8009090:	dc000015 	stw	r16,0(sp)
 8009094:	2027883a 	mov	r19,r4
 8009098:	2825883a 	mov	r18,r5
 800909c:	20000226 	beq	r4,zero,80090a8 <_fflush_r+0x2c>
 80090a0:	20800e17 	ldw	r2,56(r4)
 80090a4:	10005626 	beq	r2,zero,8009200 <_fflush_r+0x184>
 80090a8:	9100030b 	ldhu	r4,12(r18)
 80090ac:	20ffffcc 	andi	r3,r4,65535
 80090b0:	18e0001c 	xori	r3,r3,32768
 80090b4:	18e00004 	addi	r3,r3,-32768
 80090b8:	1880020c 	andi	r2,r3,8
 80090bc:	1000261e 	bne	r2,zero,8009158 <_fflush_r+0xdc>
 80090c0:	90c00117 	ldw	r3,4(r18)
 80090c4:	20820014 	ori	r2,r4,2048
 80090c8:	9080030d 	sth	r2,12(r18)
 80090cc:	1009883a 	mov	r4,r2
 80090d0:	00c0400e 	bge	zero,r3,80091d4 <_fflush_r+0x158>
 80090d4:	92000a17 	ldw	r8,40(r18)
 80090d8:	40004026 	beq	r8,zero,80091dc <_fflush_r+0x160>
 80090dc:	2084000c 	andi	r2,r4,4096
 80090e0:	10005326 	beq	r2,zero,8009230 <_fflush_r+0x1b4>
 80090e4:	94001417 	ldw	r16,80(r18)
 80090e8:	9080030b 	ldhu	r2,12(r18)
 80090ec:	1080010c 	andi	r2,r2,4
 80090f0:	1000481e 	bne	r2,zero,8009214 <_fflush_r+0x198>
 80090f4:	91400717 	ldw	r5,28(r18)
 80090f8:	9809883a 	mov	r4,r19
 80090fc:	800d883a 	mov	r6,r16
 8009100:	000f883a 	mov	r7,zero
 8009104:	403ee83a 	callr	r8
 8009108:	8080261e 	bne	r16,r2,80091a4 <_fflush_r+0x128>
 800910c:	9080030b 	ldhu	r2,12(r18)
 8009110:	91000417 	ldw	r4,16(r18)
 8009114:	90000115 	stw	zero,4(r18)
 8009118:	10bdffcc 	andi	r2,r2,63487
 800911c:	10ffffcc 	andi	r3,r2,65535
 8009120:	18c4000c 	andi	r3,r3,4096
 8009124:	9080030d 	sth	r2,12(r18)
 8009128:	91000015 	stw	r4,0(r18)
 800912c:	18002b26 	beq	r3,zero,80091dc <_fflush_r+0x160>
 8009130:	0007883a 	mov	r3,zero
 8009134:	1805883a 	mov	r2,r3
 8009138:	94001415 	stw	r16,80(r18)
 800913c:	dfc00417 	ldw	ra,16(sp)
 8009140:	dcc00317 	ldw	r19,12(sp)
 8009144:	dc800217 	ldw	r18,8(sp)
 8009148:	dc400117 	ldw	r17,4(sp)
 800914c:	dc000017 	ldw	r16,0(sp)
 8009150:	dec00504 	addi	sp,sp,20
 8009154:	f800283a 	ret
 8009158:	94400417 	ldw	r17,16(r18)
 800915c:	88001f26 	beq	r17,zero,80091dc <_fflush_r+0x160>
 8009160:	90800017 	ldw	r2,0(r18)
 8009164:	18c000cc 	andi	r3,r3,3
 8009168:	94400015 	stw	r17,0(r18)
 800916c:	1461c83a 	sub	r16,r2,r17
 8009170:	18002526 	beq	r3,zero,8009208 <_fflush_r+0x18c>
 8009174:	0005883a 	mov	r2,zero
 8009178:	90800215 	stw	r2,8(r18)
 800917c:	0400170e 	bge	zero,r16,80091dc <_fflush_r+0x160>
 8009180:	90c00917 	ldw	r3,36(r18)
 8009184:	91400717 	ldw	r5,28(r18)
 8009188:	880d883a 	mov	r6,r17
 800918c:	800f883a 	mov	r7,r16
 8009190:	9809883a 	mov	r4,r19
 8009194:	183ee83a 	callr	r3
 8009198:	88a3883a 	add	r17,r17,r2
 800919c:	80a1c83a 	sub	r16,r16,r2
 80091a0:	00bff616 	blt	zero,r2,800917c <_fflush_r+0x100>
 80091a4:	9080030b 	ldhu	r2,12(r18)
 80091a8:	00ffffc4 	movi	r3,-1
 80091ac:	10801014 	ori	r2,r2,64
 80091b0:	9080030d 	sth	r2,12(r18)
 80091b4:	1805883a 	mov	r2,r3
 80091b8:	dfc00417 	ldw	ra,16(sp)
 80091bc:	dcc00317 	ldw	r19,12(sp)
 80091c0:	dc800217 	ldw	r18,8(sp)
 80091c4:	dc400117 	ldw	r17,4(sp)
 80091c8:	dc000017 	ldw	r16,0(sp)
 80091cc:	dec00504 	addi	sp,sp,20
 80091d0:	f800283a 	ret
 80091d4:	90800f17 	ldw	r2,60(r18)
 80091d8:	00bfbe16 	blt	zero,r2,80090d4 <_fflush_r+0x58>
 80091dc:	0007883a 	mov	r3,zero
 80091e0:	1805883a 	mov	r2,r3
 80091e4:	dfc00417 	ldw	ra,16(sp)
 80091e8:	dcc00317 	ldw	r19,12(sp)
 80091ec:	dc800217 	ldw	r18,8(sp)
 80091f0:	dc400117 	ldw	r17,4(sp)
 80091f4:	dc000017 	ldw	r16,0(sp)
 80091f8:	dec00504 	addi	sp,sp,20
 80091fc:	f800283a 	ret
 8009200:	80043300 	call	8004330 <__sinit>
 8009204:	003fa806 	br	80090a8 <_fflush_r+0x2c>
 8009208:	90800517 	ldw	r2,20(r18)
 800920c:	90800215 	stw	r2,8(r18)
 8009210:	003fda06 	br	800917c <_fflush_r+0x100>
 8009214:	90800117 	ldw	r2,4(r18)
 8009218:	90c00c17 	ldw	r3,48(r18)
 800921c:	80a1c83a 	sub	r16,r16,r2
 8009220:	183fb426 	beq	r3,zero,80090f4 <_fflush_r+0x78>
 8009224:	90800f17 	ldw	r2,60(r18)
 8009228:	80a1c83a 	sub	r16,r16,r2
 800922c:	003fb106 	br	80090f4 <_fflush_r+0x78>
 8009230:	91400717 	ldw	r5,28(r18)
 8009234:	9809883a 	mov	r4,r19
 8009238:	000d883a 	mov	r6,zero
 800923c:	01c00044 	movi	r7,1
 8009240:	403ee83a 	callr	r8
 8009244:	1021883a 	mov	r16,r2
 8009248:	00bfffc4 	movi	r2,-1
 800924c:	80800226 	beq	r16,r2,8009258 <_fflush_r+0x1dc>
 8009250:	92000a17 	ldw	r8,40(r18)
 8009254:	003fa406 	br	80090e8 <_fflush_r+0x6c>
 8009258:	98c00017 	ldw	r3,0(r19)
 800925c:	00800744 	movi	r2,29
 8009260:	18bfde26 	beq	r3,r2,80091dc <_fflush_r+0x160>
 8009264:	9080030b 	ldhu	r2,12(r18)
 8009268:	8007883a 	mov	r3,r16
 800926c:	10801014 	ori	r2,r2,64
 8009270:	9080030d 	sth	r2,12(r18)
 8009274:	003fcf06 	br	80091b4 <_fflush_r+0x138>

08009278 <fflush>:
 8009278:	01420074 	movhi	r5,2049
 800927c:	29641f04 	addi	r5,r5,-28548
 8009280:	2007883a 	mov	r3,r4
 8009284:	20000526 	beq	r4,zero,800929c <fflush+0x24>
 8009288:	00820074 	movhi	r2,2049
 800928c:	109b8304 	addi	r2,r2,28172
 8009290:	11000017 	ldw	r4,0(r2)
 8009294:	180b883a 	mov	r5,r3
 8009298:	800907c1 	jmpi	800907c <_fflush_r>
 800929c:	00820074 	movhi	r2,2049
 80092a0:	109b8404 	addi	r2,r2,28176
 80092a4:	11000017 	ldw	r4,0(r2)
 80092a8:	80045bc1 	jmpi	80045bc <_fwalk_reent>

080092ac <_malloc_trim_r>:
 80092ac:	defffb04 	addi	sp,sp,-20
 80092b0:	dcc00315 	stw	r19,12(sp)
 80092b4:	04c20074 	movhi	r19,2049
 80092b8:	9cd5f104 	addi	r19,r19,22468
 80092bc:	dc800215 	stw	r18,8(sp)
 80092c0:	dc400115 	stw	r17,4(sp)
 80092c4:	dc000015 	stw	r16,0(sp)
 80092c8:	2823883a 	mov	r17,r5
 80092cc:	2025883a 	mov	r18,r4
 80092d0:	dfc00415 	stw	ra,16(sp)
 80092d4:	800e5d00 	call	800e5d0 <__malloc_lock>
 80092d8:	98800217 	ldw	r2,8(r19)
 80092dc:	9009883a 	mov	r4,r18
 80092e0:	000b883a 	mov	r5,zero
 80092e4:	10c00117 	ldw	r3,4(r2)
 80092e8:	00bfff04 	movi	r2,-4
 80092ec:	18a0703a 	and	r16,r3,r2
 80092f0:	8463c83a 	sub	r17,r16,r17
 80092f4:	8c43fbc4 	addi	r17,r17,4079
 80092f8:	8822d33a 	srli	r17,r17,12
 80092fc:	0083ffc4 	movi	r2,4095
 8009300:	8c7fffc4 	addi	r17,r17,-1
 8009304:	8822933a 	slli	r17,r17,12
 8009308:	1440060e 	bge	r2,r17,8009324 <_malloc_trim_r+0x78>
 800930c:	80053cc0 	call	80053cc <_sbrk_r>
 8009310:	98c00217 	ldw	r3,8(r19)
 8009314:	9009883a 	mov	r4,r18
 8009318:	044bc83a 	sub	r5,zero,r17
 800931c:	80c7883a 	add	r3,r16,r3
 8009320:	10c00926 	beq	r2,r3,8009348 <_malloc_trim_r+0x9c>
 8009324:	800e5f00 	call	800e5f0 <__malloc_unlock>
 8009328:	0005883a 	mov	r2,zero
 800932c:	dfc00417 	ldw	ra,16(sp)
 8009330:	dcc00317 	ldw	r19,12(sp)
 8009334:	dc800217 	ldw	r18,8(sp)
 8009338:	dc400117 	ldw	r17,4(sp)
 800933c:	dc000017 	ldw	r16,0(sp)
 8009340:	dec00504 	addi	sp,sp,20
 8009344:	f800283a 	ret
 8009348:	9009883a 	mov	r4,r18
 800934c:	80053cc0 	call	80053cc <_sbrk_r>
 8009350:	844dc83a 	sub	r6,r16,r17
 8009354:	00ffffc4 	movi	r3,-1
 8009358:	9009883a 	mov	r4,r18
 800935c:	000b883a 	mov	r5,zero
 8009360:	01c200b4 	movhi	r7,2050
 8009364:	39e25204 	addi	r7,r7,-30392
 8009368:	31800054 	ori	r6,r6,1
 800936c:	10c00926 	beq	r2,r3,8009394 <_malloc_trim_r+0xe8>
 8009370:	38800017 	ldw	r2,0(r7)
 8009374:	98c00217 	ldw	r3,8(r19)
 8009378:	9009883a 	mov	r4,r18
 800937c:	1445c83a 	sub	r2,r2,r17
 8009380:	38800015 	stw	r2,0(r7)
 8009384:	19800115 	stw	r6,4(r3)
 8009388:	800e5f00 	call	800e5f0 <__malloc_unlock>
 800938c:	00800044 	movi	r2,1
 8009390:	003fe606 	br	800932c <_malloc_trim_r+0x80>
 8009394:	80053cc0 	call	80053cc <_sbrk_r>
 8009398:	99800217 	ldw	r6,8(r19)
 800939c:	100f883a 	mov	r7,r2
 80093a0:	9009883a 	mov	r4,r18
 80093a4:	1187c83a 	sub	r3,r2,r6
 80093a8:	008003c4 	movi	r2,15
 80093ac:	19400054 	ori	r5,r3,1
 80093b0:	10ffdc0e 	bge	r2,r3,8009324 <_malloc_trim_r+0x78>
 80093b4:	00820074 	movhi	r2,2049
 80093b8:	109b8604 	addi	r2,r2,28184
 80093bc:	10c00017 	ldw	r3,0(r2)
 80093c0:	008200b4 	movhi	r2,2050
 80093c4:	10a25204 	addi	r2,r2,-30392
 80093c8:	31400115 	stw	r5,4(r6)
 80093cc:	38c7c83a 	sub	r3,r7,r3
 80093d0:	10c00015 	stw	r3,0(r2)
 80093d4:	003fd306 	br	8009324 <_malloc_trim_r+0x78>

080093d8 <_free_r>:
 80093d8:	defffd04 	addi	sp,sp,-12
 80093dc:	dc400115 	stw	r17,4(sp)
 80093e0:	dc000015 	stw	r16,0(sp)
 80093e4:	dfc00215 	stw	ra,8(sp)
 80093e8:	2821883a 	mov	r16,r5
 80093ec:	2023883a 	mov	r17,r4
 80093f0:	28005a26 	beq	r5,zero,800955c <_free_r+0x184>
 80093f4:	800e5d00 	call	800e5d0 <__malloc_lock>
 80093f8:	823ffe04 	addi	r8,r16,-8
 80093fc:	41400117 	ldw	r5,4(r8)
 8009400:	00bfff84 	movi	r2,-2
 8009404:	02820074 	movhi	r10,2049
 8009408:	5295f104 	addi	r10,r10,22468
 800940c:	288e703a 	and	r7,r5,r2
 8009410:	41cd883a 	add	r6,r8,r7
 8009414:	30c00117 	ldw	r3,4(r6)
 8009418:	51000217 	ldw	r4,8(r10)
 800941c:	00bfff04 	movi	r2,-4
 8009420:	1892703a 	and	r9,r3,r2
 8009424:	5017883a 	mov	r11,r10
 8009428:	31006726 	beq	r6,r4,80095c8 <_free_r+0x1f0>
 800942c:	2880004c 	andi	r2,r5,1
 8009430:	1005003a 	cmpeq	r2,r2,zero
 8009434:	32400115 	stw	r9,4(r6)
 8009438:	10001a1e 	bne	r2,zero,80094a4 <_free_r+0xcc>
 800943c:	000b883a 	mov	r5,zero
 8009440:	3247883a 	add	r3,r6,r9
 8009444:	18800117 	ldw	r2,4(r3)
 8009448:	1080004c 	andi	r2,r2,1
 800944c:	1000231e 	bne	r2,zero,80094dc <_free_r+0x104>
 8009450:	280ac03a 	cmpne	r5,r5,zero
 8009454:	3a4f883a 	add	r7,r7,r9
 8009458:	2800451e 	bne	r5,zero,8009570 <_free_r+0x198>
 800945c:	31000217 	ldw	r4,8(r6)
 8009460:	00820074 	movhi	r2,2049
 8009464:	1095f304 	addi	r2,r2,22476
 8009468:	20807b26 	beq	r4,r2,8009658 <_free_r+0x280>
 800946c:	30800317 	ldw	r2,12(r6)
 8009470:	3a07883a 	add	r3,r7,r8
 8009474:	19c00015 	stw	r7,0(r3)
 8009478:	11000215 	stw	r4,8(r2)
 800947c:	20800315 	stw	r2,12(r4)
 8009480:	38800054 	ori	r2,r7,1
 8009484:	40800115 	stw	r2,4(r8)
 8009488:	28001a26 	beq	r5,zero,80094f4 <_free_r+0x11c>
 800948c:	8809883a 	mov	r4,r17
 8009490:	dfc00217 	ldw	ra,8(sp)
 8009494:	dc400117 	ldw	r17,4(sp)
 8009498:	dc000017 	ldw	r16,0(sp)
 800949c:	dec00304 	addi	sp,sp,12
 80094a0:	800e5f01 	jmpi	800e5f0 <__malloc_unlock>
 80094a4:	80bffe17 	ldw	r2,-8(r16)
 80094a8:	50c00204 	addi	r3,r10,8
 80094ac:	4091c83a 	sub	r8,r8,r2
 80094b0:	41000217 	ldw	r4,8(r8)
 80094b4:	388f883a 	add	r7,r7,r2
 80094b8:	20c06126 	beq	r4,r3,8009640 <_free_r+0x268>
 80094bc:	40800317 	ldw	r2,12(r8)
 80094c0:	3247883a 	add	r3,r6,r9
 80094c4:	000b883a 	mov	r5,zero
 80094c8:	11000215 	stw	r4,8(r2)
 80094cc:	20800315 	stw	r2,12(r4)
 80094d0:	18800117 	ldw	r2,4(r3)
 80094d4:	1080004c 	andi	r2,r2,1
 80094d8:	103fdd26 	beq	r2,zero,8009450 <_free_r+0x78>
 80094dc:	38800054 	ori	r2,r7,1
 80094e0:	3a07883a 	add	r3,r7,r8
 80094e4:	280ac03a 	cmpne	r5,r5,zero
 80094e8:	40800115 	stw	r2,4(r8)
 80094ec:	19c00015 	stw	r7,0(r3)
 80094f0:	283fe61e 	bne	r5,zero,800948c <_free_r+0xb4>
 80094f4:	00807fc4 	movi	r2,511
 80094f8:	11c01f2e 	bgeu	r2,r7,8009578 <_free_r+0x1a0>
 80094fc:	3806d27a 	srli	r3,r7,9
 8009500:	1800481e 	bne	r3,zero,8009624 <_free_r+0x24c>
 8009504:	3804d0fa 	srli	r2,r7,3
 8009508:	100690fa 	slli	r3,r2,3
 800950c:	1acd883a 	add	r6,r3,r11
 8009510:	31400217 	ldw	r5,8(r6)
 8009514:	31405926 	beq	r6,r5,800967c <_free_r+0x2a4>
 8009518:	28800117 	ldw	r2,4(r5)
 800951c:	00ffff04 	movi	r3,-4
 8009520:	10c4703a 	and	r2,r2,r3
 8009524:	3880022e 	bgeu	r7,r2,8009530 <_free_r+0x158>
 8009528:	29400217 	ldw	r5,8(r5)
 800952c:	317ffa1e 	bne	r6,r5,8009518 <_free_r+0x140>
 8009530:	29800317 	ldw	r6,12(r5)
 8009534:	41800315 	stw	r6,12(r8)
 8009538:	41400215 	stw	r5,8(r8)
 800953c:	8809883a 	mov	r4,r17
 8009540:	2a000315 	stw	r8,12(r5)
 8009544:	32000215 	stw	r8,8(r6)
 8009548:	dfc00217 	ldw	ra,8(sp)
 800954c:	dc400117 	ldw	r17,4(sp)
 8009550:	dc000017 	ldw	r16,0(sp)
 8009554:	dec00304 	addi	sp,sp,12
 8009558:	800e5f01 	jmpi	800e5f0 <__malloc_unlock>
 800955c:	dfc00217 	ldw	ra,8(sp)
 8009560:	dc400117 	ldw	r17,4(sp)
 8009564:	dc000017 	ldw	r16,0(sp)
 8009568:	dec00304 	addi	sp,sp,12
 800956c:	f800283a 	ret
 8009570:	31000217 	ldw	r4,8(r6)
 8009574:	003fbd06 	br	800946c <_free_r+0x94>
 8009578:	3806d0fa 	srli	r3,r7,3
 800957c:	00800044 	movi	r2,1
 8009580:	51400117 	ldw	r5,4(r10)
 8009584:	180890fa 	slli	r4,r3,3
 8009588:	1807d0ba 	srai	r3,r3,2
 800958c:	22c9883a 	add	r4,r4,r11
 8009590:	21800217 	ldw	r6,8(r4)
 8009594:	10c4983a 	sll	r2,r2,r3
 8009598:	41000315 	stw	r4,12(r8)
 800959c:	41800215 	stw	r6,8(r8)
 80095a0:	288ab03a 	or	r5,r5,r2
 80095a4:	22000215 	stw	r8,8(r4)
 80095a8:	8809883a 	mov	r4,r17
 80095ac:	51400115 	stw	r5,4(r10)
 80095b0:	32000315 	stw	r8,12(r6)
 80095b4:	dfc00217 	ldw	ra,8(sp)
 80095b8:	dc400117 	ldw	r17,4(sp)
 80095bc:	dc000017 	ldw	r16,0(sp)
 80095c0:	dec00304 	addi	sp,sp,12
 80095c4:	800e5f01 	jmpi	800e5f0 <__malloc_unlock>
 80095c8:	2880004c 	andi	r2,r5,1
 80095cc:	3a4d883a 	add	r6,r7,r9
 80095d0:	1000071e 	bne	r2,zero,80095f0 <_free_r+0x218>
 80095d4:	80bffe17 	ldw	r2,-8(r16)
 80095d8:	4091c83a 	sub	r8,r8,r2
 80095dc:	41000317 	ldw	r4,12(r8)
 80095e0:	40c00217 	ldw	r3,8(r8)
 80095e4:	308d883a 	add	r6,r6,r2
 80095e8:	20c00215 	stw	r3,8(r4)
 80095ec:	19000315 	stw	r4,12(r3)
 80095f0:	00820074 	movhi	r2,2049
 80095f4:	109b8504 	addi	r2,r2,28180
 80095f8:	11000017 	ldw	r4,0(r2)
 80095fc:	30c00054 	ori	r3,r6,1
 8009600:	52000215 	stw	r8,8(r10)
 8009604:	40c00115 	stw	r3,4(r8)
 8009608:	313fa036 	bltu	r6,r4,800948c <_free_r+0xb4>
 800960c:	008200b4 	movhi	r2,2050
 8009610:	10a23804 	addi	r2,r2,-30496
 8009614:	11400017 	ldw	r5,0(r2)
 8009618:	8809883a 	mov	r4,r17
 800961c:	80092ac0 	call	80092ac <_malloc_trim_r>
 8009620:	003f9a06 	br	800948c <_free_r+0xb4>
 8009624:	00800104 	movi	r2,4
 8009628:	10c0072e 	bgeu	r2,r3,8009648 <_free_r+0x270>
 800962c:	00800504 	movi	r2,20
 8009630:	10c01936 	bltu	r2,r3,8009698 <_free_r+0x2c0>
 8009634:	188016c4 	addi	r2,r3,91
 8009638:	100690fa 	slli	r3,r2,3
 800963c:	003fb306 	br	800950c <_free_r+0x134>
 8009640:	01400044 	movi	r5,1
 8009644:	003f7e06 	br	8009440 <_free_r+0x68>
 8009648:	3804d1ba 	srli	r2,r7,6
 800964c:	10800e04 	addi	r2,r2,56
 8009650:	100690fa 	slli	r3,r2,3
 8009654:	003fad06 	br	800950c <_free_r+0x134>
 8009658:	22000315 	stw	r8,12(r4)
 800965c:	22000215 	stw	r8,8(r4)
 8009660:	3a05883a 	add	r2,r7,r8
 8009664:	38c00054 	ori	r3,r7,1
 8009668:	11c00015 	stw	r7,0(r2)
 800966c:	41000215 	stw	r4,8(r8)
 8009670:	40c00115 	stw	r3,4(r8)
 8009674:	41000315 	stw	r4,12(r8)
 8009678:	003f8406 	br	800948c <_free_r+0xb4>
 800967c:	1005d0ba 	srai	r2,r2,2
 8009680:	00c00044 	movi	r3,1
 8009684:	51000117 	ldw	r4,4(r10)
 8009688:	1886983a 	sll	r3,r3,r2
 800968c:	20c8b03a 	or	r4,r4,r3
 8009690:	51000115 	stw	r4,4(r10)
 8009694:	003fa706 	br	8009534 <_free_r+0x15c>
 8009698:	00801504 	movi	r2,84
 800969c:	10c00436 	bltu	r2,r3,80096b0 <_free_r+0x2d8>
 80096a0:	3804d33a 	srli	r2,r7,12
 80096a4:	10801b84 	addi	r2,r2,110
 80096a8:	100690fa 	slli	r3,r2,3
 80096ac:	003f9706 	br	800950c <_free_r+0x134>
 80096b0:	00805504 	movi	r2,340
 80096b4:	10c00436 	bltu	r2,r3,80096c8 <_free_r+0x2f0>
 80096b8:	3804d3fa 	srli	r2,r7,15
 80096bc:	10801dc4 	addi	r2,r2,119
 80096c0:	100690fa 	slli	r3,r2,3
 80096c4:	003f9106 	br	800950c <_free_r+0x134>
 80096c8:	00815504 	movi	r2,1364
 80096cc:	10c0032e 	bgeu	r2,r3,80096dc <_free_r+0x304>
 80096d0:	00801f84 	movi	r2,126
 80096d4:	00c0fc04 	movi	r3,1008
 80096d8:	003f8c06 	br	800950c <_free_r+0x134>
 80096dc:	3804d4ba 	srli	r2,r7,18
 80096e0:	10801f04 	addi	r2,r2,124
 80096e4:	100690fa 	slli	r3,r2,3
 80096e8:	003f8806 	br	800950c <_free_r+0x134>

080096ec <__sfvwrite_r>:
 80096ec:	30800217 	ldw	r2,8(r6)
 80096f0:	defff504 	addi	sp,sp,-44
 80096f4:	df000915 	stw	fp,36(sp)
 80096f8:	dd800715 	stw	r22,28(sp)
 80096fc:	dc800315 	stw	r18,12(sp)
 8009700:	dfc00a15 	stw	ra,40(sp)
 8009704:	ddc00815 	stw	r23,32(sp)
 8009708:	dd400615 	stw	r21,24(sp)
 800970c:	dd000515 	stw	r20,20(sp)
 8009710:	dcc00415 	stw	r19,16(sp)
 8009714:	dc400215 	stw	r17,8(sp)
 8009718:	dc000115 	stw	r16,4(sp)
 800971c:	302d883a 	mov	r22,r6
 8009720:	2039883a 	mov	fp,r4
 8009724:	2825883a 	mov	r18,r5
 8009728:	10001c26 	beq	r2,zero,800979c <__sfvwrite_r+0xb0>
 800972c:	29c0030b 	ldhu	r7,12(r5)
 8009730:	3880020c 	andi	r2,r7,8
 8009734:	10002726 	beq	r2,zero,80097d4 <__sfvwrite_r+0xe8>
 8009738:	28800417 	ldw	r2,16(r5)
 800973c:	10002526 	beq	r2,zero,80097d4 <__sfvwrite_r+0xe8>
 8009740:	3880008c 	andi	r2,r7,2
 8009744:	b5400017 	ldw	r21,0(r22)
 8009748:	10002826 	beq	r2,zero,80097ec <__sfvwrite_r+0x100>
 800974c:	0021883a 	mov	r16,zero
 8009750:	0023883a 	mov	r17,zero
 8009754:	880d883a 	mov	r6,r17
 8009758:	e009883a 	mov	r4,fp
 800975c:	00810004 	movi	r2,1024
 8009760:	80006e26 	beq	r16,zero,800991c <__sfvwrite_r+0x230>
 8009764:	800f883a 	mov	r7,r16
 8009768:	91400717 	ldw	r5,28(r18)
 800976c:	1400012e 	bgeu	r2,r16,8009774 <__sfvwrite_r+0x88>
 8009770:	100f883a 	mov	r7,r2
 8009774:	90c00917 	ldw	r3,36(r18)
 8009778:	183ee83a 	callr	r3
 800977c:	1007883a 	mov	r3,r2
 8009780:	80a1c83a 	sub	r16,r16,r2
 8009784:	88a3883a 	add	r17,r17,r2
 8009788:	00806d0e 	bge	zero,r2,8009940 <__sfvwrite_r+0x254>
 800978c:	b0800217 	ldw	r2,8(r22)
 8009790:	10c5c83a 	sub	r2,r2,r3
 8009794:	b0800215 	stw	r2,8(r22)
 8009798:	103fee1e 	bne	r2,zero,8009754 <__sfvwrite_r+0x68>
 800979c:	0009883a 	mov	r4,zero
 80097a0:	2005883a 	mov	r2,r4
 80097a4:	dfc00a17 	ldw	ra,40(sp)
 80097a8:	df000917 	ldw	fp,36(sp)
 80097ac:	ddc00817 	ldw	r23,32(sp)
 80097b0:	dd800717 	ldw	r22,28(sp)
 80097b4:	dd400617 	ldw	r21,24(sp)
 80097b8:	dd000517 	ldw	r20,20(sp)
 80097bc:	dcc00417 	ldw	r19,16(sp)
 80097c0:	dc800317 	ldw	r18,12(sp)
 80097c4:	dc400217 	ldw	r17,8(sp)
 80097c8:	dc000117 	ldw	r16,4(sp)
 80097cc:	dec00b04 	addi	sp,sp,44
 80097d0:	f800283a 	ret
 80097d4:	80075b40 	call	80075b4 <__swsetup_r>
 80097d8:	1000e41e 	bne	r2,zero,8009b6c <__sfvwrite_r+0x480>
 80097dc:	91c0030b 	ldhu	r7,12(r18)
 80097e0:	b5400017 	ldw	r21,0(r22)
 80097e4:	3880008c 	andi	r2,r7,2
 80097e8:	103fd81e 	bne	r2,zero,800974c <__sfvwrite_r+0x60>
 80097ec:	3880004c 	andi	r2,r7,1
 80097f0:	1005003a 	cmpeq	r2,r2,zero
 80097f4:	10005726 	beq	r2,zero,8009954 <__sfvwrite_r+0x268>
 80097f8:	0029883a 	mov	r20,zero
 80097fc:	002f883a 	mov	r23,zero
 8009800:	a0004226 	beq	r20,zero,800990c <__sfvwrite_r+0x220>
 8009804:	3880800c 	andi	r2,r7,512
 8009808:	94000217 	ldw	r16,8(r18)
 800980c:	10008b26 	beq	r2,zero,8009a3c <__sfvwrite_r+0x350>
 8009810:	800d883a 	mov	r6,r16
 8009814:	a400a536 	bltu	r20,r16,8009aac <__sfvwrite_r+0x3c0>
 8009818:	3881200c 	andi	r2,r7,1152
 800981c:	10002726 	beq	r2,zero,80098bc <__sfvwrite_r+0x1d0>
 8009820:	90800517 	ldw	r2,20(r18)
 8009824:	92000417 	ldw	r8,16(r18)
 8009828:	91400017 	ldw	r5,0(r18)
 800982c:	1087883a 	add	r3,r2,r2
 8009830:	1887883a 	add	r3,r3,r2
 8009834:	1808d7fa 	srli	r4,r3,31
 8009838:	2a21c83a 	sub	r16,r5,r8
 800983c:	80800044 	addi	r2,r16,1
 8009840:	20c9883a 	add	r4,r4,r3
 8009844:	2027d07a 	srai	r19,r4,1
 8009848:	a085883a 	add	r2,r20,r2
 800984c:	980d883a 	mov	r6,r19
 8009850:	9880022e 	bgeu	r19,r2,800985c <__sfvwrite_r+0x170>
 8009854:	1027883a 	mov	r19,r2
 8009858:	100d883a 	mov	r6,r2
 800985c:	3881000c 	andi	r2,r7,1024
 8009860:	1000b826 	beq	r2,zero,8009b44 <__sfvwrite_r+0x458>
 8009864:	300b883a 	mov	r5,r6
 8009868:	e009883a 	mov	r4,fp
 800986c:	80047640 	call	8004764 <_malloc_r>
 8009870:	10003126 	beq	r2,zero,8009938 <__sfvwrite_r+0x24c>
 8009874:	91400417 	ldw	r5,16(r18)
 8009878:	1009883a 	mov	r4,r2
 800987c:	800d883a 	mov	r6,r16
 8009880:	1023883a 	mov	r17,r2
 8009884:	8004f880 	call	8004f88 <memcpy>
 8009888:	90c0030b 	ldhu	r3,12(r18)
 800988c:	00beffc4 	movi	r2,-1025
 8009890:	1886703a 	and	r3,r3,r2
 8009894:	18c02014 	ori	r3,r3,128
 8009898:	90c0030d 	sth	r3,12(r18)
 800989c:	9c07c83a 	sub	r3,r19,r16
 80098a0:	8c05883a 	add	r2,r17,r16
 80098a4:	a00d883a 	mov	r6,r20
 80098a8:	a021883a 	mov	r16,r20
 80098ac:	90800015 	stw	r2,0(r18)
 80098b0:	90c00215 	stw	r3,8(r18)
 80098b4:	94400415 	stw	r17,16(r18)
 80098b8:	94c00515 	stw	r19,20(r18)
 80098bc:	91000017 	ldw	r4,0(r18)
 80098c0:	b80b883a 	mov	r5,r23
 80098c4:	a023883a 	mov	r17,r20
 80098c8:	8009e580 	call	8009e58 <memmove>
 80098cc:	90c00217 	ldw	r3,8(r18)
 80098d0:	90800017 	ldw	r2,0(r18)
 80098d4:	a027883a 	mov	r19,r20
 80098d8:	1c07c83a 	sub	r3,r3,r16
 80098dc:	1405883a 	add	r2,r2,r16
 80098e0:	90c00215 	stw	r3,8(r18)
 80098e4:	a021883a 	mov	r16,r20
 80098e8:	90800015 	stw	r2,0(r18)
 80098ec:	b0800217 	ldw	r2,8(r22)
 80098f0:	1405c83a 	sub	r2,r2,r16
 80098f4:	b0800215 	stw	r2,8(r22)
 80098f8:	103fa826 	beq	r2,zero,800979c <__sfvwrite_r+0xb0>
 80098fc:	a469c83a 	sub	r20,r20,r17
 8009900:	91c0030b 	ldhu	r7,12(r18)
 8009904:	bcef883a 	add	r23,r23,r19
 8009908:	a03fbe1e 	bne	r20,zero,8009804 <__sfvwrite_r+0x118>
 800990c:	adc00017 	ldw	r23,0(r21)
 8009910:	ad000117 	ldw	r20,4(r21)
 8009914:	ad400204 	addi	r21,r21,8
 8009918:	003fb906 	br	8009800 <__sfvwrite_r+0x114>
 800991c:	ac400017 	ldw	r17,0(r21)
 8009920:	ac000117 	ldw	r16,4(r21)
 8009924:	ad400204 	addi	r21,r21,8
 8009928:	003f8a06 	br	8009754 <__sfvwrite_r+0x68>
 800992c:	91400417 	ldw	r5,16(r18)
 8009930:	e009883a 	mov	r4,fp
 8009934:	80093d80 	call	80093d8 <_free_r>
 8009938:	00800304 	movi	r2,12
 800993c:	e0800015 	stw	r2,0(fp)
 8009940:	9080030b 	ldhu	r2,12(r18)
 8009944:	013fffc4 	movi	r4,-1
 8009948:	10801014 	ori	r2,r2,64
 800994c:	9080030d 	sth	r2,12(r18)
 8009950:	003f9306 	br	80097a0 <__sfvwrite_r+0xb4>
 8009954:	0027883a 	mov	r19,zero
 8009958:	002f883a 	mov	r23,zero
 800995c:	d8000015 	stw	zero,0(sp)
 8009960:	0029883a 	mov	r20,zero
 8009964:	98001e26 	beq	r19,zero,80099e0 <__sfvwrite_r+0x2f4>
 8009968:	d8c00017 	ldw	r3,0(sp)
 800996c:	1804c03a 	cmpne	r2,r3,zero
 8009970:	10005e26 	beq	r2,zero,8009aec <__sfvwrite_r+0x400>
 8009974:	9821883a 	mov	r16,r19
 8009978:	a4c0012e 	bgeu	r20,r19,8009980 <__sfvwrite_r+0x294>
 800997c:	a021883a 	mov	r16,r20
 8009980:	91000017 	ldw	r4,0(r18)
 8009984:	90800417 	ldw	r2,16(r18)
 8009988:	91800217 	ldw	r6,8(r18)
 800998c:	91c00517 	ldw	r7,20(r18)
 8009990:	1100022e 	bgeu	r2,r4,800999c <__sfvwrite_r+0x2b0>
 8009994:	31e3883a 	add	r17,r6,r7
 8009998:	8c001616 	blt	r17,r16,80099f4 <__sfvwrite_r+0x308>
 800999c:	81c03816 	blt	r16,r7,8009a80 <__sfvwrite_r+0x394>
 80099a0:	90c00917 	ldw	r3,36(r18)
 80099a4:	91400717 	ldw	r5,28(r18)
 80099a8:	e009883a 	mov	r4,fp
 80099ac:	b80d883a 	mov	r6,r23
 80099b0:	183ee83a 	callr	r3
 80099b4:	1023883a 	mov	r17,r2
 80099b8:	00bfe10e 	bge	zero,r2,8009940 <__sfvwrite_r+0x254>
 80099bc:	a469c83a 	sub	r20,r20,r17
 80099c0:	a0001826 	beq	r20,zero,8009a24 <__sfvwrite_r+0x338>
 80099c4:	b0800217 	ldw	r2,8(r22)
 80099c8:	1445c83a 	sub	r2,r2,r17
 80099cc:	b0800215 	stw	r2,8(r22)
 80099d0:	103f7226 	beq	r2,zero,800979c <__sfvwrite_r+0xb0>
 80099d4:	9c67c83a 	sub	r19,r19,r17
 80099d8:	bc6f883a 	add	r23,r23,r17
 80099dc:	983fe21e 	bne	r19,zero,8009968 <__sfvwrite_r+0x27c>
 80099e0:	adc00017 	ldw	r23,0(r21)
 80099e4:	acc00117 	ldw	r19,4(r21)
 80099e8:	ad400204 	addi	r21,r21,8
 80099ec:	d8000015 	stw	zero,0(sp)
 80099f0:	003fdc06 	br	8009964 <__sfvwrite_r+0x278>
 80099f4:	b80b883a 	mov	r5,r23
 80099f8:	880d883a 	mov	r6,r17
 80099fc:	8009e580 	call	8009e58 <memmove>
 8009a00:	90c00017 	ldw	r3,0(r18)
 8009a04:	e009883a 	mov	r4,fp
 8009a08:	900b883a 	mov	r5,r18
 8009a0c:	1c47883a 	add	r3,r3,r17
 8009a10:	90c00015 	stw	r3,0(r18)
 8009a14:	800907c0 	call	800907c <_fflush_r>
 8009a18:	103fc91e 	bne	r2,zero,8009940 <__sfvwrite_r+0x254>
 8009a1c:	a469c83a 	sub	r20,r20,r17
 8009a20:	a03fe81e 	bne	r20,zero,80099c4 <__sfvwrite_r+0x2d8>
 8009a24:	e009883a 	mov	r4,fp
 8009a28:	900b883a 	mov	r5,r18
 8009a2c:	800907c0 	call	800907c <_fflush_r>
 8009a30:	103fc31e 	bne	r2,zero,8009940 <__sfvwrite_r+0x254>
 8009a34:	d8000015 	stw	zero,0(sp)
 8009a38:	003fe206 	br	80099c4 <__sfvwrite_r+0x2d8>
 8009a3c:	91000017 	ldw	r4,0(r18)
 8009a40:	90800417 	ldw	r2,16(r18)
 8009a44:	1100022e 	bgeu	r2,r4,8009a50 <__sfvwrite_r+0x364>
 8009a48:	8023883a 	mov	r17,r16
 8009a4c:	85003136 	bltu	r16,r20,8009b14 <__sfvwrite_r+0x428>
 8009a50:	91c00517 	ldw	r7,20(r18)
 8009a54:	a1c01836 	bltu	r20,r7,8009ab8 <__sfvwrite_r+0x3cc>
 8009a58:	90c00917 	ldw	r3,36(r18)
 8009a5c:	91400717 	ldw	r5,28(r18)
 8009a60:	e009883a 	mov	r4,fp
 8009a64:	b80d883a 	mov	r6,r23
 8009a68:	183ee83a 	callr	r3
 8009a6c:	1021883a 	mov	r16,r2
 8009a70:	00bfb30e 	bge	zero,r2,8009940 <__sfvwrite_r+0x254>
 8009a74:	1023883a 	mov	r17,r2
 8009a78:	1027883a 	mov	r19,r2
 8009a7c:	003f9b06 	br	80098ec <__sfvwrite_r+0x200>
 8009a80:	b80b883a 	mov	r5,r23
 8009a84:	800d883a 	mov	r6,r16
 8009a88:	8009e580 	call	8009e58 <memmove>
 8009a8c:	90c00217 	ldw	r3,8(r18)
 8009a90:	90800017 	ldw	r2,0(r18)
 8009a94:	8023883a 	mov	r17,r16
 8009a98:	1c07c83a 	sub	r3,r3,r16
 8009a9c:	1405883a 	add	r2,r2,r16
 8009aa0:	90c00215 	stw	r3,8(r18)
 8009aa4:	90800015 	stw	r2,0(r18)
 8009aa8:	003fc406 	br	80099bc <__sfvwrite_r+0x2d0>
 8009aac:	a00d883a 	mov	r6,r20
 8009ab0:	a021883a 	mov	r16,r20
 8009ab4:	003f8106 	br	80098bc <__sfvwrite_r+0x1d0>
 8009ab8:	b80b883a 	mov	r5,r23
 8009abc:	a00d883a 	mov	r6,r20
 8009ac0:	8009e580 	call	8009e58 <memmove>
 8009ac4:	90c00217 	ldw	r3,8(r18)
 8009ac8:	90800017 	ldw	r2,0(r18)
 8009acc:	a021883a 	mov	r16,r20
 8009ad0:	1d07c83a 	sub	r3,r3,r20
 8009ad4:	1505883a 	add	r2,r2,r20
 8009ad8:	a023883a 	mov	r17,r20
 8009adc:	a027883a 	mov	r19,r20
 8009ae0:	90c00215 	stw	r3,8(r18)
 8009ae4:	90800015 	stw	r2,0(r18)
 8009ae8:	003f8006 	br	80098ec <__sfvwrite_r+0x200>
 8009aec:	b809883a 	mov	r4,r23
 8009af0:	01400284 	movi	r5,10
 8009af4:	980d883a 	mov	r6,r19
 8009af8:	8004ea40 	call	8004ea4 <memchr>
 8009afc:	10001726 	beq	r2,zero,8009b5c <__sfvwrite_r+0x470>
 8009b00:	15c5c83a 	sub	r2,r2,r23
 8009b04:	15000044 	addi	r20,r2,1
 8009b08:	00800044 	movi	r2,1
 8009b0c:	d8800015 	stw	r2,0(sp)
 8009b10:	003f9806 	br	8009974 <__sfvwrite_r+0x288>
 8009b14:	b80b883a 	mov	r5,r23
 8009b18:	800d883a 	mov	r6,r16
 8009b1c:	8009e580 	call	8009e58 <memmove>
 8009b20:	90c00017 	ldw	r3,0(r18)
 8009b24:	e009883a 	mov	r4,fp
 8009b28:	900b883a 	mov	r5,r18
 8009b2c:	1c07883a 	add	r3,r3,r16
 8009b30:	90c00015 	stw	r3,0(r18)
 8009b34:	8027883a 	mov	r19,r16
 8009b38:	800907c0 	call	800907c <_fflush_r>
 8009b3c:	103f6b26 	beq	r2,zero,80098ec <__sfvwrite_r+0x200>
 8009b40:	003f7f06 	br	8009940 <__sfvwrite_r+0x254>
 8009b44:	400b883a 	mov	r5,r8
 8009b48:	e009883a 	mov	r4,fp
 8009b4c:	800b03c0 	call	800b03c <_realloc_r>
 8009b50:	103f7626 	beq	r2,zero,800992c <__sfvwrite_r+0x240>
 8009b54:	1023883a 	mov	r17,r2
 8009b58:	003f5006 	br	800989c <__sfvwrite_r+0x1b0>
 8009b5c:	00c00044 	movi	r3,1
 8009b60:	9d000044 	addi	r20,r19,1
 8009b64:	d8c00015 	stw	r3,0(sp)
 8009b68:	003f8206 	br	8009974 <__sfvwrite_r+0x288>
 8009b6c:	9080030b 	ldhu	r2,12(r18)
 8009b70:	00c00244 	movi	r3,9
 8009b74:	013fffc4 	movi	r4,-1
 8009b78:	10801014 	ori	r2,r2,64
 8009b7c:	9080030d 	sth	r2,12(r18)
 8009b80:	e0c00015 	stw	r3,0(fp)
 8009b84:	003f0606 	br	80097a0 <__sfvwrite_r+0xb4>

08009b88 <__locale_charset>:
 8009b88:	d0a00517 	ldw	r2,-32748(gp)
 8009b8c:	f800283a 	ret

08009b90 <_localeconv_r>:
 8009b90:	00820074 	movhi	r2,2049
 8009b94:	10943f04 	addi	r2,r2,20732
 8009b98:	f800283a 	ret

08009b9c <localeconv>:
 8009b9c:	00820074 	movhi	r2,2049
 8009ba0:	109b8304 	addi	r2,r2,28172
 8009ba4:	11000017 	ldw	r4,0(r2)
 8009ba8:	8009b901 	jmpi	8009b90 <_localeconv_r>

08009bac <_setlocale_r>:
 8009bac:	defffc04 	addi	sp,sp,-16
 8009bb0:	00c20074 	movhi	r3,2049
 8009bb4:	18d41504 	addi	r3,r3,20564
 8009bb8:	dc800215 	stw	r18,8(sp)
 8009bbc:	dc400115 	stw	r17,4(sp)
 8009bc0:	dc000015 	stw	r16,0(sp)
 8009bc4:	2023883a 	mov	r17,r4
 8009bc8:	2825883a 	mov	r18,r5
 8009bcc:	dfc00315 	stw	ra,12(sp)
 8009bd0:	3021883a 	mov	r16,r6
 8009bd4:	3009883a 	mov	r4,r6
 8009bd8:	180b883a 	mov	r5,r3
 8009bdc:	30000926 	beq	r6,zero,8009c04 <_setlocale_r+0x58>
 8009be0:	800b6a00 	call	800b6a0 <strcmp>
 8009be4:	8009883a 	mov	r4,r16
 8009be8:	01420074 	movhi	r5,2049
 8009bec:	29542604 	addi	r5,r5,20632
 8009bf0:	10000b1e 	bne	r2,zero,8009c20 <_setlocale_r+0x74>
 8009bf4:	8c000d15 	stw	r16,52(r17)
 8009bf8:	8c800c15 	stw	r18,48(r17)
 8009bfc:	00c20074 	movhi	r3,2049
 8009c00:	18d41504 	addi	r3,r3,20564
 8009c04:	1805883a 	mov	r2,r3
 8009c08:	dfc00317 	ldw	ra,12(sp)
 8009c0c:	dc800217 	ldw	r18,8(sp)
 8009c10:	dc400117 	ldw	r17,4(sp)
 8009c14:	dc000017 	ldw	r16,0(sp)
 8009c18:	dec00404 	addi	sp,sp,16
 8009c1c:	f800283a 	ret
 8009c20:	800b6a00 	call	800b6a0 <strcmp>
 8009c24:	0007883a 	mov	r3,zero
 8009c28:	103ff226 	beq	r2,zero,8009bf4 <_setlocale_r+0x48>
 8009c2c:	003ff506 	br	8009c04 <_setlocale_r+0x58>

08009c30 <setlocale>:
 8009c30:	01820074 	movhi	r6,2049
 8009c34:	319b8304 	addi	r6,r6,28172
 8009c38:	2007883a 	mov	r3,r4
 8009c3c:	31000017 	ldw	r4,0(r6)
 8009c40:	280d883a 	mov	r6,r5
 8009c44:	180b883a 	mov	r5,r3
 8009c48:	8009bac1 	jmpi	8009bac <_setlocale_r>

08009c4c <_lseek_r>:
 8009c4c:	defffd04 	addi	sp,sp,-12
 8009c50:	dc000015 	stw	r16,0(sp)
 8009c54:	040200b4 	movhi	r16,2050
 8009c58:	84223b04 	addi	r16,r16,-30484
 8009c5c:	dc400115 	stw	r17,4(sp)
 8009c60:	80000015 	stw	zero,0(r16)
 8009c64:	2023883a 	mov	r17,r4
 8009c68:	2809883a 	mov	r4,r5
 8009c6c:	300b883a 	mov	r5,r6
 8009c70:	380d883a 	mov	r6,r7
 8009c74:	dfc00215 	stw	ra,8(sp)
 8009c78:	800e4100 	call	800e410 <lseek>
 8009c7c:	1007883a 	mov	r3,r2
 8009c80:	00bfffc4 	movi	r2,-1
 8009c84:	18800626 	beq	r3,r2,8009ca0 <_lseek_r+0x54>
 8009c88:	1805883a 	mov	r2,r3
 8009c8c:	dfc00217 	ldw	ra,8(sp)
 8009c90:	dc400117 	ldw	r17,4(sp)
 8009c94:	dc000017 	ldw	r16,0(sp)
 8009c98:	dec00304 	addi	sp,sp,12
 8009c9c:	f800283a 	ret
 8009ca0:	80800017 	ldw	r2,0(r16)
 8009ca4:	103ff826 	beq	r2,zero,8009c88 <_lseek_r+0x3c>
 8009ca8:	88800015 	stw	r2,0(r17)
 8009cac:	1805883a 	mov	r2,r3
 8009cb0:	dfc00217 	ldw	ra,8(sp)
 8009cb4:	dc400117 	ldw	r17,4(sp)
 8009cb8:	dc000017 	ldw	r16,0(sp)
 8009cbc:	dec00304 	addi	sp,sp,12
 8009cc0:	f800283a 	ret

08009cc4 <__smakebuf_r>:
 8009cc4:	2880030b 	ldhu	r2,12(r5)
 8009cc8:	deffed04 	addi	sp,sp,-76
 8009ccc:	dc401015 	stw	r17,64(sp)
 8009cd0:	1080008c 	andi	r2,r2,2
 8009cd4:	dc000f15 	stw	r16,60(sp)
 8009cd8:	dfc01215 	stw	ra,72(sp)
 8009cdc:	dc801115 	stw	r18,68(sp)
 8009ce0:	2821883a 	mov	r16,r5
 8009ce4:	2023883a 	mov	r17,r4
 8009ce8:	10000b26 	beq	r2,zero,8009d18 <__smakebuf_r+0x54>
 8009cec:	28c010c4 	addi	r3,r5,67
 8009cf0:	00800044 	movi	r2,1
 8009cf4:	28800515 	stw	r2,20(r5)
 8009cf8:	28c00415 	stw	r3,16(r5)
 8009cfc:	28c00015 	stw	r3,0(r5)
 8009d00:	dfc01217 	ldw	ra,72(sp)
 8009d04:	dc801117 	ldw	r18,68(sp)
 8009d08:	dc401017 	ldw	r17,64(sp)
 8009d0c:	dc000f17 	ldw	r16,60(sp)
 8009d10:	dec01304 	addi	sp,sp,76
 8009d14:	f800283a 	ret
 8009d18:	2940038f 	ldh	r5,14(r5)
 8009d1c:	28002116 	blt	r5,zero,8009da4 <__smakebuf_r+0xe0>
 8009d20:	d80d883a 	mov	r6,sp
 8009d24:	800b8240 	call	800b824 <_fstat_r>
 8009d28:	10001e16 	blt	r2,zero,8009da4 <__smakebuf_r+0xe0>
 8009d2c:	d8800117 	ldw	r2,4(sp)
 8009d30:	00e00014 	movui	r3,32768
 8009d34:	113c000c 	andi	r4,r2,61440
 8009d38:	20c03126 	beq	r4,r3,8009e00 <__smakebuf_r+0x13c>
 8009d3c:	8080030b 	ldhu	r2,12(r16)
 8009d40:	00c80004 	movi	r3,8192
 8009d44:	10820014 	ori	r2,r2,2048
 8009d48:	8080030d 	sth	r2,12(r16)
 8009d4c:	20c01e26 	beq	r4,r3,8009dc8 <__smakebuf_r+0x104>
 8009d50:	04810004 	movi	r18,1024
 8009d54:	8809883a 	mov	r4,r17
 8009d58:	900b883a 	mov	r5,r18
 8009d5c:	80047640 	call	8004764 <_malloc_r>
 8009d60:	1009883a 	mov	r4,r2
 8009d64:	10003126 	beq	r2,zero,8009e2c <__smakebuf_r+0x168>
 8009d68:	80c0030b 	ldhu	r3,12(r16)
 8009d6c:	00820034 	movhi	r2,2048
 8009d70:	10910504 	addi	r2,r2,17428
 8009d74:	88800f15 	stw	r2,60(r17)
 8009d78:	18c02014 	ori	r3,r3,128
 8009d7c:	84800515 	stw	r18,20(r16)
 8009d80:	80c0030d 	sth	r3,12(r16)
 8009d84:	81000415 	stw	r4,16(r16)
 8009d88:	81000015 	stw	r4,0(r16)
 8009d8c:	dfc01217 	ldw	ra,72(sp)
 8009d90:	dc801117 	ldw	r18,68(sp)
 8009d94:	dc401017 	ldw	r17,64(sp)
 8009d98:	dc000f17 	ldw	r16,60(sp)
 8009d9c:	dec01304 	addi	sp,sp,76
 8009da0:	f800283a 	ret
 8009da4:	80c0030b 	ldhu	r3,12(r16)
 8009da8:	1880200c 	andi	r2,r3,128
 8009dac:	10000426 	beq	r2,zero,8009dc0 <__smakebuf_r+0xfc>
 8009db0:	04801004 	movi	r18,64
 8009db4:	18820014 	ori	r2,r3,2048
 8009db8:	8080030d 	sth	r2,12(r16)
 8009dbc:	003fe506 	br	8009d54 <__smakebuf_r+0x90>
 8009dc0:	04810004 	movi	r18,1024
 8009dc4:	003ffb06 	br	8009db4 <__smakebuf_r+0xf0>
 8009dc8:	8140038f 	ldh	r5,14(r16)
 8009dcc:	8809883a 	mov	r4,r17
 8009dd0:	800b8980 	call	800b898 <_isatty_r>
 8009dd4:	103fde26 	beq	r2,zero,8009d50 <__smakebuf_r+0x8c>
 8009dd8:	8080030b 	ldhu	r2,12(r16)
 8009ddc:	80c010c4 	addi	r3,r16,67
 8009de0:	04810004 	movi	r18,1024
 8009de4:	10800054 	ori	r2,r2,1
 8009de8:	8080030d 	sth	r2,12(r16)
 8009dec:	00800044 	movi	r2,1
 8009df0:	80c00415 	stw	r3,16(r16)
 8009df4:	80800515 	stw	r2,20(r16)
 8009df8:	80c00015 	stw	r3,0(r16)
 8009dfc:	003fd506 	br	8009d54 <__smakebuf_r+0x90>
 8009e00:	80c00a17 	ldw	r3,40(r16)
 8009e04:	00820034 	movhi	r2,2048
 8009e08:	10951104 	addi	r2,r2,21572
 8009e0c:	18bfcb1e 	bne	r3,r2,8009d3c <__smakebuf_r+0x78>
 8009e10:	8080030b 	ldhu	r2,12(r16)
 8009e14:	00c10004 	movi	r3,1024
 8009e18:	1825883a 	mov	r18,r3
 8009e1c:	10c4b03a 	or	r2,r2,r3
 8009e20:	8080030d 	sth	r2,12(r16)
 8009e24:	80c01315 	stw	r3,76(r16)
 8009e28:	003fca06 	br	8009d54 <__smakebuf_r+0x90>
 8009e2c:	8100030b 	ldhu	r4,12(r16)
 8009e30:	2080800c 	andi	r2,r4,512
 8009e34:	103fb21e 	bne	r2,zero,8009d00 <__smakebuf_r+0x3c>
 8009e38:	80c010c4 	addi	r3,r16,67
 8009e3c:	21000094 	ori	r4,r4,2
 8009e40:	00800044 	movi	r2,1
 8009e44:	80800515 	stw	r2,20(r16)
 8009e48:	8100030d 	sth	r4,12(r16)
 8009e4c:	80c00415 	stw	r3,16(r16)
 8009e50:	80c00015 	stw	r3,0(r16)
 8009e54:	003faa06 	br	8009d00 <__smakebuf_r+0x3c>

08009e58 <memmove>:
 8009e58:	2807883a 	mov	r3,r5
 8009e5c:	2011883a 	mov	r8,r4
 8009e60:	29000c2e 	bgeu	r5,r4,8009e94 <memmove+0x3c>
 8009e64:	298f883a 	add	r7,r5,r6
 8009e68:	21c00a2e 	bgeu	r4,r7,8009e94 <memmove+0x3c>
 8009e6c:	30000726 	beq	r6,zero,8009e8c <memmove+0x34>
 8009e70:	2187883a 	add	r3,r4,r6
 8009e74:	198dc83a 	sub	r6,r3,r6
 8009e78:	39ffffc4 	addi	r7,r7,-1
 8009e7c:	38800003 	ldbu	r2,0(r7)
 8009e80:	18ffffc4 	addi	r3,r3,-1
 8009e84:	18800005 	stb	r2,0(r3)
 8009e88:	19bffb1e 	bne	r3,r6,8009e78 <memmove+0x20>
 8009e8c:	2005883a 	mov	r2,r4
 8009e90:	f800283a 	ret
 8009e94:	01c003c4 	movi	r7,15
 8009e98:	39800a36 	bltu	r7,r6,8009ec4 <memmove+0x6c>
 8009e9c:	303ffb26 	beq	r6,zero,8009e8c <memmove+0x34>
 8009ea0:	400f883a 	mov	r7,r8
 8009ea4:	320d883a 	add	r6,r6,r8
 8009ea8:	28800003 	ldbu	r2,0(r5)
 8009eac:	29400044 	addi	r5,r5,1
 8009eb0:	38800005 	stb	r2,0(r7)
 8009eb4:	39c00044 	addi	r7,r7,1
 8009eb8:	39bffb1e 	bne	r7,r6,8009ea8 <memmove+0x50>
 8009ebc:	2005883a 	mov	r2,r4
 8009ec0:	f800283a 	ret
 8009ec4:	1904b03a 	or	r2,r3,r4
 8009ec8:	108000cc 	andi	r2,r2,3
 8009ecc:	103ff31e 	bne	r2,zero,8009e9c <memmove+0x44>
 8009ed0:	3811883a 	mov	r8,r7
 8009ed4:	180b883a 	mov	r5,r3
 8009ed8:	200f883a 	mov	r7,r4
 8009edc:	28c00017 	ldw	r3,0(r5)
 8009ee0:	31bffc04 	addi	r6,r6,-16
 8009ee4:	38c00015 	stw	r3,0(r7)
 8009ee8:	28800117 	ldw	r2,4(r5)
 8009eec:	38800115 	stw	r2,4(r7)
 8009ef0:	28c00217 	ldw	r3,8(r5)
 8009ef4:	38c00215 	stw	r3,8(r7)
 8009ef8:	28800317 	ldw	r2,12(r5)
 8009efc:	29400404 	addi	r5,r5,16
 8009f00:	38800315 	stw	r2,12(r7)
 8009f04:	39c00404 	addi	r7,r7,16
 8009f08:	41bff436 	bltu	r8,r6,8009edc <memmove+0x84>
 8009f0c:	008000c4 	movi	r2,3
 8009f10:	1180072e 	bgeu	r2,r6,8009f30 <memmove+0xd8>
 8009f14:	1007883a 	mov	r3,r2
 8009f18:	28800017 	ldw	r2,0(r5)
 8009f1c:	31bfff04 	addi	r6,r6,-4
 8009f20:	29400104 	addi	r5,r5,4
 8009f24:	38800015 	stw	r2,0(r7)
 8009f28:	39c00104 	addi	r7,r7,4
 8009f2c:	19bffa36 	bltu	r3,r6,8009f18 <memmove+0xc0>
 8009f30:	3811883a 	mov	r8,r7
 8009f34:	003fd906 	br	8009e9c <memmove+0x44>

08009f38 <_Bfree>:
 8009f38:	28000826 	beq	r5,zero,8009f5c <_Bfree+0x24>
 8009f3c:	28800117 	ldw	r2,4(r5)
 8009f40:	21001317 	ldw	r4,76(r4)
 8009f44:	1085883a 	add	r2,r2,r2
 8009f48:	1085883a 	add	r2,r2,r2
 8009f4c:	1105883a 	add	r2,r2,r4
 8009f50:	10c00017 	ldw	r3,0(r2)
 8009f54:	28c00015 	stw	r3,0(r5)
 8009f58:	11400015 	stw	r5,0(r2)
 8009f5c:	f800283a 	ret

08009f60 <__hi0bits>:
 8009f60:	20bfffec 	andhi	r2,r4,65535
 8009f64:	10001426 	beq	r2,zero,8009fb8 <__hi0bits+0x58>
 8009f68:	0007883a 	mov	r3,zero
 8009f6c:	20bfc02c 	andhi	r2,r4,65280
 8009f70:	1000021e 	bne	r2,zero,8009f7c <__hi0bits+0x1c>
 8009f74:	2008923a 	slli	r4,r4,8
 8009f78:	18c00204 	addi	r3,r3,8
 8009f7c:	20bc002c 	andhi	r2,r4,61440
 8009f80:	1000021e 	bne	r2,zero,8009f8c <__hi0bits+0x2c>
 8009f84:	2008913a 	slli	r4,r4,4
 8009f88:	18c00104 	addi	r3,r3,4
 8009f8c:	20b0002c 	andhi	r2,r4,49152
 8009f90:	1000031e 	bne	r2,zero,8009fa0 <__hi0bits+0x40>
 8009f94:	2105883a 	add	r2,r4,r4
 8009f98:	18c00084 	addi	r3,r3,2
 8009f9c:	1089883a 	add	r4,r2,r2
 8009fa0:	20000316 	blt	r4,zero,8009fb0 <__hi0bits+0x50>
 8009fa4:	2090002c 	andhi	r2,r4,16384
 8009fa8:	10000626 	beq	r2,zero,8009fc4 <__hi0bits+0x64>
 8009fac:	18c00044 	addi	r3,r3,1
 8009fb0:	1805883a 	mov	r2,r3
 8009fb4:	f800283a 	ret
 8009fb8:	2008943a 	slli	r4,r4,16
 8009fbc:	00c00404 	movi	r3,16
 8009fc0:	003fea06 	br	8009f6c <__hi0bits+0xc>
 8009fc4:	00c00804 	movi	r3,32
 8009fc8:	1805883a 	mov	r2,r3
 8009fcc:	f800283a 	ret

08009fd0 <__lo0bits>:
 8009fd0:	20c00017 	ldw	r3,0(r4)
 8009fd4:	188001cc 	andi	r2,r3,7
 8009fd8:	10000a26 	beq	r2,zero,800a004 <__lo0bits+0x34>
 8009fdc:	1880004c 	andi	r2,r3,1
 8009fe0:	1005003a 	cmpeq	r2,r2,zero
 8009fe4:	10002126 	beq	r2,zero,800a06c <__lo0bits+0x9c>
 8009fe8:	1880008c 	andi	r2,r3,2
 8009fec:	1000251e 	bne	r2,zero,800a084 <__lo0bits+0xb4>
 8009ff0:	1804d0ba 	srli	r2,r3,2
 8009ff4:	01400084 	movi	r5,2
 8009ff8:	20800015 	stw	r2,0(r4)
 8009ffc:	2805883a 	mov	r2,r5
 800a000:	f800283a 	ret
 800a004:	18bfffcc 	andi	r2,r3,65535
 800a008:	10001526 	beq	r2,zero,800a060 <__lo0bits+0x90>
 800a00c:	000b883a 	mov	r5,zero
 800a010:	18803fcc 	andi	r2,r3,255
 800a014:	1000021e 	bne	r2,zero,800a020 <__lo0bits+0x50>
 800a018:	1806d23a 	srli	r3,r3,8
 800a01c:	29400204 	addi	r5,r5,8
 800a020:	188003cc 	andi	r2,r3,15
 800a024:	1000021e 	bne	r2,zero,800a030 <__lo0bits+0x60>
 800a028:	1806d13a 	srli	r3,r3,4
 800a02c:	29400104 	addi	r5,r5,4
 800a030:	188000cc 	andi	r2,r3,3
 800a034:	1000021e 	bne	r2,zero,800a040 <__lo0bits+0x70>
 800a038:	1806d0ba 	srli	r3,r3,2
 800a03c:	29400084 	addi	r5,r5,2
 800a040:	1880004c 	andi	r2,r3,1
 800a044:	1000031e 	bne	r2,zero,800a054 <__lo0bits+0x84>
 800a048:	1806d07a 	srli	r3,r3,1
 800a04c:	18000a26 	beq	r3,zero,800a078 <__lo0bits+0xa8>
 800a050:	29400044 	addi	r5,r5,1
 800a054:	2805883a 	mov	r2,r5
 800a058:	20c00015 	stw	r3,0(r4)
 800a05c:	f800283a 	ret
 800a060:	1806d43a 	srli	r3,r3,16
 800a064:	01400404 	movi	r5,16
 800a068:	003fe906 	br	800a010 <__lo0bits+0x40>
 800a06c:	000b883a 	mov	r5,zero
 800a070:	2805883a 	mov	r2,r5
 800a074:	f800283a 	ret
 800a078:	01400804 	movi	r5,32
 800a07c:	2805883a 	mov	r2,r5
 800a080:	f800283a 	ret
 800a084:	1804d07a 	srli	r2,r3,1
 800a088:	01400044 	movi	r5,1
 800a08c:	20800015 	stw	r2,0(r4)
 800a090:	003fda06 	br	8009ffc <__lo0bits+0x2c>

0800a094 <__mcmp>:
 800a094:	20800417 	ldw	r2,16(r4)
 800a098:	28c00417 	ldw	r3,16(r5)
 800a09c:	10cfc83a 	sub	r7,r2,r3
 800a0a0:	38000c1e 	bne	r7,zero,800a0d4 <__mcmp+0x40>
 800a0a4:	18c5883a 	add	r2,r3,r3
 800a0a8:	1085883a 	add	r2,r2,r2
 800a0ac:	10c00504 	addi	r3,r2,20
 800a0b0:	21000504 	addi	r4,r4,20
 800a0b4:	28cb883a 	add	r5,r5,r3
 800a0b8:	2085883a 	add	r2,r4,r2
 800a0bc:	10bfff04 	addi	r2,r2,-4
 800a0c0:	297fff04 	addi	r5,r5,-4
 800a0c4:	11800017 	ldw	r6,0(r2)
 800a0c8:	28c00017 	ldw	r3,0(r5)
 800a0cc:	30c0031e 	bne	r6,r3,800a0dc <__mcmp+0x48>
 800a0d0:	20bffa36 	bltu	r4,r2,800a0bc <__mcmp+0x28>
 800a0d4:	3805883a 	mov	r2,r7
 800a0d8:	f800283a 	ret
 800a0dc:	30c00336 	bltu	r6,r3,800a0ec <__mcmp+0x58>
 800a0e0:	01c00044 	movi	r7,1
 800a0e4:	3805883a 	mov	r2,r7
 800a0e8:	f800283a 	ret
 800a0ec:	01ffffc4 	movi	r7,-1
 800a0f0:	003ff806 	br	800a0d4 <__mcmp+0x40>

0800a0f4 <__ulp>:
 800a0f4:	295ffc2c 	andhi	r5,r5,32752
 800a0f8:	013f3034 	movhi	r4,64704
 800a0fc:	290b883a 	add	r5,r5,r4
 800a100:	0145c83a 	sub	r2,zero,r5
 800a104:	1007d53a 	srai	r3,r2,20
 800a108:	000d883a 	mov	r6,zero
 800a10c:	0140040e 	bge	zero,r5,800a120 <__ulp+0x2c>
 800a110:	280f883a 	mov	r7,r5
 800a114:	3807883a 	mov	r3,r7
 800a118:	3005883a 	mov	r2,r6
 800a11c:	f800283a 	ret
 800a120:	008004c4 	movi	r2,19
 800a124:	193ffb04 	addi	r4,r3,-20
 800a128:	10c00c0e 	bge	r2,r3,800a15c <__ulp+0x68>
 800a12c:	008007c4 	movi	r2,31
 800a130:	1107c83a 	sub	r3,r2,r4
 800a134:	00800784 	movi	r2,30
 800a138:	01400044 	movi	r5,1
 800a13c:	11000216 	blt	r2,r4,800a148 <__ulp+0x54>
 800a140:	00800044 	movi	r2,1
 800a144:	10ca983a 	sll	r5,r2,r3
 800a148:	000f883a 	mov	r7,zero
 800a14c:	280d883a 	mov	r6,r5
 800a150:	3807883a 	mov	r3,r7
 800a154:	3005883a 	mov	r2,r6
 800a158:	f800283a 	ret
 800a15c:	00800234 	movhi	r2,8
 800a160:	10cfd83a 	sra	r7,r2,r3
 800a164:	000d883a 	mov	r6,zero
 800a168:	3005883a 	mov	r2,r6
 800a16c:	3807883a 	mov	r3,r7
 800a170:	f800283a 	ret

0800a174 <__b2d>:
 800a174:	20800417 	ldw	r2,16(r4)
 800a178:	defff904 	addi	sp,sp,-28
 800a17c:	dd000415 	stw	r20,16(sp)
 800a180:	1085883a 	add	r2,r2,r2
 800a184:	25000504 	addi	r20,r4,20
 800a188:	1085883a 	add	r2,r2,r2
 800a18c:	dc000015 	stw	r16,0(sp)
 800a190:	a0a1883a 	add	r16,r20,r2
 800a194:	dd400515 	stw	r21,20(sp)
 800a198:	857fff17 	ldw	r21,-4(r16)
 800a19c:	dc400115 	stw	r17,4(sp)
 800a1a0:	dfc00615 	stw	ra,24(sp)
 800a1a4:	a809883a 	mov	r4,r21
 800a1a8:	2823883a 	mov	r17,r5
 800a1ac:	dcc00315 	stw	r19,12(sp)
 800a1b0:	dc800215 	stw	r18,8(sp)
 800a1b4:	8009f600 	call	8009f60 <__hi0bits>
 800a1b8:	100b883a 	mov	r5,r2
 800a1bc:	00800804 	movi	r2,32
 800a1c0:	1145c83a 	sub	r2,r2,r5
 800a1c4:	88800015 	stw	r2,0(r17)
 800a1c8:	00800284 	movi	r2,10
 800a1cc:	80ffff04 	addi	r3,r16,-4
 800a1d0:	11401416 	blt	r2,r5,800a224 <__b2d+0xb0>
 800a1d4:	008002c4 	movi	r2,11
 800a1d8:	1149c83a 	sub	r4,r2,r5
 800a1dc:	a0c02736 	bltu	r20,r3,800a27c <__b2d+0x108>
 800a1e0:	000d883a 	mov	r6,zero
 800a1e4:	28800544 	addi	r2,r5,21
 800a1e8:	a906d83a 	srl	r3,r21,r4
 800a1ec:	a884983a 	sll	r2,r21,r2
 800a1f0:	1ccffc34 	orhi	r19,r3,16368
 800a1f4:	11a4b03a 	or	r18,r2,r6
 800a1f8:	9005883a 	mov	r2,r18
 800a1fc:	9807883a 	mov	r3,r19
 800a200:	dfc00617 	ldw	ra,24(sp)
 800a204:	dd400517 	ldw	r21,20(sp)
 800a208:	dd000417 	ldw	r20,16(sp)
 800a20c:	dcc00317 	ldw	r19,12(sp)
 800a210:	dc800217 	ldw	r18,8(sp)
 800a214:	dc400117 	ldw	r17,4(sp)
 800a218:	dc000017 	ldw	r16,0(sp)
 800a21c:	dec00704 	addi	sp,sp,28
 800a220:	f800283a 	ret
 800a224:	a0c00e36 	bltu	r20,r3,800a260 <__b2d+0xec>
 800a228:	293ffd44 	addi	r4,r5,-11
 800a22c:	000d883a 	mov	r6,zero
 800a230:	20000f26 	beq	r4,zero,800a270 <__b2d+0xfc>
 800a234:	00800804 	movi	r2,32
 800a238:	110bc83a 	sub	r5,r2,r4
 800a23c:	a0c01236 	bltu	r20,r3,800a288 <__b2d+0x114>
 800a240:	000f883a 	mov	r7,zero
 800a244:	a904983a 	sll	r2,r21,r4
 800a248:	3146d83a 	srl	r3,r6,r5
 800a24c:	3108983a 	sll	r4,r6,r4
 800a250:	108ffc34 	orhi	r2,r2,16368
 800a254:	18a6b03a 	or	r19,r3,r2
 800a258:	3924b03a 	or	r18,r7,r4
 800a25c:	003fe606 	br	800a1f8 <__b2d+0x84>
 800a260:	293ffd44 	addi	r4,r5,-11
 800a264:	81bffe17 	ldw	r6,-8(r16)
 800a268:	80fffe04 	addi	r3,r16,-8
 800a26c:	203ff11e 	bne	r4,zero,800a234 <__b2d+0xc0>
 800a270:	accffc34 	orhi	r19,r21,16368
 800a274:	3025883a 	mov	r18,r6
 800a278:	003fdf06 	br	800a1f8 <__b2d+0x84>
 800a27c:	18bfff17 	ldw	r2,-4(r3)
 800a280:	110cd83a 	srl	r6,r2,r4
 800a284:	003fd706 	br	800a1e4 <__b2d+0x70>
 800a288:	18bfff17 	ldw	r2,-4(r3)
 800a28c:	114ed83a 	srl	r7,r2,r5
 800a290:	003fec06 	br	800a244 <__b2d+0xd0>

0800a294 <__ratio>:
 800a294:	defff904 	addi	sp,sp,-28
 800a298:	dc400215 	stw	r17,8(sp)
 800a29c:	2823883a 	mov	r17,r5
 800a2a0:	d80b883a 	mov	r5,sp
 800a2a4:	dfc00615 	stw	ra,24(sp)
 800a2a8:	dd000515 	stw	r20,20(sp)
 800a2ac:	dcc00415 	stw	r19,16(sp)
 800a2b0:	dc800315 	stw	r18,12(sp)
 800a2b4:	2025883a 	mov	r18,r4
 800a2b8:	800a1740 	call	800a174 <__b2d>
 800a2bc:	8809883a 	mov	r4,r17
 800a2c0:	d9400104 	addi	r5,sp,4
 800a2c4:	1027883a 	mov	r19,r2
 800a2c8:	1829883a 	mov	r20,r3
 800a2cc:	800a1740 	call	800a174 <__b2d>
 800a2d0:	89000417 	ldw	r4,16(r17)
 800a2d4:	91c00417 	ldw	r7,16(r18)
 800a2d8:	d9800117 	ldw	r6,4(sp)
 800a2dc:	180b883a 	mov	r5,r3
 800a2e0:	390fc83a 	sub	r7,r7,r4
 800a2e4:	1009883a 	mov	r4,r2
 800a2e8:	d8800017 	ldw	r2,0(sp)
 800a2ec:	380e917a 	slli	r7,r7,5
 800a2f0:	2011883a 	mov	r8,r4
 800a2f4:	1185c83a 	sub	r2,r2,r6
 800a2f8:	11c5883a 	add	r2,r2,r7
 800a2fc:	1006953a 	slli	r3,r2,20
 800a300:	2813883a 	mov	r9,r5
 800a304:	00800d0e 	bge	zero,r2,800a33c <__ratio+0xa8>
 800a308:	1d29883a 	add	r20,r3,r20
 800a30c:	a00b883a 	mov	r5,r20
 800a310:	480f883a 	mov	r7,r9
 800a314:	9809883a 	mov	r4,r19
 800a318:	400d883a 	mov	r6,r8
 800a31c:	800ce9c0 	call	800ce9c <__divdf3>
 800a320:	dfc00617 	ldw	ra,24(sp)
 800a324:	dd000517 	ldw	r20,20(sp)
 800a328:	dcc00417 	ldw	r19,16(sp)
 800a32c:	dc800317 	ldw	r18,12(sp)
 800a330:	dc400217 	ldw	r17,8(sp)
 800a334:	dec00704 	addi	sp,sp,28
 800a338:	f800283a 	ret
 800a33c:	28d3c83a 	sub	r9,r5,r3
 800a340:	003ff206 	br	800a30c <__ratio+0x78>

0800a344 <_mprec_log10>:
 800a344:	defffe04 	addi	sp,sp,-8
 800a348:	008005c4 	movi	r2,23
 800a34c:	dc000015 	stw	r16,0(sp)
 800a350:	dfc00115 	stw	ra,4(sp)
 800a354:	2021883a 	mov	r16,r4
 800a358:	11000c16 	blt	r2,r4,800a38c <_mprec_log10+0x48>
 800a35c:	200490fa 	slli	r2,r4,3
 800a360:	00c20074 	movhi	r3,2049
 800a364:	18d44b04 	addi	r3,r3,20780
 800a368:	10c5883a 	add	r2,r2,r3
 800a36c:	12400117 	ldw	r9,4(r2)
 800a370:	12000017 	ldw	r8,0(r2)
 800a374:	4807883a 	mov	r3,r9
 800a378:	4005883a 	mov	r2,r8
 800a37c:	dfc00117 	ldw	ra,4(sp)
 800a380:	dc000017 	ldw	r16,0(sp)
 800a384:	dec00204 	addi	sp,sp,8
 800a388:	f800283a 	ret
 800a38c:	0011883a 	mov	r8,zero
 800a390:	024ffc34 	movhi	r9,16368
 800a394:	0005883a 	mov	r2,zero
 800a398:	00d00934 	movhi	r3,16420
 800a39c:	480b883a 	mov	r5,r9
 800a3a0:	4009883a 	mov	r4,r8
 800a3a4:	180f883a 	mov	r7,r3
 800a3a8:	100d883a 	mov	r6,r2
 800a3ac:	800cad80 	call	800cad8 <__muldf3>
 800a3b0:	843fffc4 	addi	r16,r16,-1
 800a3b4:	1011883a 	mov	r8,r2
 800a3b8:	1813883a 	mov	r9,r3
 800a3bc:	803ff51e 	bne	r16,zero,800a394 <_mprec_log10+0x50>
 800a3c0:	4005883a 	mov	r2,r8
 800a3c4:	4807883a 	mov	r3,r9
 800a3c8:	dfc00117 	ldw	ra,4(sp)
 800a3cc:	dc000017 	ldw	r16,0(sp)
 800a3d0:	dec00204 	addi	sp,sp,8
 800a3d4:	f800283a 	ret

0800a3d8 <__copybits>:
 800a3d8:	297fffc4 	addi	r5,r5,-1
 800a3dc:	30800417 	ldw	r2,16(r6)
 800a3e0:	280bd17a 	srai	r5,r5,5
 800a3e4:	31800504 	addi	r6,r6,20
 800a3e8:	1085883a 	add	r2,r2,r2
 800a3ec:	294b883a 	add	r5,r5,r5
 800a3f0:	294b883a 	add	r5,r5,r5
 800a3f4:	1085883a 	add	r2,r2,r2
 800a3f8:	290b883a 	add	r5,r5,r4
 800a3fc:	3087883a 	add	r3,r6,r2
 800a400:	29400104 	addi	r5,r5,4
 800a404:	30c0052e 	bgeu	r6,r3,800a41c <__copybits+0x44>
 800a408:	30800017 	ldw	r2,0(r6)
 800a40c:	31800104 	addi	r6,r6,4
 800a410:	20800015 	stw	r2,0(r4)
 800a414:	21000104 	addi	r4,r4,4
 800a418:	30fffb36 	bltu	r6,r3,800a408 <__copybits+0x30>
 800a41c:	2140032e 	bgeu	r4,r5,800a42c <__copybits+0x54>
 800a420:	20000015 	stw	zero,0(r4)
 800a424:	21000104 	addi	r4,r4,4
 800a428:	217ffd36 	bltu	r4,r5,800a420 <__copybits+0x48>
 800a42c:	f800283a 	ret

0800a430 <__any_on>:
 800a430:	20800417 	ldw	r2,16(r4)
 800a434:	2807d17a 	srai	r3,r5,5
 800a438:	21000504 	addi	r4,r4,20
 800a43c:	10c00d0e 	bge	r2,r3,800a474 <__any_on+0x44>
 800a440:	1085883a 	add	r2,r2,r2
 800a444:	1085883a 	add	r2,r2,r2
 800a448:	208d883a 	add	r6,r4,r2
 800a44c:	2180182e 	bgeu	r4,r6,800a4b0 <__any_on+0x80>
 800a450:	30bfff17 	ldw	r2,-4(r6)
 800a454:	30ffff04 	addi	r3,r6,-4
 800a458:	1000041e 	bne	r2,zero,800a46c <__any_on+0x3c>
 800a45c:	20c0142e 	bgeu	r4,r3,800a4b0 <__any_on+0x80>
 800a460:	18ffff04 	addi	r3,r3,-4
 800a464:	18800017 	ldw	r2,0(r3)
 800a468:	103ffc26 	beq	r2,zero,800a45c <__any_on+0x2c>
 800a46c:	00800044 	movi	r2,1
 800a470:	f800283a 	ret
 800a474:	18800a0e 	bge	r3,r2,800a4a0 <__any_on+0x70>
 800a478:	294007cc 	andi	r5,r5,31
 800a47c:	28000826 	beq	r5,zero,800a4a0 <__any_on+0x70>
 800a480:	18c5883a 	add	r2,r3,r3
 800a484:	1085883a 	add	r2,r2,r2
 800a488:	208d883a 	add	r6,r4,r2
 800a48c:	30c00017 	ldw	r3,0(r6)
 800a490:	1944d83a 	srl	r2,r3,r5
 800a494:	1144983a 	sll	r2,r2,r5
 800a498:	18bff41e 	bne	r3,r2,800a46c <__any_on+0x3c>
 800a49c:	003feb06 	br	800a44c <__any_on+0x1c>
 800a4a0:	18c5883a 	add	r2,r3,r3
 800a4a4:	1085883a 	add	r2,r2,r2
 800a4a8:	208d883a 	add	r6,r4,r2
 800a4ac:	003fe706 	br	800a44c <__any_on+0x1c>
 800a4b0:	0005883a 	mov	r2,zero
 800a4b4:	f800283a 	ret

0800a4b8 <_Balloc>:
 800a4b8:	20c01317 	ldw	r3,76(r4)
 800a4bc:	defffb04 	addi	sp,sp,-20
 800a4c0:	dcc00315 	stw	r19,12(sp)
 800a4c4:	dc800215 	stw	r18,8(sp)
 800a4c8:	dfc00415 	stw	ra,16(sp)
 800a4cc:	2825883a 	mov	r18,r5
 800a4d0:	dc400115 	stw	r17,4(sp)
 800a4d4:	dc000015 	stw	r16,0(sp)
 800a4d8:	2027883a 	mov	r19,r4
 800a4dc:	01800404 	movi	r6,16
 800a4e0:	01400104 	movi	r5,4
 800a4e4:	18001726 	beq	r3,zero,800a544 <_Balloc+0x8c>
 800a4e8:	01400044 	movi	r5,1
 800a4ec:	9485883a 	add	r2,r18,r18
 800a4f0:	2ca2983a 	sll	r17,r5,r18
 800a4f4:	1085883a 	add	r2,r2,r2
 800a4f8:	10c7883a 	add	r3,r2,r3
 800a4fc:	1c000017 	ldw	r16,0(r3)
 800a500:	8c4d883a 	add	r6,r17,r17
 800a504:	318d883a 	add	r6,r6,r6
 800a508:	9809883a 	mov	r4,r19
 800a50c:	31800504 	addi	r6,r6,20
 800a510:	80001226 	beq	r16,zero,800a55c <_Balloc+0xa4>
 800a514:	80800017 	ldw	r2,0(r16)
 800a518:	18800015 	stw	r2,0(r3)
 800a51c:	80000415 	stw	zero,16(r16)
 800a520:	80000315 	stw	zero,12(r16)
 800a524:	8005883a 	mov	r2,r16
 800a528:	dfc00417 	ldw	ra,16(sp)
 800a52c:	dcc00317 	ldw	r19,12(sp)
 800a530:	dc800217 	ldw	r18,8(sp)
 800a534:	dc400117 	ldw	r17,4(sp)
 800a538:	dc000017 	ldw	r16,0(sp)
 800a53c:	dec00504 	addi	sp,sp,20
 800a540:	f800283a 	ret
 800a544:	800b75c0 	call	800b75c <_calloc_r>
 800a548:	1007883a 	mov	r3,r2
 800a54c:	0021883a 	mov	r16,zero
 800a550:	98801315 	stw	r2,76(r19)
 800a554:	103fe41e 	bne	r2,zero,800a4e8 <_Balloc+0x30>
 800a558:	003ff206 	br	800a524 <_Balloc+0x6c>
 800a55c:	800b75c0 	call	800b75c <_calloc_r>
 800a560:	103ff026 	beq	r2,zero,800a524 <_Balloc+0x6c>
 800a564:	1021883a 	mov	r16,r2
 800a568:	14800115 	stw	r18,4(r2)
 800a56c:	14400215 	stw	r17,8(r2)
 800a570:	003fea06 	br	800a51c <_Balloc+0x64>

0800a574 <__d2b>:
 800a574:	defff504 	addi	sp,sp,-44
 800a578:	dcc00515 	stw	r19,20(sp)
 800a57c:	04c00044 	movi	r19,1
 800a580:	dc000215 	stw	r16,8(sp)
 800a584:	2821883a 	mov	r16,r5
 800a588:	980b883a 	mov	r5,r19
 800a58c:	ddc00915 	stw	r23,36(sp)
 800a590:	dd800815 	stw	r22,32(sp)
 800a594:	dd400715 	stw	r21,28(sp)
 800a598:	dd000615 	stw	r20,24(sp)
 800a59c:	dc800415 	stw	r18,16(sp)
 800a5a0:	dc400315 	stw	r17,12(sp)
 800a5a4:	dfc00a15 	stw	ra,40(sp)
 800a5a8:	3023883a 	mov	r17,r6
 800a5ac:	382d883a 	mov	r22,r7
 800a5b0:	ddc00b17 	ldw	r23,44(sp)
 800a5b4:	800a4b80 	call	800a4b8 <_Balloc>
 800a5b8:	1025883a 	mov	r18,r2
 800a5bc:	00a00034 	movhi	r2,32768
 800a5c0:	10bfffc4 	addi	r2,r2,-1
 800a5c4:	8888703a 	and	r4,r17,r2
 800a5c8:	202ad53a 	srli	r21,r4,20
 800a5cc:	00800434 	movhi	r2,16
 800a5d0:	10bfffc4 	addi	r2,r2,-1
 800a5d4:	8886703a 	and	r3,r17,r2
 800a5d8:	a829003a 	cmpeq	r20,r21,zero
 800a5dc:	800b883a 	mov	r5,r16
 800a5e0:	d8c00115 	stw	r3,4(sp)
 800a5e4:	94000504 	addi	r16,r18,20
 800a5e8:	a000021e 	bne	r20,zero,800a5f4 <__d2b+0x80>
 800a5ec:	18c00434 	orhi	r3,r3,16
 800a5f0:	d8c00115 	stw	r3,4(sp)
 800a5f4:	28002726 	beq	r5,zero,800a694 <__d2b+0x120>
 800a5f8:	d809883a 	mov	r4,sp
 800a5fc:	d9400015 	stw	r5,0(sp)
 800a600:	8009fd00 	call	8009fd0 <__lo0bits>
 800a604:	100d883a 	mov	r6,r2
 800a608:	10003526 	beq	r2,zero,800a6e0 <__d2b+0x16c>
 800a60c:	d8c00117 	ldw	r3,4(sp)
 800a610:	00800804 	movi	r2,32
 800a614:	1185c83a 	sub	r2,r2,r6
 800a618:	d9000017 	ldw	r4,0(sp)
 800a61c:	1886983a 	sll	r3,r3,r2
 800a620:	1906b03a 	or	r3,r3,r4
 800a624:	90c00515 	stw	r3,20(r18)
 800a628:	d8c00117 	ldw	r3,4(sp)
 800a62c:	1986d83a 	srl	r3,r3,r6
 800a630:	d8c00115 	stw	r3,4(sp)
 800a634:	180b003a 	cmpeq	r5,r3,zero
 800a638:	00800084 	movi	r2,2
 800a63c:	114bc83a 	sub	r5,r2,r5
 800a640:	80c00115 	stw	r3,4(r16)
 800a644:	91400415 	stw	r5,16(r18)
 800a648:	a0001a1e 	bne	r20,zero,800a6b4 <__d2b+0x140>
 800a64c:	3545883a 	add	r2,r6,r21
 800a650:	10bef344 	addi	r2,r2,-1075
 800a654:	00c00d44 	movi	r3,53
 800a658:	b0800015 	stw	r2,0(r22)
 800a65c:	1987c83a 	sub	r3,r3,r6
 800a660:	b8c00015 	stw	r3,0(r23)
 800a664:	9005883a 	mov	r2,r18
 800a668:	dfc00a17 	ldw	ra,40(sp)
 800a66c:	ddc00917 	ldw	r23,36(sp)
 800a670:	dd800817 	ldw	r22,32(sp)
 800a674:	dd400717 	ldw	r21,28(sp)
 800a678:	dd000617 	ldw	r20,24(sp)
 800a67c:	dcc00517 	ldw	r19,20(sp)
 800a680:	dc800417 	ldw	r18,16(sp)
 800a684:	dc400317 	ldw	r17,12(sp)
 800a688:	dc000217 	ldw	r16,8(sp)
 800a68c:	dec00b04 	addi	sp,sp,44
 800a690:	f800283a 	ret
 800a694:	d9000104 	addi	r4,sp,4
 800a698:	8009fd00 	call	8009fd0 <__lo0bits>
 800a69c:	11800804 	addi	r6,r2,32
 800a6a0:	d8800117 	ldw	r2,4(sp)
 800a6a4:	94c00415 	stw	r19,16(r18)
 800a6a8:	980b883a 	mov	r5,r19
 800a6ac:	90800515 	stw	r2,20(r18)
 800a6b0:	a03fe626 	beq	r20,zero,800a64c <__d2b+0xd8>
 800a6b4:	2945883a 	add	r2,r5,r5
 800a6b8:	1085883a 	add	r2,r2,r2
 800a6bc:	1405883a 	add	r2,r2,r16
 800a6c0:	113fff17 	ldw	r4,-4(r2)
 800a6c4:	30fef384 	addi	r3,r6,-1074
 800a6c8:	2820917a 	slli	r16,r5,5
 800a6cc:	b0c00015 	stw	r3,0(r22)
 800a6d0:	8009f600 	call	8009f60 <__hi0bits>
 800a6d4:	80a1c83a 	sub	r16,r16,r2
 800a6d8:	bc000015 	stw	r16,0(r23)
 800a6dc:	003fe106 	br	800a664 <__d2b+0xf0>
 800a6e0:	d8800017 	ldw	r2,0(sp)
 800a6e4:	90800515 	stw	r2,20(r18)
 800a6e8:	d8c00117 	ldw	r3,4(sp)
 800a6ec:	003fd106 	br	800a634 <__d2b+0xc0>

0800a6f0 <__mdiff>:
 800a6f0:	defffb04 	addi	sp,sp,-20
 800a6f4:	dc000015 	stw	r16,0(sp)
 800a6f8:	2821883a 	mov	r16,r5
 800a6fc:	dc800215 	stw	r18,8(sp)
 800a700:	300b883a 	mov	r5,r6
 800a704:	2025883a 	mov	r18,r4
 800a708:	8009883a 	mov	r4,r16
 800a70c:	dc400115 	stw	r17,4(sp)
 800a710:	dfc00415 	stw	ra,16(sp)
 800a714:	dcc00315 	stw	r19,12(sp)
 800a718:	3023883a 	mov	r17,r6
 800a71c:	800a0940 	call	800a094 <__mcmp>
 800a720:	10004226 	beq	r2,zero,800a82c <__mdiff+0x13c>
 800a724:	10005016 	blt	r2,zero,800a868 <__mdiff+0x178>
 800a728:	0027883a 	mov	r19,zero
 800a72c:	81400117 	ldw	r5,4(r16)
 800a730:	9009883a 	mov	r4,r18
 800a734:	800a4b80 	call	800a4b8 <_Balloc>
 800a738:	1019883a 	mov	r12,r2
 800a73c:	82800417 	ldw	r10,16(r16)
 800a740:	88800417 	ldw	r2,16(r17)
 800a744:	81800504 	addi	r6,r16,20
 800a748:	5287883a 	add	r3,r10,r10
 800a74c:	1085883a 	add	r2,r2,r2
 800a750:	18c7883a 	add	r3,r3,r3
 800a754:	1085883a 	add	r2,r2,r2
 800a758:	8a000504 	addi	r8,r17,20
 800a75c:	64c00315 	stw	r19,12(r12)
 800a760:	30db883a 	add	r13,r6,r3
 800a764:	4097883a 	add	r11,r8,r2
 800a768:	61c00504 	addi	r7,r12,20
 800a76c:	0013883a 	mov	r9,zero
 800a770:	31000017 	ldw	r4,0(r6)
 800a774:	41400017 	ldw	r5,0(r8)
 800a778:	42000104 	addi	r8,r8,4
 800a77c:	20bfffcc 	andi	r2,r4,65535
 800a780:	28ffffcc 	andi	r3,r5,65535
 800a784:	10c5c83a 	sub	r2,r2,r3
 800a788:	1245883a 	add	r2,r2,r9
 800a78c:	2008d43a 	srli	r4,r4,16
 800a790:	280ad43a 	srli	r5,r5,16
 800a794:	1007d43a 	srai	r3,r2,16
 800a798:	3880000d 	sth	r2,0(r7)
 800a79c:	2149c83a 	sub	r4,r4,r5
 800a7a0:	20c9883a 	add	r4,r4,r3
 800a7a4:	3900008d 	sth	r4,2(r7)
 800a7a8:	31800104 	addi	r6,r6,4
 800a7ac:	39c00104 	addi	r7,r7,4
 800a7b0:	2013d43a 	srai	r9,r4,16
 800a7b4:	42ffee36 	bltu	r8,r11,800a770 <__mdiff+0x80>
 800a7b8:	33400c2e 	bgeu	r6,r13,800a7ec <__mdiff+0xfc>
 800a7bc:	30800017 	ldw	r2,0(r6)
 800a7c0:	31800104 	addi	r6,r6,4
 800a7c4:	10ffffcc 	andi	r3,r2,65535
 800a7c8:	1a47883a 	add	r3,r3,r9
 800a7cc:	1004d43a 	srli	r2,r2,16
 800a7d0:	1809d43a 	srai	r4,r3,16
 800a7d4:	38c0000d 	sth	r3,0(r7)
 800a7d8:	1105883a 	add	r2,r2,r4
 800a7dc:	3880008d 	sth	r2,2(r7)
 800a7e0:	1013d43a 	srai	r9,r2,16
 800a7e4:	39c00104 	addi	r7,r7,4
 800a7e8:	337ff436 	bltu	r6,r13,800a7bc <__mdiff+0xcc>
 800a7ec:	38bfff17 	ldw	r2,-4(r7)
 800a7f0:	38ffff04 	addi	r3,r7,-4
 800a7f4:	1000041e 	bne	r2,zero,800a808 <__mdiff+0x118>
 800a7f8:	18ffff04 	addi	r3,r3,-4
 800a7fc:	18800017 	ldw	r2,0(r3)
 800a800:	52bfffc4 	addi	r10,r10,-1
 800a804:	103ffc26 	beq	r2,zero,800a7f8 <__mdiff+0x108>
 800a808:	6005883a 	mov	r2,r12
 800a80c:	62800415 	stw	r10,16(r12)
 800a810:	dfc00417 	ldw	ra,16(sp)
 800a814:	dcc00317 	ldw	r19,12(sp)
 800a818:	dc800217 	ldw	r18,8(sp)
 800a81c:	dc400117 	ldw	r17,4(sp)
 800a820:	dc000017 	ldw	r16,0(sp)
 800a824:	dec00504 	addi	sp,sp,20
 800a828:	f800283a 	ret
 800a82c:	9009883a 	mov	r4,r18
 800a830:	000b883a 	mov	r5,zero
 800a834:	800a4b80 	call	800a4b8 <_Balloc>
 800a838:	1019883a 	mov	r12,r2
 800a83c:	00800044 	movi	r2,1
 800a840:	60800415 	stw	r2,16(r12)
 800a844:	6005883a 	mov	r2,r12
 800a848:	60000515 	stw	zero,20(r12)
 800a84c:	dfc00417 	ldw	ra,16(sp)
 800a850:	dcc00317 	ldw	r19,12(sp)
 800a854:	dc800217 	ldw	r18,8(sp)
 800a858:	dc400117 	ldw	r17,4(sp)
 800a85c:	dc000017 	ldw	r16,0(sp)
 800a860:	dec00504 	addi	sp,sp,20
 800a864:	f800283a 	ret
 800a868:	880d883a 	mov	r6,r17
 800a86c:	04c00044 	movi	r19,1
 800a870:	8023883a 	mov	r17,r16
 800a874:	3021883a 	mov	r16,r6
 800a878:	003fac06 	br	800a72c <__mdiff+0x3c>

0800a87c <__lshift>:
 800a87c:	defff904 	addi	sp,sp,-28
 800a880:	28800417 	ldw	r2,16(r5)
 800a884:	dc000015 	stw	r16,0(sp)
 800a888:	3021d17a 	srai	r16,r6,5
 800a88c:	28c00217 	ldw	r3,8(r5)
 800a890:	10800044 	addi	r2,r2,1
 800a894:	dc400115 	stw	r17,4(sp)
 800a898:	80a3883a 	add	r17,r16,r2
 800a89c:	dd400515 	stw	r21,20(sp)
 800a8a0:	dd000415 	stw	r20,16(sp)
 800a8a4:	dc800215 	stw	r18,8(sp)
 800a8a8:	dfc00615 	stw	ra,24(sp)
 800a8ac:	2825883a 	mov	r18,r5
 800a8b0:	dcc00315 	stw	r19,12(sp)
 800a8b4:	3029883a 	mov	r20,r6
 800a8b8:	202b883a 	mov	r21,r4
 800a8bc:	29400117 	ldw	r5,4(r5)
 800a8c0:	1c40030e 	bge	r3,r17,800a8d0 <__lshift+0x54>
 800a8c4:	18c7883a 	add	r3,r3,r3
 800a8c8:	29400044 	addi	r5,r5,1
 800a8cc:	1c7ffd16 	blt	r3,r17,800a8c4 <__lshift+0x48>
 800a8d0:	a809883a 	mov	r4,r21
 800a8d4:	800a4b80 	call	800a4b8 <_Balloc>
 800a8d8:	1027883a 	mov	r19,r2
 800a8dc:	11400504 	addi	r5,r2,20
 800a8e0:	0400090e 	bge	zero,r16,800a908 <__lshift+0x8c>
 800a8e4:	2805883a 	mov	r2,r5
 800a8e8:	0007883a 	mov	r3,zero
 800a8ec:	18c00044 	addi	r3,r3,1
 800a8f0:	10000015 	stw	zero,0(r2)
 800a8f4:	10800104 	addi	r2,r2,4
 800a8f8:	80fffc1e 	bne	r16,r3,800a8ec <__lshift+0x70>
 800a8fc:	8405883a 	add	r2,r16,r16
 800a900:	1085883a 	add	r2,r2,r2
 800a904:	288b883a 	add	r5,r5,r2
 800a908:	90800417 	ldw	r2,16(r18)
 800a90c:	91000504 	addi	r4,r18,20
 800a910:	a18007cc 	andi	r6,r20,31
 800a914:	1085883a 	add	r2,r2,r2
 800a918:	1085883a 	add	r2,r2,r2
 800a91c:	208f883a 	add	r7,r4,r2
 800a920:	30001e26 	beq	r6,zero,800a99c <__lshift+0x120>
 800a924:	00800804 	movi	r2,32
 800a928:	1191c83a 	sub	r8,r2,r6
 800a92c:	0007883a 	mov	r3,zero
 800a930:	20800017 	ldw	r2,0(r4)
 800a934:	1184983a 	sll	r2,r2,r6
 800a938:	1884b03a 	or	r2,r3,r2
 800a93c:	28800015 	stw	r2,0(r5)
 800a940:	20c00017 	ldw	r3,0(r4)
 800a944:	21000104 	addi	r4,r4,4
 800a948:	29400104 	addi	r5,r5,4
 800a94c:	1a06d83a 	srl	r3,r3,r8
 800a950:	21fff736 	bltu	r4,r7,800a930 <__lshift+0xb4>
 800a954:	28c00015 	stw	r3,0(r5)
 800a958:	18000126 	beq	r3,zero,800a960 <__lshift+0xe4>
 800a95c:	8c400044 	addi	r17,r17,1
 800a960:	88bfffc4 	addi	r2,r17,-1
 800a964:	98800415 	stw	r2,16(r19)
 800a968:	a809883a 	mov	r4,r21
 800a96c:	900b883a 	mov	r5,r18
 800a970:	8009f380 	call	8009f38 <_Bfree>
 800a974:	9805883a 	mov	r2,r19
 800a978:	dfc00617 	ldw	ra,24(sp)
 800a97c:	dd400517 	ldw	r21,20(sp)
 800a980:	dd000417 	ldw	r20,16(sp)
 800a984:	dcc00317 	ldw	r19,12(sp)
 800a988:	dc800217 	ldw	r18,8(sp)
 800a98c:	dc400117 	ldw	r17,4(sp)
 800a990:	dc000017 	ldw	r16,0(sp)
 800a994:	dec00704 	addi	sp,sp,28
 800a998:	f800283a 	ret
 800a99c:	20800017 	ldw	r2,0(r4)
 800a9a0:	21000104 	addi	r4,r4,4
 800a9a4:	28800015 	stw	r2,0(r5)
 800a9a8:	29400104 	addi	r5,r5,4
 800a9ac:	21ffec2e 	bgeu	r4,r7,800a960 <__lshift+0xe4>
 800a9b0:	20800017 	ldw	r2,0(r4)
 800a9b4:	21000104 	addi	r4,r4,4
 800a9b8:	28800015 	stw	r2,0(r5)
 800a9bc:	29400104 	addi	r5,r5,4
 800a9c0:	21fff636 	bltu	r4,r7,800a99c <__lshift+0x120>
 800a9c4:	003fe606 	br	800a960 <__lshift+0xe4>

0800a9c8 <__multiply>:
 800a9c8:	defff004 	addi	sp,sp,-64
 800a9cc:	dc800815 	stw	r18,32(sp)
 800a9d0:	dc400715 	stw	r17,28(sp)
 800a9d4:	2c800417 	ldw	r18,16(r5)
 800a9d8:	34400417 	ldw	r17,16(r6)
 800a9dc:	dcc00915 	stw	r19,36(sp)
 800a9e0:	dc000615 	stw	r16,24(sp)
 800a9e4:	dfc00f15 	stw	ra,60(sp)
 800a9e8:	df000e15 	stw	fp,56(sp)
 800a9ec:	ddc00d15 	stw	r23,52(sp)
 800a9f0:	dd800c15 	stw	r22,48(sp)
 800a9f4:	dd400b15 	stw	r21,44(sp)
 800a9f8:	dd000a15 	stw	r20,40(sp)
 800a9fc:	2821883a 	mov	r16,r5
 800aa00:	3027883a 	mov	r19,r6
 800aa04:	9440040e 	bge	r18,r17,800aa18 <__multiply+0x50>
 800aa08:	8825883a 	mov	r18,r17
 800aa0c:	2c400417 	ldw	r17,16(r5)
 800aa10:	2827883a 	mov	r19,r5
 800aa14:	3021883a 	mov	r16,r6
 800aa18:	80800217 	ldw	r2,8(r16)
 800aa1c:	9447883a 	add	r3,r18,r17
 800aa20:	d8c00415 	stw	r3,16(sp)
 800aa24:	81400117 	ldw	r5,4(r16)
 800aa28:	10c0010e 	bge	r2,r3,800aa30 <__multiply+0x68>
 800aa2c:	29400044 	addi	r5,r5,1
 800aa30:	800a4b80 	call	800a4b8 <_Balloc>
 800aa34:	d8800515 	stw	r2,20(sp)
 800aa38:	d9000417 	ldw	r4,16(sp)
 800aa3c:	d8c00517 	ldw	r3,20(sp)
 800aa40:	2105883a 	add	r2,r4,r4
 800aa44:	1085883a 	add	r2,r2,r2
 800aa48:	19000504 	addi	r4,r3,20
 800aa4c:	2085883a 	add	r2,r4,r2
 800aa50:	d8800315 	stw	r2,12(sp)
 800aa54:	2080052e 	bgeu	r4,r2,800aa6c <__multiply+0xa4>
 800aa58:	2005883a 	mov	r2,r4
 800aa5c:	d8c00317 	ldw	r3,12(sp)
 800aa60:	10000015 	stw	zero,0(r2)
 800aa64:	10800104 	addi	r2,r2,4
 800aa68:	10fffc36 	bltu	r2,r3,800aa5c <__multiply+0x94>
 800aa6c:	8c45883a 	add	r2,r17,r17
 800aa70:	9487883a 	add	r3,r18,r18
 800aa74:	9dc00504 	addi	r23,r19,20
 800aa78:	1085883a 	add	r2,r2,r2
 800aa7c:	84000504 	addi	r16,r16,20
 800aa80:	18c7883a 	add	r3,r3,r3
 800aa84:	b885883a 	add	r2,r23,r2
 800aa88:	dc000015 	stw	r16,0(sp)
 800aa8c:	d8800215 	stw	r2,8(sp)
 800aa90:	80f9883a 	add	fp,r16,r3
 800aa94:	b880432e 	bgeu	r23,r2,800aba4 <__multiply+0x1dc>
 800aa98:	d9000115 	stw	r4,4(sp)
 800aa9c:	b9000017 	ldw	r4,0(r23)
 800aaa0:	253fffcc 	andi	r20,r4,65535
 800aaa4:	a0001a26 	beq	r20,zero,800ab10 <__multiply+0x148>
 800aaa8:	dcc00017 	ldw	r19,0(sp)
 800aaac:	dc800117 	ldw	r18,4(sp)
 800aab0:	002b883a 	mov	r21,zero
 800aab4:	9c400017 	ldw	r17,0(r19)
 800aab8:	94000017 	ldw	r16,0(r18)
 800aabc:	a009883a 	mov	r4,r20
 800aac0:	897fffcc 	andi	r5,r17,65535
 800aac4:	800d84c0 	call	800d84c <__mulsi3>
 800aac8:	880ad43a 	srli	r5,r17,16
 800aacc:	80ffffcc 	andi	r3,r16,65535
 800aad0:	a8c7883a 	add	r3,r21,r3
 800aad4:	a009883a 	mov	r4,r20
 800aad8:	10e3883a 	add	r17,r2,r3
 800aadc:	8020d43a 	srli	r16,r16,16
 800aae0:	800d84c0 	call	800d84c <__mulsi3>
 800aae4:	8806d43a 	srli	r3,r17,16
 800aae8:	1405883a 	add	r2,r2,r16
 800aaec:	9cc00104 	addi	r19,r19,4
 800aaf0:	1887883a 	add	r3,r3,r2
 800aaf4:	90c0008d 	sth	r3,2(r18)
 800aaf8:	9440000d 	sth	r17,0(r18)
 800aafc:	182ad43a 	srli	r21,r3,16
 800ab00:	94800104 	addi	r18,r18,4
 800ab04:	9f3feb36 	bltu	r19,fp,800aab4 <__multiply+0xec>
 800ab08:	95400015 	stw	r21,0(r18)
 800ab0c:	b9000017 	ldw	r4,0(r23)
 800ab10:	202ad43a 	srli	r21,r4,16
 800ab14:	a8001c26 	beq	r21,zero,800ab88 <__multiply+0x1c0>
 800ab18:	d9000117 	ldw	r4,4(sp)
 800ab1c:	dd000017 	ldw	r20,0(sp)
 800ab20:	002d883a 	mov	r22,zero
 800ab24:	24c00017 	ldw	r19,0(r4)
 800ab28:	2025883a 	mov	r18,r4
 800ab2c:	9823883a 	mov	r17,r19
 800ab30:	a4000017 	ldw	r16,0(r20)
 800ab34:	a809883a 	mov	r4,r21
 800ab38:	a5000104 	addi	r20,r20,4
 800ab3c:	817fffcc 	andi	r5,r16,65535
 800ab40:	800d84c0 	call	800d84c <__mulsi3>
 800ab44:	8806d43a 	srli	r3,r17,16
 800ab48:	800ad43a 	srli	r5,r16,16
 800ab4c:	94c0000d 	sth	r19,0(r18)
 800ab50:	b0c7883a 	add	r3,r22,r3
 800ab54:	10e1883a 	add	r16,r2,r3
 800ab58:	9400008d 	sth	r16,2(r18)
 800ab5c:	a809883a 	mov	r4,r21
 800ab60:	94800104 	addi	r18,r18,4
 800ab64:	800d84c0 	call	800d84c <__mulsi3>
 800ab68:	94400017 	ldw	r17,0(r18)
 800ab6c:	8020d43a 	srli	r16,r16,16
 800ab70:	88ffffcc 	andi	r3,r17,65535
 800ab74:	10c5883a 	add	r2,r2,r3
 800ab78:	80a7883a 	add	r19,r16,r2
 800ab7c:	982cd43a 	srli	r22,r19,16
 800ab80:	a73feb36 	bltu	r20,fp,800ab30 <__multiply+0x168>
 800ab84:	94c00015 	stw	r19,0(r18)
 800ab88:	d8800217 	ldw	r2,8(sp)
 800ab8c:	bdc00104 	addi	r23,r23,4
 800ab90:	b880042e 	bgeu	r23,r2,800aba4 <__multiply+0x1dc>
 800ab94:	d8c00117 	ldw	r3,4(sp)
 800ab98:	18c00104 	addi	r3,r3,4
 800ab9c:	d8c00115 	stw	r3,4(sp)
 800aba0:	003fbe06 	br	800aa9c <__multiply+0xd4>
 800aba4:	d9000417 	ldw	r4,16(sp)
 800aba8:	01000c0e 	bge	zero,r4,800abdc <__multiply+0x214>
 800abac:	d8c00317 	ldw	r3,12(sp)
 800abb0:	18bfff17 	ldw	r2,-4(r3)
 800abb4:	18ffff04 	addi	r3,r3,-4
 800abb8:	10000326 	beq	r2,zero,800abc8 <__multiply+0x200>
 800abbc:	00000706 	br	800abdc <__multiply+0x214>
 800abc0:	18800017 	ldw	r2,0(r3)
 800abc4:	1000051e 	bne	r2,zero,800abdc <__multiply+0x214>
 800abc8:	d9000417 	ldw	r4,16(sp)
 800abcc:	18ffff04 	addi	r3,r3,-4
 800abd0:	213fffc4 	addi	r4,r4,-1
 800abd4:	d9000415 	stw	r4,16(sp)
 800abd8:	203ff91e 	bne	r4,zero,800abc0 <__multiply+0x1f8>
 800abdc:	d8800417 	ldw	r2,16(sp)
 800abe0:	d8c00517 	ldw	r3,20(sp)
 800abe4:	18800415 	stw	r2,16(r3)
 800abe8:	1805883a 	mov	r2,r3
 800abec:	dfc00f17 	ldw	ra,60(sp)
 800abf0:	df000e17 	ldw	fp,56(sp)
 800abf4:	ddc00d17 	ldw	r23,52(sp)
 800abf8:	dd800c17 	ldw	r22,48(sp)
 800abfc:	dd400b17 	ldw	r21,44(sp)
 800ac00:	dd000a17 	ldw	r20,40(sp)
 800ac04:	dcc00917 	ldw	r19,36(sp)
 800ac08:	dc800817 	ldw	r18,32(sp)
 800ac0c:	dc400717 	ldw	r17,28(sp)
 800ac10:	dc000617 	ldw	r16,24(sp)
 800ac14:	dec01004 	addi	sp,sp,64
 800ac18:	f800283a 	ret

0800ac1c <__i2b>:
 800ac1c:	defffd04 	addi	sp,sp,-12
 800ac20:	dc000015 	stw	r16,0(sp)
 800ac24:	04000044 	movi	r16,1
 800ac28:	dc800115 	stw	r18,4(sp)
 800ac2c:	2825883a 	mov	r18,r5
 800ac30:	800b883a 	mov	r5,r16
 800ac34:	dfc00215 	stw	ra,8(sp)
 800ac38:	800a4b80 	call	800a4b8 <_Balloc>
 800ac3c:	14000415 	stw	r16,16(r2)
 800ac40:	14800515 	stw	r18,20(r2)
 800ac44:	dfc00217 	ldw	ra,8(sp)
 800ac48:	dc800117 	ldw	r18,4(sp)
 800ac4c:	dc000017 	ldw	r16,0(sp)
 800ac50:	dec00304 	addi	sp,sp,12
 800ac54:	f800283a 	ret

0800ac58 <__multadd>:
 800ac58:	defff604 	addi	sp,sp,-40
 800ac5c:	dd800615 	stw	r22,24(sp)
 800ac60:	2d800417 	ldw	r22,16(r5)
 800ac64:	df000815 	stw	fp,32(sp)
 800ac68:	ddc00715 	stw	r23,28(sp)
 800ac6c:	dd400515 	stw	r21,20(sp)
 800ac70:	dd000415 	stw	r20,16(sp)
 800ac74:	dcc00315 	stw	r19,12(sp)
 800ac78:	dc800215 	stw	r18,8(sp)
 800ac7c:	dfc00915 	stw	ra,36(sp)
 800ac80:	dc400115 	stw	r17,4(sp)
 800ac84:	dc000015 	stw	r16,0(sp)
 800ac88:	282f883a 	mov	r23,r5
 800ac8c:	2039883a 	mov	fp,r4
 800ac90:	302b883a 	mov	r21,r6
 800ac94:	3829883a 	mov	r20,r7
 800ac98:	2c800504 	addi	r18,r5,20
 800ac9c:	0027883a 	mov	r19,zero
 800aca0:	94400017 	ldw	r17,0(r18)
 800aca4:	a80b883a 	mov	r5,r21
 800aca8:	9cc00044 	addi	r19,r19,1
 800acac:	893fffcc 	andi	r4,r17,65535
 800acb0:	800d84c0 	call	800d84c <__mulsi3>
 800acb4:	8808d43a 	srli	r4,r17,16
 800acb8:	1521883a 	add	r16,r2,r20
 800acbc:	a80b883a 	mov	r5,r21
 800acc0:	800d84c0 	call	800d84c <__mulsi3>
 800acc4:	8008d43a 	srli	r4,r16,16
 800acc8:	843fffcc 	andi	r16,r16,65535
 800accc:	1105883a 	add	r2,r2,r4
 800acd0:	1006943a 	slli	r3,r2,16
 800acd4:	1028d43a 	srli	r20,r2,16
 800acd8:	1c07883a 	add	r3,r3,r16
 800acdc:	90c00015 	stw	r3,0(r18)
 800ace0:	94800104 	addi	r18,r18,4
 800ace4:	9dbfee16 	blt	r19,r22,800aca0 <__multadd+0x48>
 800ace8:	a0000826 	beq	r20,zero,800ad0c <__multadd+0xb4>
 800acec:	b8800217 	ldw	r2,8(r23)
 800acf0:	b080130e 	bge	r22,r2,800ad40 <__multadd+0xe8>
 800acf4:	b585883a 	add	r2,r22,r22
 800acf8:	1085883a 	add	r2,r2,r2
 800acfc:	15c5883a 	add	r2,r2,r23
 800ad00:	b0c00044 	addi	r3,r22,1
 800ad04:	15000515 	stw	r20,20(r2)
 800ad08:	b8c00415 	stw	r3,16(r23)
 800ad0c:	b805883a 	mov	r2,r23
 800ad10:	dfc00917 	ldw	ra,36(sp)
 800ad14:	df000817 	ldw	fp,32(sp)
 800ad18:	ddc00717 	ldw	r23,28(sp)
 800ad1c:	dd800617 	ldw	r22,24(sp)
 800ad20:	dd400517 	ldw	r21,20(sp)
 800ad24:	dd000417 	ldw	r20,16(sp)
 800ad28:	dcc00317 	ldw	r19,12(sp)
 800ad2c:	dc800217 	ldw	r18,8(sp)
 800ad30:	dc400117 	ldw	r17,4(sp)
 800ad34:	dc000017 	ldw	r16,0(sp)
 800ad38:	dec00a04 	addi	sp,sp,40
 800ad3c:	f800283a 	ret
 800ad40:	b9400117 	ldw	r5,4(r23)
 800ad44:	e009883a 	mov	r4,fp
 800ad48:	29400044 	addi	r5,r5,1
 800ad4c:	800a4b80 	call	800a4b8 <_Balloc>
 800ad50:	b9800417 	ldw	r6,16(r23)
 800ad54:	b9400304 	addi	r5,r23,12
 800ad58:	11000304 	addi	r4,r2,12
 800ad5c:	318d883a 	add	r6,r6,r6
 800ad60:	318d883a 	add	r6,r6,r6
 800ad64:	31800204 	addi	r6,r6,8
 800ad68:	1023883a 	mov	r17,r2
 800ad6c:	8004f880 	call	8004f88 <memcpy>
 800ad70:	b80b883a 	mov	r5,r23
 800ad74:	e009883a 	mov	r4,fp
 800ad78:	8009f380 	call	8009f38 <_Bfree>
 800ad7c:	882f883a 	mov	r23,r17
 800ad80:	003fdc06 	br	800acf4 <__multadd+0x9c>

0800ad84 <__pow5mult>:
 800ad84:	defffa04 	addi	sp,sp,-24
 800ad88:	308000cc 	andi	r2,r6,3
 800ad8c:	dd000415 	stw	r20,16(sp)
 800ad90:	dcc00315 	stw	r19,12(sp)
 800ad94:	dc000015 	stw	r16,0(sp)
 800ad98:	dfc00515 	stw	ra,20(sp)
 800ad9c:	dc800215 	stw	r18,8(sp)
 800ada0:	dc400115 	stw	r17,4(sp)
 800ada4:	3021883a 	mov	r16,r6
 800ada8:	2027883a 	mov	r19,r4
 800adac:	2829883a 	mov	r20,r5
 800adb0:	10002b1e 	bne	r2,zero,800ae60 <__pow5mult+0xdc>
 800adb4:	8025d0ba 	srai	r18,r16,2
 800adb8:	90001b26 	beq	r18,zero,800ae28 <__pow5mult+0xa4>
 800adbc:	9c001217 	ldw	r16,72(r19)
 800adc0:	8000081e 	bne	r16,zero,800ade4 <__pow5mult+0x60>
 800adc4:	00003006 	br	800ae88 <__pow5mult+0x104>
 800adc8:	800b883a 	mov	r5,r16
 800adcc:	800d883a 	mov	r6,r16
 800add0:	9809883a 	mov	r4,r19
 800add4:	90001426 	beq	r18,zero,800ae28 <__pow5mult+0xa4>
 800add8:	80800017 	ldw	r2,0(r16)
 800addc:	10001b26 	beq	r2,zero,800ae4c <__pow5mult+0xc8>
 800ade0:	1021883a 	mov	r16,r2
 800ade4:	9080004c 	andi	r2,r18,1
 800ade8:	1005003a 	cmpeq	r2,r2,zero
 800adec:	9025d07a 	srai	r18,r18,1
 800adf0:	800d883a 	mov	r6,r16
 800adf4:	9809883a 	mov	r4,r19
 800adf8:	a00b883a 	mov	r5,r20
 800adfc:	103ff21e 	bne	r2,zero,800adc8 <__pow5mult+0x44>
 800ae00:	800a9c80 	call	800a9c8 <__multiply>
 800ae04:	a00b883a 	mov	r5,r20
 800ae08:	9809883a 	mov	r4,r19
 800ae0c:	1023883a 	mov	r17,r2
 800ae10:	8009f380 	call	8009f38 <_Bfree>
 800ae14:	8829883a 	mov	r20,r17
 800ae18:	800b883a 	mov	r5,r16
 800ae1c:	800d883a 	mov	r6,r16
 800ae20:	9809883a 	mov	r4,r19
 800ae24:	903fec1e 	bne	r18,zero,800add8 <__pow5mult+0x54>
 800ae28:	a005883a 	mov	r2,r20
 800ae2c:	dfc00517 	ldw	ra,20(sp)
 800ae30:	dd000417 	ldw	r20,16(sp)
 800ae34:	dcc00317 	ldw	r19,12(sp)
 800ae38:	dc800217 	ldw	r18,8(sp)
 800ae3c:	dc400117 	ldw	r17,4(sp)
 800ae40:	dc000017 	ldw	r16,0(sp)
 800ae44:	dec00604 	addi	sp,sp,24
 800ae48:	f800283a 	ret
 800ae4c:	800a9c80 	call	800a9c8 <__multiply>
 800ae50:	80800015 	stw	r2,0(r16)
 800ae54:	1021883a 	mov	r16,r2
 800ae58:	10000015 	stw	zero,0(r2)
 800ae5c:	003fe106 	br	800ade4 <__pow5mult+0x60>
 800ae60:	1085883a 	add	r2,r2,r2
 800ae64:	00c20074 	movhi	r3,2049
 800ae68:	18d49104 	addi	r3,r3,21060
 800ae6c:	1085883a 	add	r2,r2,r2
 800ae70:	10c5883a 	add	r2,r2,r3
 800ae74:	11bfff17 	ldw	r6,-4(r2)
 800ae78:	000f883a 	mov	r7,zero
 800ae7c:	800ac580 	call	800ac58 <__multadd>
 800ae80:	1029883a 	mov	r20,r2
 800ae84:	003fcb06 	br	800adb4 <__pow5mult+0x30>
 800ae88:	9809883a 	mov	r4,r19
 800ae8c:	01409c44 	movi	r5,625
 800ae90:	800ac1c0 	call	800ac1c <__i2b>
 800ae94:	98801215 	stw	r2,72(r19)
 800ae98:	1021883a 	mov	r16,r2
 800ae9c:	10000015 	stw	zero,0(r2)
 800aea0:	003fd006 	br	800ade4 <__pow5mult+0x60>

0800aea4 <__s2b>:
 800aea4:	defff904 	addi	sp,sp,-28
 800aea8:	dcc00315 	stw	r19,12(sp)
 800aeac:	dc800215 	stw	r18,8(sp)
 800aeb0:	2827883a 	mov	r19,r5
 800aeb4:	2025883a 	mov	r18,r4
 800aeb8:	01400244 	movi	r5,9
 800aebc:	39000204 	addi	r4,r7,8
 800aec0:	dd000415 	stw	r20,16(sp)
 800aec4:	dc400115 	stw	r17,4(sp)
 800aec8:	dfc00615 	stw	ra,24(sp)
 800aecc:	dd400515 	stw	r21,20(sp)
 800aed0:	dc000015 	stw	r16,0(sp)
 800aed4:	3829883a 	mov	r20,r7
 800aed8:	3023883a 	mov	r17,r6
 800aedc:	800d77c0 	call	800d77c <__divsi3>
 800aee0:	00c00044 	movi	r3,1
 800aee4:	1880350e 	bge	r3,r2,800afbc <__s2b+0x118>
 800aee8:	000b883a 	mov	r5,zero
 800aeec:	18c7883a 	add	r3,r3,r3
 800aef0:	29400044 	addi	r5,r5,1
 800aef4:	18bffd16 	blt	r3,r2,800aeec <__s2b+0x48>
 800aef8:	9009883a 	mov	r4,r18
 800aefc:	800a4b80 	call	800a4b8 <_Balloc>
 800af00:	1011883a 	mov	r8,r2
 800af04:	d8800717 	ldw	r2,28(sp)
 800af08:	00c00044 	movi	r3,1
 800af0c:	01800244 	movi	r6,9
 800af10:	40800515 	stw	r2,20(r8)
 800af14:	40c00415 	stw	r3,16(r8)
 800af18:	3440260e 	bge	r6,r17,800afb4 <__s2b+0x110>
 800af1c:	3021883a 	mov	r16,r6
 800af20:	99ab883a 	add	r21,r19,r6
 800af24:	9c05883a 	add	r2,r19,r16
 800af28:	11c00007 	ldb	r7,0(r2)
 800af2c:	400b883a 	mov	r5,r8
 800af30:	9009883a 	mov	r4,r18
 800af34:	39fff404 	addi	r7,r7,-48
 800af38:	01800284 	movi	r6,10
 800af3c:	800ac580 	call	800ac58 <__multadd>
 800af40:	84000044 	addi	r16,r16,1
 800af44:	1011883a 	mov	r8,r2
 800af48:	8c3ff61e 	bne	r17,r16,800af24 <__s2b+0x80>
 800af4c:	ac45883a 	add	r2,r21,r17
 800af50:	117ffe04 	addi	r5,r2,-8
 800af54:	880d883a 	mov	r6,r17
 800af58:	35000c0e 	bge	r6,r20,800af8c <__s2b+0xe8>
 800af5c:	a185c83a 	sub	r2,r20,r6
 800af60:	2821883a 	mov	r16,r5
 800af64:	28a3883a 	add	r17,r5,r2
 800af68:	81c00007 	ldb	r7,0(r16)
 800af6c:	400b883a 	mov	r5,r8
 800af70:	9009883a 	mov	r4,r18
 800af74:	39fff404 	addi	r7,r7,-48
 800af78:	01800284 	movi	r6,10
 800af7c:	800ac580 	call	800ac58 <__multadd>
 800af80:	84000044 	addi	r16,r16,1
 800af84:	1011883a 	mov	r8,r2
 800af88:	847ff71e 	bne	r16,r17,800af68 <__s2b+0xc4>
 800af8c:	4005883a 	mov	r2,r8
 800af90:	dfc00617 	ldw	ra,24(sp)
 800af94:	dd400517 	ldw	r21,20(sp)
 800af98:	dd000417 	ldw	r20,16(sp)
 800af9c:	dcc00317 	ldw	r19,12(sp)
 800afa0:	dc800217 	ldw	r18,8(sp)
 800afa4:	dc400117 	ldw	r17,4(sp)
 800afa8:	dc000017 	ldw	r16,0(sp)
 800afac:	dec00704 	addi	sp,sp,28
 800afb0:	f800283a 	ret
 800afb4:	99400284 	addi	r5,r19,10
 800afb8:	003fe706 	br	800af58 <__s2b+0xb4>
 800afbc:	000b883a 	mov	r5,zero
 800afc0:	003fcd06 	br	800aef8 <__s2b+0x54>

0800afc4 <_read_r>:
 800afc4:	defffd04 	addi	sp,sp,-12
 800afc8:	dc000015 	stw	r16,0(sp)
 800afcc:	040200b4 	movhi	r16,2050
 800afd0:	84223b04 	addi	r16,r16,-30484
 800afd4:	dc400115 	stw	r17,4(sp)
 800afd8:	80000015 	stw	zero,0(r16)
 800afdc:	2023883a 	mov	r17,r4
 800afe0:	2809883a 	mov	r4,r5
 800afe4:	300b883a 	mov	r5,r6
 800afe8:	380d883a 	mov	r6,r7
 800afec:	dfc00215 	stw	ra,8(sp)
 800aff0:	800e6100 	call	800e610 <read>
 800aff4:	1007883a 	mov	r3,r2
 800aff8:	00bfffc4 	movi	r2,-1
 800affc:	18800626 	beq	r3,r2,800b018 <_read_r+0x54>
 800b000:	1805883a 	mov	r2,r3
 800b004:	dfc00217 	ldw	ra,8(sp)
 800b008:	dc400117 	ldw	r17,4(sp)
 800b00c:	dc000017 	ldw	r16,0(sp)
 800b010:	dec00304 	addi	sp,sp,12
 800b014:	f800283a 	ret
 800b018:	80800017 	ldw	r2,0(r16)
 800b01c:	103ff826 	beq	r2,zero,800b000 <_read_r+0x3c>
 800b020:	88800015 	stw	r2,0(r17)
 800b024:	1805883a 	mov	r2,r3
 800b028:	dfc00217 	ldw	ra,8(sp)
 800b02c:	dc400117 	ldw	r17,4(sp)
 800b030:	dc000017 	ldw	r16,0(sp)
 800b034:	dec00304 	addi	sp,sp,12
 800b038:	f800283a 	ret

0800b03c <_realloc_r>:
 800b03c:	defff404 	addi	sp,sp,-48
 800b040:	dd800815 	stw	r22,32(sp)
 800b044:	dc800415 	stw	r18,16(sp)
 800b048:	dc400315 	stw	r17,12(sp)
 800b04c:	dfc00b15 	stw	ra,44(sp)
 800b050:	df000a15 	stw	fp,40(sp)
 800b054:	ddc00915 	stw	r23,36(sp)
 800b058:	dd400715 	stw	r21,28(sp)
 800b05c:	dd000615 	stw	r20,24(sp)
 800b060:	dcc00515 	stw	r19,20(sp)
 800b064:	dc000215 	stw	r16,8(sp)
 800b068:	2825883a 	mov	r18,r5
 800b06c:	3023883a 	mov	r17,r6
 800b070:	202d883a 	mov	r22,r4
 800b074:	2800c926 	beq	r5,zero,800b39c <_realloc_r+0x360>
 800b078:	800e5d00 	call	800e5d0 <__malloc_lock>
 800b07c:	943ffe04 	addi	r16,r18,-8
 800b080:	88c002c4 	addi	r3,r17,11
 800b084:	00800584 	movi	r2,22
 800b088:	82000117 	ldw	r8,4(r16)
 800b08c:	10c01b2e 	bgeu	r2,r3,800b0fc <_realloc_r+0xc0>
 800b090:	00bffe04 	movi	r2,-8
 800b094:	188e703a 	and	r7,r3,r2
 800b098:	3839883a 	mov	fp,r7
 800b09c:	38001a16 	blt	r7,zero,800b108 <_realloc_r+0xcc>
 800b0a0:	e4401936 	bltu	fp,r17,800b108 <_realloc_r+0xcc>
 800b0a4:	013fff04 	movi	r4,-4
 800b0a8:	4126703a 	and	r19,r8,r4
 800b0ac:	99c02616 	blt	r19,r7,800b148 <_realloc_r+0x10c>
 800b0b0:	802b883a 	mov	r21,r16
 800b0b4:	9829883a 	mov	r20,r19
 800b0b8:	84000204 	addi	r16,r16,8
 800b0bc:	a80f883a 	mov	r7,r21
 800b0c0:	a70dc83a 	sub	r6,r20,fp
 800b0c4:	008003c4 	movi	r2,15
 800b0c8:	1180c136 	bltu	r2,r6,800b3d0 <_realloc_r+0x394>
 800b0cc:	38800117 	ldw	r2,4(r7)
 800b0d0:	a549883a 	add	r4,r20,r21
 800b0d4:	1080004c 	andi	r2,r2,1
 800b0d8:	a084b03a 	or	r2,r20,r2
 800b0dc:	38800115 	stw	r2,4(r7)
 800b0e0:	20c00117 	ldw	r3,4(r4)
 800b0e4:	18c00054 	ori	r3,r3,1
 800b0e8:	20c00115 	stw	r3,4(r4)
 800b0ec:	b009883a 	mov	r4,r22
 800b0f0:	800e5f00 	call	800e5f0 <__malloc_unlock>
 800b0f4:	8023883a 	mov	r17,r16
 800b0f8:	00000606 	br	800b114 <_realloc_r+0xd8>
 800b0fc:	01c00404 	movi	r7,16
 800b100:	3839883a 	mov	fp,r7
 800b104:	e47fe72e 	bgeu	fp,r17,800b0a4 <_realloc_r+0x68>
 800b108:	00800304 	movi	r2,12
 800b10c:	0023883a 	mov	r17,zero
 800b110:	b0800015 	stw	r2,0(r22)
 800b114:	8805883a 	mov	r2,r17
 800b118:	dfc00b17 	ldw	ra,44(sp)
 800b11c:	df000a17 	ldw	fp,40(sp)
 800b120:	ddc00917 	ldw	r23,36(sp)
 800b124:	dd800817 	ldw	r22,32(sp)
 800b128:	dd400717 	ldw	r21,28(sp)
 800b12c:	dd000617 	ldw	r20,24(sp)
 800b130:	dcc00517 	ldw	r19,20(sp)
 800b134:	dc800417 	ldw	r18,16(sp)
 800b138:	dc400317 	ldw	r17,12(sp)
 800b13c:	dc000217 	ldw	r16,8(sp)
 800b140:	dec00c04 	addi	sp,sp,48
 800b144:	f800283a 	ret
 800b148:	00820074 	movhi	r2,2049
 800b14c:	1095f104 	addi	r2,r2,22468
 800b150:	12400217 	ldw	r9,8(r2)
 800b154:	84cd883a 	add	r6,r16,r19
 800b158:	802b883a 	mov	r21,r16
 800b15c:	3240b926 	beq	r6,r9,800b444 <_realloc_r+0x408>
 800b160:	31400117 	ldw	r5,4(r6)
 800b164:	00bfff84 	movi	r2,-2
 800b168:	2884703a 	and	r2,r5,r2
 800b16c:	1185883a 	add	r2,r2,r6
 800b170:	10c00117 	ldw	r3,4(r2)
 800b174:	18c0004c 	andi	r3,r3,1
 800b178:	1807003a 	cmpeq	r3,r3,zero
 800b17c:	1800a326 	beq	r3,zero,800b40c <_realloc_r+0x3d0>
 800b180:	2908703a 	and	r4,r5,r4
 800b184:	9929883a 	add	r20,r19,r4
 800b188:	a1c0a30e 	bge	r20,r7,800b418 <_realloc_r+0x3dc>
 800b18c:	4080004c 	andi	r2,r8,1
 800b190:	1000551e 	bne	r2,zero,800b2e8 <_realloc_r+0x2ac>
 800b194:	80800017 	ldw	r2,0(r16)
 800b198:	80afc83a 	sub	r23,r16,r2
 800b19c:	b8c00117 	ldw	r3,4(r23)
 800b1a0:	00bfff04 	movi	r2,-4
 800b1a4:	1884703a 	and	r2,r3,r2
 800b1a8:	30002e26 	beq	r6,zero,800b264 <_realloc_r+0x228>
 800b1ac:	3240b926 	beq	r6,r9,800b494 <_realloc_r+0x458>
 800b1b0:	98a9883a 	add	r20,r19,r2
 800b1b4:	2509883a 	add	r4,r4,r20
 800b1b8:	d9000015 	stw	r4,0(sp)
 800b1bc:	21c02a16 	blt	r4,r7,800b268 <_realloc_r+0x22c>
 800b1c0:	30800317 	ldw	r2,12(r6)
 800b1c4:	30c00217 	ldw	r3,8(r6)
 800b1c8:	01400904 	movi	r5,36
 800b1cc:	99bfff04 	addi	r6,r19,-4
 800b1d0:	18800315 	stw	r2,12(r3)
 800b1d4:	10c00215 	stw	r3,8(r2)
 800b1d8:	b9000317 	ldw	r4,12(r23)
 800b1dc:	b8800217 	ldw	r2,8(r23)
 800b1e0:	b82b883a 	mov	r21,r23
 800b1e4:	bc000204 	addi	r16,r23,8
 800b1e8:	20800215 	stw	r2,8(r4)
 800b1ec:	11000315 	stw	r4,12(r2)
 800b1f0:	2980e436 	bltu	r5,r6,800b584 <_realloc_r+0x548>
 800b1f4:	008004c4 	movi	r2,19
 800b1f8:	9009883a 	mov	r4,r18
 800b1fc:	8011883a 	mov	r8,r16
 800b200:	11800f2e 	bgeu	r2,r6,800b240 <_realloc_r+0x204>
 800b204:	90800017 	ldw	r2,0(r18)
 800b208:	ba000404 	addi	r8,r23,16
 800b20c:	91000204 	addi	r4,r18,8
 800b210:	b8800215 	stw	r2,8(r23)
 800b214:	90c00117 	ldw	r3,4(r18)
 800b218:	008006c4 	movi	r2,27
 800b21c:	b8c00315 	stw	r3,12(r23)
 800b220:	1180072e 	bgeu	r2,r6,800b240 <_realloc_r+0x204>
 800b224:	90c00217 	ldw	r3,8(r18)
 800b228:	ba000604 	addi	r8,r23,24
 800b22c:	91000404 	addi	r4,r18,16
 800b230:	b8c00415 	stw	r3,16(r23)
 800b234:	90800317 	ldw	r2,12(r18)
 800b238:	b8800515 	stw	r2,20(r23)
 800b23c:	3140e726 	beq	r6,r5,800b5dc <_realloc_r+0x5a0>
 800b240:	20800017 	ldw	r2,0(r4)
 800b244:	dd000017 	ldw	r20,0(sp)
 800b248:	b80f883a 	mov	r7,r23
 800b24c:	40800015 	stw	r2,0(r8)
 800b250:	20c00117 	ldw	r3,4(r4)
 800b254:	40c00115 	stw	r3,4(r8)
 800b258:	20800217 	ldw	r2,8(r4)
 800b25c:	40800215 	stw	r2,8(r8)
 800b260:	003f9706 	br	800b0c0 <_realloc_r+0x84>
 800b264:	98a9883a 	add	r20,r19,r2
 800b268:	a1c01f16 	blt	r20,r7,800b2e8 <_realloc_r+0x2ac>
 800b26c:	b8c00317 	ldw	r3,12(r23)
 800b270:	b8800217 	ldw	r2,8(r23)
 800b274:	99bfff04 	addi	r6,r19,-4
 800b278:	01400904 	movi	r5,36
 800b27c:	b82b883a 	mov	r21,r23
 800b280:	18800215 	stw	r2,8(r3)
 800b284:	10c00315 	stw	r3,12(r2)
 800b288:	bc000204 	addi	r16,r23,8
 800b28c:	2980c336 	bltu	r5,r6,800b59c <_realloc_r+0x560>
 800b290:	008004c4 	movi	r2,19
 800b294:	9009883a 	mov	r4,r18
 800b298:	8011883a 	mov	r8,r16
 800b29c:	11800f2e 	bgeu	r2,r6,800b2dc <_realloc_r+0x2a0>
 800b2a0:	90800017 	ldw	r2,0(r18)
 800b2a4:	ba000404 	addi	r8,r23,16
 800b2a8:	91000204 	addi	r4,r18,8
 800b2ac:	b8800215 	stw	r2,8(r23)
 800b2b0:	90c00117 	ldw	r3,4(r18)
 800b2b4:	008006c4 	movi	r2,27
 800b2b8:	b8c00315 	stw	r3,12(r23)
 800b2bc:	1180072e 	bgeu	r2,r6,800b2dc <_realloc_r+0x2a0>
 800b2c0:	90c00217 	ldw	r3,8(r18)
 800b2c4:	ba000604 	addi	r8,r23,24
 800b2c8:	91000404 	addi	r4,r18,16
 800b2cc:	b8c00415 	stw	r3,16(r23)
 800b2d0:	90800317 	ldw	r2,12(r18)
 800b2d4:	b8800515 	stw	r2,20(r23)
 800b2d8:	3140c726 	beq	r6,r5,800b5f8 <_realloc_r+0x5bc>
 800b2dc:	20800017 	ldw	r2,0(r4)
 800b2e0:	b80f883a 	mov	r7,r23
 800b2e4:	003fd906 	br	800b24c <_realloc_r+0x210>
 800b2e8:	880b883a 	mov	r5,r17
 800b2ec:	b009883a 	mov	r4,r22
 800b2f0:	80047640 	call	8004764 <_malloc_r>
 800b2f4:	1023883a 	mov	r17,r2
 800b2f8:	10002526 	beq	r2,zero,800b390 <_realloc_r+0x354>
 800b2fc:	80800117 	ldw	r2,4(r16)
 800b300:	00ffff84 	movi	r3,-2
 800b304:	893ffe04 	addi	r4,r17,-8
 800b308:	10c4703a 	and	r2,r2,r3
 800b30c:	8085883a 	add	r2,r16,r2
 800b310:	20809526 	beq	r4,r2,800b568 <_realloc_r+0x52c>
 800b314:	99bfff04 	addi	r6,r19,-4
 800b318:	01c00904 	movi	r7,36
 800b31c:	39804536 	bltu	r7,r6,800b434 <_realloc_r+0x3f8>
 800b320:	008004c4 	movi	r2,19
 800b324:	9009883a 	mov	r4,r18
 800b328:	880b883a 	mov	r5,r17
 800b32c:	11800f2e 	bgeu	r2,r6,800b36c <_realloc_r+0x330>
 800b330:	90800017 	ldw	r2,0(r18)
 800b334:	89400204 	addi	r5,r17,8
 800b338:	91000204 	addi	r4,r18,8
 800b33c:	88800015 	stw	r2,0(r17)
 800b340:	90c00117 	ldw	r3,4(r18)
 800b344:	008006c4 	movi	r2,27
 800b348:	88c00115 	stw	r3,4(r17)
 800b34c:	1180072e 	bgeu	r2,r6,800b36c <_realloc_r+0x330>
 800b350:	90c00217 	ldw	r3,8(r18)
 800b354:	89400404 	addi	r5,r17,16
 800b358:	91000404 	addi	r4,r18,16
 800b35c:	88c00215 	stw	r3,8(r17)
 800b360:	90800317 	ldw	r2,12(r18)
 800b364:	88800315 	stw	r2,12(r17)
 800b368:	31c09126 	beq	r6,r7,800b5b0 <_realloc_r+0x574>
 800b36c:	20800017 	ldw	r2,0(r4)
 800b370:	28800015 	stw	r2,0(r5)
 800b374:	20c00117 	ldw	r3,4(r4)
 800b378:	28c00115 	stw	r3,4(r5)
 800b37c:	20800217 	ldw	r2,8(r4)
 800b380:	28800215 	stw	r2,8(r5)
 800b384:	900b883a 	mov	r5,r18
 800b388:	b009883a 	mov	r4,r22
 800b38c:	80093d80 	call	80093d8 <_free_r>
 800b390:	b009883a 	mov	r4,r22
 800b394:	800e5f00 	call	800e5f0 <__malloc_unlock>
 800b398:	003f5e06 	br	800b114 <_realloc_r+0xd8>
 800b39c:	300b883a 	mov	r5,r6
 800b3a0:	dfc00b17 	ldw	ra,44(sp)
 800b3a4:	df000a17 	ldw	fp,40(sp)
 800b3a8:	ddc00917 	ldw	r23,36(sp)
 800b3ac:	dd800817 	ldw	r22,32(sp)
 800b3b0:	dd400717 	ldw	r21,28(sp)
 800b3b4:	dd000617 	ldw	r20,24(sp)
 800b3b8:	dcc00517 	ldw	r19,20(sp)
 800b3bc:	dc800417 	ldw	r18,16(sp)
 800b3c0:	dc400317 	ldw	r17,12(sp)
 800b3c4:	dc000217 	ldw	r16,8(sp)
 800b3c8:	dec00c04 	addi	sp,sp,48
 800b3cc:	80047641 	jmpi	8004764 <_malloc_r>
 800b3d0:	38800117 	ldw	r2,4(r7)
 800b3d4:	e54b883a 	add	r5,fp,r21
 800b3d8:	31000054 	ori	r4,r6,1
 800b3dc:	1080004c 	andi	r2,r2,1
 800b3e0:	1704b03a 	or	r2,r2,fp
 800b3e4:	38800115 	stw	r2,4(r7)
 800b3e8:	29000115 	stw	r4,4(r5)
 800b3ec:	2987883a 	add	r3,r5,r6
 800b3f0:	18800117 	ldw	r2,4(r3)
 800b3f4:	29400204 	addi	r5,r5,8
 800b3f8:	b009883a 	mov	r4,r22
 800b3fc:	10800054 	ori	r2,r2,1
 800b400:	18800115 	stw	r2,4(r3)
 800b404:	80093d80 	call	80093d8 <_free_r>
 800b408:	003f3806 	br	800b0ec <_realloc_r+0xb0>
 800b40c:	000d883a 	mov	r6,zero
 800b410:	0009883a 	mov	r4,zero
 800b414:	003f5d06 	br	800b18c <_realloc_r+0x150>
 800b418:	30c00217 	ldw	r3,8(r6)
 800b41c:	30800317 	ldw	r2,12(r6)
 800b420:	800f883a 	mov	r7,r16
 800b424:	84000204 	addi	r16,r16,8
 800b428:	10c00215 	stw	r3,8(r2)
 800b42c:	18800315 	stw	r2,12(r3)
 800b430:	003f2306 	br	800b0c0 <_realloc_r+0x84>
 800b434:	8809883a 	mov	r4,r17
 800b438:	900b883a 	mov	r5,r18
 800b43c:	8009e580 	call	8009e58 <memmove>
 800b440:	003fd006 	br	800b384 <_realloc_r+0x348>
 800b444:	30800117 	ldw	r2,4(r6)
 800b448:	e0c00404 	addi	r3,fp,16
 800b44c:	1108703a 	and	r4,r2,r4
 800b450:	9905883a 	add	r2,r19,r4
 800b454:	10ff4d16 	blt	r2,r3,800b18c <_realloc_r+0x150>
 800b458:	1705c83a 	sub	r2,r2,fp
 800b45c:	870b883a 	add	r5,r16,fp
 800b460:	10800054 	ori	r2,r2,1
 800b464:	28800115 	stw	r2,4(r5)
 800b468:	80c00117 	ldw	r3,4(r16)
 800b46c:	00820074 	movhi	r2,2049
 800b470:	1095f104 	addi	r2,r2,22468
 800b474:	b009883a 	mov	r4,r22
 800b478:	18c0004c 	andi	r3,r3,1
 800b47c:	e0c6b03a 	or	r3,fp,r3
 800b480:	11400215 	stw	r5,8(r2)
 800b484:	80c00115 	stw	r3,4(r16)
 800b488:	800e5f00 	call	800e5f0 <__malloc_unlock>
 800b48c:	84400204 	addi	r17,r16,8
 800b490:	003f2006 	br	800b114 <_realloc_r+0xd8>
 800b494:	98a9883a 	add	r20,r19,r2
 800b498:	2509883a 	add	r4,r4,r20
 800b49c:	e0800404 	addi	r2,fp,16
 800b4a0:	d9000115 	stw	r4,4(sp)
 800b4a4:	20bf7016 	blt	r4,r2,800b268 <_realloc_r+0x22c>
 800b4a8:	b8c00317 	ldw	r3,12(r23)
 800b4ac:	b8800217 	ldw	r2,8(r23)
 800b4b0:	99bfff04 	addi	r6,r19,-4
 800b4b4:	01400904 	movi	r5,36
 800b4b8:	18800215 	stw	r2,8(r3)
 800b4bc:	10c00315 	stw	r3,12(r2)
 800b4c0:	bc400204 	addi	r17,r23,8
 800b4c4:	29804136 	bltu	r5,r6,800b5cc <_realloc_r+0x590>
 800b4c8:	008004c4 	movi	r2,19
 800b4cc:	9009883a 	mov	r4,r18
 800b4d0:	880f883a 	mov	r7,r17
 800b4d4:	11800f2e 	bgeu	r2,r6,800b514 <_realloc_r+0x4d8>
 800b4d8:	90800017 	ldw	r2,0(r18)
 800b4dc:	b9c00404 	addi	r7,r23,16
 800b4e0:	91000204 	addi	r4,r18,8
 800b4e4:	b8800215 	stw	r2,8(r23)
 800b4e8:	90c00117 	ldw	r3,4(r18)
 800b4ec:	008006c4 	movi	r2,27
 800b4f0:	b8c00315 	stw	r3,12(r23)
 800b4f4:	1180072e 	bgeu	r2,r6,800b514 <_realloc_r+0x4d8>
 800b4f8:	90c00217 	ldw	r3,8(r18)
 800b4fc:	b9c00604 	addi	r7,r23,24
 800b500:	91000404 	addi	r4,r18,16
 800b504:	b8c00415 	stw	r3,16(r23)
 800b508:	90800317 	ldw	r2,12(r18)
 800b50c:	b8800515 	stw	r2,20(r23)
 800b510:	31404026 	beq	r6,r5,800b614 <_realloc_r+0x5d8>
 800b514:	20800017 	ldw	r2,0(r4)
 800b518:	38800015 	stw	r2,0(r7)
 800b51c:	20c00117 	ldw	r3,4(r4)
 800b520:	38c00115 	stw	r3,4(r7)
 800b524:	20800217 	ldw	r2,8(r4)
 800b528:	38800215 	stw	r2,8(r7)
 800b52c:	d8c00117 	ldw	r3,4(sp)
 800b530:	bf0b883a 	add	r5,r23,fp
 800b534:	b009883a 	mov	r4,r22
 800b538:	1f05c83a 	sub	r2,r3,fp
 800b53c:	10800054 	ori	r2,r2,1
 800b540:	28800115 	stw	r2,4(r5)
 800b544:	b8c00117 	ldw	r3,4(r23)
 800b548:	00820074 	movhi	r2,2049
 800b54c:	1095f104 	addi	r2,r2,22468
 800b550:	11400215 	stw	r5,8(r2)
 800b554:	18c0004c 	andi	r3,r3,1
 800b558:	e0c6b03a 	or	r3,fp,r3
 800b55c:	b8c00115 	stw	r3,4(r23)
 800b560:	800e5f00 	call	800e5f0 <__malloc_unlock>
 800b564:	003eeb06 	br	800b114 <_realloc_r+0xd8>
 800b568:	20800117 	ldw	r2,4(r4)
 800b56c:	00ffff04 	movi	r3,-4
 800b570:	800f883a 	mov	r7,r16
 800b574:	10c4703a 	and	r2,r2,r3
 800b578:	98a9883a 	add	r20,r19,r2
 800b57c:	84000204 	addi	r16,r16,8
 800b580:	003ecf06 	br	800b0c0 <_realloc_r+0x84>
 800b584:	900b883a 	mov	r5,r18
 800b588:	8009883a 	mov	r4,r16
 800b58c:	8009e580 	call	8009e58 <memmove>
 800b590:	dd000017 	ldw	r20,0(sp)
 800b594:	b80f883a 	mov	r7,r23
 800b598:	003ec906 	br	800b0c0 <_realloc_r+0x84>
 800b59c:	900b883a 	mov	r5,r18
 800b5a0:	8009883a 	mov	r4,r16
 800b5a4:	8009e580 	call	8009e58 <memmove>
 800b5a8:	b80f883a 	mov	r7,r23
 800b5ac:	003ec406 	br	800b0c0 <_realloc_r+0x84>
 800b5b0:	90c00417 	ldw	r3,16(r18)
 800b5b4:	89400604 	addi	r5,r17,24
 800b5b8:	91000604 	addi	r4,r18,24
 800b5bc:	88c00415 	stw	r3,16(r17)
 800b5c0:	90800517 	ldw	r2,20(r18)
 800b5c4:	88800515 	stw	r2,20(r17)
 800b5c8:	003f6806 	br	800b36c <_realloc_r+0x330>
 800b5cc:	900b883a 	mov	r5,r18
 800b5d0:	8809883a 	mov	r4,r17
 800b5d4:	8009e580 	call	8009e58 <memmove>
 800b5d8:	003fd406 	br	800b52c <_realloc_r+0x4f0>
 800b5dc:	90c00417 	ldw	r3,16(r18)
 800b5e0:	91000604 	addi	r4,r18,24
 800b5e4:	ba000804 	addi	r8,r23,32
 800b5e8:	b8c00615 	stw	r3,24(r23)
 800b5ec:	90800517 	ldw	r2,20(r18)
 800b5f0:	b8800715 	stw	r2,28(r23)
 800b5f4:	003f1206 	br	800b240 <_realloc_r+0x204>
 800b5f8:	90c00417 	ldw	r3,16(r18)
 800b5fc:	91000604 	addi	r4,r18,24
 800b600:	ba000804 	addi	r8,r23,32
 800b604:	b8c00615 	stw	r3,24(r23)
 800b608:	90800517 	ldw	r2,20(r18)
 800b60c:	b8800715 	stw	r2,28(r23)
 800b610:	003f3206 	br	800b2dc <_realloc_r+0x2a0>
 800b614:	90c00417 	ldw	r3,16(r18)
 800b618:	91000604 	addi	r4,r18,24
 800b61c:	b9c00804 	addi	r7,r23,32
 800b620:	b8c00615 	stw	r3,24(r23)
 800b624:	90800517 	ldw	r2,20(r18)
 800b628:	b8800715 	stw	r2,28(r23)
 800b62c:	003fb906 	br	800b514 <_realloc_r+0x4d8>

0800b630 <__isinfd>:
 800b630:	200d883a 	mov	r6,r4
 800b634:	0109c83a 	sub	r4,zero,r4
 800b638:	2188b03a 	or	r4,r4,r6
 800b63c:	2008d7fa 	srli	r4,r4,31
 800b640:	00a00034 	movhi	r2,32768
 800b644:	10bfffc4 	addi	r2,r2,-1
 800b648:	1144703a 	and	r2,r2,r5
 800b64c:	2088b03a 	or	r4,r4,r2
 800b650:	009ffc34 	movhi	r2,32752
 800b654:	1105c83a 	sub	r2,r2,r4
 800b658:	0087c83a 	sub	r3,zero,r2
 800b65c:	10c4b03a 	or	r2,r2,r3
 800b660:	1004d7fa 	srli	r2,r2,31
 800b664:	00c00044 	movi	r3,1
 800b668:	1885c83a 	sub	r2,r3,r2
 800b66c:	f800283a 	ret

0800b670 <__isnand>:
 800b670:	200d883a 	mov	r6,r4
 800b674:	0109c83a 	sub	r4,zero,r4
 800b678:	2188b03a 	or	r4,r4,r6
 800b67c:	2008d7fa 	srli	r4,r4,31
 800b680:	00a00034 	movhi	r2,32768
 800b684:	10bfffc4 	addi	r2,r2,-1
 800b688:	1144703a 	and	r2,r2,r5
 800b68c:	2088b03a 	or	r4,r4,r2
 800b690:	009ffc34 	movhi	r2,32752
 800b694:	1105c83a 	sub	r2,r2,r4
 800b698:	1004d7fa 	srli	r2,r2,31
 800b69c:	f800283a 	ret

0800b6a0 <strcmp>:
 800b6a0:	2144b03a 	or	r2,r4,r5
 800b6a4:	108000cc 	andi	r2,r2,3
 800b6a8:	10001d1e 	bne	r2,zero,800b720 <strcmp+0x80>
 800b6ac:	200f883a 	mov	r7,r4
 800b6b0:	28800017 	ldw	r2,0(r5)
 800b6b4:	21000017 	ldw	r4,0(r4)
 800b6b8:	280d883a 	mov	r6,r5
 800b6bc:	2080161e 	bne	r4,r2,800b718 <strcmp+0x78>
 800b6c0:	023fbff4 	movhi	r8,65279
 800b6c4:	423fbfc4 	addi	r8,r8,-257
 800b6c8:	2207883a 	add	r3,r4,r8
 800b6cc:	01602074 	movhi	r5,32897
 800b6d0:	29602004 	addi	r5,r5,-32640
 800b6d4:	1946703a 	and	r3,r3,r5
 800b6d8:	0104303a 	nor	r2,zero,r4
 800b6dc:	10c4703a 	and	r2,r2,r3
 800b6e0:	10001c1e 	bne	r2,zero,800b754 <strcmp+0xb4>
 800b6e4:	4013883a 	mov	r9,r8
 800b6e8:	2811883a 	mov	r8,r5
 800b6ec:	00000106 	br	800b6f4 <strcmp+0x54>
 800b6f0:	1800181e 	bne	r3,zero,800b754 <strcmp+0xb4>
 800b6f4:	39c00104 	addi	r7,r7,4
 800b6f8:	39000017 	ldw	r4,0(r7)
 800b6fc:	31800104 	addi	r6,r6,4
 800b700:	31400017 	ldw	r5,0(r6)
 800b704:	2245883a 	add	r2,r4,r9
 800b708:	1204703a 	and	r2,r2,r8
 800b70c:	0106303a 	nor	r3,zero,r4
 800b710:	1886703a 	and	r3,r3,r2
 800b714:	217ff626 	beq	r4,r5,800b6f0 <strcmp+0x50>
 800b718:	3809883a 	mov	r4,r7
 800b71c:	300b883a 	mov	r5,r6
 800b720:	20c00007 	ldb	r3,0(r4)
 800b724:	1800051e 	bne	r3,zero,800b73c <strcmp+0x9c>
 800b728:	00000606 	br	800b744 <strcmp+0xa4>
 800b72c:	21000044 	addi	r4,r4,1
 800b730:	20c00007 	ldb	r3,0(r4)
 800b734:	29400044 	addi	r5,r5,1
 800b738:	18000226 	beq	r3,zero,800b744 <strcmp+0xa4>
 800b73c:	28800007 	ldb	r2,0(r5)
 800b740:	18bffa26 	beq	r3,r2,800b72c <strcmp+0x8c>
 800b744:	20c00003 	ldbu	r3,0(r4)
 800b748:	28800003 	ldbu	r2,0(r5)
 800b74c:	1885c83a 	sub	r2,r3,r2
 800b750:	f800283a 	ret
 800b754:	0005883a 	mov	r2,zero
 800b758:	f800283a 	ret

0800b75c <_calloc_r>:
 800b75c:	defffe04 	addi	sp,sp,-8
 800b760:	dc400015 	stw	r17,0(sp)
 800b764:	2023883a 	mov	r17,r4
 800b768:	2809883a 	mov	r4,r5
 800b76c:	300b883a 	mov	r5,r6
 800b770:	dfc00115 	stw	ra,4(sp)
 800b774:	800d84c0 	call	800d84c <__mulsi3>
 800b778:	100b883a 	mov	r5,r2
 800b77c:	8809883a 	mov	r4,r17
 800b780:	80047640 	call	8004764 <_malloc_r>
 800b784:	1023883a 	mov	r17,r2
 800b788:	01c00904 	movi	r7,36
 800b78c:	10000d26 	beq	r2,zero,800b7c4 <_calloc_r+0x68>
 800b790:	10ffff17 	ldw	r3,-4(r2)
 800b794:	1009883a 	mov	r4,r2
 800b798:	00bfff04 	movi	r2,-4
 800b79c:	1886703a 	and	r3,r3,r2
 800b7a0:	1887883a 	add	r3,r3,r2
 800b7a4:	180d883a 	mov	r6,r3
 800b7a8:	000b883a 	mov	r5,zero
 800b7ac:	38c01736 	bltu	r7,r3,800b80c <_calloc_r+0xb0>
 800b7b0:	008004c4 	movi	r2,19
 800b7b4:	10c00836 	bltu	r2,r3,800b7d8 <_calloc_r+0x7c>
 800b7b8:	20000215 	stw	zero,8(r4)
 800b7bc:	20000015 	stw	zero,0(r4)
 800b7c0:	20000115 	stw	zero,4(r4)
 800b7c4:	8805883a 	mov	r2,r17
 800b7c8:	dfc00117 	ldw	ra,4(sp)
 800b7cc:	dc400017 	ldw	r17,0(sp)
 800b7d0:	dec00204 	addi	sp,sp,8
 800b7d4:	f800283a 	ret
 800b7d8:	008006c4 	movi	r2,27
 800b7dc:	88000015 	stw	zero,0(r17)
 800b7e0:	88000115 	stw	zero,4(r17)
 800b7e4:	89000204 	addi	r4,r17,8
 800b7e8:	10fff32e 	bgeu	r2,r3,800b7b8 <_calloc_r+0x5c>
 800b7ec:	88000215 	stw	zero,8(r17)
 800b7f0:	88000315 	stw	zero,12(r17)
 800b7f4:	89000404 	addi	r4,r17,16
 800b7f8:	19ffef1e 	bne	r3,r7,800b7b8 <_calloc_r+0x5c>
 800b7fc:	89000604 	addi	r4,r17,24
 800b800:	88000415 	stw	zero,16(r17)
 800b804:	88000515 	stw	zero,20(r17)
 800b808:	003feb06 	br	800b7b8 <_calloc_r+0x5c>
 800b80c:	80050280 	call	8005028 <memset>
 800b810:	8805883a 	mov	r2,r17
 800b814:	dfc00117 	ldw	ra,4(sp)
 800b818:	dc400017 	ldw	r17,0(sp)
 800b81c:	dec00204 	addi	sp,sp,8
 800b820:	f800283a 	ret

0800b824 <_fstat_r>:
 800b824:	defffd04 	addi	sp,sp,-12
 800b828:	dc000015 	stw	r16,0(sp)
 800b82c:	040200b4 	movhi	r16,2050
 800b830:	84223b04 	addi	r16,r16,-30484
 800b834:	dc400115 	stw	r17,4(sp)
 800b838:	80000015 	stw	zero,0(r16)
 800b83c:	2023883a 	mov	r17,r4
 800b840:	2809883a 	mov	r4,r5
 800b844:	300b883a 	mov	r5,r6
 800b848:	dfc00215 	stw	ra,8(sp)
 800b84c:	800e0c80 	call	800e0c8 <fstat>
 800b850:	1007883a 	mov	r3,r2
 800b854:	00bfffc4 	movi	r2,-1
 800b858:	18800626 	beq	r3,r2,800b874 <_fstat_r+0x50>
 800b85c:	1805883a 	mov	r2,r3
 800b860:	dfc00217 	ldw	ra,8(sp)
 800b864:	dc400117 	ldw	r17,4(sp)
 800b868:	dc000017 	ldw	r16,0(sp)
 800b86c:	dec00304 	addi	sp,sp,12
 800b870:	f800283a 	ret
 800b874:	80800017 	ldw	r2,0(r16)
 800b878:	103ff826 	beq	r2,zero,800b85c <_fstat_r+0x38>
 800b87c:	88800015 	stw	r2,0(r17)
 800b880:	1805883a 	mov	r2,r3
 800b884:	dfc00217 	ldw	ra,8(sp)
 800b888:	dc400117 	ldw	r17,4(sp)
 800b88c:	dc000017 	ldw	r16,0(sp)
 800b890:	dec00304 	addi	sp,sp,12
 800b894:	f800283a 	ret

0800b898 <_isatty_r>:
 800b898:	defffd04 	addi	sp,sp,-12
 800b89c:	dc000015 	stw	r16,0(sp)
 800b8a0:	040200b4 	movhi	r16,2050
 800b8a4:	84223b04 	addi	r16,r16,-30484
 800b8a8:	dc400115 	stw	r17,4(sp)
 800b8ac:	80000015 	stw	zero,0(r16)
 800b8b0:	2023883a 	mov	r17,r4
 800b8b4:	2809883a 	mov	r4,r5
 800b8b8:	dfc00215 	stw	ra,8(sp)
 800b8bc:	800e2000 	call	800e200 <isatty>
 800b8c0:	1007883a 	mov	r3,r2
 800b8c4:	00bfffc4 	movi	r2,-1
 800b8c8:	18800626 	beq	r3,r2,800b8e4 <_isatty_r+0x4c>
 800b8cc:	1805883a 	mov	r2,r3
 800b8d0:	dfc00217 	ldw	ra,8(sp)
 800b8d4:	dc400117 	ldw	r17,4(sp)
 800b8d8:	dc000017 	ldw	r16,0(sp)
 800b8dc:	dec00304 	addi	sp,sp,12
 800b8e0:	f800283a 	ret
 800b8e4:	80800017 	ldw	r2,0(r16)
 800b8e8:	103ff826 	beq	r2,zero,800b8cc <_isatty_r+0x34>
 800b8ec:	88800015 	stw	r2,0(r17)
 800b8f0:	1805883a 	mov	r2,r3
 800b8f4:	dfc00217 	ldw	ra,8(sp)
 800b8f8:	dc400117 	ldw	r17,4(sp)
 800b8fc:	dc000017 	ldw	r16,0(sp)
 800b900:	dec00304 	addi	sp,sp,12
 800b904:	f800283a 	ret

0800b908 <__udivdi3>:
 800b908:	defff104 	addi	sp,sp,-60
 800b90c:	0015883a 	mov	r10,zero
 800b910:	2005883a 	mov	r2,r4
 800b914:	3011883a 	mov	r8,r6
 800b918:	df000d15 	stw	fp,52(sp)
 800b91c:	dd400a15 	stw	r21,40(sp)
 800b920:	dcc00815 	stw	r19,32(sp)
 800b924:	dfc00e15 	stw	ra,56(sp)
 800b928:	ddc00c15 	stw	r23,48(sp)
 800b92c:	dd800b15 	stw	r22,44(sp)
 800b930:	dd000915 	stw	r20,36(sp)
 800b934:	dc800715 	stw	r18,28(sp)
 800b938:	dc400615 	stw	r17,24(sp)
 800b93c:	dc000515 	stw	r16,20(sp)
 800b940:	da800315 	stw	r10,12(sp)
 800b944:	4027883a 	mov	r19,r8
 800b948:	1039883a 	mov	fp,r2
 800b94c:	282b883a 	mov	r21,r5
 800b950:	da800415 	stw	r10,16(sp)
 800b954:	3800401e 	bne	r7,zero,800ba58 <__udivdi3+0x150>
 800b958:	2a006536 	bltu	r5,r8,800baf0 <__udivdi3+0x1e8>
 800b95c:	4000b526 	beq	r8,zero,800bc34 <__udivdi3+0x32c>
 800b960:	00bfffd4 	movui	r2,65535
 800b964:	14c0ad36 	bltu	r2,r19,800bc1c <__udivdi3+0x314>
 800b968:	00803fc4 	movi	r2,255
 800b96c:	14c15e36 	bltu	r2,r19,800bee8 <__udivdi3+0x5e0>
 800b970:	000b883a 	mov	r5,zero
 800b974:	0005883a 	mov	r2,zero
 800b978:	9884d83a 	srl	r2,r19,r2
 800b97c:	01020074 	movhi	r4,2049
 800b980:	21149904 	addi	r4,r4,21092
 800b984:	01800804 	movi	r6,32
 800b988:	1105883a 	add	r2,r2,r4
 800b98c:	10c00003 	ldbu	r3,0(r2)
 800b990:	28c7883a 	add	r3,r5,r3
 800b994:	30e9c83a 	sub	r20,r6,r3
 800b998:	a0010a1e 	bne	r20,zero,800bdc4 <__udivdi3+0x4bc>
 800b99c:	982ed43a 	srli	r23,r19,16
 800b9a0:	acebc83a 	sub	r21,r21,r19
 800b9a4:	9dbfffcc 	andi	r22,r19,65535
 800b9a8:	05000044 	movi	r20,1
 800b9ac:	a809883a 	mov	r4,r21
 800b9b0:	b80b883a 	mov	r5,r23
 800b9b4:	800d83c0 	call	800d83c <__udivsi3>
 800b9b8:	100b883a 	mov	r5,r2
 800b9bc:	b009883a 	mov	r4,r22
 800b9c0:	1021883a 	mov	r16,r2
 800b9c4:	800d84c0 	call	800d84c <__mulsi3>
 800b9c8:	a809883a 	mov	r4,r21
 800b9cc:	b80b883a 	mov	r5,r23
 800b9d0:	1023883a 	mov	r17,r2
 800b9d4:	800d8440 	call	800d844 <__umodsi3>
 800b9d8:	1004943a 	slli	r2,r2,16
 800b9dc:	e006d43a 	srli	r3,fp,16
 800b9e0:	10c4b03a 	or	r2,r2,r3
 800b9e4:	1440042e 	bgeu	r2,r17,800b9f8 <__udivdi3+0xf0>
 800b9e8:	14c5883a 	add	r2,r2,r19
 800b9ec:	843fffc4 	addi	r16,r16,-1
 800b9f0:	14c00136 	bltu	r2,r19,800b9f8 <__udivdi3+0xf0>
 800b9f4:	14415c36 	bltu	r2,r17,800bf68 <__udivdi3+0x660>
 800b9f8:	1463c83a 	sub	r17,r2,r17
 800b9fc:	8809883a 	mov	r4,r17
 800ba00:	b80b883a 	mov	r5,r23
 800ba04:	800d83c0 	call	800d83c <__udivsi3>
 800ba08:	100b883a 	mov	r5,r2
 800ba0c:	b009883a 	mov	r4,r22
 800ba10:	102b883a 	mov	r21,r2
 800ba14:	800d84c0 	call	800d84c <__mulsi3>
 800ba18:	8809883a 	mov	r4,r17
 800ba1c:	b80b883a 	mov	r5,r23
 800ba20:	1025883a 	mov	r18,r2
 800ba24:	800d8440 	call	800d844 <__umodsi3>
 800ba28:	1004943a 	slli	r2,r2,16
 800ba2c:	e0ffffcc 	andi	r3,fp,65535
 800ba30:	10c4b03a 	or	r2,r2,r3
 800ba34:	1480042e 	bgeu	r2,r18,800ba48 <__udivdi3+0x140>
 800ba38:	9885883a 	add	r2,r19,r2
 800ba3c:	ad7fffc4 	addi	r21,r21,-1
 800ba40:	14c00136 	bltu	r2,r19,800ba48 <__udivdi3+0x140>
 800ba44:	14813c36 	bltu	r2,r18,800bf38 <__udivdi3+0x630>
 800ba48:	8004943a 	slli	r2,r16,16
 800ba4c:	a009883a 	mov	r4,r20
 800ba50:	a884b03a 	or	r2,r21,r2
 800ba54:	00001506 	br	800baac <__udivdi3+0x1a4>
 800ba58:	380d883a 	mov	r6,r7
 800ba5c:	29c06c36 	bltu	r5,r7,800bc10 <__udivdi3+0x308>
 800ba60:	00bfffd4 	movui	r2,65535
 800ba64:	11c06436 	bltu	r2,r7,800bbf8 <__udivdi3+0x2f0>
 800ba68:	00803fc4 	movi	r2,255
 800ba6c:	11c11836 	bltu	r2,r7,800bed0 <__udivdi3+0x5c8>
 800ba70:	000b883a 	mov	r5,zero
 800ba74:	0005883a 	mov	r2,zero
 800ba78:	3084d83a 	srl	r2,r6,r2
 800ba7c:	01020074 	movhi	r4,2049
 800ba80:	21149904 	addi	r4,r4,21092
 800ba84:	01c00804 	movi	r7,32
 800ba88:	1105883a 	add	r2,r2,r4
 800ba8c:	10c00003 	ldbu	r3,0(r2)
 800ba90:	28c7883a 	add	r3,r5,r3
 800ba94:	38edc83a 	sub	r22,r7,r3
 800ba98:	b000731e 	bne	r22,zero,800bc68 <__udivdi3+0x360>
 800ba9c:	35400136 	bltu	r6,r21,800baa4 <__udivdi3+0x19c>
 800baa0:	e4c05b36 	bltu	fp,r19,800bc10 <__udivdi3+0x308>
 800baa4:	00800044 	movi	r2,1
 800baa8:	0009883a 	mov	r4,zero
 800baac:	d8800315 	stw	r2,12(sp)
 800bab0:	d9400317 	ldw	r5,12(sp)
 800bab4:	2007883a 	mov	r3,r4
 800bab8:	d9000415 	stw	r4,16(sp)
 800babc:	2805883a 	mov	r2,r5
 800bac0:	dfc00e17 	ldw	ra,56(sp)
 800bac4:	df000d17 	ldw	fp,52(sp)
 800bac8:	ddc00c17 	ldw	r23,48(sp)
 800bacc:	dd800b17 	ldw	r22,44(sp)
 800bad0:	dd400a17 	ldw	r21,40(sp)
 800bad4:	dd000917 	ldw	r20,36(sp)
 800bad8:	dcc00817 	ldw	r19,32(sp)
 800badc:	dc800717 	ldw	r18,28(sp)
 800bae0:	dc400617 	ldw	r17,24(sp)
 800bae4:	dc000517 	ldw	r16,20(sp)
 800bae8:	dec00f04 	addi	sp,sp,60
 800baec:	f800283a 	ret
 800baf0:	00bfffd4 	movui	r2,65535
 800baf4:	12005636 	bltu	r2,r8,800bc50 <__udivdi3+0x348>
 800baf8:	00803fc4 	movi	r2,255
 800bafc:	12010036 	bltu	r2,r8,800bf00 <__udivdi3+0x5f8>
 800bb00:	000b883a 	mov	r5,zero
 800bb04:	0005883a 	mov	r2,zero
 800bb08:	9884d83a 	srl	r2,r19,r2
 800bb0c:	01020074 	movhi	r4,2049
 800bb10:	21149904 	addi	r4,r4,21092
 800bb14:	01800804 	movi	r6,32
 800bb18:	1105883a 	add	r2,r2,r4
 800bb1c:	10c00003 	ldbu	r3,0(r2)
 800bb20:	28c7883a 	add	r3,r5,r3
 800bb24:	30cbc83a 	sub	r5,r6,r3
 800bb28:	28000626 	beq	r5,zero,800bb44 <__udivdi3+0x23c>
 800bb2c:	3145c83a 	sub	r2,r6,r5
 800bb30:	e084d83a 	srl	r2,fp,r2
 800bb34:	a946983a 	sll	r3,r21,r5
 800bb38:	e178983a 	sll	fp,fp,r5
 800bb3c:	9966983a 	sll	r19,r19,r5
 800bb40:	18aab03a 	or	r21,r3,r2
 800bb44:	982ed43a 	srli	r23,r19,16
 800bb48:	a809883a 	mov	r4,r21
 800bb4c:	9cbfffcc 	andi	r18,r19,65535
 800bb50:	b80b883a 	mov	r5,r23
 800bb54:	800d83c0 	call	800d83c <__udivsi3>
 800bb58:	100b883a 	mov	r5,r2
 800bb5c:	9009883a 	mov	r4,r18
 800bb60:	1021883a 	mov	r16,r2
 800bb64:	800d84c0 	call	800d84c <__mulsi3>
 800bb68:	a809883a 	mov	r4,r21
 800bb6c:	b80b883a 	mov	r5,r23
 800bb70:	1023883a 	mov	r17,r2
 800bb74:	800d8440 	call	800d844 <__umodsi3>
 800bb78:	1004943a 	slli	r2,r2,16
 800bb7c:	e006d43a 	srli	r3,fp,16
 800bb80:	10c4b03a 	or	r2,r2,r3
 800bb84:	1440042e 	bgeu	r2,r17,800bb98 <__udivdi3+0x290>
 800bb88:	14c5883a 	add	r2,r2,r19
 800bb8c:	843fffc4 	addi	r16,r16,-1
 800bb90:	14c00136 	bltu	r2,r19,800bb98 <__udivdi3+0x290>
 800bb94:	1440ea36 	bltu	r2,r17,800bf40 <__udivdi3+0x638>
 800bb98:	1463c83a 	sub	r17,r2,r17
 800bb9c:	8809883a 	mov	r4,r17
 800bba0:	b80b883a 	mov	r5,r23
 800bba4:	800d83c0 	call	800d83c <__udivsi3>
 800bba8:	100b883a 	mov	r5,r2
 800bbac:	9009883a 	mov	r4,r18
 800bbb0:	102b883a 	mov	r21,r2
 800bbb4:	800d84c0 	call	800d84c <__mulsi3>
 800bbb8:	8809883a 	mov	r4,r17
 800bbbc:	b80b883a 	mov	r5,r23
 800bbc0:	1025883a 	mov	r18,r2
 800bbc4:	800d8440 	call	800d844 <__umodsi3>
 800bbc8:	1004943a 	slli	r2,r2,16
 800bbcc:	e0ffffcc 	andi	r3,fp,65535
 800bbd0:	10c4b03a 	or	r2,r2,r3
 800bbd4:	1480042e 	bgeu	r2,r18,800bbe8 <__udivdi3+0x2e0>
 800bbd8:	9885883a 	add	r2,r19,r2
 800bbdc:	ad7fffc4 	addi	r21,r21,-1
 800bbe0:	14c00136 	bltu	r2,r19,800bbe8 <__udivdi3+0x2e0>
 800bbe4:	1480d936 	bltu	r2,r18,800bf4c <__udivdi3+0x644>
 800bbe8:	8004943a 	slli	r2,r16,16
 800bbec:	0009883a 	mov	r4,zero
 800bbf0:	a884b03a 	or	r2,r21,r2
 800bbf4:	003fad06 	br	800baac <__udivdi3+0x1a4>
 800bbf8:	00804034 	movhi	r2,256
 800bbfc:	10bfffc4 	addi	r2,r2,-1
 800bc00:	11c0b636 	bltu	r2,r7,800bedc <__udivdi3+0x5d4>
 800bc04:	01400404 	movi	r5,16
 800bc08:	2805883a 	mov	r2,r5
 800bc0c:	003f9a06 	br	800ba78 <__udivdi3+0x170>
 800bc10:	0005883a 	mov	r2,zero
 800bc14:	0009883a 	mov	r4,zero
 800bc18:	003fa406 	br	800baac <__udivdi3+0x1a4>
 800bc1c:	00804034 	movhi	r2,256
 800bc20:	10bfffc4 	addi	r2,r2,-1
 800bc24:	14c0b336 	bltu	r2,r19,800bef4 <__udivdi3+0x5ec>
 800bc28:	01400404 	movi	r5,16
 800bc2c:	2805883a 	mov	r2,r5
 800bc30:	003f5106 	br	800b978 <__udivdi3+0x70>
 800bc34:	01000044 	movi	r4,1
 800bc38:	000b883a 	mov	r5,zero
 800bc3c:	800d83c0 	call	800d83c <__udivsi3>
 800bc40:	1027883a 	mov	r19,r2
 800bc44:	00bfffd4 	movui	r2,65535
 800bc48:	14fff436 	bltu	r2,r19,800bc1c <__udivdi3+0x314>
 800bc4c:	003f4606 	br	800b968 <__udivdi3+0x60>
 800bc50:	00804034 	movhi	r2,256
 800bc54:	10bfffc4 	addi	r2,r2,-1
 800bc58:	1200ac36 	bltu	r2,r8,800bf0c <__udivdi3+0x604>
 800bc5c:	01400404 	movi	r5,16
 800bc60:	2805883a 	mov	r2,r5
 800bc64:	003fa806 	br	800bb08 <__udivdi3+0x200>
 800bc68:	3d85c83a 	sub	r2,r7,r22
 800bc6c:	3588983a 	sll	r4,r6,r22
 800bc70:	9886d83a 	srl	r3,r19,r2
 800bc74:	a8a2d83a 	srl	r17,r21,r2
 800bc78:	e084d83a 	srl	r2,fp,r2
 800bc7c:	20eeb03a 	or	r23,r4,r3
 800bc80:	b824d43a 	srli	r18,r23,16
 800bc84:	ad86983a 	sll	r3,r21,r22
 800bc88:	8809883a 	mov	r4,r17
 800bc8c:	900b883a 	mov	r5,r18
 800bc90:	1886b03a 	or	r3,r3,r2
 800bc94:	d8c00115 	stw	r3,4(sp)
 800bc98:	bc3fffcc 	andi	r16,r23,65535
 800bc9c:	800d83c0 	call	800d83c <__udivsi3>
 800bca0:	100b883a 	mov	r5,r2
 800bca4:	8009883a 	mov	r4,r16
 800bca8:	1029883a 	mov	r20,r2
 800bcac:	800d84c0 	call	800d84c <__mulsi3>
 800bcb0:	900b883a 	mov	r5,r18
 800bcb4:	8809883a 	mov	r4,r17
 800bcb8:	102b883a 	mov	r21,r2
 800bcbc:	800d8440 	call	800d844 <__umodsi3>
 800bcc0:	d9400117 	ldw	r5,4(sp)
 800bcc4:	1004943a 	slli	r2,r2,16
 800bcc8:	9da6983a 	sll	r19,r19,r22
 800bccc:	2806d43a 	srli	r3,r5,16
 800bcd0:	10c4b03a 	or	r2,r2,r3
 800bcd4:	1540032e 	bgeu	r2,r21,800bce4 <__udivdi3+0x3dc>
 800bcd8:	15c5883a 	add	r2,r2,r23
 800bcdc:	a53fffc4 	addi	r20,r20,-1
 800bce0:	15c0912e 	bgeu	r2,r23,800bf28 <__udivdi3+0x620>
 800bce4:	1563c83a 	sub	r17,r2,r21
 800bce8:	8809883a 	mov	r4,r17
 800bcec:	900b883a 	mov	r5,r18
 800bcf0:	800d83c0 	call	800d83c <__udivsi3>
 800bcf4:	100b883a 	mov	r5,r2
 800bcf8:	8009883a 	mov	r4,r16
 800bcfc:	102b883a 	mov	r21,r2
 800bd00:	800d84c0 	call	800d84c <__mulsi3>
 800bd04:	8809883a 	mov	r4,r17
 800bd08:	900b883a 	mov	r5,r18
 800bd0c:	1021883a 	mov	r16,r2
 800bd10:	800d8440 	call	800d844 <__umodsi3>
 800bd14:	da800117 	ldw	r10,4(sp)
 800bd18:	1004943a 	slli	r2,r2,16
 800bd1c:	50ffffcc 	andi	r3,r10,65535
 800bd20:	10c6b03a 	or	r3,r2,r3
 800bd24:	1c00032e 	bgeu	r3,r16,800bd34 <__udivdi3+0x42c>
 800bd28:	1dc7883a 	add	r3,r3,r23
 800bd2c:	ad7fffc4 	addi	r21,r21,-1
 800bd30:	1dc0792e 	bgeu	r3,r23,800bf18 <__udivdi3+0x610>
 800bd34:	a004943a 	slli	r2,r20,16
 800bd38:	982ed43a 	srli	r23,r19,16
 800bd3c:	9cffffcc 	andi	r19,r19,65535
 800bd40:	a8a4b03a 	or	r18,r21,r2
 800bd44:	947fffcc 	andi	r17,r18,65535
 800bd48:	902ad43a 	srli	r21,r18,16
 800bd4c:	8809883a 	mov	r4,r17
 800bd50:	980b883a 	mov	r5,r19
 800bd54:	1c21c83a 	sub	r16,r3,r16
 800bd58:	800d84c0 	call	800d84c <__mulsi3>
 800bd5c:	8809883a 	mov	r4,r17
 800bd60:	b80b883a 	mov	r5,r23
 800bd64:	1029883a 	mov	r20,r2
 800bd68:	800d84c0 	call	800d84c <__mulsi3>
 800bd6c:	980b883a 	mov	r5,r19
 800bd70:	a809883a 	mov	r4,r21
 800bd74:	1023883a 	mov	r17,r2
 800bd78:	800d84c0 	call	800d84c <__mulsi3>
 800bd7c:	a809883a 	mov	r4,r21
 800bd80:	b80b883a 	mov	r5,r23
 800bd84:	1027883a 	mov	r19,r2
 800bd88:	800d84c0 	call	800d84c <__mulsi3>
 800bd8c:	1009883a 	mov	r4,r2
 800bd90:	a004d43a 	srli	r2,r20,16
 800bd94:	8ce3883a 	add	r17,r17,r19
 800bd98:	1447883a 	add	r3,r2,r17
 800bd9c:	1cc0022e 	bgeu	r3,r19,800bda8 <__udivdi3+0x4a0>
 800bda0:	00800074 	movhi	r2,1
 800bda4:	2089883a 	add	r4,r4,r2
 800bda8:	1804d43a 	srli	r2,r3,16
 800bdac:	2085883a 	add	r2,r4,r2
 800bdb0:	80804436 	bltu	r16,r2,800bec4 <__udivdi3+0x5bc>
 800bdb4:	80803e26 	beq	r16,r2,800beb0 <__udivdi3+0x5a8>
 800bdb8:	9005883a 	mov	r2,r18
 800bdbc:	0009883a 	mov	r4,zero
 800bdc0:	003f3a06 	br	800baac <__udivdi3+0x1a4>
 800bdc4:	9d26983a 	sll	r19,r19,r20
 800bdc8:	3505c83a 	sub	r2,r6,r20
 800bdcc:	a8a2d83a 	srl	r17,r21,r2
 800bdd0:	982ed43a 	srli	r23,r19,16
 800bdd4:	e084d83a 	srl	r2,fp,r2
 800bdd8:	ad06983a 	sll	r3,r21,r20
 800bddc:	8809883a 	mov	r4,r17
 800bde0:	b80b883a 	mov	r5,r23
 800bde4:	1886b03a 	or	r3,r3,r2
 800bde8:	d8c00015 	stw	r3,0(sp)
 800bdec:	9dbfffcc 	andi	r22,r19,65535
 800bdf0:	800d83c0 	call	800d83c <__udivsi3>
 800bdf4:	100b883a 	mov	r5,r2
 800bdf8:	b009883a 	mov	r4,r22
 800bdfc:	d8800215 	stw	r2,8(sp)
 800be00:	800d84c0 	call	800d84c <__mulsi3>
 800be04:	8809883a 	mov	r4,r17
 800be08:	b80b883a 	mov	r5,r23
 800be0c:	102b883a 	mov	r21,r2
 800be10:	800d8440 	call	800d844 <__umodsi3>
 800be14:	d9000017 	ldw	r4,0(sp)
 800be18:	1004943a 	slli	r2,r2,16
 800be1c:	2006d43a 	srli	r3,r4,16
 800be20:	10c4b03a 	or	r2,r2,r3
 800be24:	1540052e 	bgeu	r2,r21,800be3c <__udivdi3+0x534>
 800be28:	d9400217 	ldw	r5,8(sp)
 800be2c:	14c5883a 	add	r2,r2,r19
 800be30:	297fffc4 	addi	r5,r5,-1
 800be34:	d9400215 	stw	r5,8(sp)
 800be38:	14c0462e 	bgeu	r2,r19,800bf54 <__udivdi3+0x64c>
 800be3c:	1563c83a 	sub	r17,r2,r21
 800be40:	8809883a 	mov	r4,r17
 800be44:	b80b883a 	mov	r5,r23
 800be48:	800d83c0 	call	800d83c <__udivsi3>
 800be4c:	100b883a 	mov	r5,r2
 800be50:	b009883a 	mov	r4,r22
 800be54:	1025883a 	mov	r18,r2
 800be58:	800d84c0 	call	800d84c <__mulsi3>
 800be5c:	8809883a 	mov	r4,r17
 800be60:	b80b883a 	mov	r5,r23
 800be64:	1021883a 	mov	r16,r2
 800be68:	800d8440 	call	800d844 <__umodsi3>
 800be6c:	da800017 	ldw	r10,0(sp)
 800be70:	1004943a 	slli	r2,r2,16
 800be74:	50ffffcc 	andi	r3,r10,65535
 800be78:	10c6b03a 	or	r3,r2,r3
 800be7c:	1c00062e 	bgeu	r3,r16,800be98 <__udivdi3+0x590>
 800be80:	1cc7883a 	add	r3,r3,r19
 800be84:	94bfffc4 	addi	r18,r18,-1
 800be88:	1cc00336 	bltu	r3,r19,800be98 <__udivdi3+0x590>
 800be8c:	1c00022e 	bgeu	r3,r16,800be98 <__udivdi3+0x590>
 800be90:	94bfffc4 	addi	r18,r18,-1
 800be94:	1cc7883a 	add	r3,r3,r19
 800be98:	d9000217 	ldw	r4,8(sp)
 800be9c:	e538983a 	sll	fp,fp,r20
 800bea0:	1c2bc83a 	sub	r21,r3,r16
 800bea4:	2004943a 	slli	r2,r4,16
 800bea8:	90a8b03a 	or	r20,r18,r2
 800beac:	003ebf06 	br	800b9ac <__udivdi3+0xa4>
 800beb0:	1804943a 	slli	r2,r3,16
 800beb4:	e588983a 	sll	r4,fp,r22
 800beb8:	a0ffffcc 	andi	r3,r20,65535
 800bebc:	10c5883a 	add	r2,r2,r3
 800bec0:	20bfbd2e 	bgeu	r4,r2,800bdb8 <__udivdi3+0x4b0>
 800bec4:	90bfffc4 	addi	r2,r18,-1
 800bec8:	0009883a 	mov	r4,zero
 800becc:	003ef706 	br	800baac <__udivdi3+0x1a4>
 800bed0:	01400204 	movi	r5,8
 800bed4:	2805883a 	mov	r2,r5
 800bed8:	003ee706 	br	800ba78 <__udivdi3+0x170>
 800bedc:	01400604 	movi	r5,24
 800bee0:	2805883a 	mov	r2,r5
 800bee4:	003ee406 	br	800ba78 <__udivdi3+0x170>
 800bee8:	01400204 	movi	r5,8
 800beec:	2805883a 	mov	r2,r5
 800bef0:	003ea106 	br	800b978 <__udivdi3+0x70>
 800bef4:	01400604 	movi	r5,24
 800bef8:	2805883a 	mov	r2,r5
 800befc:	003e9e06 	br	800b978 <__udivdi3+0x70>
 800bf00:	01400204 	movi	r5,8
 800bf04:	2805883a 	mov	r2,r5
 800bf08:	003eff06 	br	800bb08 <__udivdi3+0x200>
 800bf0c:	01400604 	movi	r5,24
 800bf10:	2805883a 	mov	r2,r5
 800bf14:	003efc06 	br	800bb08 <__udivdi3+0x200>
 800bf18:	1c3f862e 	bgeu	r3,r16,800bd34 <__udivdi3+0x42c>
 800bf1c:	1dc7883a 	add	r3,r3,r23
 800bf20:	ad7fffc4 	addi	r21,r21,-1
 800bf24:	003f8306 	br	800bd34 <__udivdi3+0x42c>
 800bf28:	157f6e2e 	bgeu	r2,r21,800bce4 <__udivdi3+0x3dc>
 800bf2c:	a53fffc4 	addi	r20,r20,-1
 800bf30:	15c5883a 	add	r2,r2,r23
 800bf34:	003f6b06 	br	800bce4 <__udivdi3+0x3dc>
 800bf38:	ad7fffc4 	addi	r21,r21,-1
 800bf3c:	003ec206 	br	800ba48 <__udivdi3+0x140>
 800bf40:	843fffc4 	addi	r16,r16,-1
 800bf44:	14c5883a 	add	r2,r2,r19
 800bf48:	003f1306 	br	800bb98 <__udivdi3+0x290>
 800bf4c:	ad7fffc4 	addi	r21,r21,-1
 800bf50:	003f2506 	br	800bbe8 <__udivdi3+0x2e0>
 800bf54:	157fb92e 	bgeu	r2,r21,800be3c <__udivdi3+0x534>
 800bf58:	297fffc4 	addi	r5,r5,-1
 800bf5c:	14c5883a 	add	r2,r2,r19
 800bf60:	d9400215 	stw	r5,8(sp)
 800bf64:	003fb506 	br	800be3c <__udivdi3+0x534>
 800bf68:	843fffc4 	addi	r16,r16,-1
 800bf6c:	14c5883a 	add	r2,r2,r19
 800bf70:	003ea106 	br	800b9f8 <__udivdi3+0xf0>

0800bf74 <__umoddi3>:
 800bf74:	defff004 	addi	sp,sp,-64
 800bf78:	3011883a 	mov	r8,r6
 800bf7c:	000d883a 	mov	r6,zero
 800bf80:	dd400b15 	stw	r21,44(sp)
 800bf84:	dcc00915 	stw	r19,36(sp)
 800bf88:	dc000615 	stw	r16,24(sp)
 800bf8c:	dfc00f15 	stw	ra,60(sp)
 800bf90:	df000e15 	stw	fp,56(sp)
 800bf94:	ddc00d15 	stw	r23,52(sp)
 800bf98:	dd800c15 	stw	r22,48(sp)
 800bf9c:	dd000a15 	stw	r20,40(sp)
 800bfa0:	dc800815 	stw	r18,32(sp)
 800bfa4:	dc400715 	stw	r17,28(sp)
 800bfa8:	2817883a 	mov	r11,r5
 800bfac:	d9800415 	stw	r6,16(sp)
 800bfb0:	4027883a 	mov	r19,r8
 800bfb4:	d9800515 	stw	r6,20(sp)
 800bfb8:	2021883a 	mov	r16,r4
 800bfbc:	282b883a 	mov	r21,r5
 800bfc0:	38002c1e 	bne	r7,zero,800c074 <__umoddi3+0x100>
 800bfc4:	2a005636 	bltu	r5,r8,800c120 <__umoddi3+0x1ac>
 800bfc8:	40009a26 	beq	r8,zero,800c234 <__umoddi3+0x2c0>
 800bfcc:	00bfffd4 	movui	r2,65535
 800bfd0:	14c09236 	bltu	r2,r19,800c21c <__umoddi3+0x2a8>
 800bfd4:	00803fc4 	movi	r2,255
 800bfd8:	14c15c36 	bltu	r2,r19,800c54c <__umoddi3+0x5d8>
 800bfdc:	000b883a 	mov	r5,zero
 800bfe0:	0005883a 	mov	r2,zero
 800bfe4:	9884d83a 	srl	r2,r19,r2
 800bfe8:	01020074 	movhi	r4,2049
 800bfec:	21149904 	addi	r4,r4,21092
 800bff0:	01800804 	movi	r6,32
 800bff4:	1105883a 	add	r2,r2,r4
 800bff8:	10c00003 	ldbu	r3,0(r2)
 800bffc:	28c7883a 	add	r3,r5,r3
 800c000:	30e5c83a 	sub	r18,r6,r3
 800c004:	9000a41e 	bne	r18,zero,800c298 <__umoddi3+0x324>
 800c008:	982ed43a 	srli	r23,r19,16
 800c00c:	acebc83a 	sub	r21,r21,r19
 800c010:	9d3fffcc 	andi	r20,r19,65535
 800c014:	002d883a 	mov	r22,zero
 800c018:	a809883a 	mov	r4,r21
 800c01c:	b80b883a 	mov	r5,r23
 800c020:	800d83c0 	call	800d83c <__udivsi3>
 800c024:	100b883a 	mov	r5,r2
 800c028:	a009883a 	mov	r4,r20
 800c02c:	800d84c0 	call	800d84c <__mulsi3>
 800c030:	a809883a 	mov	r4,r21
 800c034:	b80b883a 	mov	r5,r23
 800c038:	1023883a 	mov	r17,r2
 800c03c:	800d8440 	call	800d844 <__umodsi3>
 800c040:	1004943a 	slli	r2,r2,16
 800c044:	8006d43a 	srli	r3,r16,16
 800c048:	10c4b03a 	or	r2,r2,r3
 800c04c:	1440032e 	bgeu	r2,r17,800c05c <__umoddi3+0xe8>
 800c050:	14c5883a 	add	r2,r2,r19
 800c054:	14c00136 	bltu	r2,r19,800c05c <__umoddi3+0xe8>
 800c058:	14415836 	bltu	r2,r17,800c5bc <__umoddi3+0x648>
 800c05c:	1463c83a 	sub	r17,r2,r17
 800c060:	8809883a 	mov	r4,r17
 800c064:	b80b883a 	mov	r5,r23
 800c068:	800d83c0 	call	800d83c <__udivsi3>
 800c06c:	a009883a 	mov	r4,r20
 800c070:	00005306 	br	800c1c0 <__umoddi3+0x24c>
 800c074:	380d883a 	mov	r6,r7
 800c078:	29c0132e 	bgeu	r5,r7,800c0c8 <__umoddi3+0x154>
 800c07c:	d9000415 	stw	r4,16(sp)
 800c080:	d9400515 	stw	r5,20(sp)
 800c084:	d9400417 	ldw	r5,16(sp)
 800c088:	5813883a 	mov	r9,r11
 800c08c:	2811883a 	mov	r8,r5
 800c090:	4005883a 	mov	r2,r8
 800c094:	4807883a 	mov	r3,r9
 800c098:	dfc00f17 	ldw	ra,60(sp)
 800c09c:	df000e17 	ldw	fp,56(sp)
 800c0a0:	ddc00d17 	ldw	r23,52(sp)
 800c0a4:	dd800c17 	ldw	r22,48(sp)
 800c0a8:	dd400b17 	ldw	r21,44(sp)
 800c0ac:	dd000a17 	ldw	r20,40(sp)
 800c0b0:	dcc00917 	ldw	r19,36(sp)
 800c0b4:	dc800817 	ldw	r18,32(sp)
 800c0b8:	dc400717 	ldw	r17,28(sp)
 800c0bc:	dc000617 	ldw	r16,24(sp)
 800c0c0:	dec01004 	addi	sp,sp,64
 800c0c4:	f800283a 	ret
 800c0c8:	00bfffd4 	movui	r2,65535
 800c0cc:	11c06636 	bltu	r2,r7,800c268 <__umoddi3+0x2f4>
 800c0d0:	00803fc4 	movi	r2,255
 800c0d4:	11c12036 	bltu	r2,r7,800c558 <__umoddi3+0x5e4>
 800c0d8:	000b883a 	mov	r5,zero
 800c0dc:	0005883a 	mov	r2,zero
 800c0e0:	3084d83a 	srl	r2,r6,r2
 800c0e4:	01020074 	movhi	r4,2049
 800c0e8:	21149904 	addi	r4,r4,21092
 800c0ec:	01c00804 	movi	r7,32
 800c0f0:	1105883a 	add	r2,r2,r4
 800c0f4:	10c00003 	ldbu	r3,0(r2)
 800c0f8:	28c7883a 	add	r3,r5,r3
 800c0fc:	38e5c83a 	sub	r18,r7,r3
 800c100:	9000941e 	bne	r18,zero,800c354 <__umoddi3+0x3e0>
 800c104:	35405e36 	bltu	r6,r21,800c280 <__umoddi3+0x30c>
 800c108:	84c05d2e 	bgeu	r16,r19,800c280 <__umoddi3+0x30c>
 800c10c:	8011883a 	mov	r8,r16
 800c110:	a813883a 	mov	r9,r21
 800c114:	dc000415 	stw	r16,16(sp)
 800c118:	dd400515 	stw	r21,20(sp)
 800c11c:	003fdc06 	br	800c090 <__umoddi3+0x11c>
 800c120:	00bfffd4 	movui	r2,65535
 800c124:	12004a36 	bltu	r2,r8,800c250 <__umoddi3+0x2dc>
 800c128:	00803fc4 	movi	r2,255
 800c12c:	12010d36 	bltu	r2,r8,800c564 <__umoddi3+0x5f0>
 800c130:	000b883a 	mov	r5,zero
 800c134:	0005883a 	mov	r2,zero
 800c138:	9884d83a 	srl	r2,r19,r2
 800c13c:	01020074 	movhi	r4,2049
 800c140:	21149904 	addi	r4,r4,21092
 800c144:	01800804 	movi	r6,32
 800c148:	1105883a 	add	r2,r2,r4
 800c14c:	10c00003 	ldbu	r3,0(r2)
 800c150:	28c7883a 	add	r3,r5,r3
 800c154:	30c7c83a 	sub	r3,r6,r3
 800c158:	1800dc1e 	bne	r3,zero,800c4cc <__umoddi3+0x558>
 800c15c:	002d883a 	mov	r22,zero
 800c160:	982ed43a 	srli	r23,r19,16
 800c164:	a809883a 	mov	r4,r21
 800c168:	9cbfffcc 	andi	r18,r19,65535
 800c16c:	b80b883a 	mov	r5,r23
 800c170:	800d83c0 	call	800d83c <__udivsi3>
 800c174:	100b883a 	mov	r5,r2
 800c178:	9009883a 	mov	r4,r18
 800c17c:	800d84c0 	call	800d84c <__mulsi3>
 800c180:	a809883a 	mov	r4,r21
 800c184:	b80b883a 	mov	r5,r23
 800c188:	1023883a 	mov	r17,r2
 800c18c:	800d8440 	call	800d844 <__umodsi3>
 800c190:	1004943a 	slli	r2,r2,16
 800c194:	8006d43a 	srli	r3,r16,16
 800c198:	10c4b03a 	or	r2,r2,r3
 800c19c:	1440032e 	bgeu	r2,r17,800c1ac <__umoddi3+0x238>
 800c1a0:	14c5883a 	add	r2,r2,r19
 800c1a4:	14c00136 	bltu	r2,r19,800c1ac <__umoddi3+0x238>
 800c1a8:	14410236 	bltu	r2,r17,800c5b4 <__umoddi3+0x640>
 800c1ac:	1463c83a 	sub	r17,r2,r17
 800c1b0:	8809883a 	mov	r4,r17
 800c1b4:	b80b883a 	mov	r5,r23
 800c1b8:	800d83c0 	call	800d83c <__udivsi3>
 800c1bc:	9009883a 	mov	r4,r18
 800c1c0:	100b883a 	mov	r5,r2
 800c1c4:	800d84c0 	call	800d84c <__mulsi3>
 800c1c8:	8809883a 	mov	r4,r17
 800c1cc:	b80b883a 	mov	r5,r23
 800c1d0:	102b883a 	mov	r21,r2
 800c1d4:	800d8440 	call	800d844 <__umodsi3>
 800c1d8:	1004943a 	slli	r2,r2,16
 800c1dc:	80ffffcc 	andi	r3,r16,65535
 800c1e0:	10c4b03a 	or	r2,r2,r3
 800c1e4:	1540042e 	bgeu	r2,r21,800c1f8 <__umoddi3+0x284>
 800c1e8:	14c5883a 	add	r2,r2,r19
 800c1ec:	14c00236 	bltu	r2,r19,800c1f8 <__umoddi3+0x284>
 800c1f0:	1540012e 	bgeu	r2,r21,800c1f8 <__umoddi3+0x284>
 800c1f4:	14c5883a 	add	r2,r2,r19
 800c1f8:	1545c83a 	sub	r2,r2,r21
 800c1fc:	1584d83a 	srl	r2,r2,r22
 800c200:	0013883a 	mov	r9,zero
 800c204:	d8800415 	stw	r2,16(sp)
 800c208:	d8c00417 	ldw	r3,16(sp)
 800c20c:	0005883a 	mov	r2,zero
 800c210:	d8800515 	stw	r2,20(sp)
 800c214:	1811883a 	mov	r8,r3
 800c218:	003f9d06 	br	800c090 <__umoddi3+0x11c>
 800c21c:	00804034 	movhi	r2,256
 800c220:	10bfffc4 	addi	r2,r2,-1
 800c224:	14c0c636 	bltu	r2,r19,800c540 <__umoddi3+0x5cc>
 800c228:	01400404 	movi	r5,16
 800c22c:	2805883a 	mov	r2,r5
 800c230:	003f6c06 	br	800bfe4 <__umoddi3+0x70>
 800c234:	01000044 	movi	r4,1
 800c238:	000b883a 	mov	r5,zero
 800c23c:	800d83c0 	call	800d83c <__udivsi3>
 800c240:	1027883a 	mov	r19,r2
 800c244:	00bfffd4 	movui	r2,65535
 800c248:	14fff436 	bltu	r2,r19,800c21c <__umoddi3+0x2a8>
 800c24c:	003f6106 	br	800bfd4 <__umoddi3+0x60>
 800c250:	00804034 	movhi	r2,256
 800c254:	10bfffc4 	addi	r2,r2,-1
 800c258:	1200c536 	bltu	r2,r8,800c570 <__umoddi3+0x5fc>
 800c25c:	01400404 	movi	r5,16
 800c260:	2805883a 	mov	r2,r5
 800c264:	003fb406 	br	800c138 <__umoddi3+0x1c4>
 800c268:	00804034 	movhi	r2,256
 800c26c:	10bfffc4 	addi	r2,r2,-1
 800c270:	11c0c236 	bltu	r2,r7,800c57c <__umoddi3+0x608>
 800c274:	01400404 	movi	r5,16
 800c278:	2805883a 	mov	r2,r5
 800c27c:	003f9806 	br	800c0e0 <__umoddi3+0x16c>
 800c280:	84c9c83a 	sub	r4,r16,r19
 800c284:	8105803a 	cmpltu	r2,r16,r4
 800c288:	a987c83a 	sub	r3,r21,r6
 800c28c:	18abc83a 	sub	r21,r3,r2
 800c290:	2021883a 	mov	r16,r4
 800c294:	003f9d06 	br	800c10c <__umoddi3+0x198>
 800c298:	9ca6983a 	sll	r19,r19,r18
 800c29c:	3485c83a 	sub	r2,r6,r18
 800c2a0:	a8a2d83a 	srl	r17,r21,r2
 800c2a4:	982ed43a 	srli	r23,r19,16
 800c2a8:	ac86983a 	sll	r3,r21,r18
 800c2ac:	8084d83a 	srl	r2,r16,r2
 800c2b0:	8809883a 	mov	r4,r17
 800c2b4:	b80b883a 	mov	r5,r23
 800c2b8:	18b8b03a 	or	fp,r3,r2
 800c2bc:	9d3fffcc 	andi	r20,r19,65535
 800c2c0:	800d83c0 	call	800d83c <__udivsi3>
 800c2c4:	100b883a 	mov	r5,r2
 800c2c8:	a009883a 	mov	r4,r20
 800c2cc:	800d84c0 	call	800d84c <__mulsi3>
 800c2d0:	8809883a 	mov	r4,r17
 800c2d4:	b80b883a 	mov	r5,r23
 800c2d8:	102b883a 	mov	r21,r2
 800c2dc:	800d8440 	call	800d844 <__umodsi3>
 800c2e0:	1004943a 	slli	r2,r2,16
 800c2e4:	e006d43a 	srli	r3,fp,16
 800c2e8:	902d883a 	mov	r22,r18
 800c2ec:	10c4b03a 	or	r2,r2,r3
 800c2f0:	1540022e 	bgeu	r2,r21,800c2fc <__umoddi3+0x388>
 800c2f4:	14c5883a 	add	r2,r2,r19
 800c2f8:	14c0ab2e 	bgeu	r2,r19,800c5a8 <__umoddi3+0x634>
 800c2fc:	1563c83a 	sub	r17,r2,r21
 800c300:	8809883a 	mov	r4,r17
 800c304:	b80b883a 	mov	r5,r23
 800c308:	800d83c0 	call	800d83c <__udivsi3>
 800c30c:	100b883a 	mov	r5,r2
 800c310:	a009883a 	mov	r4,r20
 800c314:	800d84c0 	call	800d84c <__mulsi3>
 800c318:	8809883a 	mov	r4,r17
 800c31c:	b80b883a 	mov	r5,r23
 800c320:	102b883a 	mov	r21,r2
 800c324:	800d8440 	call	800d844 <__umodsi3>
 800c328:	1004943a 	slli	r2,r2,16
 800c32c:	e0ffffcc 	andi	r3,fp,65535
 800c330:	10c4b03a 	or	r2,r2,r3
 800c334:	1540042e 	bgeu	r2,r21,800c348 <__umoddi3+0x3d4>
 800c338:	14c5883a 	add	r2,r2,r19
 800c33c:	14c00236 	bltu	r2,r19,800c348 <__umoddi3+0x3d4>
 800c340:	1540012e 	bgeu	r2,r21,800c348 <__umoddi3+0x3d4>
 800c344:	14c5883a 	add	r2,r2,r19
 800c348:	84a0983a 	sll	r16,r16,r18
 800c34c:	156bc83a 	sub	r21,r2,r21
 800c350:	003f3106 	br	800c018 <__umoddi3+0xa4>
 800c354:	3c8fc83a 	sub	r7,r7,r18
 800c358:	3486983a 	sll	r3,r6,r18
 800c35c:	99c4d83a 	srl	r2,r19,r7
 800c360:	a9e2d83a 	srl	r17,r21,r7
 800c364:	ac8c983a 	sll	r6,r21,r18
 800c368:	18acb03a 	or	r22,r3,r2
 800c36c:	b02ed43a 	srli	r23,r22,16
 800c370:	81c4d83a 	srl	r2,r16,r7
 800c374:	8809883a 	mov	r4,r17
 800c378:	b80b883a 	mov	r5,r23
 800c37c:	308cb03a 	or	r6,r6,r2
 800c380:	d9c00315 	stw	r7,12(sp)
 800c384:	d9800215 	stw	r6,8(sp)
 800c388:	b53fffcc 	andi	r20,r22,65535
 800c38c:	800d83c0 	call	800d83c <__udivsi3>
 800c390:	100b883a 	mov	r5,r2
 800c394:	a009883a 	mov	r4,r20
 800c398:	1039883a 	mov	fp,r2
 800c39c:	800d84c0 	call	800d84c <__mulsi3>
 800c3a0:	8809883a 	mov	r4,r17
 800c3a4:	b80b883a 	mov	r5,r23
 800c3a8:	102b883a 	mov	r21,r2
 800c3ac:	800d8440 	call	800d844 <__umodsi3>
 800c3b0:	d9000217 	ldw	r4,8(sp)
 800c3b4:	1004943a 	slli	r2,r2,16
 800c3b8:	9ca6983a 	sll	r19,r19,r18
 800c3bc:	2006d43a 	srli	r3,r4,16
 800c3c0:	84a0983a 	sll	r16,r16,r18
 800c3c4:	dcc00015 	stw	r19,0(sp)
 800c3c8:	10c4b03a 	or	r2,r2,r3
 800c3cc:	dc000115 	stw	r16,4(sp)
 800c3d0:	1540032e 	bgeu	r2,r21,800c3e0 <__umoddi3+0x46c>
 800c3d4:	1585883a 	add	r2,r2,r22
 800c3d8:	e73fffc4 	addi	fp,fp,-1
 800c3dc:	15806e2e 	bgeu	r2,r22,800c598 <__umoddi3+0x624>
 800c3e0:	1563c83a 	sub	r17,r2,r21
 800c3e4:	8809883a 	mov	r4,r17
 800c3e8:	b80b883a 	mov	r5,r23
 800c3ec:	800d83c0 	call	800d83c <__udivsi3>
 800c3f0:	100b883a 	mov	r5,r2
 800c3f4:	a009883a 	mov	r4,r20
 800c3f8:	1021883a 	mov	r16,r2
 800c3fc:	800d84c0 	call	800d84c <__mulsi3>
 800c400:	b80b883a 	mov	r5,r23
 800c404:	8809883a 	mov	r4,r17
 800c408:	1029883a 	mov	r20,r2
 800c40c:	800d8440 	call	800d844 <__umodsi3>
 800c410:	d9400217 	ldw	r5,8(sp)
 800c414:	1004943a 	slli	r2,r2,16
 800c418:	28ffffcc 	andi	r3,r5,65535
 800c41c:	10c4b03a 	or	r2,r2,r3
 800c420:	1500032e 	bgeu	r2,r20,800c430 <__umoddi3+0x4bc>
 800c424:	1585883a 	add	r2,r2,r22
 800c428:	843fffc4 	addi	r16,r16,-1
 800c42c:	1580562e 	bgeu	r2,r22,800c588 <__umoddi3+0x614>
 800c430:	d9800017 	ldw	r6,0(sp)
 800c434:	e022943a 	slli	r17,fp,16
 800c438:	302ed43a 	srli	r23,r6,16
 800c43c:	8462b03a 	or	r17,r16,r17
 800c440:	34ffffcc 	andi	r19,r6,65535
 800c444:	882ad43a 	srli	r21,r17,16
 800c448:	8c7fffcc 	andi	r17,r17,65535
 800c44c:	8809883a 	mov	r4,r17
 800c450:	980b883a 	mov	r5,r19
 800c454:	1521c83a 	sub	r16,r2,r20
 800c458:	800d84c0 	call	800d84c <__mulsi3>
 800c45c:	8809883a 	mov	r4,r17
 800c460:	b80b883a 	mov	r5,r23
 800c464:	1029883a 	mov	r20,r2
 800c468:	800d84c0 	call	800d84c <__mulsi3>
 800c46c:	980b883a 	mov	r5,r19
 800c470:	a809883a 	mov	r4,r21
 800c474:	1023883a 	mov	r17,r2
 800c478:	800d84c0 	call	800d84c <__mulsi3>
 800c47c:	a809883a 	mov	r4,r21
 800c480:	b80b883a 	mov	r5,r23
 800c484:	1027883a 	mov	r19,r2
 800c488:	800d84c0 	call	800d84c <__mulsi3>
 800c48c:	100b883a 	mov	r5,r2
 800c490:	a004d43a 	srli	r2,r20,16
 800c494:	8ce3883a 	add	r17,r17,r19
 800c498:	1449883a 	add	r4,r2,r17
 800c49c:	24c0022e 	bgeu	r4,r19,800c4a8 <__umoddi3+0x534>
 800c4a0:	00800074 	movhi	r2,1
 800c4a4:	288b883a 	add	r5,r5,r2
 800c4a8:	2004d43a 	srli	r2,r4,16
 800c4ac:	2008943a 	slli	r4,r4,16
 800c4b0:	a0ffffcc 	andi	r3,r20,65535
 800c4b4:	288d883a 	add	r6,r5,r2
 800c4b8:	20c9883a 	add	r4,r4,r3
 800c4bc:	81800b36 	bltu	r16,r6,800c4ec <__umoddi3+0x578>
 800c4c0:	81804026 	beq	r16,r6,800c5c4 <__umoddi3+0x650>
 800c4c4:	818dc83a 	sub	r6,r16,r6
 800c4c8:	00000f06 	br	800c508 <__umoddi3+0x594>
 800c4cc:	30c5c83a 	sub	r2,r6,r3
 800c4d0:	182d883a 	mov	r22,r3
 800c4d4:	8084d83a 	srl	r2,r16,r2
 800c4d8:	a8c6983a 	sll	r3,r21,r3
 800c4dc:	9da6983a 	sll	r19,r19,r22
 800c4e0:	85a0983a 	sll	r16,r16,r22
 800c4e4:	18aab03a 	or	r21,r3,r2
 800c4e8:	003f1d06 	br	800c160 <__umoddi3+0x1ec>
 800c4ec:	d8c00017 	ldw	r3,0(sp)
 800c4f0:	20c5c83a 	sub	r2,r4,r3
 800c4f4:	2089803a 	cmpltu	r4,r4,r2
 800c4f8:	3587c83a 	sub	r3,r6,r22
 800c4fc:	1907c83a 	sub	r3,r3,r4
 800c500:	80cdc83a 	sub	r6,r16,r3
 800c504:	1009883a 	mov	r4,r2
 800c508:	d9400117 	ldw	r5,4(sp)
 800c50c:	2905c83a 	sub	r2,r5,r4
 800c510:	2887803a 	cmpltu	r3,r5,r2
 800c514:	30c7c83a 	sub	r3,r6,r3
 800c518:	d9800317 	ldw	r6,12(sp)
 800c51c:	1484d83a 	srl	r2,r2,r18
 800c520:	1988983a 	sll	r4,r3,r6
 800c524:	1c86d83a 	srl	r3,r3,r18
 800c528:	2088b03a 	or	r4,r4,r2
 800c52c:	2011883a 	mov	r8,r4
 800c530:	1813883a 	mov	r9,r3
 800c534:	d9000415 	stw	r4,16(sp)
 800c538:	d8c00515 	stw	r3,20(sp)
 800c53c:	003ed406 	br	800c090 <__umoddi3+0x11c>
 800c540:	01400604 	movi	r5,24
 800c544:	2805883a 	mov	r2,r5
 800c548:	003ea606 	br	800bfe4 <__umoddi3+0x70>
 800c54c:	01400204 	movi	r5,8
 800c550:	2805883a 	mov	r2,r5
 800c554:	003ea306 	br	800bfe4 <__umoddi3+0x70>
 800c558:	01400204 	movi	r5,8
 800c55c:	2805883a 	mov	r2,r5
 800c560:	003edf06 	br	800c0e0 <__umoddi3+0x16c>
 800c564:	01400204 	movi	r5,8
 800c568:	2805883a 	mov	r2,r5
 800c56c:	003ef206 	br	800c138 <__umoddi3+0x1c4>
 800c570:	01400604 	movi	r5,24
 800c574:	2805883a 	mov	r2,r5
 800c578:	003eef06 	br	800c138 <__umoddi3+0x1c4>
 800c57c:	01400604 	movi	r5,24
 800c580:	2805883a 	mov	r2,r5
 800c584:	003ed606 	br	800c0e0 <__umoddi3+0x16c>
 800c588:	153fa92e 	bgeu	r2,r20,800c430 <__umoddi3+0x4bc>
 800c58c:	843fffc4 	addi	r16,r16,-1
 800c590:	1585883a 	add	r2,r2,r22
 800c594:	003fa606 	br	800c430 <__umoddi3+0x4bc>
 800c598:	157f912e 	bgeu	r2,r21,800c3e0 <__umoddi3+0x46c>
 800c59c:	e73fffc4 	addi	fp,fp,-1
 800c5a0:	1585883a 	add	r2,r2,r22
 800c5a4:	003f8e06 	br	800c3e0 <__umoddi3+0x46c>
 800c5a8:	157f542e 	bgeu	r2,r21,800c2fc <__umoddi3+0x388>
 800c5ac:	14c5883a 	add	r2,r2,r19
 800c5b0:	003f5206 	br	800c2fc <__umoddi3+0x388>
 800c5b4:	14c5883a 	add	r2,r2,r19
 800c5b8:	003efc06 	br	800c1ac <__umoddi3+0x238>
 800c5bc:	14c5883a 	add	r2,r2,r19
 800c5c0:	003ea606 	br	800c05c <__umoddi3+0xe8>
 800c5c4:	d8800117 	ldw	r2,4(sp)
 800c5c8:	113fc836 	bltu	r2,r4,800c4ec <__umoddi3+0x578>
 800c5cc:	000d883a 	mov	r6,zero
 800c5d0:	003fcd06 	br	800c508 <__umoddi3+0x594>

0800c5d4 <_fpadd_parts>:
 800c5d4:	defff804 	addi	sp,sp,-32
 800c5d8:	dcc00315 	stw	r19,12(sp)
 800c5dc:	2027883a 	mov	r19,r4
 800c5e0:	21000017 	ldw	r4,0(r4)
 800c5e4:	00c00044 	movi	r3,1
 800c5e8:	dd400515 	stw	r21,20(sp)
 800c5ec:	dd000415 	stw	r20,16(sp)
 800c5f0:	ddc00715 	stw	r23,28(sp)
 800c5f4:	dd800615 	stw	r22,24(sp)
 800c5f8:	dc800215 	stw	r18,8(sp)
 800c5fc:	dc400115 	stw	r17,4(sp)
 800c600:	dc000015 	stw	r16,0(sp)
 800c604:	282b883a 	mov	r21,r5
 800c608:	3029883a 	mov	r20,r6
 800c60c:	1900632e 	bgeu	r3,r4,800c79c <_fpadd_parts+0x1c8>
 800c610:	28800017 	ldw	r2,0(r5)
 800c614:	1880812e 	bgeu	r3,r2,800c81c <_fpadd_parts+0x248>
 800c618:	00c00104 	movi	r3,4
 800c61c:	20c0dc26 	beq	r4,r3,800c990 <_fpadd_parts+0x3bc>
 800c620:	10c07e26 	beq	r2,r3,800c81c <_fpadd_parts+0x248>
 800c624:	00c00084 	movi	r3,2
 800c628:	10c06726 	beq	r2,r3,800c7c8 <_fpadd_parts+0x1f4>
 800c62c:	20c07b26 	beq	r4,r3,800c81c <_fpadd_parts+0x248>
 800c630:	9dc00217 	ldw	r23,8(r19)
 800c634:	28c00217 	ldw	r3,8(r5)
 800c638:	9c400317 	ldw	r17,12(r19)
 800c63c:	2bc00317 	ldw	r15,12(r5)
 800c640:	b8cdc83a 	sub	r6,r23,r3
 800c644:	9c800417 	ldw	r18,16(r19)
 800c648:	2c000417 	ldw	r16,16(r5)
 800c64c:	3009883a 	mov	r4,r6
 800c650:	30009716 	blt	r6,zero,800c8b0 <_fpadd_parts+0x2dc>
 800c654:	00800fc4 	movi	r2,63
 800c658:	11806b16 	blt	r2,r6,800c808 <_fpadd_parts+0x234>
 800c65c:	0100a40e 	bge	zero,r4,800c8f0 <_fpadd_parts+0x31c>
 800c660:	35bff804 	addi	r22,r6,-32
 800c664:	b000bc16 	blt	r22,zero,800c958 <_fpadd_parts+0x384>
 800c668:	8596d83a 	srl	r11,r16,r22
 800c66c:	0019883a 	mov	r12,zero
 800c670:	0013883a 	mov	r9,zero
 800c674:	01000044 	movi	r4,1
 800c678:	0015883a 	mov	r10,zero
 800c67c:	b000be16 	blt	r22,zero,800c978 <_fpadd_parts+0x3a4>
 800c680:	2590983a 	sll	r8,r4,r22
 800c684:	000f883a 	mov	r7,zero
 800c688:	00bfffc4 	movi	r2,-1
 800c68c:	3889883a 	add	r4,r7,r2
 800c690:	408b883a 	add	r5,r8,r2
 800c694:	21cd803a 	cmpltu	r6,r4,r7
 800c698:	314b883a 	add	r5,r6,r5
 800c69c:	7904703a 	and	r2,r15,r4
 800c6a0:	8146703a 	and	r3,r16,r5
 800c6a4:	10c4b03a 	or	r2,r2,r3
 800c6a8:	10000226 	beq	r2,zero,800c6b4 <_fpadd_parts+0xe0>
 800c6ac:	02400044 	movi	r9,1
 800c6b0:	0015883a 	mov	r10,zero
 800c6b4:	5a5eb03a 	or	r15,r11,r9
 800c6b8:	62a0b03a 	or	r16,r12,r10
 800c6bc:	99400117 	ldw	r5,4(r19)
 800c6c0:	a8800117 	ldw	r2,4(r21)
 800c6c4:	28806e26 	beq	r5,r2,800c880 <_fpadd_parts+0x2ac>
 800c6c8:	28006626 	beq	r5,zero,800c864 <_fpadd_parts+0x290>
 800c6cc:	7c45c83a 	sub	r2,r15,r17
 800c6d0:	7889803a 	cmpltu	r4,r15,r2
 800c6d4:	8487c83a 	sub	r3,r16,r18
 800c6d8:	1909c83a 	sub	r4,r3,r4
 800c6dc:	100d883a 	mov	r6,r2
 800c6e0:	200f883a 	mov	r7,r4
 800c6e4:	38007716 	blt	r7,zero,800c8c4 <_fpadd_parts+0x2f0>
 800c6e8:	a5c00215 	stw	r23,8(r20)
 800c6ec:	a1c00415 	stw	r7,16(r20)
 800c6f0:	a0000115 	stw	zero,4(r20)
 800c6f4:	a1800315 	stw	r6,12(r20)
 800c6f8:	a2000317 	ldw	r8,12(r20)
 800c6fc:	a2400417 	ldw	r9,16(r20)
 800c700:	00bfffc4 	movi	r2,-1
 800c704:	408b883a 	add	r5,r8,r2
 800c708:	2a09803a 	cmpltu	r4,r5,r8
 800c70c:	488d883a 	add	r6,r9,r2
 800c710:	01c40034 	movhi	r7,4096
 800c714:	39ffffc4 	addi	r7,r7,-1
 800c718:	218d883a 	add	r6,r4,r6
 800c71c:	39801736 	bltu	r7,r6,800c77c <_fpadd_parts+0x1a8>
 800c720:	31c06526 	beq	r6,r7,800c8b8 <_fpadd_parts+0x2e4>
 800c724:	a3000217 	ldw	r12,8(r20)
 800c728:	4209883a 	add	r4,r8,r8
 800c72c:	00bfffc4 	movi	r2,-1
 800c730:	220f803a 	cmpltu	r7,r4,r8
 800c734:	4a4b883a 	add	r5,r9,r9
 800c738:	394f883a 	add	r7,r7,r5
 800c73c:	2095883a 	add	r10,r4,r2
 800c740:	3897883a 	add	r11,r7,r2
 800c744:	510d803a 	cmpltu	r6,r10,r4
 800c748:	6099883a 	add	r12,r12,r2
 800c74c:	32d7883a 	add	r11,r6,r11
 800c750:	00840034 	movhi	r2,4096
 800c754:	10bfffc4 	addi	r2,r2,-1
 800c758:	2011883a 	mov	r8,r4
 800c75c:	3813883a 	mov	r9,r7
 800c760:	a1000315 	stw	r4,12(r20)
 800c764:	a1c00415 	stw	r7,16(r20)
 800c768:	a3000215 	stw	r12,8(r20)
 800c76c:	12c00336 	bltu	r2,r11,800c77c <_fpadd_parts+0x1a8>
 800c770:	58bfed1e 	bne	r11,r2,800c728 <_fpadd_parts+0x154>
 800c774:	00bfff84 	movi	r2,-2
 800c778:	12bfeb2e 	bgeu	r2,r10,800c728 <_fpadd_parts+0x154>
 800c77c:	a2800417 	ldw	r10,16(r20)
 800c780:	008000c4 	movi	r2,3
 800c784:	00c80034 	movhi	r3,8192
 800c788:	18ffffc4 	addi	r3,r3,-1
 800c78c:	a2400317 	ldw	r9,12(r20)
 800c790:	a0800015 	stw	r2,0(r20)
 800c794:	1a802336 	bltu	r3,r10,800c824 <_fpadd_parts+0x250>
 800c798:	a027883a 	mov	r19,r20
 800c79c:	9805883a 	mov	r2,r19
 800c7a0:	ddc00717 	ldw	r23,28(sp)
 800c7a4:	dd800617 	ldw	r22,24(sp)
 800c7a8:	dd400517 	ldw	r21,20(sp)
 800c7ac:	dd000417 	ldw	r20,16(sp)
 800c7b0:	dcc00317 	ldw	r19,12(sp)
 800c7b4:	dc800217 	ldw	r18,8(sp)
 800c7b8:	dc400117 	ldw	r17,4(sp)
 800c7bc:	dc000017 	ldw	r16,0(sp)
 800c7c0:	dec00804 	addi	sp,sp,32
 800c7c4:	f800283a 	ret
 800c7c8:	20fff41e 	bne	r4,r3,800c79c <_fpadd_parts+0x1c8>
 800c7cc:	31000015 	stw	r4,0(r6)
 800c7d0:	98800117 	ldw	r2,4(r19)
 800c7d4:	30800115 	stw	r2,4(r6)
 800c7d8:	98c00217 	ldw	r3,8(r19)
 800c7dc:	30c00215 	stw	r3,8(r6)
 800c7e0:	98800317 	ldw	r2,12(r19)
 800c7e4:	30800315 	stw	r2,12(r6)
 800c7e8:	98c00417 	ldw	r3,16(r19)
 800c7ec:	30c00415 	stw	r3,16(r6)
 800c7f0:	98800117 	ldw	r2,4(r19)
 800c7f4:	28c00117 	ldw	r3,4(r5)
 800c7f8:	3027883a 	mov	r19,r6
 800c7fc:	10c4703a 	and	r2,r2,r3
 800c800:	30800115 	stw	r2,4(r6)
 800c804:	003fe506 	br	800c79c <_fpadd_parts+0x1c8>
 800c808:	1dc02616 	blt	r3,r23,800c8a4 <_fpadd_parts+0x2d0>
 800c80c:	0023883a 	mov	r17,zero
 800c810:	182f883a 	mov	r23,r3
 800c814:	0025883a 	mov	r18,zero
 800c818:	003fa806 	br	800c6bc <_fpadd_parts+0xe8>
 800c81c:	a827883a 	mov	r19,r21
 800c820:	003fde06 	br	800c79c <_fpadd_parts+0x1c8>
 800c824:	01800044 	movi	r6,1
 800c828:	500497fa 	slli	r2,r10,31
 800c82c:	4808d07a 	srli	r4,r9,1
 800c830:	518ad83a 	srl	r5,r10,r6
 800c834:	a2000217 	ldw	r8,8(r20)
 800c838:	1108b03a 	or	r4,r2,r4
 800c83c:	0007883a 	mov	r3,zero
 800c840:	4984703a 	and	r2,r9,r6
 800c844:	208cb03a 	or	r6,r4,r2
 800c848:	28ceb03a 	or	r7,r5,r3
 800c84c:	42000044 	addi	r8,r8,1
 800c850:	a027883a 	mov	r19,r20
 800c854:	a1c00415 	stw	r7,16(r20)
 800c858:	a2000215 	stw	r8,8(r20)
 800c85c:	a1800315 	stw	r6,12(r20)
 800c860:	003fce06 	br	800c79c <_fpadd_parts+0x1c8>
 800c864:	8bc5c83a 	sub	r2,r17,r15
 800c868:	8889803a 	cmpltu	r4,r17,r2
 800c86c:	9407c83a 	sub	r3,r18,r16
 800c870:	1909c83a 	sub	r4,r3,r4
 800c874:	100d883a 	mov	r6,r2
 800c878:	200f883a 	mov	r7,r4
 800c87c:	003f9906 	br	800c6e4 <_fpadd_parts+0x110>
 800c880:	7c45883a 	add	r2,r15,r17
 800c884:	13c9803a 	cmpltu	r4,r2,r15
 800c888:	8487883a 	add	r3,r16,r18
 800c88c:	20c9883a 	add	r4,r4,r3
 800c890:	a1400115 	stw	r5,4(r20)
 800c894:	a5c00215 	stw	r23,8(r20)
 800c898:	a0800315 	stw	r2,12(r20)
 800c89c:	a1000415 	stw	r4,16(r20)
 800c8a0:	003fb606 	br	800c77c <_fpadd_parts+0x1a8>
 800c8a4:	001f883a 	mov	r15,zero
 800c8a8:	0021883a 	mov	r16,zero
 800c8ac:	003f8306 	br	800c6bc <_fpadd_parts+0xe8>
 800c8b0:	018dc83a 	sub	r6,zero,r6
 800c8b4:	003f6706 	br	800c654 <_fpadd_parts+0x80>
 800c8b8:	00bfff84 	movi	r2,-2
 800c8bc:	117faf36 	bltu	r2,r5,800c77c <_fpadd_parts+0x1a8>
 800c8c0:	003f9806 	br	800c724 <_fpadd_parts+0x150>
 800c8c4:	0005883a 	mov	r2,zero
 800c8c8:	1189c83a 	sub	r4,r2,r6
 800c8cc:	1105803a 	cmpltu	r2,r2,r4
 800c8d0:	01cbc83a 	sub	r5,zero,r7
 800c8d4:	2885c83a 	sub	r2,r5,r2
 800c8d8:	01800044 	movi	r6,1
 800c8dc:	a1800115 	stw	r6,4(r20)
 800c8e0:	a5c00215 	stw	r23,8(r20)
 800c8e4:	a1000315 	stw	r4,12(r20)
 800c8e8:	a0800415 	stw	r2,16(r20)
 800c8ec:	003f8206 	br	800c6f8 <_fpadd_parts+0x124>
 800c8f0:	203f7226 	beq	r4,zero,800c6bc <_fpadd_parts+0xe8>
 800c8f4:	35bff804 	addi	r22,r6,-32
 800c8f8:	b9af883a 	add	r23,r23,r6
 800c8fc:	b0003116 	blt	r22,zero,800c9c4 <_fpadd_parts+0x3f0>
 800c900:	959ad83a 	srl	r13,r18,r22
 800c904:	001d883a 	mov	r14,zero
 800c908:	000f883a 	mov	r7,zero
 800c90c:	01000044 	movi	r4,1
 800c910:	0011883a 	mov	r8,zero
 800c914:	b0002516 	blt	r22,zero,800c9ac <_fpadd_parts+0x3d8>
 800c918:	2594983a 	sll	r10,r4,r22
 800c91c:	0013883a 	mov	r9,zero
 800c920:	00bfffc4 	movi	r2,-1
 800c924:	4889883a 	add	r4,r9,r2
 800c928:	508b883a 	add	r5,r10,r2
 800c92c:	224d803a 	cmpltu	r6,r4,r9
 800c930:	314b883a 	add	r5,r6,r5
 800c934:	8904703a 	and	r2,r17,r4
 800c938:	9146703a 	and	r3,r18,r5
 800c93c:	10c4b03a 	or	r2,r2,r3
 800c940:	10000226 	beq	r2,zero,800c94c <_fpadd_parts+0x378>
 800c944:	01c00044 	movi	r7,1
 800c948:	0011883a 	mov	r8,zero
 800c94c:	69e2b03a 	or	r17,r13,r7
 800c950:	7224b03a 	or	r18,r14,r8
 800c954:	003f5906 	br	800c6bc <_fpadd_parts+0xe8>
 800c958:	8407883a 	add	r3,r16,r16
 800c95c:	008007c4 	movi	r2,31
 800c960:	1185c83a 	sub	r2,r2,r6
 800c964:	1886983a 	sll	r3,r3,r2
 800c968:	7996d83a 	srl	r11,r15,r6
 800c96c:	8198d83a 	srl	r12,r16,r6
 800c970:	1ad6b03a 	or	r11,r3,r11
 800c974:	003f3e06 	br	800c670 <_fpadd_parts+0x9c>
 800c978:	2006d07a 	srli	r3,r4,1
 800c97c:	008007c4 	movi	r2,31
 800c980:	1185c83a 	sub	r2,r2,r6
 800c984:	1890d83a 	srl	r8,r3,r2
 800c988:	218e983a 	sll	r7,r4,r6
 800c98c:	003f3e06 	br	800c688 <_fpadd_parts+0xb4>
 800c990:	113f821e 	bne	r2,r4,800c79c <_fpadd_parts+0x1c8>
 800c994:	28c00117 	ldw	r3,4(r5)
 800c998:	98800117 	ldw	r2,4(r19)
 800c99c:	10ff7f26 	beq	r2,r3,800c79c <_fpadd_parts+0x1c8>
 800c9a0:	04c20074 	movhi	r19,2049
 800c9a4:	9cd49404 	addi	r19,r19,21072
 800c9a8:	003f7c06 	br	800c79c <_fpadd_parts+0x1c8>
 800c9ac:	2006d07a 	srli	r3,r4,1
 800c9b0:	008007c4 	movi	r2,31
 800c9b4:	1185c83a 	sub	r2,r2,r6
 800c9b8:	1894d83a 	srl	r10,r3,r2
 800c9bc:	2192983a 	sll	r9,r4,r6
 800c9c0:	003fd706 	br	800c920 <_fpadd_parts+0x34c>
 800c9c4:	9487883a 	add	r3,r18,r18
 800c9c8:	008007c4 	movi	r2,31
 800c9cc:	1185c83a 	sub	r2,r2,r6
 800c9d0:	1886983a 	sll	r3,r3,r2
 800c9d4:	899ad83a 	srl	r13,r17,r6
 800c9d8:	919cd83a 	srl	r14,r18,r6
 800c9dc:	1b5ab03a 	or	r13,r3,r13
 800c9e0:	003fc906 	br	800c908 <_fpadd_parts+0x334>

0800c9e4 <__subdf3>:
 800c9e4:	deffea04 	addi	sp,sp,-88
 800c9e8:	dcc01415 	stw	r19,80(sp)
 800c9ec:	dcc00404 	addi	r19,sp,16
 800c9f0:	2011883a 	mov	r8,r4
 800c9f4:	2813883a 	mov	r9,r5
 800c9f8:	dc401315 	stw	r17,76(sp)
 800c9fc:	d809883a 	mov	r4,sp
 800ca00:	980b883a 	mov	r5,r19
 800ca04:	dc400904 	addi	r17,sp,36
 800ca08:	dfc01515 	stw	ra,84(sp)
 800ca0c:	da400115 	stw	r9,4(sp)
 800ca10:	d9c00315 	stw	r7,12(sp)
 800ca14:	da000015 	stw	r8,0(sp)
 800ca18:	d9800215 	stw	r6,8(sp)
 800ca1c:	800dd3c0 	call	800dd3c <__unpack_d>
 800ca20:	d9000204 	addi	r4,sp,8
 800ca24:	880b883a 	mov	r5,r17
 800ca28:	800dd3c0 	call	800dd3c <__unpack_d>
 800ca2c:	d8800a17 	ldw	r2,40(sp)
 800ca30:	880b883a 	mov	r5,r17
 800ca34:	9809883a 	mov	r4,r19
 800ca38:	d9800e04 	addi	r6,sp,56
 800ca3c:	1080005c 	xori	r2,r2,1
 800ca40:	d8800a15 	stw	r2,40(sp)
 800ca44:	800c5d40 	call	800c5d4 <_fpadd_parts>
 800ca48:	1009883a 	mov	r4,r2
 800ca4c:	800da280 	call	800da28 <__pack_d>
 800ca50:	dfc01517 	ldw	ra,84(sp)
 800ca54:	dcc01417 	ldw	r19,80(sp)
 800ca58:	dc401317 	ldw	r17,76(sp)
 800ca5c:	dec01604 	addi	sp,sp,88
 800ca60:	f800283a 	ret

0800ca64 <__adddf3>:
 800ca64:	deffea04 	addi	sp,sp,-88
 800ca68:	dcc01415 	stw	r19,80(sp)
 800ca6c:	dcc00404 	addi	r19,sp,16
 800ca70:	2011883a 	mov	r8,r4
 800ca74:	2813883a 	mov	r9,r5
 800ca78:	dc401315 	stw	r17,76(sp)
 800ca7c:	d809883a 	mov	r4,sp
 800ca80:	980b883a 	mov	r5,r19
 800ca84:	dc400904 	addi	r17,sp,36
 800ca88:	dfc01515 	stw	ra,84(sp)
 800ca8c:	da400115 	stw	r9,4(sp)
 800ca90:	d9c00315 	stw	r7,12(sp)
 800ca94:	da000015 	stw	r8,0(sp)
 800ca98:	d9800215 	stw	r6,8(sp)
 800ca9c:	800dd3c0 	call	800dd3c <__unpack_d>
 800caa0:	d9000204 	addi	r4,sp,8
 800caa4:	880b883a 	mov	r5,r17
 800caa8:	800dd3c0 	call	800dd3c <__unpack_d>
 800caac:	d9800e04 	addi	r6,sp,56
 800cab0:	9809883a 	mov	r4,r19
 800cab4:	880b883a 	mov	r5,r17
 800cab8:	800c5d40 	call	800c5d4 <_fpadd_parts>
 800cabc:	1009883a 	mov	r4,r2
 800cac0:	800da280 	call	800da28 <__pack_d>
 800cac4:	dfc01517 	ldw	ra,84(sp)
 800cac8:	dcc01417 	ldw	r19,80(sp)
 800cacc:	dc401317 	ldw	r17,76(sp)
 800cad0:	dec01604 	addi	sp,sp,88
 800cad4:	f800283a 	ret

0800cad8 <__muldf3>:
 800cad8:	deffe004 	addi	sp,sp,-128
 800cadc:	dc401815 	stw	r17,96(sp)
 800cae0:	dc400404 	addi	r17,sp,16
 800cae4:	2011883a 	mov	r8,r4
 800cae8:	2813883a 	mov	r9,r5
 800caec:	dc001715 	stw	r16,92(sp)
 800caf0:	d809883a 	mov	r4,sp
 800caf4:	880b883a 	mov	r5,r17
 800caf8:	dc000904 	addi	r16,sp,36
 800cafc:	dfc01f15 	stw	ra,124(sp)
 800cb00:	da400115 	stw	r9,4(sp)
 800cb04:	d9c00315 	stw	r7,12(sp)
 800cb08:	da000015 	stw	r8,0(sp)
 800cb0c:	d9800215 	stw	r6,8(sp)
 800cb10:	ddc01e15 	stw	r23,120(sp)
 800cb14:	dd801d15 	stw	r22,116(sp)
 800cb18:	dd401c15 	stw	r21,112(sp)
 800cb1c:	dd001b15 	stw	r20,108(sp)
 800cb20:	dcc01a15 	stw	r19,104(sp)
 800cb24:	dc801915 	stw	r18,100(sp)
 800cb28:	800dd3c0 	call	800dd3c <__unpack_d>
 800cb2c:	d9000204 	addi	r4,sp,8
 800cb30:	800b883a 	mov	r5,r16
 800cb34:	800dd3c0 	call	800dd3c <__unpack_d>
 800cb38:	d9000417 	ldw	r4,16(sp)
 800cb3c:	00800044 	movi	r2,1
 800cb40:	1100102e 	bgeu	r2,r4,800cb84 <__muldf3+0xac>
 800cb44:	d8c00917 	ldw	r3,36(sp)
 800cb48:	10c0062e 	bgeu	r2,r3,800cb64 <__muldf3+0x8c>
 800cb4c:	00800104 	movi	r2,4
 800cb50:	20800a26 	beq	r4,r2,800cb7c <__muldf3+0xa4>
 800cb54:	1880cc26 	beq	r3,r2,800ce88 <__muldf3+0x3b0>
 800cb58:	00800084 	movi	r2,2
 800cb5c:	20800926 	beq	r4,r2,800cb84 <__muldf3+0xac>
 800cb60:	1880191e 	bne	r3,r2,800cbc8 <__muldf3+0xf0>
 800cb64:	d8c00a17 	ldw	r3,40(sp)
 800cb68:	d8800517 	ldw	r2,20(sp)
 800cb6c:	8009883a 	mov	r4,r16
 800cb70:	10c4c03a 	cmpne	r2,r2,r3
 800cb74:	d8800a15 	stw	r2,40(sp)
 800cb78:	00000706 	br	800cb98 <__muldf3+0xc0>
 800cb7c:	00800084 	movi	r2,2
 800cb80:	1880c326 	beq	r3,r2,800ce90 <__muldf3+0x3b8>
 800cb84:	d8800517 	ldw	r2,20(sp)
 800cb88:	d8c00a17 	ldw	r3,40(sp)
 800cb8c:	8809883a 	mov	r4,r17
 800cb90:	10c4c03a 	cmpne	r2,r2,r3
 800cb94:	d8800515 	stw	r2,20(sp)
 800cb98:	800da280 	call	800da28 <__pack_d>
 800cb9c:	dfc01f17 	ldw	ra,124(sp)
 800cba0:	ddc01e17 	ldw	r23,120(sp)
 800cba4:	dd801d17 	ldw	r22,116(sp)
 800cba8:	dd401c17 	ldw	r21,112(sp)
 800cbac:	dd001b17 	ldw	r20,108(sp)
 800cbb0:	dcc01a17 	ldw	r19,104(sp)
 800cbb4:	dc801917 	ldw	r18,100(sp)
 800cbb8:	dc401817 	ldw	r17,96(sp)
 800cbbc:	dc001717 	ldw	r16,92(sp)
 800cbc0:	dec02004 	addi	sp,sp,128
 800cbc4:	f800283a 	ret
 800cbc8:	dd800717 	ldw	r22,28(sp)
 800cbcc:	dc800c17 	ldw	r18,48(sp)
 800cbd0:	002b883a 	mov	r21,zero
 800cbd4:	0023883a 	mov	r17,zero
 800cbd8:	a80b883a 	mov	r5,r21
 800cbdc:	b00d883a 	mov	r6,r22
 800cbe0:	880f883a 	mov	r7,r17
 800cbe4:	ddc00817 	ldw	r23,32(sp)
 800cbe8:	dcc00d17 	ldw	r19,52(sp)
 800cbec:	9009883a 	mov	r4,r18
 800cbf0:	800d8840 	call	800d884 <__muldi3>
 800cbf4:	001b883a 	mov	r13,zero
 800cbf8:	680f883a 	mov	r7,r13
 800cbfc:	b009883a 	mov	r4,r22
 800cc00:	000b883a 	mov	r5,zero
 800cc04:	980d883a 	mov	r6,r19
 800cc08:	b82d883a 	mov	r22,r23
 800cc0c:	002f883a 	mov	r23,zero
 800cc10:	db401615 	stw	r13,88(sp)
 800cc14:	d8801315 	stw	r2,76(sp)
 800cc18:	d8c01415 	stw	r3,80(sp)
 800cc1c:	dcc01515 	stw	r19,84(sp)
 800cc20:	800d8840 	call	800d884 <__muldi3>
 800cc24:	b00d883a 	mov	r6,r22
 800cc28:	000b883a 	mov	r5,zero
 800cc2c:	9009883a 	mov	r4,r18
 800cc30:	b80f883a 	mov	r7,r23
 800cc34:	1021883a 	mov	r16,r2
 800cc38:	1823883a 	mov	r17,r3
 800cc3c:	800d8840 	call	800d884 <__muldi3>
 800cc40:	8085883a 	add	r2,r16,r2
 800cc44:	140d803a 	cmpltu	r6,r2,r16
 800cc48:	88c7883a 	add	r3,r17,r3
 800cc4c:	30cd883a 	add	r6,r6,r3
 800cc50:	1029883a 	mov	r20,r2
 800cc54:	302b883a 	mov	r21,r6
 800cc58:	da801317 	ldw	r10,76(sp)
 800cc5c:	dac01417 	ldw	r11,80(sp)
 800cc60:	db001517 	ldw	r12,84(sp)
 800cc64:	db401617 	ldw	r13,88(sp)
 800cc68:	3440612e 	bgeu	r6,r17,800cdf0 <__muldf3+0x318>
 800cc6c:	0009883a 	mov	r4,zero
 800cc70:	5105883a 	add	r2,r10,r4
 800cc74:	128d803a 	cmpltu	r6,r2,r10
 800cc78:	5d07883a 	add	r3,r11,r20
 800cc7c:	30cd883a 	add	r6,r6,r3
 800cc80:	0021883a 	mov	r16,zero
 800cc84:	04400044 	movi	r17,1
 800cc88:	1025883a 	mov	r18,r2
 800cc8c:	3027883a 	mov	r19,r6
 800cc90:	32c06236 	bltu	r6,r11,800ce1c <__muldf3+0x344>
 800cc94:	59807a26 	beq	r11,r6,800ce80 <__muldf3+0x3a8>
 800cc98:	680b883a 	mov	r5,r13
 800cc9c:	b80f883a 	mov	r7,r23
 800cca0:	6009883a 	mov	r4,r12
 800cca4:	b00d883a 	mov	r6,r22
 800cca8:	800d8840 	call	800d884 <__muldi3>
 800ccac:	1009883a 	mov	r4,r2
 800ccb0:	000f883a 	mov	r7,zero
 800ccb4:	1545883a 	add	r2,r2,r21
 800ccb8:	1111803a 	cmpltu	r8,r2,r4
 800ccbc:	19c7883a 	add	r3,r3,r7
 800ccc0:	40c7883a 	add	r3,r8,r3
 800ccc4:	88cb883a 	add	r5,r17,r3
 800ccc8:	d8c00617 	ldw	r3,24(sp)
 800cccc:	8089883a 	add	r4,r16,r2
 800ccd0:	d8800b17 	ldw	r2,44(sp)
 800ccd4:	18c00104 	addi	r3,r3,4
 800ccd8:	240d803a 	cmpltu	r6,r4,r16
 800ccdc:	10c7883a 	add	r3,r2,r3
 800cce0:	2013883a 	mov	r9,r4
 800cce4:	d8800a17 	ldw	r2,40(sp)
 800cce8:	d9000517 	ldw	r4,20(sp)
 800ccec:	314d883a 	add	r6,r6,r5
 800ccf0:	3015883a 	mov	r10,r6
 800ccf4:	2088c03a 	cmpne	r4,r4,r2
 800ccf8:	00880034 	movhi	r2,8192
 800ccfc:	10bfffc4 	addi	r2,r2,-1
 800cd00:	d9000f15 	stw	r4,60(sp)
 800cd04:	d8c01015 	stw	r3,64(sp)
 800cd08:	1180162e 	bgeu	r2,r6,800cd64 <__muldf3+0x28c>
 800cd0c:	1811883a 	mov	r8,r3
 800cd10:	101f883a 	mov	r15,r2
 800cd14:	980497fa 	slli	r2,r19,31
 800cd18:	9016d07a 	srli	r11,r18,1
 800cd1c:	500697fa 	slli	r3,r10,31
 800cd20:	480cd07a 	srli	r6,r9,1
 800cd24:	500ed07a 	srli	r7,r10,1
 800cd28:	12d6b03a 	or	r11,r2,r11
 800cd2c:	00800044 	movi	r2,1
 800cd30:	198cb03a 	or	r6,r3,r6
 800cd34:	4888703a 	and	r4,r9,r2
 800cd38:	9818d07a 	srli	r12,r19,1
 800cd3c:	001b883a 	mov	r13,zero
 800cd40:	03a00034 	movhi	r14,32768
 800cd44:	3013883a 	mov	r9,r6
 800cd48:	3815883a 	mov	r10,r7
 800cd4c:	4091883a 	add	r8,r8,r2
 800cd50:	20000226 	beq	r4,zero,800cd5c <__muldf3+0x284>
 800cd54:	5b64b03a 	or	r18,r11,r13
 800cd58:	63a6b03a 	or	r19,r12,r14
 800cd5c:	7abfed36 	bltu	r15,r10,800cd14 <__muldf3+0x23c>
 800cd60:	da001015 	stw	r8,64(sp)
 800cd64:	00840034 	movhi	r2,4096
 800cd68:	10bfffc4 	addi	r2,r2,-1
 800cd6c:	12801436 	bltu	r2,r10,800cdc0 <__muldf3+0x2e8>
 800cd70:	da001017 	ldw	r8,64(sp)
 800cd74:	101f883a 	mov	r15,r2
 800cd78:	4a45883a 	add	r2,r9,r9
 800cd7c:	124d803a 	cmpltu	r6,r2,r9
 800cd80:	5287883a 	add	r3,r10,r10
 800cd84:	9497883a 	add	r11,r18,r18
 800cd88:	5c8f803a 	cmpltu	r7,r11,r18
 800cd8c:	9cd9883a 	add	r12,r19,r19
 800cd90:	01000044 	movi	r4,1
 800cd94:	30cd883a 	add	r6,r6,r3
 800cd98:	3b0f883a 	add	r7,r7,r12
 800cd9c:	423fffc4 	addi	r8,r8,-1
 800cda0:	1013883a 	mov	r9,r2
 800cda4:	3015883a 	mov	r10,r6
 800cda8:	111ab03a 	or	r13,r2,r4
 800cdac:	98003016 	blt	r19,zero,800ce70 <__muldf3+0x398>
 800cdb0:	5825883a 	mov	r18,r11
 800cdb4:	3827883a 	mov	r19,r7
 800cdb8:	7abfef2e 	bgeu	r15,r10,800cd78 <__muldf3+0x2a0>
 800cdbc:	da001015 	stw	r8,64(sp)
 800cdc0:	00803fc4 	movi	r2,255
 800cdc4:	488e703a 	and	r7,r9,r2
 800cdc8:	00802004 	movi	r2,128
 800cdcc:	0007883a 	mov	r3,zero
 800cdd0:	0011883a 	mov	r8,zero
 800cdd4:	38801826 	beq	r7,r2,800ce38 <__muldf3+0x360>
 800cdd8:	008000c4 	movi	r2,3
 800cddc:	d9000e04 	addi	r4,sp,56
 800cde0:	da801215 	stw	r10,72(sp)
 800cde4:	d8800e15 	stw	r2,56(sp)
 800cde8:	da401115 	stw	r9,68(sp)
 800cdec:	003f6a06 	br	800cb98 <__muldf3+0xc0>
 800cdf0:	89802126 	beq	r17,r6,800ce78 <__muldf3+0x3a0>
 800cdf4:	0009883a 	mov	r4,zero
 800cdf8:	5105883a 	add	r2,r10,r4
 800cdfc:	128d803a 	cmpltu	r6,r2,r10
 800ce00:	5d07883a 	add	r3,r11,r20
 800ce04:	30cd883a 	add	r6,r6,r3
 800ce08:	0021883a 	mov	r16,zero
 800ce0c:	0023883a 	mov	r17,zero
 800ce10:	1025883a 	mov	r18,r2
 800ce14:	3027883a 	mov	r19,r6
 800ce18:	32ff9e2e 	bgeu	r6,r11,800cc94 <__muldf3+0x1bc>
 800ce1c:	00800044 	movi	r2,1
 800ce20:	8089883a 	add	r4,r16,r2
 800ce24:	240d803a 	cmpltu	r6,r4,r16
 800ce28:	344d883a 	add	r6,r6,r17
 800ce2c:	2021883a 	mov	r16,r4
 800ce30:	3023883a 	mov	r17,r6
 800ce34:	003f9806 	br	800cc98 <__muldf3+0x1c0>
 800ce38:	403fe71e 	bne	r8,zero,800cdd8 <__muldf3+0x300>
 800ce3c:	01004004 	movi	r4,256
 800ce40:	4904703a 	and	r2,r9,r4
 800ce44:	10c4b03a 	or	r2,r2,r3
 800ce48:	103fe31e 	bne	r2,zero,800cdd8 <__muldf3+0x300>
 800ce4c:	94c4b03a 	or	r2,r18,r19
 800ce50:	103fe126 	beq	r2,zero,800cdd8 <__muldf3+0x300>
 800ce54:	49c5883a 	add	r2,r9,r7
 800ce58:	1251803a 	cmpltu	r8,r2,r9
 800ce5c:	4291883a 	add	r8,r8,r10
 800ce60:	013fc004 	movi	r4,-256
 800ce64:	1112703a 	and	r9,r2,r4
 800ce68:	4015883a 	mov	r10,r8
 800ce6c:	003fda06 	br	800cdd8 <__muldf3+0x300>
 800ce70:	6813883a 	mov	r9,r13
 800ce74:	003fce06 	br	800cdb0 <__muldf3+0x2d8>
 800ce78:	143f7c36 	bltu	r2,r16,800cc6c <__muldf3+0x194>
 800ce7c:	003fdd06 	br	800cdf4 <__muldf3+0x31c>
 800ce80:	12bf852e 	bgeu	r2,r10,800cc98 <__muldf3+0x1c0>
 800ce84:	003fe506 	br	800ce1c <__muldf3+0x344>
 800ce88:	00800084 	movi	r2,2
 800ce8c:	20bf351e 	bne	r4,r2,800cb64 <__muldf3+0x8c>
 800ce90:	01020074 	movhi	r4,2049
 800ce94:	21149404 	addi	r4,r4,21072
 800ce98:	003f3f06 	br	800cb98 <__muldf3+0xc0>

0800ce9c <__divdf3>:
 800ce9c:	deffed04 	addi	sp,sp,-76
 800cea0:	dcc01115 	stw	r19,68(sp)
 800cea4:	dcc00404 	addi	r19,sp,16
 800cea8:	2011883a 	mov	r8,r4
 800ceac:	2813883a 	mov	r9,r5
 800ceb0:	dc000e15 	stw	r16,56(sp)
 800ceb4:	d809883a 	mov	r4,sp
 800ceb8:	980b883a 	mov	r5,r19
 800cebc:	dc000904 	addi	r16,sp,36
 800cec0:	dfc01215 	stw	ra,72(sp)
 800cec4:	da400115 	stw	r9,4(sp)
 800cec8:	d9c00315 	stw	r7,12(sp)
 800cecc:	da000015 	stw	r8,0(sp)
 800ced0:	d9800215 	stw	r6,8(sp)
 800ced4:	dc801015 	stw	r18,64(sp)
 800ced8:	dc400f15 	stw	r17,60(sp)
 800cedc:	800dd3c0 	call	800dd3c <__unpack_d>
 800cee0:	d9000204 	addi	r4,sp,8
 800cee4:	800b883a 	mov	r5,r16
 800cee8:	800dd3c0 	call	800dd3c <__unpack_d>
 800ceec:	d9000417 	ldw	r4,16(sp)
 800cef0:	00800044 	movi	r2,1
 800cef4:	11000b2e 	bgeu	r2,r4,800cf24 <__divdf3+0x88>
 800cef8:	d9400917 	ldw	r5,36(sp)
 800cefc:	1140762e 	bgeu	r2,r5,800d0d8 <__divdf3+0x23c>
 800cf00:	d8800517 	ldw	r2,20(sp)
 800cf04:	d8c00a17 	ldw	r3,40(sp)
 800cf08:	01800104 	movi	r6,4
 800cf0c:	10c4f03a 	xor	r2,r2,r3
 800cf10:	d8800515 	stw	r2,20(sp)
 800cf14:	21800226 	beq	r4,r6,800cf20 <__divdf3+0x84>
 800cf18:	00800084 	movi	r2,2
 800cf1c:	2080141e 	bne	r4,r2,800cf70 <__divdf3+0xd4>
 800cf20:	29000926 	beq	r5,r4,800cf48 <__divdf3+0xac>
 800cf24:	9809883a 	mov	r4,r19
 800cf28:	800da280 	call	800da28 <__pack_d>
 800cf2c:	dfc01217 	ldw	ra,72(sp)
 800cf30:	dcc01117 	ldw	r19,68(sp)
 800cf34:	dc801017 	ldw	r18,64(sp)
 800cf38:	dc400f17 	ldw	r17,60(sp)
 800cf3c:	dc000e17 	ldw	r16,56(sp)
 800cf40:	dec01304 	addi	sp,sp,76
 800cf44:	f800283a 	ret
 800cf48:	01020074 	movhi	r4,2049
 800cf4c:	21149404 	addi	r4,r4,21072
 800cf50:	800da280 	call	800da28 <__pack_d>
 800cf54:	dfc01217 	ldw	ra,72(sp)
 800cf58:	dcc01117 	ldw	r19,68(sp)
 800cf5c:	dc801017 	ldw	r18,64(sp)
 800cf60:	dc400f17 	ldw	r17,60(sp)
 800cf64:	dc000e17 	ldw	r16,56(sp)
 800cf68:	dec01304 	addi	sp,sp,76
 800cf6c:	f800283a 	ret
 800cf70:	29805b26 	beq	r5,r6,800d0e0 <__divdf3+0x244>
 800cf74:	28802d26 	beq	r5,r2,800d02c <__divdf3+0x190>
 800cf78:	d8c00617 	ldw	r3,24(sp)
 800cf7c:	d8800b17 	ldw	r2,44(sp)
 800cf80:	d9c00817 	ldw	r7,32(sp)
 800cf84:	dc400d17 	ldw	r17,52(sp)
 800cf88:	188bc83a 	sub	r5,r3,r2
 800cf8c:	d9800717 	ldw	r6,28(sp)
 800cf90:	dc000c17 	ldw	r16,48(sp)
 800cf94:	d9400615 	stw	r5,24(sp)
 800cf98:	3c403836 	bltu	r7,r17,800d07c <__divdf3+0x1e0>
 800cf9c:	89c03626 	beq	r17,r7,800d078 <__divdf3+0x1dc>
 800cfa0:	0015883a 	mov	r10,zero
 800cfa4:	001d883a 	mov	r14,zero
 800cfa8:	02c40034 	movhi	r11,4096
 800cfac:	001f883a 	mov	r15,zero
 800cfb0:	003f883a 	mov	ra,zero
 800cfb4:	04800f44 	movi	r18,61
 800cfb8:	00000f06 	br	800cff8 <__divdf3+0x15c>
 800cfbc:	601d883a 	mov	r14,r12
 800cfc0:	681f883a 	mov	r15,r13
 800cfc4:	400d883a 	mov	r6,r8
 800cfc8:	100f883a 	mov	r7,r2
 800cfcc:	3191883a 	add	r8,r6,r6
 800cfd0:	5808d07a 	srli	r4,r11,1
 800cfd4:	4185803a 	cmpltu	r2,r8,r6
 800cfd8:	39d3883a 	add	r9,r7,r7
 800cfdc:	28c6b03a 	or	r3,r5,r3
 800cfe0:	1245883a 	add	r2,r2,r9
 800cfe4:	1815883a 	mov	r10,r3
 800cfe8:	2017883a 	mov	r11,r4
 800cfec:	400d883a 	mov	r6,r8
 800cff0:	100f883a 	mov	r7,r2
 800cff4:	fc801726 	beq	ra,r18,800d054 <__divdf3+0x1b8>
 800cff8:	580a97fa 	slli	r5,r11,31
 800cffc:	5006d07a 	srli	r3,r10,1
 800d000:	ffc00044 	addi	ra,ra,1
 800d004:	3c7ff136 	bltu	r7,r17,800cfcc <__divdf3+0x130>
 800d008:	3411c83a 	sub	r8,r6,r16
 800d00c:	3205803a 	cmpltu	r2,r6,r8
 800d010:	3c53c83a 	sub	r9,r7,r17
 800d014:	7298b03a 	or	r12,r14,r10
 800d018:	7adab03a 	or	r13,r15,r11
 800d01c:	4885c83a 	sub	r2,r9,r2
 800d020:	89ffe61e 	bne	r17,r7,800cfbc <__divdf3+0x120>
 800d024:	343fe936 	bltu	r6,r16,800cfcc <__divdf3+0x130>
 800d028:	003fe406 	br	800cfbc <__divdf3+0x120>
 800d02c:	9809883a 	mov	r4,r19
 800d030:	d9800415 	stw	r6,16(sp)
 800d034:	800da280 	call	800da28 <__pack_d>
 800d038:	dfc01217 	ldw	ra,72(sp)
 800d03c:	dcc01117 	ldw	r19,68(sp)
 800d040:	dc801017 	ldw	r18,64(sp)
 800d044:	dc400f17 	ldw	r17,60(sp)
 800d048:	dc000e17 	ldw	r16,56(sp)
 800d04c:	dec01304 	addi	sp,sp,76
 800d050:	f800283a 	ret
 800d054:	00803fc4 	movi	r2,255
 800d058:	7090703a 	and	r8,r14,r2
 800d05c:	00802004 	movi	r2,128
 800d060:	0007883a 	mov	r3,zero
 800d064:	0013883a 	mov	r9,zero
 800d068:	40800d26 	beq	r8,r2,800d0a0 <__divdf3+0x204>
 800d06c:	dbc00815 	stw	r15,32(sp)
 800d070:	db800715 	stw	r14,28(sp)
 800d074:	003fab06 	br	800cf24 <__divdf3+0x88>
 800d078:	343fc92e 	bgeu	r6,r16,800cfa0 <__divdf3+0x104>
 800d07c:	3185883a 	add	r2,r6,r6
 800d080:	1189803a 	cmpltu	r4,r2,r6
 800d084:	39c7883a 	add	r3,r7,r7
 800d088:	20c9883a 	add	r4,r4,r3
 800d08c:	297fffc4 	addi	r5,r5,-1
 800d090:	100d883a 	mov	r6,r2
 800d094:	200f883a 	mov	r7,r4
 800d098:	d9400615 	stw	r5,24(sp)
 800d09c:	003fc006 	br	800cfa0 <__divdf3+0x104>
 800d0a0:	483ff21e 	bne	r9,zero,800d06c <__divdf3+0x1d0>
 800d0a4:	01004004 	movi	r4,256
 800d0a8:	7104703a 	and	r2,r14,r4
 800d0ac:	10c4b03a 	or	r2,r2,r3
 800d0b0:	103fee1e 	bne	r2,zero,800d06c <__divdf3+0x1d0>
 800d0b4:	31c4b03a 	or	r2,r6,r7
 800d0b8:	103fec26 	beq	r2,zero,800d06c <__divdf3+0x1d0>
 800d0bc:	7205883a 	add	r2,r14,r8
 800d0c0:	1391803a 	cmpltu	r8,r2,r14
 800d0c4:	43d1883a 	add	r8,r8,r15
 800d0c8:	013fc004 	movi	r4,-256
 800d0cc:	111c703a 	and	r14,r2,r4
 800d0d0:	401f883a 	mov	r15,r8
 800d0d4:	003fe506 	br	800d06c <__divdf3+0x1d0>
 800d0d8:	8009883a 	mov	r4,r16
 800d0dc:	003f9206 	br	800cf28 <__divdf3+0x8c>
 800d0e0:	9809883a 	mov	r4,r19
 800d0e4:	d8000715 	stw	zero,28(sp)
 800d0e8:	d8000815 	stw	zero,32(sp)
 800d0ec:	d8000615 	stw	zero,24(sp)
 800d0f0:	003f8d06 	br	800cf28 <__divdf3+0x8c>

0800d0f4 <__eqdf2>:
 800d0f4:	deffef04 	addi	sp,sp,-68
 800d0f8:	dc400f15 	stw	r17,60(sp)
 800d0fc:	dc400404 	addi	r17,sp,16
 800d100:	2005883a 	mov	r2,r4
 800d104:	2807883a 	mov	r3,r5
 800d108:	dc000e15 	stw	r16,56(sp)
 800d10c:	d809883a 	mov	r4,sp
 800d110:	880b883a 	mov	r5,r17
 800d114:	dc000904 	addi	r16,sp,36
 800d118:	d8c00115 	stw	r3,4(sp)
 800d11c:	d8800015 	stw	r2,0(sp)
 800d120:	d9800215 	stw	r6,8(sp)
 800d124:	dfc01015 	stw	ra,64(sp)
 800d128:	d9c00315 	stw	r7,12(sp)
 800d12c:	800dd3c0 	call	800dd3c <__unpack_d>
 800d130:	d9000204 	addi	r4,sp,8
 800d134:	800b883a 	mov	r5,r16
 800d138:	800dd3c0 	call	800dd3c <__unpack_d>
 800d13c:	d8800417 	ldw	r2,16(sp)
 800d140:	00c00044 	movi	r3,1
 800d144:	180d883a 	mov	r6,r3
 800d148:	1880062e 	bgeu	r3,r2,800d164 <__eqdf2+0x70>
 800d14c:	d8800917 	ldw	r2,36(sp)
 800d150:	8809883a 	mov	r4,r17
 800d154:	800b883a 	mov	r5,r16
 800d158:	1880022e 	bgeu	r3,r2,800d164 <__eqdf2+0x70>
 800d15c:	800de740 	call	800de74 <__fpcmp_parts_d>
 800d160:	100d883a 	mov	r6,r2
 800d164:	3005883a 	mov	r2,r6
 800d168:	dfc01017 	ldw	ra,64(sp)
 800d16c:	dc400f17 	ldw	r17,60(sp)
 800d170:	dc000e17 	ldw	r16,56(sp)
 800d174:	dec01104 	addi	sp,sp,68
 800d178:	f800283a 	ret

0800d17c <__nedf2>:
 800d17c:	deffef04 	addi	sp,sp,-68
 800d180:	dc400f15 	stw	r17,60(sp)
 800d184:	dc400404 	addi	r17,sp,16
 800d188:	2005883a 	mov	r2,r4
 800d18c:	2807883a 	mov	r3,r5
 800d190:	dc000e15 	stw	r16,56(sp)
 800d194:	d809883a 	mov	r4,sp
 800d198:	880b883a 	mov	r5,r17
 800d19c:	dc000904 	addi	r16,sp,36
 800d1a0:	d8c00115 	stw	r3,4(sp)
 800d1a4:	d8800015 	stw	r2,0(sp)
 800d1a8:	d9800215 	stw	r6,8(sp)
 800d1ac:	dfc01015 	stw	ra,64(sp)
 800d1b0:	d9c00315 	stw	r7,12(sp)
 800d1b4:	800dd3c0 	call	800dd3c <__unpack_d>
 800d1b8:	d9000204 	addi	r4,sp,8
 800d1bc:	800b883a 	mov	r5,r16
 800d1c0:	800dd3c0 	call	800dd3c <__unpack_d>
 800d1c4:	d8800417 	ldw	r2,16(sp)
 800d1c8:	00c00044 	movi	r3,1
 800d1cc:	180d883a 	mov	r6,r3
 800d1d0:	1880062e 	bgeu	r3,r2,800d1ec <__nedf2+0x70>
 800d1d4:	d8800917 	ldw	r2,36(sp)
 800d1d8:	8809883a 	mov	r4,r17
 800d1dc:	800b883a 	mov	r5,r16
 800d1e0:	1880022e 	bgeu	r3,r2,800d1ec <__nedf2+0x70>
 800d1e4:	800de740 	call	800de74 <__fpcmp_parts_d>
 800d1e8:	100d883a 	mov	r6,r2
 800d1ec:	3005883a 	mov	r2,r6
 800d1f0:	dfc01017 	ldw	ra,64(sp)
 800d1f4:	dc400f17 	ldw	r17,60(sp)
 800d1f8:	dc000e17 	ldw	r16,56(sp)
 800d1fc:	dec01104 	addi	sp,sp,68
 800d200:	f800283a 	ret

0800d204 <__gtdf2>:
 800d204:	deffef04 	addi	sp,sp,-68
 800d208:	dc400f15 	stw	r17,60(sp)
 800d20c:	dc400404 	addi	r17,sp,16
 800d210:	2005883a 	mov	r2,r4
 800d214:	2807883a 	mov	r3,r5
 800d218:	dc000e15 	stw	r16,56(sp)
 800d21c:	d809883a 	mov	r4,sp
 800d220:	880b883a 	mov	r5,r17
 800d224:	dc000904 	addi	r16,sp,36
 800d228:	d8c00115 	stw	r3,4(sp)
 800d22c:	d8800015 	stw	r2,0(sp)
 800d230:	d9800215 	stw	r6,8(sp)
 800d234:	dfc01015 	stw	ra,64(sp)
 800d238:	d9c00315 	stw	r7,12(sp)
 800d23c:	800dd3c0 	call	800dd3c <__unpack_d>
 800d240:	d9000204 	addi	r4,sp,8
 800d244:	800b883a 	mov	r5,r16
 800d248:	800dd3c0 	call	800dd3c <__unpack_d>
 800d24c:	d8800417 	ldw	r2,16(sp)
 800d250:	00c00044 	movi	r3,1
 800d254:	01bfffc4 	movi	r6,-1
 800d258:	1880062e 	bgeu	r3,r2,800d274 <__gtdf2+0x70>
 800d25c:	d8800917 	ldw	r2,36(sp)
 800d260:	8809883a 	mov	r4,r17
 800d264:	800b883a 	mov	r5,r16
 800d268:	1880022e 	bgeu	r3,r2,800d274 <__gtdf2+0x70>
 800d26c:	800de740 	call	800de74 <__fpcmp_parts_d>
 800d270:	100d883a 	mov	r6,r2
 800d274:	3005883a 	mov	r2,r6
 800d278:	dfc01017 	ldw	ra,64(sp)
 800d27c:	dc400f17 	ldw	r17,60(sp)
 800d280:	dc000e17 	ldw	r16,56(sp)
 800d284:	dec01104 	addi	sp,sp,68
 800d288:	f800283a 	ret

0800d28c <__gedf2>:
 800d28c:	deffef04 	addi	sp,sp,-68
 800d290:	dc400f15 	stw	r17,60(sp)
 800d294:	dc400404 	addi	r17,sp,16
 800d298:	2005883a 	mov	r2,r4
 800d29c:	2807883a 	mov	r3,r5
 800d2a0:	dc000e15 	stw	r16,56(sp)
 800d2a4:	d809883a 	mov	r4,sp
 800d2a8:	880b883a 	mov	r5,r17
 800d2ac:	dc000904 	addi	r16,sp,36
 800d2b0:	d8c00115 	stw	r3,4(sp)
 800d2b4:	d8800015 	stw	r2,0(sp)
 800d2b8:	d9800215 	stw	r6,8(sp)
 800d2bc:	dfc01015 	stw	ra,64(sp)
 800d2c0:	d9c00315 	stw	r7,12(sp)
 800d2c4:	800dd3c0 	call	800dd3c <__unpack_d>
 800d2c8:	d9000204 	addi	r4,sp,8
 800d2cc:	800b883a 	mov	r5,r16
 800d2d0:	800dd3c0 	call	800dd3c <__unpack_d>
 800d2d4:	d8800417 	ldw	r2,16(sp)
 800d2d8:	00c00044 	movi	r3,1
 800d2dc:	01bfffc4 	movi	r6,-1
 800d2e0:	1880062e 	bgeu	r3,r2,800d2fc <__gedf2+0x70>
 800d2e4:	d8800917 	ldw	r2,36(sp)
 800d2e8:	8809883a 	mov	r4,r17
 800d2ec:	800b883a 	mov	r5,r16
 800d2f0:	1880022e 	bgeu	r3,r2,800d2fc <__gedf2+0x70>
 800d2f4:	800de740 	call	800de74 <__fpcmp_parts_d>
 800d2f8:	100d883a 	mov	r6,r2
 800d2fc:	3005883a 	mov	r2,r6
 800d300:	dfc01017 	ldw	ra,64(sp)
 800d304:	dc400f17 	ldw	r17,60(sp)
 800d308:	dc000e17 	ldw	r16,56(sp)
 800d30c:	dec01104 	addi	sp,sp,68
 800d310:	f800283a 	ret

0800d314 <__ltdf2>:
 800d314:	deffef04 	addi	sp,sp,-68
 800d318:	dc400f15 	stw	r17,60(sp)
 800d31c:	dc400404 	addi	r17,sp,16
 800d320:	2005883a 	mov	r2,r4
 800d324:	2807883a 	mov	r3,r5
 800d328:	dc000e15 	stw	r16,56(sp)
 800d32c:	d809883a 	mov	r4,sp
 800d330:	880b883a 	mov	r5,r17
 800d334:	dc000904 	addi	r16,sp,36
 800d338:	d8c00115 	stw	r3,4(sp)
 800d33c:	d8800015 	stw	r2,0(sp)
 800d340:	d9800215 	stw	r6,8(sp)
 800d344:	dfc01015 	stw	ra,64(sp)
 800d348:	d9c00315 	stw	r7,12(sp)
 800d34c:	800dd3c0 	call	800dd3c <__unpack_d>
 800d350:	d9000204 	addi	r4,sp,8
 800d354:	800b883a 	mov	r5,r16
 800d358:	800dd3c0 	call	800dd3c <__unpack_d>
 800d35c:	d8800417 	ldw	r2,16(sp)
 800d360:	00c00044 	movi	r3,1
 800d364:	180d883a 	mov	r6,r3
 800d368:	1880062e 	bgeu	r3,r2,800d384 <__ltdf2+0x70>
 800d36c:	d8800917 	ldw	r2,36(sp)
 800d370:	8809883a 	mov	r4,r17
 800d374:	800b883a 	mov	r5,r16
 800d378:	1880022e 	bgeu	r3,r2,800d384 <__ltdf2+0x70>
 800d37c:	800de740 	call	800de74 <__fpcmp_parts_d>
 800d380:	100d883a 	mov	r6,r2
 800d384:	3005883a 	mov	r2,r6
 800d388:	dfc01017 	ldw	ra,64(sp)
 800d38c:	dc400f17 	ldw	r17,60(sp)
 800d390:	dc000e17 	ldw	r16,56(sp)
 800d394:	dec01104 	addi	sp,sp,68
 800d398:	f800283a 	ret

0800d39c <__floatsidf>:
 800d39c:	2006d7fa 	srli	r3,r4,31
 800d3a0:	defff604 	addi	sp,sp,-40
 800d3a4:	008000c4 	movi	r2,3
 800d3a8:	dfc00915 	stw	ra,36(sp)
 800d3ac:	dcc00815 	stw	r19,32(sp)
 800d3b0:	dc800715 	stw	r18,28(sp)
 800d3b4:	dc400615 	stw	r17,24(sp)
 800d3b8:	dc000515 	stw	r16,20(sp)
 800d3bc:	d8800015 	stw	r2,0(sp)
 800d3c0:	d8c00115 	stw	r3,4(sp)
 800d3c4:	20000f1e 	bne	r4,zero,800d404 <__floatsidf+0x68>
 800d3c8:	00800084 	movi	r2,2
 800d3cc:	d8800015 	stw	r2,0(sp)
 800d3d0:	d809883a 	mov	r4,sp
 800d3d4:	800da280 	call	800da28 <__pack_d>
 800d3d8:	1009883a 	mov	r4,r2
 800d3dc:	180b883a 	mov	r5,r3
 800d3e0:	2005883a 	mov	r2,r4
 800d3e4:	2807883a 	mov	r3,r5
 800d3e8:	dfc00917 	ldw	ra,36(sp)
 800d3ec:	dcc00817 	ldw	r19,32(sp)
 800d3f0:	dc800717 	ldw	r18,28(sp)
 800d3f4:	dc400617 	ldw	r17,24(sp)
 800d3f8:	dc000517 	ldw	r16,20(sp)
 800d3fc:	dec00a04 	addi	sp,sp,40
 800d400:	f800283a 	ret
 800d404:	00800f04 	movi	r2,60
 800d408:	1807003a 	cmpeq	r3,r3,zero
 800d40c:	d8800215 	stw	r2,8(sp)
 800d410:	18001126 	beq	r3,zero,800d458 <__floatsidf+0xbc>
 800d414:	0027883a 	mov	r19,zero
 800d418:	2025883a 	mov	r18,r4
 800d41c:	d9000315 	stw	r4,12(sp)
 800d420:	dcc00415 	stw	r19,16(sp)
 800d424:	800d9a80 	call	800d9a8 <__clzsi2>
 800d428:	11000744 	addi	r4,r2,29
 800d42c:	013fe80e 	bge	zero,r4,800d3d0 <__floatsidf+0x34>
 800d430:	10bfff44 	addi	r2,r2,-3
 800d434:	10000c16 	blt	r2,zero,800d468 <__floatsidf+0xcc>
 800d438:	90a2983a 	sll	r17,r18,r2
 800d43c:	0021883a 	mov	r16,zero
 800d440:	d8800217 	ldw	r2,8(sp)
 800d444:	dc400415 	stw	r17,16(sp)
 800d448:	dc000315 	stw	r16,12(sp)
 800d44c:	1105c83a 	sub	r2,r2,r4
 800d450:	d8800215 	stw	r2,8(sp)
 800d454:	003fde06 	br	800d3d0 <__floatsidf+0x34>
 800d458:	00a00034 	movhi	r2,32768
 800d45c:	20800a26 	beq	r4,r2,800d488 <__floatsidf+0xec>
 800d460:	0109c83a 	sub	r4,zero,r4
 800d464:	003feb06 	br	800d414 <__floatsidf+0x78>
 800d468:	9006d07a 	srli	r3,r18,1
 800d46c:	008007c4 	movi	r2,31
 800d470:	1105c83a 	sub	r2,r2,r4
 800d474:	1886d83a 	srl	r3,r3,r2
 800d478:	9922983a 	sll	r17,r19,r4
 800d47c:	9120983a 	sll	r16,r18,r4
 800d480:	1c62b03a 	or	r17,r3,r17
 800d484:	003fee06 	br	800d440 <__floatsidf+0xa4>
 800d488:	0009883a 	mov	r4,zero
 800d48c:	01707834 	movhi	r5,49632
 800d490:	003fd306 	br	800d3e0 <__floatsidf+0x44>

0800d494 <__fixdfsi>:
 800d494:	defff804 	addi	sp,sp,-32
 800d498:	2005883a 	mov	r2,r4
 800d49c:	2807883a 	mov	r3,r5
 800d4a0:	d809883a 	mov	r4,sp
 800d4a4:	d9400204 	addi	r5,sp,8
 800d4a8:	d8c00115 	stw	r3,4(sp)
 800d4ac:	d8800015 	stw	r2,0(sp)
 800d4b0:	dfc00715 	stw	ra,28(sp)
 800d4b4:	800dd3c0 	call	800dd3c <__unpack_d>
 800d4b8:	d8c00217 	ldw	r3,8(sp)
 800d4bc:	00800084 	movi	r2,2
 800d4c0:	1880051e 	bne	r3,r2,800d4d8 <__fixdfsi+0x44>
 800d4c4:	0007883a 	mov	r3,zero
 800d4c8:	1805883a 	mov	r2,r3
 800d4cc:	dfc00717 	ldw	ra,28(sp)
 800d4d0:	dec00804 	addi	sp,sp,32
 800d4d4:	f800283a 	ret
 800d4d8:	00800044 	movi	r2,1
 800d4dc:	10fff92e 	bgeu	r2,r3,800d4c4 <__fixdfsi+0x30>
 800d4e0:	00800104 	movi	r2,4
 800d4e4:	18800426 	beq	r3,r2,800d4f8 <__fixdfsi+0x64>
 800d4e8:	d8c00417 	ldw	r3,16(sp)
 800d4ec:	183ff516 	blt	r3,zero,800d4c4 <__fixdfsi+0x30>
 800d4f0:	00800784 	movi	r2,30
 800d4f4:	10c0080e 	bge	r2,r3,800d518 <__fixdfsi+0x84>
 800d4f8:	d8800317 	ldw	r2,12(sp)
 800d4fc:	1000121e 	bne	r2,zero,800d548 <__fixdfsi+0xb4>
 800d500:	00e00034 	movhi	r3,32768
 800d504:	18ffffc4 	addi	r3,r3,-1
 800d508:	1805883a 	mov	r2,r3
 800d50c:	dfc00717 	ldw	ra,28(sp)
 800d510:	dec00804 	addi	sp,sp,32
 800d514:	f800283a 	ret
 800d518:	00800f04 	movi	r2,60
 800d51c:	10d1c83a 	sub	r8,r2,r3
 800d520:	40bff804 	addi	r2,r8,-32
 800d524:	d9800517 	ldw	r6,20(sp)
 800d528:	d9c00617 	ldw	r7,24(sp)
 800d52c:	10000816 	blt	r2,zero,800d550 <__fixdfsi+0xbc>
 800d530:	3888d83a 	srl	r4,r7,r2
 800d534:	d8800317 	ldw	r2,12(sp)
 800d538:	2007883a 	mov	r3,r4
 800d53c:	103fe226 	beq	r2,zero,800d4c8 <__fixdfsi+0x34>
 800d540:	0107c83a 	sub	r3,zero,r4
 800d544:	003fe006 	br	800d4c8 <__fixdfsi+0x34>
 800d548:	00e00034 	movhi	r3,32768
 800d54c:	003fde06 	br	800d4c8 <__fixdfsi+0x34>
 800d550:	39c7883a 	add	r3,r7,r7
 800d554:	008007c4 	movi	r2,31
 800d558:	1205c83a 	sub	r2,r2,r8
 800d55c:	1886983a 	sll	r3,r3,r2
 800d560:	3208d83a 	srl	r4,r6,r8
 800d564:	1908b03a 	or	r4,r3,r4
 800d568:	003ff206 	br	800d534 <__fixdfsi+0xa0>

0800d56c <__floatunsidf>:
 800d56c:	defff204 	addi	sp,sp,-56
 800d570:	dfc00d15 	stw	ra,52(sp)
 800d574:	ddc00c15 	stw	r23,48(sp)
 800d578:	dd800b15 	stw	r22,44(sp)
 800d57c:	dd400a15 	stw	r21,40(sp)
 800d580:	dd000915 	stw	r20,36(sp)
 800d584:	dcc00815 	stw	r19,32(sp)
 800d588:	dc800715 	stw	r18,28(sp)
 800d58c:	dc400615 	stw	r17,24(sp)
 800d590:	dc000515 	stw	r16,20(sp)
 800d594:	d8000115 	stw	zero,4(sp)
 800d598:	20000f1e 	bne	r4,zero,800d5d8 <__floatunsidf+0x6c>
 800d59c:	00800084 	movi	r2,2
 800d5a0:	d8800015 	stw	r2,0(sp)
 800d5a4:	d809883a 	mov	r4,sp
 800d5a8:	800da280 	call	800da28 <__pack_d>
 800d5ac:	dfc00d17 	ldw	ra,52(sp)
 800d5b0:	ddc00c17 	ldw	r23,48(sp)
 800d5b4:	dd800b17 	ldw	r22,44(sp)
 800d5b8:	dd400a17 	ldw	r21,40(sp)
 800d5bc:	dd000917 	ldw	r20,36(sp)
 800d5c0:	dcc00817 	ldw	r19,32(sp)
 800d5c4:	dc800717 	ldw	r18,28(sp)
 800d5c8:	dc400617 	ldw	r17,24(sp)
 800d5cc:	dc000517 	ldw	r16,20(sp)
 800d5d0:	dec00e04 	addi	sp,sp,56
 800d5d4:	f800283a 	ret
 800d5d8:	008000c4 	movi	r2,3
 800d5dc:	00c00f04 	movi	r3,60
 800d5e0:	002f883a 	mov	r23,zero
 800d5e4:	202d883a 	mov	r22,r4
 800d5e8:	d8800015 	stw	r2,0(sp)
 800d5ec:	d8c00215 	stw	r3,8(sp)
 800d5f0:	d9000315 	stw	r4,12(sp)
 800d5f4:	ddc00415 	stw	r23,16(sp)
 800d5f8:	800d9a80 	call	800d9a8 <__clzsi2>
 800d5fc:	12400744 	addi	r9,r2,29
 800d600:	48000b16 	blt	r9,zero,800d630 <__floatunsidf+0xc4>
 800d604:	483fe726 	beq	r9,zero,800d5a4 <__floatunsidf+0x38>
 800d608:	10bfff44 	addi	r2,r2,-3
 800d60c:	10002e16 	blt	r2,zero,800d6c8 <__floatunsidf+0x15c>
 800d610:	b0a2983a 	sll	r17,r22,r2
 800d614:	0021883a 	mov	r16,zero
 800d618:	d8800217 	ldw	r2,8(sp)
 800d61c:	dc400415 	stw	r17,16(sp)
 800d620:	dc000315 	stw	r16,12(sp)
 800d624:	1245c83a 	sub	r2,r2,r9
 800d628:	d8800215 	stw	r2,8(sp)
 800d62c:	003fdd06 	br	800d5a4 <__floatunsidf+0x38>
 800d630:	0255c83a 	sub	r10,zero,r9
 800d634:	51bff804 	addi	r6,r10,-32
 800d638:	30001b16 	blt	r6,zero,800d6a8 <__floatunsidf+0x13c>
 800d63c:	b9a8d83a 	srl	r20,r23,r6
 800d640:	002b883a 	mov	r21,zero
 800d644:	000f883a 	mov	r7,zero
 800d648:	01000044 	movi	r4,1
 800d64c:	0011883a 	mov	r8,zero
 800d650:	30002516 	blt	r6,zero,800d6e8 <__floatunsidf+0x17c>
 800d654:	21a6983a 	sll	r19,r4,r6
 800d658:	0025883a 	mov	r18,zero
 800d65c:	00bfffc4 	movi	r2,-1
 800d660:	9089883a 	add	r4,r18,r2
 800d664:	988b883a 	add	r5,r19,r2
 800d668:	248d803a 	cmpltu	r6,r4,r18
 800d66c:	314b883a 	add	r5,r6,r5
 800d670:	b104703a 	and	r2,r22,r4
 800d674:	b946703a 	and	r3,r23,r5
 800d678:	10c4b03a 	or	r2,r2,r3
 800d67c:	10000226 	beq	r2,zero,800d688 <__floatunsidf+0x11c>
 800d680:	01c00044 	movi	r7,1
 800d684:	0011883a 	mov	r8,zero
 800d688:	d9000217 	ldw	r4,8(sp)
 800d68c:	a1c4b03a 	or	r2,r20,r7
 800d690:	aa06b03a 	or	r3,r21,r8
 800d694:	2249c83a 	sub	r4,r4,r9
 800d698:	d8c00415 	stw	r3,16(sp)
 800d69c:	d9000215 	stw	r4,8(sp)
 800d6a0:	d8800315 	stw	r2,12(sp)
 800d6a4:	003fbf06 	br	800d5a4 <__floatunsidf+0x38>
 800d6a8:	bdc7883a 	add	r3,r23,r23
 800d6ac:	008007c4 	movi	r2,31
 800d6b0:	1285c83a 	sub	r2,r2,r10
 800d6b4:	1886983a 	sll	r3,r3,r2
 800d6b8:	b2a8d83a 	srl	r20,r22,r10
 800d6bc:	baaad83a 	srl	r21,r23,r10
 800d6c0:	1d28b03a 	or	r20,r3,r20
 800d6c4:	003fdf06 	br	800d644 <__floatunsidf+0xd8>
 800d6c8:	b006d07a 	srli	r3,r22,1
 800d6cc:	008007c4 	movi	r2,31
 800d6d0:	1245c83a 	sub	r2,r2,r9
 800d6d4:	1886d83a 	srl	r3,r3,r2
 800d6d8:	ba62983a 	sll	r17,r23,r9
 800d6dc:	b260983a 	sll	r16,r22,r9
 800d6e0:	1c62b03a 	or	r17,r3,r17
 800d6e4:	003fcc06 	br	800d618 <__floatunsidf+0xac>
 800d6e8:	2006d07a 	srli	r3,r4,1
 800d6ec:	008007c4 	movi	r2,31
 800d6f0:	1285c83a 	sub	r2,r2,r10
 800d6f4:	18a6d83a 	srl	r19,r3,r2
 800d6f8:	22a4983a 	sll	r18,r4,r10
 800d6fc:	003fd706 	br	800d65c <__floatunsidf+0xf0>

0800d700 <udivmodsi4>:
 800d700:	29001b2e 	bgeu	r5,r4,800d770 <udivmodsi4+0x70>
 800d704:	28001a16 	blt	r5,zero,800d770 <udivmodsi4+0x70>
 800d708:	00800044 	movi	r2,1
 800d70c:	0007883a 	mov	r3,zero
 800d710:	01c007c4 	movi	r7,31
 800d714:	00000306 	br	800d724 <udivmodsi4+0x24>
 800d718:	19c01326 	beq	r3,r7,800d768 <udivmodsi4+0x68>
 800d71c:	18c00044 	addi	r3,r3,1
 800d720:	28000416 	blt	r5,zero,800d734 <udivmodsi4+0x34>
 800d724:	294b883a 	add	r5,r5,r5
 800d728:	1085883a 	add	r2,r2,r2
 800d72c:	293ffa36 	bltu	r5,r4,800d718 <udivmodsi4+0x18>
 800d730:	10000d26 	beq	r2,zero,800d768 <udivmodsi4+0x68>
 800d734:	0007883a 	mov	r3,zero
 800d738:	21400236 	bltu	r4,r5,800d744 <udivmodsi4+0x44>
 800d73c:	2149c83a 	sub	r4,r4,r5
 800d740:	1886b03a 	or	r3,r3,r2
 800d744:	1004d07a 	srli	r2,r2,1
 800d748:	280ad07a 	srli	r5,r5,1
 800d74c:	103ffa1e 	bne	r2,zero,800d738 <udivmodsi4+0x38>
 800d750:	30000226 	beq	r6,zero,800d75c <udivmodsi4+0x5c>
 800d754:	2005883a 	mov	r2,r4
 800d758:	f800283a 	ret
 800d75c:	1809883a 	mov	r4,r3
 800d760:	2005883a 	mov	r2,r4
 800d764:	f800283a 	ret
 800d768:	0007883a 	mov	r3,zero
 800d76c:	003ff806 	br	800d750 <udivmodsi4+0x50>
 800d770:	00800044 	movi	r2,1
 800d774:	0007883a 	mov	r3,zero
 800d778:	003fef06 	br	800d738 <udivmodsi4+0x38>

0800d77c <__divsi3>:
 800d77c:	defffe04 	addi	sp,sp,-8
 800d780:	dc000015 	stw	r16,0(sp)
 800d784:	dfc00115 	stw	ra,4(sp)
 800d788:	0021883a 	mov	r16,zero
 800d78c:	20000c16 	blt	r4,zero,800d7c0 <__divsi3+0x44>
 800d790:	000d883a 	mov	r6,zero
 800d794:	28000e16 	blt	r5,zero,800d7d0 <__divsi3+0x54>
 800d798:	800d7000 	call	800d700 <udivmodsi4>
 800d79c:	1007883a 	mov	r3,r2
 800d7a0:	8005003a 	cmpeq	r2,r16,zero
 800d7a4:	1000011e 	bne	r2,zero,800d7ac <__divsi3+0x30>
 800d7a8:	00c7c83a 	sub	r3,zero,r3
 800d7ac:	1805883a 	mov	r2,r3
 800d7b0:	dfc00117 	ldw	ra,4(sp)
 800d7b4:	dc000017 	ldw	r16,0(sp)
 800d7b8:	dec00204 	addi	sp,sp,8
 800d7bc:	f800283a 	ret
 800d7c0:	0109c83a 	sub	r4,zero,r4
 800d7c4:	04000044 	movi	r16,1
 800d7c8:	000d883a 	mov	r6,zero
 800d7cc:	283ff20e 	bge	r5,zero,800d798 <__divsi3+0x1c>
 800d7d0:	014bc83a 	sub	r5,zero,r5
 800d7d4:	8021003a 	cmpeq	r16,r16,zero
 800d7d8:	003fef06 	br	800d798 <__divsi3+0x1c>

0800d7dc <__modsi3>:
 800d7dc:	deffff04 	addi	sp,sp,-4
 800d7e0:	dfc00015 	stw	ra,0(sp)
 800d7e4:	01800044 	movi	r6,1
 800d7e8:	2807883a 	mov	r3,r5
 800d7ec:	20000416 	blt	r4,zero,800d800 <__modsi3+0x24>
 800d7f0:	28000c16 	blt	r5,zero,800d824 <__modsi3+0x48>
 800d7f4:	dfc00017 	ldw	ra,0(sp)
 800d7f8:	dec00104 	addi	sp,sp,4
 800d7fc:	800d7001 	jmpi	800d700 <udivmodsi4>
 800d800:	0109c83a 	sub	r4,zero,r4
 800d804:	28000b16 	blt	r5,zero,800d834 <__modsi3+0x58>
 800d808:	180b883a 	mov	r5,r3
 800d80c:	01800044 	movi	r6,1
 800d810:	800d7000 	call	800d700 <udivmodsi4>
 800d814:	0085c83a 	sub	r2,zero,r2
 800d818:	dfc00017 	ldw	ra,0(sp)
 800d81c:	dec00104 	addi	sp,sp,4
 800d820:	f800283a 	ret
 800d824:	014bc83a 	sub	r5,zero,r5
 800d828:	dfc00017 	ldw	ra,0(sp)
 800d82c:	dec00104 	addi	sp,sp,4
 800d830:	800d7001 	jmpi	800d700 <udivmodsi4>
 800d834:	0147c83a 	sub	r3,zero,r5
 800d838:	003ff306 	br	800d808 <__modsi3+0x2c>

0800d83c <__udivsi3>:
 800d83c:	000d883a 	mov	r6,zero
 800d840:	800d7001 	jmpi	800d700 <udivmodsi4>

0800d844 <__umodsi3>:
 800d844:	01800044 	movi	r6,1
 800d848:	800d7001 	jmpi	800d700 <udivmodsi4>

0800d84c <__mulsi3>:
 800d84c:	20000a26 	beq	r4,zero,800d878 <__mulsi3+0x2c>
 800d850:	0007883a 	mov	r3,zero
 800d854:	2080004c 	andi	r2,r4,1
 800d858:	1005003a 	cmpeq	r2,r2,zero
 800d85c:	2008d07a 	srli	r4,r4,1
 800d860:	1000011e 	bne	r2,zero,800d868 <__mulsi3+0x1c>
 800d864:	1947883a 	add	r3,r3,r5
 800d868:	294b883a 	add	r5,r5,r5
 800d86c:	203ff91e 	bne	r4,zero,800d854 <__mulsi3+0x8>
 800d870:	1805883a 	mov	r2,r3
 800d874:	f800283a 	ret
 800d878:	0007883a 	mov	r3,zero
 800d87c:	1805883a 	mov	r2,r3
 800d880:	f800283a 	ret

0800d884 <__muldi3>:
 800d884:	defff204 	addi	sp,sp,-56
 800d888:	df000c15 	stw	fp,48(sp)
 800d88c:	3038d43a 	srli	fp,r6,16
 800d890:	dd000815 	stw	r20,32(sp)
 800d894:	dc400515 	stw	r17,20(sp)
 800d898:	2028d43a 	srli	r20,r4,16
 800d89c:	247fffcc 	andi	r17,r4,65535
 800d8a0:	dc000415 	stw	r16,16(sp)
 800d8a4:	343fffcc 	andi	r16,r6,65535
 800d8a8:	dcc00715 	stw	r19,28(sp)
 800d8ac:	d9000015 	stw	r4,0(sp)
 800d8b0:	2827883a 	mov	r19,r5
 800d8b4:	8809883a 	mov	r4,r17
 800d8b8:	d9400115 	stw	r5,4(sp)
 800d8bc:	800b883a 	mov	r5,r16
 800d8c0:	d9800215 	stw	r6,8(sp)
 800d8c4:	dfc00d15 	stw	ra,52(sp)
 800d8c8:	d9c00315 	stw	r7,12(sp)
 800d8cc:	dd800a15 	stw	r22,40(sp)
 800d8d0:	dd400915 	stw	r21,36(sp)
 800d8d4:	302d883a 	mov	r22,r6
 800d8d8:	ddc00b15 	stw	r23,44(sp)
 800d8dc:	dc800615 	stw	r18,24(sp)
 800d8e0:	800d84c0 	call	800d84c <__mulsi3>
 800d8e4:	8809883a 	mov	r4,r17
 800d8e8:	e00b883a 	mov	r5,fp
 800d8ec:	102b883a 	mov	r21,r2
 800d8f0:	800d84c0 	call	800d84c <__mulsi3>
 800d8f4:	800b883a 	mov	r5,r16
 800d8f8:	a009883a 	mov	r4,r20
 800d8fc:	1023883a 	mov	r17,r2
 800d900:	800d84c0 	call	800d84c <__mulsi3>
 800d904:	a009883a 	mov	r4,r20
 800d908:	e00b883a 	mov	r5,fp
 800d90c:	1021883a 	mov	r16,r2
 800d910:	800d84c0 	call	800d84c <__mulsi3>
 800d914:	a8ffffcc 	andi	r3,r21,65535
 800d918:	a82ad43a 	srli	r21,r21,16
 800d91c:	8c23883a 	add	r17,r17,r16
 800d920:	1011883a 	mov	r8,r2
 800d924:	ac6b883a 	add	r21,r21,r17
 800d928:	a804943a 	slli	r2,r21,16
 800d92c:	b009883a 	mov	r4,r22
 800d930:	980b883a 	mov	r5,r19
 800d934:	10c7883a 	add	r3,r2,r3
 800d938:	a812d43a 	srli	r9,r21,16
 800d93c:	180d883a 	mov	r6,r3
 800d940:	ac00022e 	bgeu	r21,r16,800d94c <__muldi3+0xc8>
 800d944:	00800074 	movhi	r2,1
 800d948:	4091883a 	add	r8,r8,r2
 800d94c:	4267883a 	add	r19,r8,r9
 800d950:	302d883a 	mov	r22,r6
 800d954:	800d84c0 	call	800d84c <__mulsi3>
 800d958:	d9400317 	ldw	r5,12(sp)
 800d95c:	d9000017 	ldw	r4,0(sp)
 800d960:	1023883a 	mov	r17,r2
 800d964:	800d84c0 	call	800d84c <__mulsi3>
 800d968:	14cb883a 	add	r5,r2,r19
 800d96c:	894b883a 	add	r5,r17,r5
 800d970:	b005883a 	mov	r2,r22
 800d974:	2807883a 	mov	r3,r5
 800d978:	dfc00d17 	ldw	ra,52(sp)
 800d97c:	df000c17 	ldw	fp,48(sp)
 800d980:	ddc00b17 	ldw	r23,44(sp)
 800d984:	dd800a17 	ldw	r22,40(sp)
 800d988:	dd400917 	ldw	r21,36(sp)
 800d98c:	dd000817 	ldw	r20,32(sp)
 800d990:	dcc00717 	ldw	r19,28(sp)
 800d994:	dc800617 	ldw	r18,24(sp)
 800d998:	dc400517 	ldw	r17,20(sp)
 800d99c:	dc000417 	ldw	r16,16(sp)
 800d9a0:	dec00e04 	addi	sp,sp,56
 800d9a4:	f800283a 	ret

0800d9a8 <__clzsi2>:
 800d9a8:	00bfffd4 	movui	r2,65535
 800d9ac:	11000e36 	bltu	r2,r4,800d9e8 <__clzsi2+0x40>
 800d9b0:	00803fc4 	movi	r2,255
 800d9b4:	01400204 	movi	r5,8
 800d9b8:	0007883a 	mov	r3,zero
 800d9bc:	11001036 	bltu	r2,r4,800da00 <__clzsi2+0x58>
 800d9c0:	000b883a 	mov	r5,zero
 800d9c4:	20c6d83a 	srl	r3,r4,r3
 800d9c8:	00820074 	movhi	r2,2049
 800d9cc:	10949904 	addi	r2,r2,21092
 800d9d0:	1887883a 	add	r3,r3,r2
 800d9d4:	18800003 	ldbu	r2,0(r3)
 800d9d8:	00c00804 	movi	r3,32
 800d9dc:	2885883a 	add	r2,r5,r2
 800d9e0:	1885c83a 	sub	r2,r3,r2
 800d9e4:	f800283a 	ret
 800d9e8:	01400404 	movi	r5,16
 800d9ec:	00804034 	movhi	r2,256
 800d9f0:	10bfffc4 	addi	r2,r2,-1
 800d9f4:	2807883a 	mov	r3,r5
 800d9f8:	113ff22e 	bgeu	r2,r4,800d9c4 <__clzsi2+0x1c>
 800d9fc:	01400604 	movi	r5,24
 800da00:	2807883a 	mov	r3,r5
 800da04:	20c6d83a 	srl	r3,r4,r3
 800da08:	00820074 	movhi	r2,2049
 800da0c:	10949904 	addi	r2,r2,21092
 800da10:	1887883a 	add	r3,r3,r2
 800da14:	18800003 	ldbu	r2,0(r3)
 800da18:	00c00804 	movi	r3,32
 800da1c:	2885883a 	add	r2,r5,r2
 800da20:	1885c83a 	sub	r2,r3,r2
 800da24:	f800283a 	ret

0800da28 <__pack_d>:
 800da28:	20c00017 	ldw	r3,0(r4)
 800da2c:	defffd04 	addi	sp,sp,-12
 800da30:	dc000015 	stw	r16,0(sp)
 800da34:	dc800215 	stw	r18,8(sp)
 800da38:	dc400115 	stw	r17,4(sp)
 800da3c:	00800044 	movi	r2,1
 800da40:	22000317 	ldw	r8,12(r4)
 800da44:	001f883a 	mov	r15,zero
 800da48:	22400417 	ldw	r9,16(r4)
 800da4c:	24000117 	ldw	r16,4(r4)
 800da50:	10c0552e 	bgeu	r2,r3,800dba8 <__pack_d+0x180>
 800da54:	00800104 	movi	r2,4
 800da58:	18804f26 	beq	r3,r2,800db98 <__pack_d+0x170>
 800da5c:	00800084 	movi	r2,2
 800da60:	18800226 	beq	r3,r2,800da6c <__pack_d+0x44>
 800da64:	4244b03a 	or	r2,r8,r9
 800da68:	10001a1e 	bne	r2,zero,800dad4 <__pack_d+0xac>
 800da6c:	000d883a 	mov	r6,zero
 800da70:	000f883a 	mov	r7,zero
 800da74:	0011883a 	mov	r8,zero
 800da78:	00800434 	movhi	r2,16
 800da7c:	10bfffc4 	addi	r2,r2,-1
 800da80:	301d883a 	mov	r14,r6
 800da84:	3884703a 	and	r2,r7,r2
 800da88:	400a953a 	slli	r5,r8,20
 800da8c:	79bffc2c 	andhi	r6,r15,65520
 800da90:	308cb03a 	or	r6,r6,r2
 800da94:	00e00434 	movhi	r3,32784
 800da98:	18ffffc4 	addi	r3,r3,-1
 800da9c:	800497fa 	slli	r2,r16,31
 800daa0:	30c6703a 	and	r3,r6,r3
 800daa4:	1946b03a 	or	r3,r3,r5
 800daa8:	01600034 	movhi	r5,32768
 800daac:	297fffc4 	addi	r5,r5,-1
 800dab0:	194a703a 	and	r5,r3,r5
 800dab4:	288ab03a 	or	r5,r5,r2
 800dab8:	2807883a 	mov	r3,r5
 800dabc:	7005883a 	mov	r2,r14
 800dac0:	dc800217 	ldw	r18,8(sp)
 800dac4:	dc400117 	ldw	r17,4(sp)
 800dac8:	dc000017 	ldw	r16,0(sp)
 800dacc:	dec00304 	addi	sp,sp,12
 800dad0:	f800283a 	ret
 800dad4:	21000217 	ldw	r4,8(r4)
 800dad8:	00bf0084 	movi	r2,-1022
 800dadc:	20803f16 	blt	r4,r2,800dbdc <__pack_d+0x1b4>
 800dae0:	0080ffc4 	movi	r2,1023
 800dae4:	11002c16 	blt	r2,r4,800db98 <__pack_d+0x170>
 800dae8:	00803fc4 	movi	r2,255
 800daec:	408c703a 	and	r6,r8,r2
 800daf0:	00802004 	movi	r2,128
 800daf4:	0007883a 	mov	r3,zero
 800daf8:	000f883a 	mov	r7,zero
 800dafc:	2280ffc4 	addi	r10,r4,1023
 800db00:	30801e26 	beq	r6,r2,800db7c <__pack_d+0x154>
 800db04:	00801fc4 	movi	r2,127
 800db08:	4089883a 	add	r4,r8,r2
 800db0c:	220d803a 	cmpltu	r6,r4,r8
 800db10:	324d883a 	add	r6,r6,r9
 800db14:	2011883a 	mov	r8,r4
 800db18:	3013883a 	mov	r9,r6
 800db1c:	00880034 	movhi	r2,8192
 800db20:	10bfffc4 	addi	r2,r2,-1
 800db24:	12400d36 	bltu	r2,r9,800db5c <__pack_d+0x134>
 800db28:	4804963a 	slli	r2,r9,24
 800db2c:	400cd23a 	srli	r6,r8,8
 800db30:	480ed23a 	srli	r7,r9,8
 800db34:	013fffc4 	movi	r4,-1
 800db38:	118cb03a 	or	r6,r2,r6
 800db3c:	01400434 	movhi	r5,16
 800db40:	297fffc4 	addi	r5,r5,-1
 800db44:	3104703a 	and	r2,r6,r4
 800db48:	3946703a 	and	r3,r7,r5
 800db4c:	5201ffcc 	andi	r8,r10,2047
 800db50:	100d883a 	mov	r6,r2
 800db54:	180f883a 	mov	r7,r3
 800db58:	003fc706 	br	800da78 <__pack_d+0x50>
 800db5c:	480897fa 	slli	r4,r9,31
 800db60:	4004d07a 	srli	r2,r8,1
 800db64:	4806d07a 	srli	r3,r9,1
 800db68:	52800044 	addi	r10,r10,1
 800db6c:	2084b03a 	or	r2,r4,r2
 800db70:	1011883a 	mov	r8,r2
 800db74:	1813883a 	mov	r9,r3
 800db78:	003feb06 	br	800db28 <__pack_d+0x100>
 800db7c:	383fe11e 	bne	r7,zero,800db04 <__pack_d+0xdc>
 800db80:	01004004 	movi	r4,256
 800db84:	4104703a 	and	r2,r8,r4
 800db88:	10c4b03a 	or	r2,r2,r3
 800db8c:	103fe326 	beq	r2,zero,800db1c <__pack_d+0xf4>
 800db90:	3005883a 	mov	r2,r6
 800db94:	003fdc06 	br	800db08 <__pack_d+0xe0>
 800db98:	000d883a 	mov	r6,zero
 800db9c:	000f883a 	mov	r7,zero
 800dba0:	0201ffc4 	movi	r8,2047
 800dba4:	003fb406 	br	800da78 <__pack_d+0x50>
 800dba8:	0005883a 	mov	r2,zero
 800dbac:	00c00234 	movhi	r3,8
 800dbb0:	408cb03a 	or	r6,r8,r2
 800dbb4:	48ceb03a 	or	r7,r9,r3
 800dbb8:	013fffc4 	movi	r4,-1
 800dbbc:	01400434 	movhi	r5,16
 800dbc0:	297fffc4 	addi	r5,r5,-1
 800dbc4:	3104703a 	and	r2,r6,r4
 800dbc8:	3946703a 	and	r3,r7,r5
 800dbcc:	100d883a 	mov	r6,r2
 800dbd0:	180f883a 	mov	r7,r3
 800dbd4:	0201ffc4 	movi	r8,2047
 800dbd8:	003fa706 	br	800da78 <__pack_d+0x50>
 800dbdc:	1109c83a 	sub	r4,r2,r4
 800dbe0:	00800e04 	movi	r2,56
 800dbe4:	11004316 	blt	r2,r4,800dcf4 <__pack_d+0x2cc>
 800dbe8:	21fff804 	addi	r7,r4,-32
 800dbec:	38004516 	blt	r7,zero,800dd04 <__pack_d+0x2dc>
 800dbf0:	49d8d83a 	srl	r12,r9,r7
 800dbf4:	001b883a 	mov	r13,zero
 800dbf8:	0023883a 	mov	r17,zero
 800dbfc:	01400044 	movi	r5,1
 800dc00:	0025883a 	mov	r18,zero
 800dc04:	38004716 	blt	r7,zero,800dd24 <__pack_d+0x2fc>
 800dc08:	29d6983a 	sll	r11,r5,r7
 800dc0c:	0015883a 	mov	r10,zero
 800dc10:	00bfffc4 	movi	r2,-1
 800dc14:	5089883a 	add	r4,r10,r2
 800dc18:	588b883a 	add	r5,r11,r2
 800dc1c:	228d803a 	cmpltu	r6,r4,r10
 800dc20:	314b883a 	add	r5,r6,r5
 800dc24:	4104703a 	and	r2,r8,r4
 800dc28:	4946703a 	and	r3,r9,r5
 800dc2c:	10c4b03a 	or	r2,r2,r3
 800dc30:	10000226 	beq	r2,zero,800dc3c <__pack_d+0x214>
 800dc34:	04400044 	movi	r17,1
 800dc38:	0025883a 	mov	r18,zero
 800dc3c:	00803fc4 	movi	r2,255
 800dc40:	644eb03a 	or	r7,r12,r17
 800dc44:	3892703a 	and	r9,r7,r2
 800dc48:	00802004 	movi	r2,128
 800dc4c:	6c90b03a 	or	r8,r13,r18
 800dc50:	0015883a 	mov	r10,zero
 800dc54:	48801626 	beq	r9,r2,800dcb0 <__pack_d+0x288>
 800dc58:	01001fc4 	movi	r4,127
 800dc5c:	3905883a 	add	r2,r7,r4
 800dc60:	11cd803a 	cmpltu	r6,r2,r7
 800dc64:	320d883a 	add	r6,r6,r8
 800dc68:	100f883a 	mov	r7,r2
 800dc6c:	00840034 	movhi	r2,4096
 800dc70:	10bfffc4 	addi	r2,r2,-1
 800dc74:	3011883a 	mov	r8,r6
 800dc78:	0007883a 	mov	r3,zero
 800dc7c:	11801b36 	bltu	r2,r6,800dcec <__pack_d+0x2c4>
 800dc80:	4004963a 	slli	r2,r8,24
 800dc84:	3808d23a 	srli	r4,r7,8
 800dc88:	400ad23a 	srli	r5,r8,8
 800dc8c:	1813883a 	mov	r9,r3
 800dc90:	1108b03a 	or	r4,r2,r4
 800dc94:	00bfffc4 	movi	r2,-1
 800dc98:	00c00434 	movhi	r3,16
 800dc9c:	18ffffc4 	addi	r3,r3,-1
 800dca0:	208c703a 	and	r6,r4,r2
 800dca4:	28ce703a 	and	r7,r5,r3
 800dca8:	4a01ffcc 	andi	r8,r9,2047
 800dcac:	003f7206 	br	800da78 <__pack_d+0x50>
 800dcb0:	503fe91e 	bne	r10,zero,800dc58 <__pack_d+0x230>
 800dcb4:	01004004 	movi	r4,256
 800dcb8:	3904703a 	and	r2,r7,r4
 800dcbc:	0007883a 	mov	r3,zero
 800dcc0:	10c4b03a 	or	r2,r2,r3
 800dcc4:	10000626 	beq	r2,zero,800dce0 <__pack_d+0x2b8>
 800dcc8:	3a45883a 	add	r2,r7,r9
 800dccc:	11cd803a 	cmpltu	r6,r2,r7
 800dcd0:	320d883a 	add	r6,r6,r8
 800dcd4:	100f883a 	mov	r7,r2
 800dcd8:	3011883a 	mov	r8,r6
 800dcdc:	0007883a 	mov	r3,zero
 800dce0:	00840034 	movhi	r2,4096
 800dce4:	10bfffc4 	addi	r2,r2,-1
 800dce8:	123fe52e 	bgeu	r2,r8,800dc80 <__pack_d+0x258>
 800dcec:	00c00044 	movi	r3,1
 800dcf0:	003fe306 	br	800dc80 <__pack_d+0x258>
 800dcf4:	0009883a 	mov	r4,zero
 800dcf8:	0013883a 	mov	r9,zero
 800dcfc:	000b883a 	mov	r5,zero
 800dd00:	003fe406 	br	800dc94 <__pack_d+0x26c>
 800dd04:	4a47883a 	add	r3,r9,r9
 800dd08:	008007c4 	movi	r2,31
 800dd0c:	1105c83a 	sub	r2,r2,r4
 800dd10:	1886983a 	sll	r3,r3,r2
 800dd14:	4118d83a 	srl	r12,r8,r4
 800dd18:	491ad83a 	srl	r13,r9,r4
 800dd1c:	1b18b03a 	or	r12,r3,r12
 800dd20:	003fb506 	br	800dbf8 <__pack_d+0x1d0>
 800dd24:	2806d07a 	srli	r3,r5,1
 800dd28:	008007c4 	movi	r2,31
 800dd2c:	1105c83a 	sub	r2,r2,r4
 800dd30:	1896d83a 	srl	r11,r3,r2
 800dd34:	2914983a 	sll	r10,r5,r4
 800dd38:	003fb506 	br	800dc10 <__pack_d+0x1e8>

0800dd3c <__unpack_d>:
 800dd3c:	20c00117 	ldw	r3,4(r4)
 800dd40:	22400017 	ldw	r9,0(r4)
 800dd44:	00800434 	movhi	r2,16
 800dd48:	10bfffc4 	addi	r2,r2,-1
 800dd4c:	1808d53a 	srli	r4,r3,20
 800dd50:	180cd7fa 	srli	r6,r3,31
 800dd54:	1894703a 	and	r10,r3,r2
 800dd58:	2201ffcc 	andi	r8,r4,2047
 800dd5c:	281b883a 	mov	r13,r5
 800dd60:	4817883a 	mov	r11,r9
 800dd64:	29800115 	stw	r6,4(r5)
 800dd68:	5019883a 	mov	r12,r10
 800dd6c:	40001e1e 	bne	r8,zero,800dde8 <__unpack_d+0xac>
 800dd70:	4a84b03a 	or	r2,r9,r10
 800dd74:	10001926 	beq	r2,zero,800dddc <__unpack_d+0xa0>
 800dd78:	4804d63a 	srli	r2,r9,24
 800dd7c:	500c923a 	slli	r6,r10,8
 800dd80:	013f0084 	movi	r4,-1022
 800dd84:	00c40034 	movhi	r3,4096
 800dd88:	18ffffc4 	addi	r3,r3,-1
 800dd8c:	118cb03a 	or	r6,r2,r6
 800dd90:	008000c4 	movi	r2,3
 800dd94:	480a923a 	slli	r5,r9,8
 800dd98:	68800015 	stw	r2,0(r13)
 800dd9c:	69000215 	stw	r4,8(r13)
 800dda0:	19800b36 	bltu	r3,r6,800ddd0 <__unpack_d+0x94>
 800dda4:	200f883a 	mov	r7,r4
 800dda8:	1811883a 	mov	r8,r3
 800ddac:	2945883a 	add	r2,r5,r5
 800ddb0:	1149803a 	cmpltu	r4,r2,r5
 800ddb4:	3187883a 	add	r3,r6,r6
 800ddb8:	20c9883a 	add	r4,r4,r3
 800ddbc:	100b883a 	mov	r5,r2
 800ddc0:	200d883a 	mov	r6,r4
 800ddc4:	39ffffc4 	addi	r7,r7,-1
 800ddc8:	413ff82e 	bgeu	r8,r4,800ddac <__unpack_d+0x70>
 800ddcc:	69c00215 	stw	r7,8(r13)
 800ddd0:	69800415 	stw	r6,16(r13)
 800ddd4:	69400315 	stw	r5,12(r13)
 800ddd8:	f800283a 	ret
 800dddc:	00800084 	movi	r2,2
 800dde0:	28800015 	stw	r2,0(r5)
 800dde4:	f800283a 	ret
 800dde8:	0081ffc4 	movi	r2,2047
 800ddec:	40800f26 	beq	r8,r2,800de2c <__unpack_d+0xf0>
 800ddf0:	480cd63a 	srli	r6,r9,24
 800ddf4:	5006923a 	slli	r3,r10,8
 800ddf8:	4804923a 	slli	r2,r9,8
 800ddfc:	0009883a 	mov	r4,zero
 800de00:	30c6b03a 	or	r3,r6,r3
 800de04:	01440034 	movhi	r5,4096
 800de08:	110cb03a 	or	r6,r2,r4
 800de0c:	423f0044 	addi	r8,r8,-1023
 800de10:	194eb03a 	or	r7,r3,r5
 800de14:	008000c4 	movi	r2,3
 800de18:	69c00415 	stw	r7,16(r13)
 800de1c:	6a000215 	stw	r8,8(r13)
 800de20:	68800015 	stw	r2,0(r13)
 800de24:	69800315 	stw	r6,12(r13)
 800de28:	f800283a 	ret
 800de2c:	4a84b03a 	or	r2,r9,r10
 800de30:	1000031e 	bne	r2,zero,800de40 <__unpack_d+0x104>
 800de34:	00800104 	movi	r2,4
 800de38:	28800015 	stw	r2,0(r5)
 800de3c:	f800283a 	ret
 800de40:	0009883a 	mov	r4,zero
 800de44:	01400234 	movhi	r5,8
 800de48:	4904703a 	and	r2,r9,r4
 800de4c:	5146703a 	and	r3,r10,r5
 800de50:	10c4b03a 	or	r2,r2,r3
 800de54:	10000526 	beq	r2,zero,800de6c <__unpack_d+0x130>
 800de58:	00800044 	movi	r2,1
 800de5c:	68800015 	stw	r2,0(r13)
 800de60:	6b000415 	stw	r12,16(r13)
 800de64:	6ac00315 	stw	r11,12(r13)
 800de68:	f800283a 	ret
 800de6c:	68000015 	stw	zero,0(r13)
 800de70:	003ffb06 	br	800de60 <__unpack_d+0x124>

0800de74 <__fpcmp_parts_d>:
 800de74:	21800017 	ldw	r6,0(r4)
 800de78:	00c00044 	movi	r3,1
 800de7c:	19800a2e 	bgeu	r3,r6,800dea8 <__fpcmp_parts_d+0x34>
 800de80:	28800017 	ldw	r2,0(r5)
 800de84:	1880082e 	bgeu	r3,r2,800dea8 <__fpcmp_parts_d+0x34>
 800de88:	00c00104 	movi	r3,4
 800de8c:	30c02626 	beq	r6,r3,800df28 <__fpcmp_parts_d+0xb4>
 800de90:	10c02226 	beq	r2,r3,800df1c <__fpcmp_parts_d+0xa8>
 800de94:	00c00084 	movi	r3,2
 800de98:	30c00526 	beq	r6,r3,800deb0 <__fpcmp_parts_d+0x3c>
 800de9c:	10c0071e 	bne	r2,r3,800debc <__fpcmp_parts_d+0x48>
 800dea0:	20800117 	ldw	r2,4(r4)
 800dea4:	1000091e 	bne	r2,zero,800decc <__fpcmp_parts_d+0x58>
 800dea8:	00800044 	movi	r2,1
 800deac:	f800283a 	ret
 800deb0:	10c01a1e 	bne	r2,r3,800df1c <__fpcmp_parts_d+0xa8>
 800deb4:	0005883a 	mov	r2,zero
 800deb8:	f800283a 	ret
 800debc:	22000117 	ldw	r8,4(r4)
 800dec0:	28800117 	ldw	r2,4(r5)
 800dec4:	40800326 	beq	r8,r2,800ded4 <__fpcmp_parts_d+0x60>
 800dec8:	403ff726 	beq	r8,zero,800dea8 <__fpcmp_parts_d+0x34>
 800decc:	00bfffc4 	movi	r2,-1
 800ded0:	f800283a 	ret
 800ded4:	20c00217 	ldw	r3,8(r4)
 800ded8:	28800217 	ldw	r2,8(r5)
 800dedc:	10fffa16 	blt	r2,r3,800dec8 <__fpcmp_parts_d+0x54>
 800dee0:	18800916 	blt	r3,r2,800df08 <__fpcmp_parts_d+0x94>
 800dee4:	21c00417 	ldw	r7,16(r4)
 800dee8:	28c00417 	ldw	r3,16(r5)
 800deec:	21800317 	ldw	r6,12(r4)
 800def0:	28800317 	ldw	r2,12(r5)
 800def4:	19fff436 	bltu	r3,r7,800dec8 <__fpcmp_parts_d+0x54>
 800def8:	38c00526 	beq	r7,r3,800df10 <__fpcmp_parts_d+0x9c>
 800defc:	38c00236 	bltu	r7,r3,800df08 <__fpcmp_parts_d+0x94>
 800df00:	19ffec1e 	bne	r3,r7,800deb4 <__fpcmp_parts_d+0x40>
 800df04:	30bfeb2e 	bgeu	r6,r2,800deb4 <__fpcmp_parts_d+0x40>
 800df08:	403fe71e 	bne	r8,zero,800dea8 <__fpcmp_parts_d+0x34>
 800df0c:	003fef06 	br	800decc <__fpcmp_parts_d+0x58>
 800df10:	11bffa2e 	bgeu	r2,r6,800defc <__fpcmp_parts_d+0x88>
 800df14:	403fe426 	beq	r8,zero,800dea8 <__fpcmp_parts_d+0x34>
 800df18:	003fec06 	br	800decc <__fpcmp_parts_d+0x58>
 800df1c:	28800117 	ldw	r2,4(r5)
 800df20:	103fe11e 	bne	r2,zero,800dea8 <__fpcmp_parts_d+0x34>
 800df24:	003fe906 	br	800decc <__fpcmp_parts_d+0x58>
 800df28:	11bfdd1e 	bne	r2,r6,800dea0 <__fpcmp_parts_d+0x2c>
 800df2c:	28c00117 	ldw	r3,4(r5)
 800df30:	20800117 	ldw	r2,4(r4)
 800df34:	1885c83a 	sub	r2,r3,r2
 800df38:	f800283a 	ret

0800df3c <close>:
 *
 * ALT_CLOSE is mapped onto the close() system call in alt_syscall.h
 */
 
int ALT_CLOSE (int fildes)
{
 800df3c:	defff804 	addi	sp,sp,-32
 800df40:	dfc00715 	stw	ra,28(sp)
 800df44:	df000615 	stw	fp,24(sp)
 800df48:	df000604 	addi	fp,sp,24
 800df4c:	e13ffc15 	stw	r4,-16(fp)
   * A common error case is that when the file descriptor was created, the call
   * to open() failed resulting in a negative file descriptor. This is trapped
   * below so that we don't try and process an invalid file descriptor.
   */

  fd = (fildes < 0) ? NULL : &alt_fd_list[fildes];
 800df50:	e0bffc17 	ldw	r2,-16(fp)
 800df54:	1004803a 	cmplt	r2,r2,zero
 800df58:	1000091e 	bne	r2,zero,800df80 <close+0x44>
 800df5c:	e13ffc17 	ldw	r4,-16(fp)
 800df60:	01400304 	movi	r5,12
 800df64:	800d84c0 	call	800d84c <__mulsi3>
 800df68:	1007883a 	mov	r3,r2
 800df6c:	00820074 	movhi	r2,2049
 800df70:	10970004 	addi	r2,r2,23552
 800df74:	1887883a 	add	r3,r3,r2
 800df78:	e0ffff15 	stw	r3,-4(fp)
 800df7c:	00000106 	br	800df84 <close+0x48>
 800df80:	e03fff15 	stw	zero,-4(fp)
 800df84:	e0bfff17 	ldw	r2,-4(fp)
 800df88:	e0bffb15 	stw	r2,-20(fp)

  if (fd)
 800df8c:	e0bffb17 	ldw	r2,-20(fp)
 800df90:	1005003a 	cmpeq	r2,r2,zero
 800df94:	10001d1e 	bne	r2,zero,800e00c <close+0xd0>
    /*
     * If the associated file system/device has a close function, call it so 
     * that any necessary cleanup code can run.
     */

    rval = (fd->dev->close) ? fd->dev->close(fd) : 0;
 800df98:	e0bffb17 	ldw	r2,-20(fp)
 800df9c:	10800017 	ldw	r2,0(r2)
 800dfa0:	10800417 	ldw	r2,16(r2)
 800dfa4:	1005003a 	cmpeq	r2,r2,zero
 800dfa8:	1000071e 	bne	r2,zero,800dfc8 <close+0x8c>
 800dfac:	e0bffb17 	ldw	r2,-20(fp)
 800dfb0:	10800017 	ldw	r2,0(r2)
 800dfb4:	10800417 	ldw	r2,16(r2)
 800dfb8:	e13ffb17 	ldw	r4,-20(fp)
 800dfbc:	103ee83a 	callr	r2
 800dfc0:	e0bffe15 	stw	r2,-8(fp)
 800dfc4:	00000106 	br	800dfcc <close+0x90>
 800dfc8:	e03ffe15 	stw	zero,-8(fp)
 800dfcc:	e0bffe17 	ldw	r2,-8(fp)
 800dfd0:	e0bffa15 	stw	r2,-24(fp)

    /* Free the file descriptor structure and return. */

    alt_release_fd (fildes);
 800dfd4:	e13ffc17 	ldw	r4,-16(fp)
 800dfd8:	800e7940 	call	800e794 <alt_release_fd>
    if (rval < 0)
 800dfdc:	e0bffa17 	ldw	r2,-24(fp)
 800dfe0:	1004403a 	cmpge	r2,r2,zero
 800dfe4:	1000071e 	bne	r2,zero,800e004 <close+0xc8>
    {
      ALT_ERRNO = -rval;
 800dfe8:	800e03c0 	call	800e03c <alt_get_errno>
 800dfec:	e0fffa17 	ldw	r3,-24(fp)
 800dff0:	00c7c83a 	sub	r3,zero,r3
 800dff4:	10c00015 	stw	r3,0(r2)
      return -1;
 800dff8:	00bfffc4 	movi	r2,-1
 800dffc:	e0bffd15 	stw	r2,-12(fp)
 800e000:	00000806 	br	800e024 <close+0xe8>
    }
    return 0;
 800e004:	e03ffd15 	stw	zero,-12(fp)
 800e008:	00000606 	br	800e024 <close+0xe8>
  }
  else
  {
    ALT_ERRNO = EBADFD;
 800e00c:	800e03c0 	call	800e03c <alt_get_errno>
 800e010:	1007883a 	mov	r3,r2
 800e014:	00801444 	movi	r2,81
 800e018:	18800015 	stw	r2,0(r3)
    return -1;
 800e01c:	00bfffc4 	movi	r2,-1
 800e020:	e0bffd15 	stw	r2,-12(fp)
 800e024:	e0bffd17 	ldw	r2,-12(fp)
  }
}
 800e028:	e037883a 	mov	sp,fp
 800e02c:	dfc00117 	ldw	ra,4(sp)
 800e030:	df000017 	ldw	fp,0(sp)
 800e034:	dec00204 	addi	sp,sp,8
 800e038:	f800283a 	ret

0800e03c <alt_get_errno>:
#undef errno

extern int errno;

static ALT_INLINE int* alt_get_errno(void)
{
 800e03c:	defffd04 	addi	sp,sp,-12
 800e040:	dfc00215 	stw	ra,8(sp)
 800e044:	df000115 	stw	fp,4(sp)
 800e048:	df000104 	addi	fp,sp,4
  return ((alt_errno) ? alt_errno() : &errno);
 800e04c:	00820074 	movhi	r2,2049
 800e050:	109b8e04 	addi	r2,r2,28216
 800e054:	10800017 	ldw	r2,0(r2)
 800e058:	1005003a 	cmpeq	r2,r2,zero
 800e05c:	1000061e 	bne	r2,zero,800e078 <alt_get_errno+0x3c>
 800e060:	00820074 	movhi	r2,2049
 800e064:	109b8e04 	addi	r2,r2,28216
 800e068:	10800017 	ldw	r2,0(r2)
 800e06c:	103ee83a 	callr	r2
 800e070:	e0bfff15 	stw	r2,-4(fp)
 800e074:	00000306 	br	800e084 <alt_get_errno+0x48>
 800e078:	008200b4 	movhi	r2,2050
 800e07c:	10a23b04 	addi	r2,r2,-30484
 800e080:	e0bfff15 	stw	r2,-4(fp)
 800e084:	e0bfff17 	ldw	r2,-4(fp)
}
 800e088:	e037883a 	mov	sp,fp
 800e08c:	dfc00117 	ldw	ra,4(sp)
 800e090:	df000017 	ldw	fp,0(sp)
 800e094:	dec00204 	addi	sp,sp,8
 800e098:	f800283a 	ret

0800e09c <alt_dev_null_write>:
 * by the alt_dev_null device. It simple discards all data passed to it, and
 * indicates that the data has been successfully transmitted.
 */

static int alt_dev_null_write (alt_fd* fd, const char* ptr, int len)
{
 800e09c:	defffc04 	addi	sp,sp,-16
 800e0a0:	df000315 	stw	fp,12(sp)
 800e0a4:	df000304 	addi	fp,sp,12
 800e0a8:	e13ffd15 	stw	r4,-12(fp)
 800e0ac:	e17ffe15 	stw	r5,-8(fp)
 800e0b0:	e1bfff15 	stw	r6,-4(fp)
  return len;
 800e0b4:	e0bfff17 	ldw	r2,-4(fp)
}
 800e0b8:	e037883a 	mov	sp,fp
 800e0bc:	df000017 	ldw	fp,0(sp)
 800e0c0:	dec00104 	addi	sp,sp,4
 800e0c4:	f800283a 	ret

0800e0c8 <fstat>:
}

#else /* !ALT_USE_DIRECT_DRIVERS */

int ALT_FSTAT (int file, struct stat *st)
{
 800e0c8:	defff904 	addi	sp,sp,-28
 800e0cc:	dfc00615 	stw	ra,24(sp)
 800e0d0:	df000515 	stw	fp,20(sp)
 800e0d4:	df000504 	addi	fp,sp,20
 800e0d8:	e13ffc15 	stw	r4,-16(fp)
 800e0dc:	e17ffd15 	stw	r5,-12(fp)
   * A common error case is that when the file descriptor was created, the call
   * to open() failed resulting in a negative file descriptor. This is trapped
   * below so that we don't try and process an invalid file descriptor.
   */

  fd = (file < 0) ? NULL : &alt_fd_list[file];
 800e0e0:	e0bffc17 	ldw	r2,-16(fp)
 800e0e4:	1004803a 	cmplt	r2,r2,zero
 800e0e8:	1000091e 	bne	r2,zero,800e110 <fstat+0x48>
 800e0ec:	e13ffc17 	ldw	r4,-16(fp)
 800e0f0:	01400304 	movi	r5,12
 800e0f4:	800d84c0 	call	800d84c <__mulsi3>
 800e0f8:	1007883a 	mov	r3,r2
 800e0fc:	00820074 	movhi	r2,2049
 800e100:	10970004 	addi	r2,r2,23552
 800e104:	1887883a 	add	r3,r3,r2
 800e108:	e0ffff15 	stw	r3,-4(fp)
 800e10c:	00000106 	br	800e114 <fstat+0x4c>
 800e110:	e03fff15 	stw	zero,-4(fp)
 800e114:	e0bfff17 	ldw	r2,-4(fp)
 800e118:	e0bffb15 	stw	r2,-20(fp)
  
  if (fd)
 800e11c:	e0bffb17 	ldw	r2,-20(fp)
 800e120:	1005003a 	cmpeq	r2,r2,zero
 800e124:	1000121e 	bne	r2,zero,800e170 <fstat+0xa8>
  {
    /* Call the drivers fstat() function to fill out the "st" structure. */

    if (fd->dev->fstat)
 800e128:	e0bffb17 	ldw	r2,-20(fp)
 800e12c:	10800017 	ldw	r2,0(r2)
 800e130:	10800817 	ldw	r2,32(r2)
 800e134:	1005003a 	cmpeq	r2,r2,zero
 800e138:	1000081e 	bne	r2,zero,800e15c <fstat+0x94>
    {
      return fd->dev->fstat(fd, st);
 800e13c:	e0bffb17 	ldw	r2,-20(fp)
 800e140:	10800017 	ldw	r2,0(r2)
 800e144:	10800817 	ldw	r2,32(r2)
 800e148:	e13ffb17 	ldw	r4,-20(fp)
 800e14c:	e17ffd17 	ldw	r5,-12(fp)
 800e150:	103ee83a 	callr	r2
 800e154:	e0bffe15 	stw	r2,-8(fp)
 800e158:	00000b06 	br	800e188 <fstat+0xc0>
     * device.
     */
 
    else
    {
      st->st_mode = _IFCHR;
 800e15c:	e0fffd17 	ldw	r3,-12(fp)
 800e160:	00880004 	movi	r2,8192
 800e164:	18800115 	stw	r2,4(r3)
      return 0;
 800e168:	e03ffe15 	stw	zero,-8(fp)
 800e16c:	00000606 	br	800e188 <fstat+0xc0>
    }
  }
  else
  {
    ALT_ERRNO = EBADFD;
 800e170:	800e1a00 	call	800e1a0 <alt_get_errno>
 800e174:	1007883a 	mov	r3,r2
 800e178:	00801444 	movi	r2,81
 800e17c:	18800015 	stw	r2,0(r3)
    return -1;
 800e180:	00bfffc4 	movi	r2,-1
 800e184:	e0bffe15 	stw	r2,-8(fp)
 800e188:	e0bffe17 	ldw	r2,-8(fp)
  }
}
 800e18c:	e037883a 	mov	sp,fp
 800e190:	dfc00117 	ldw	ra,4(sp)
 800e194:	df000017 	ldw	fp,0(sp)
 800e198:	dec00204 	addi	sp,sp,8
 800e19c:	f800283a 	ret

0800e1a0 <alt_get_errno>:
#undef errno

extern int errno;

static ALT_INLINE int* alt_get_errno(void)
{
 800e1a0:	defffd04 	addi	sp,sp,-12
 800e1a4:	dfc00215 	stw	ra,8(sp)
 800e1a8:	df000115 	stw	fp,4(sp)
 800e1ac:	df000104 	addi	fp,sp,4
  return ((alt_errno) ? alt_errno() : &errno);
 800e1b0:	00820074 	movhi	r2,2049
 800e1b4:	109b8e04 	addi	r2,r2,28216
 800e1b8:	10800017 	ldw	r2,0(r2)
 800e1bc:	1005003a 	cmpeq	r2,r2,zero
 800e1c0:	1000061e 	bne	r2,zero,800e1dc <alt_get_errno+0x3c>
 800e1c4:	00820074 	movhi	r2,2049
 800e1c8:	109b8e04 	addi	r2,r2,28216
 800e1cc:	10800017 	ldw	r2,0(r2)
 800e1d0:	103ee83a 	callr	r2
 800e1d4:	e0bfff15 	stw	r2,-4(fp)
 800e1d8:	00000306 	br	800e1e8 <alt_get_errno+0x48>
 800e1dc:	008200b4 	movhi	r2,2050
 800e1e0:	10a23b04 	addi	r2,r2,-30484
 800e1e4:	e0bfff15 	stw	r2,-4(fp)
 800e1e8:	e0bfff17 	ldw	r2,-4(fp)
}
 800e1ec:	e037883a 	mov	sp,fp
 800e1f0:	dfc00117 	ldw	ra,4(sp)
 800e1f4:	df000017 	ldw	fp,0(sp)
 800e1f8:	dec00204 	addi	sp,sp,8
 800e1fc:	f800283a 	ret

0800e200 <isatty>:
 *
 * ALT_ISATTY is mapped onto the isatty() system call in alt_syscall.h
 */
 
int ALT_ISATTY (int file)
{
 800e200:	deffeb04 	addi	sp,sp,-84
 800e204:	dfc01415 	stw	ra,80(sp)
 800e208:	df001315 	stw	fp,76(sp)
 800e20c:	df001304 	addi	fp,sp,76
 800e210:	e13ffd15 	stw	r4,-12(fp)
   * A common error case is that when the file descriptor was created, the call
   * to open() failed resulting in a negative file descriptor. This is trapped
   * below so that we don't try and process an invalid file descriptor.
   */

  fd = (file < 0) ? NULL : &alt_fd_list[file];
 800e214:	e0bffd17 	ldw	r2,-12(fp)
 800e218:	1004803a 	cmplt	r2,r2,zero
 800e21c:	1000091e 	bne	r2,zero,800e244 <isatty+0x44>
 800e220:	e13ffd17 	ldw	r4,-12(fp)
 800e224:	01400304 	movi	r5,12
 800e228:	800d84c0 	call	800d84c <__mulsi3>
 800e22c:	1007883a 	mov	r3,r2
 800e230:	00820074 	movhi	r2,2049
 800e234:	10970004 	addi	r2,r2,23552
 800e238:	1887883a 	add	r3,r3,r2
 800e23c:	e0ffff15 	stw	r3,-4(fp)
 800e240:	00000106 	br	800e248 <isatty+0x48>
 800e244:	e03fff15 	stw	zero,-4(fp)
 800e248:	e0bfff17 	ldw	r2,-4(fp)
 800e24c:	e0bfed15 	stw	r2,-76(fp)
  
  if (fd)
 800e250:	e0bfed17 	ldw	r2,-76(fp)
 800e254:	1005003a 	cmpeq	r2,r2,zero
 800e258:	10000f1e 	bne	r2,zero,800e298 <isatty+0x98>
    /*
     * If a device driver does not provide an fstat() function, then it is 
     * treated as a terminal device by default.
     */

    if (!fd->dev->fstat)
 800e25c:	e0bfed17 	ldw	r2,-76(fp)
 800e260:	10800017 	ldw	r2,0(r2)
 800e264:	10800817 	ldw	r2,32(r2)
 800e268:	1004c03a 	cmpne	r2,r2,zero
 800e26c:	1000031e 	bne	r2,zero,800e27c <isatty+0x7c>
    {
      return 1;
 800e270:	00800044 	movi	r2,1
 800e274:	e0bffe15 	stw	r2,-8(fp)
 800e278:	00000c06 	br	800e2ac <isatty+0xac>
     * this is called so that the device can identify itself.
     */ 

    else
    {
      fstat (file, &stat);
 800e27c:	e17fee04 	addi	r5,fp,-72
 800e280:	e13ffd17 	ldw	r4,-12(fp)
 800e284:	800e0c80 	call	800e0c8 <fstat>
      return (stat.st_mode == _IFCHR) ? 1 : 0;
 800e288:	e0bfef17 	ldw	r2,-68(fp)
 800e28c:	10880020 	cmpeqi	r2,r2,8192
 800e290:	e0bffe15 	stw	r2,-8(fp)
 800e294:	00000506 	br	800e2ac <isatty+0xac>
    }
  }
  else
  {
    ALT_ERRNO = EBADFD;
 800e298:	800e2c40 	call	800e2c4 <alt_get_errno>
 800e29c:	1007883a 	mov	r3,r2
 800e2a0:	00801444 	movi	r2,81
 800e2a4:	18800015 	stw	r2,0(r3)
    return 0;
 800e2a8:	e03ffe15 	stw	zero,-8(fp)
 800e2ac:	e0bffe17 	ldw	r2,-8(fp)
  }
}
 800e2b0:	e037883a 	mov	sp,fp
 800e2b4:	dfc00117 	ldw	ra,4(sp)
 800e2b8:	df000017 	ldw	fp,0(sp)
 800e2bc:	dec00204 	addi	sp,sp,8
 800e2c0:	f800283a 	ret

0800e2c4 <alt_get_errno>:
#undef errno

extern int errno;

static ALT_INLINE int* alt_get_errno(void)
{
 800e2c4:	defffd04 	addi	sp,sp,-12
 800e2c8:	dfc00215 	stw	ra,8(sp)
 800e2cc:	df000115 	stw	fp,4(sp)
 800e2d0:	df000104 	addi	fp,sp,4
  return ((alt_errno) ? alt_errno() : &errno);
 800e2d4:	00820074 	movhi	r2,2049
 800e2d8:	109b8e04 	addi	r2,r2,28216
 800e2dc:	10800017 	ldw	r2,0(r2)
 800e2e0:	1005003a 	cmpeq	r2,r2,zero
 800e2e4:	1000061e 	bne	r2,zero,800e300 <alt_get_errno+0x3c>
 800e2e8:	00820074 	movhi	r2,2049
 800e2ec:	109b8e04 	addi	r2,r2,28216
 800e2f0:	10800017 	ldw	r2,0(r2)
 800e2f4:	103ee83a 	callr	r2
 800e2f8:	e0bfff15 	stw	r2,-4(fp)
 800e2fc:	00000306 	br	800e30c <alt_get_errno+0x48>
 800e300:	008200b4 	movhi	r2,2050
 800e304:	10a23b04 	addi	r2,r2,-30484
 800e308:	e0bfff15 	stw	r2,-4(fp)
 800e30c:	e0bfff17 	ldw	r2,-4(fp)
}
 800e310:	e037883a 	mov	sp,fp
 800e314:	dfc00117 	ldw	ra,4(sp)
 800e318:	df000017 	ldw	fp,0(sp)
 800e31c:	dec00204 	addi	sp,sp,8
 800e320:	f800283a 	ret

0800e324 <alt_load>:
 * there is no bootloader, so this application is responsible for loading to
 * RAM any sections that are required.
 */  

void alt_load (void)
{
 800e324:	defffe04 	addi	sp,sp,-8
 800e328:	dfc00115 	stw	ra,4(sp)
 800e32c:	df000015 	stw	fp,0(sp)
 800e330:	d839883a 	mov	fp,sp
  /* 
   * Copy the .rwdata section. 
   */

  alt_load_section (&__flash_rwdata_start, 
 800e334:	01020074 	movhi	r4,2049
 800e338:	211b9304 	addi	r4,r4,28236
 800e33c:	01420074 	movhi	r5,2049
 800e340:	2954f104 	addi	r5,r5,21444
 800e344:	01820074 	movhi	r6,2049
 800e348:	319b9304 	addi	r6,r6,28236
 800e34c:	800e3a40 	call	800e3a4 <alt_load_section>

  /*
   * Copy the exception handler.
   */

  alt_load_section (&__flash_exceptions_start, 
 800e350:	01020034 	movhi	r4,2048
 800e354:	21000804 	addi	r4,r4,32
 800e358:	01420034 	movhi	r5,2048
 800e35c:	29400804 	addi	r5,r5,32
 800e360:	01820034 	movhi	r6,2048
 800e364:	31806d04 	addi	r6,r6,436
 800e368:	800e3a40 	call	800e3a4 <alt_load_section>

  /*
   * Copy the .rodata section.
   */

  alt_load_section (&__flash_rodata_start, 
 800e36c:	01020074 	movhi	r4,2049
 800e370:	21132e04 	addi	r4,r4,19640
 800e374:	01420074 	movhi	r5,2049
 800e378:	29532e04 	addi	r5,r5,19640
 800e37c:	01820074 	movhi	r6,2049
 800e380:	3194f104 	addi	r6,r6,21444
 800e384:	800e3a40 	call	800e3a4 <alt_load_section>
  
  /*
   * Now ensure that the caches are in synch.
   */
  
  alt_dcache_flush_all();
 800e388:	8013b500 	call	8013b50 <alt_dcache_flush_all>
  alt_icache_flush_all();
 800e38c:	8013ddc0 	call	8013ddc <alt_icache_flush_all>
}
 800e390:	e037883a 	mov	sp,fp
 800e394:	dfc00117 	ldw	ra,4(sp)
 800e398:	df000017 	ldw	fp,0(sp)
 800e39c:	dec00204 	addi	sp,sp,8
 800e3a0:	f800283a 	ret

0800e3a4 <alt_load_section>:
 */

static void ALT_INLINE alt_load_section (alt_u32* from, 
                                         alt_u32* to, 
                                         alt_u32* end)
{
 800e3a4:	defffc04 	addi	sp,sp,-16
 800e3a8:	df000315 	stw	fp,12(sp)
 800e3ac:	df000304 	addi	fp,sp,12
 800e3b0:	e13ffd15 	stw	r4,-12(fp)
 800e3b4:	e17ffe15 	stw	r5,-8(fp)
 800e3b8:	e1bfff15 	stw	r6,-4(fp)
  if (to != from)
 800e3bc:	e0fffe17 	ldw	r3,-8(fp)
 800e3c0:	e0bffd17 	ldw	r2,-12(fp)
 800e3c4:	18800e26 	beq	r3,r2,800e400 <alt_load_section+0x5c>
  {
    while( to != end )
 800e3c8:	00000a06 	br	800e3f4 <alt_load_section+0x50>
    {
      *to++ = *from++;
 800e3cc:	e0bffd17 	ldw	r2,-12(fp)
 800e3d0:	10c00017 	ldw	r3,0(r2)
 800e3d4:	e0bffe17 	ldw	r2,-8(fp)
 800e3d8:	10c00015 	stw	r3,0(r2)
 800e3dc:	e0bffe17 	ldw	r2,-8(fp)
 800e3e0:	10800104 	addi	r2,r2,4
 800e3e4:	e0bffe15 	stw	r2,-8(fp)
 800e3e8:	e0bffd17 	ldw	r2,-12(fp)
 800e3ec:	10800104 	addi	r2,r2,4
 800e3f0:	e0bffd15 	stw	r2,-12(fp)
                                         alt_u32* to, 
                                         alt_u32* end)
{
  if (to != from)
  {
    while( to != end )
 800e3f4:	e0fffe17 	ldw	r3,-8(fp)
 800e3f8:	e0bfff17 	ldw	r2,-4(fp)
 800e3fc:	18bff31e 	bne	r3,r2,800e3cc <alt_load_section+0x28>
    {
      *to++ = *from++;
    }
  }
}
 800e400:	e037883a 	mov	sp,fp
 800e404:	df000017 	ldw	fp,0(sp)
 800e408:	dec00104 	addi	sp,sp,4
 800e40c:	f800283a 	ret

0800e410 <lseek>:
 * ALT_LSEEK is mapped onto the lseek() system call in alt_syscall.h
 *
 */

off_t ALT_LSEEK (int file, off_t ptr, int dir)
{
 800e410:	defff804 	addi	sp,sp,-32
 800e414:	dfc00715 	stw	ra,28(sp)
 800e418:	df000615 	stw	fp,24(sp)
 800e41c:	df000604 	addi	fp,sp,24
 800e420:	e13ffc15 	stw	r4,-16(fp)
 800e424:	e17ffd15 	stw	r5,-12(fp)
 800e428:	e1bffe15 	stw	r6,-8(fp)
  alt_fd* fd;
  off_t   rc = 0; 
 800e42c:	e03ffa15 	stw	zero,-24(fp)
   * A common error case is that when the file descriptor was created, the call
   * to open() failed resulting in a negative file descriptor. This is trapped
   * below so that we don't try and process an invalid file descriptor.
   */

  fd = (file < 0) ? NULL : &alt_fd_list[file];
 800e430:	e0bffc17 	ldw	r2,-16(fp)
 800e434:	1004803a 	cmplt	r2,r2,zero
 800e438:	1000091e 	bne	r2,zero,800e460 <lseek+0x50>
 800e43c:	e13ffc17 	ldw	r4,-16(fp)
 800e440:	01400304 	movi	r5,12
 800e444:	800d84c0 	call	800d84c <__mulsi3>
 800e448:	1007883a 	mov	r3,r2
 800e44c:	00820074 	movhi	r2,2049
 800e450:	10970004 	addi	r2,r2,23552
 800e454:	1887883a 	add	r3,r3,r2
 800e458:	e0ffff15 	stw	r3,-4(fp)
 800e45c:	00000106 	br	800e464 <lseek+0x54>
 800e460:	e03fff15 	stw	zero,-4(fp)
 800e464:	e0bfff17 	ldw	r2,-4(fp)
 800e468:	e0bffb15 	stw	r2,-20(fp)
  
  if (fd) 
 800e46c:	e0bffb17 	ldw	r2,-20(fp)
 800e470:	1005003a 	cmpeq	r2,r2,zero
 800e474:	1000111e 	bne	r2,zero,800e4bc <lseek+0xac>
    /*
     * If the device driver provides an implementation of the lseek() function,
     * then call that to process the request.
     */
 
    if (fd->dev->lseek)
 800e478:	e0bffb17 	ldw	r2,-20(fp)
 800e47c:	10800017 	ldw	r2,0(r2)
 800e480:	10800717 	ldw	r2,28(r2)
 800e484:	1005003a 	cmpeq	r2,r2,zero
 800e488:	1000091e 	bne	r2,zero,800e4b0 <lseek+0xa0>
    {
      rc = fd->dev->lseek(fd, ptr, dir);
 800e48c:	e0bffb17 	ldw	r2,-20(fp)
 800e490:	10800017 	ldw	r2,0(r2)
 800e494:	10800717 	ldw	r2,28(r2)
 800e498:	e13ffb17 	ldw	r4,-20(fp)
 800e49c:	e17ffd17 	ldw	r5,-12(fp)
 800e4a0:	e1bffe17 	ldw	r6,-8(fp)
 800e4a4:	103ee83a 	callr	r2
 800e4a8:	e0bffa15 	stw	r2,-24(fp)
 800e4ac:	00000506 	br	800e4c4 <lseek+0xb4>
     * Otherwise return an error.
     */

    else
    {
      rc = -ENOTSUP;
 800e4b0:	00bfde84 	movi	r2,-134
 800e4b4:	e0bffa15 	stw	r2,-24(fp)
 800e4b8:	00000206 	br	800e4c4 <lseek+0xb4>
    }
  }
  else  
  {
    rc = -EBADFD;
 800e4bc:	00bfebc4 	movi	r2,-81
 800e4c0:	e0bffa15 	stw	r2,-24(fp)
  }

  if (rc < 0)
 800e4c4:	e0bffa17 	ldw	r2,-24(fp)
 800e4c8:	1004403a 	cmpge	r2,r2,zero
 800e4cc:	1000071e 	bne	r2,zero,800e4ec <lseek+0xdc>
  {
    ALT_ERRNO = -rc;
 800e4d0:	800e5040 	call	800e504 <alt_get_errno>
 800e4d4:	1007883a 	mov	r3,r2
 800e4d8:	e0bffa17 	ldw	r2,-24(fp)
 800e4dc:	0085c83a 	sub	r2,zero,r2
 800e4e0:	18800015 	stw	r2,0(r3)
    rc = -1;
 800e4e4:	00bfffc4 	movi	r2,-1
 800e4e8:	e0bffa15 	stw	r2,-24(fp)
  }

  return rc;
 800e4ec:	e0bffa17 	ldw	r2,-24(fp)
}
 800e4f0:	e037883a 	mov	sp,fp
 800e4f4:	dfc00117 	ldw	ra,4(sp)
 800e4f8:	df000017 	ldw	fp,0(sp)
 800e4fc:	dec00204 	addi	sp,sp,8
 800e500:	f800283a 	ret

0800e504 <alt_get_errno>:
#undef errno

extern int errno;

static ALT_INLINE int* alt_get_errno(void)
{
 800e504:	defffd04 	addi	sp,sp,-12
 800e508:	dfc00215 	stw	ra,8(sp)
 800e50c:	df000115 	stw	fp,4(sp)
 800e510:	df000104 	addi	fp,sp,4
  return ((alt_errno) ? alt_errno() : &errno);
 800e514:	00820074 	movhi	r2,2049
 800e518:	109b8e04 	addi	r2,r2,28216
 800e51c:	10800017 	ldw	r2,0(r2)
 800e520:	1005003a 	cmpeq	r2,r2,zero
 800e524:	1000061e 	bne	r2,zero,800e540 <alt_get_errno+0x3c>
 800e528:	00820074 	movhi	r2,2049
 800e52c:	109b8e04 	addi	r2,r2,28216
 800e530:	10800017 	ldw	r2,0(r2)
 800e534:	103ee83a 	callr	r2
 800e538:	e0bfff15 	stw	r2,-4(fp)
 800e53c:	00000306 	br	800e54c <alt_get_errno+0x48>
 800e540:	008200b4 	movhi	r2,2050
 800e544:	10a23b04 	addi	r2,r2,-30484
 800e548:	e0bfff15 	stw	r2,-4(fp)
 800e54c:	e0bfff17 	ldw	r2,-4(fp)
}
 800e550:	e037883a 	mov	sp,fp
 800e554:	dfc00117 	ldw	ra,4(sp)
 800e558:	df000017 	ldw	fp,0(sp)
 800e55c:	dec00204 	addi	sp,sp,8
 800e560:	f800283a 	ret

0800e564 <alt_main>:
 * devices/filesystems/components in the system; and call the entry point for
 * the users application, i.e. main().
 */

void alt_main (void)
{
 800e564:	defffd04 	addi	sp,sp,-12
 800e568:	dfc00215 	stw	ra,8(sp)
 800e56c:	df000115 	stw	fp,4(sp)
 800e570:	df000104 	addi	fp,sp,4
#endif

  /* ALT LOG - please see HAL/sys/alt_log_printf.h for details */
  ALT_LOG_PRINT_BOOT("[alt_main.c] Entering alt_main, calling alt_irq_init.\r\n");
  /* Initialize the interrupt controller. */
  alt_irq_init (NULL);
 800e574:	0009883a 	mov	r4,zero
 800e578:	800ea4c0 	call	800ea4c <alt_irq_init>
  ALT_LOG_PRINT_BOOT("[alt_main.c] Done OS Init, calling alt_sem_create.\r\n");
  ALT_SEM_CREATE (&alt_fd_list_lock, 1);

  /* Initialize the device drivers/software components. */
  ALT_LOG_PRINT_BOOT("[alt_main.c] Calling alt_sys_init.\r\n");
  alt_sys_init();
 800e57c:	800ea800 	call	800ea80 <alt_sys_init>
   * devices be present (not equal to /dev/null) and if direct drivers
   * aren't being used.
   */

    ALT_LOG_PRINT_BOOT("[alt_main.c] Redirecting IO.\r\n");
    alt_io_redirect(ALT_STDOUT, ALT_STDIN, ALT_STDERR);
 800e580:	01020074 	movhi	r4,2049
 800e584:	2114dc04 	addi	r4,r4,21360
 800e588:	01420074 	movhi	r5,2049
 800e58c:	2954dc04 	addi	r5,r5,21360
 800e590:	01820074 	movhi	r6,2049
 800e594:	3194dc04 	addi	r6,r6,21360
 800e598:	801419c0 	call	801419c <alt_io_redirect>
  /* 
   * Call the C++ constructors 
   */

  ALT_LOG_PRINT_BOOT("[alt_main.c] Calling C++ constructors.\r\n");
  _do_ctors ();
 800e59c:	8013c800 	call	8013c80 <_do_ctors>
   * redefined as _exit()). This is in the interest of reducing code footprint,
   * in that the atexit() overhead is removed when it's not needed.
   */

  ALT_LOG_PRINT_BOOT("[alt_main.c] Calling atexit.\r\n");
  atexit (_do_dtors);
 800e5a0:	01020074 	movhi	r4,2049
 800e5a4:	210f3904 	addi	r4,r4,15588
 800e5a8:	80148ac0 	call	80148ac <atexit>
  ALT_LOG_PRINT_BOOT("[alt_main.c] Calling main.\r\n");

#ifdef ALT_NO_EXIT
  main (alt_argc, alt_argv, alt_envp);
#else
  result = main (alt_argc, alt_argv, alt_envp);
 800e5ac:	d126bc17 	ldw	r4,-25872(gp)
 800e5b0:	d166bd17 	ldw	r5,-25868(gp)
 800e5b4:	d1a6be17 	ldw	r6,-25864(gp)
 800e5b8:	8003de00 	call	8003de0 <main>
 800e5bc:	e0bfff15 	stw	r2,-4(fp)
  close(STDOUT_FILENO);
 800e5c0:	01000044 	movi	r4,1
 800e5c4:	800df3c0 	call	800df3c <close>
  exit (result);
 800e5c8:	e13fff17 	ldw	r4,-4(fp)
 800e5cc:	80148c00 	call	80148c0 <exit>

0800e5d0 <__malloc_lock>:
 * configuration is single threaded, so there is nothing to do here. Note that 
 * this requires that malloc is never called by an interrupt service routine.
 */

void __malloc_lock ( struct _reent *_r )
{
 800e5d0:	defffe04 	addi	sp,sp,-8
 800e5d4:	df000115 	stw	fp,4(sp)
 800e5d8:	df000104 	addi	fp,sp,4
 800e5dc:	e13fff15 	stw	r4,-4(fp)
}
 800e5e0:	e037883a 	mov	sp,fp
 800e5e4:	df000017 	ldw	fp,0(sp)
 800e5e8:	dec00104 	addi	sp,sp,4
 800e5ec:	f800283a 	ret

0800e5f0 <__malloc_unlock>:
/*
 *
 */

void __malloc_unlock ( struct _reent *_r )
{
 800e5f0:	defffe04 	addi	sp,sp,-8
 800e5f4:	df000115 	stw	fp,4(sp)
 800e5f8:	df000104 	addi	fp,sp,4
 800e5fc:	e13fff15 	stw	r4,-4(fp)
}
 800e600:	e037883a 	mov	sp,fp
 800e604:	df000017 	ldw	fp,0(sp)
 800e608:	dec00104 	addi	sp,sp,4
 800e60c:	f800283a 	ret

0800e610 <read>:
}

#else /* !ALT_USE_DIRECT_DRIVERS */

int ALT_READ (int file, void *ptr, size_t len)
{
 800e610:	defff704 	addi	sp,sp,-36
 800e614:	dfc00815 	stw	ra,32(sp)
 800e618:	df000715 	stw	fp,28(sp)
 800e61c:	df000704 	addi	fp,sp,28
 800e620:	e13ffb15 	stw	r4,-20(fp)
 800e624:	e17ffc15 	stw	r5,-16(fp)
 800e628:	e1bffd15 	stw	r6,-12(fp)
   * A common error case is that when the file descriptor was created, the call
   * to open() failed resulting in a negative file descriptor. This is trapped
   * below so that we don't try and process an invalid file descriptor.
   */

  fd = (file < 0) ? NULL : &alt_fd_list[file];
 800e62c:	e0bffb17 	ldw	r2,-20(fp)
 800e630:	1004803a 	cmplt	r2,r2,zero
 800e634:	1000091e 	bne	r2,zero,800e65c <read+0x4c>
 800e638:	e13ffb17 	ldw	r4,-20(fp)
 800e63c:	01400304 	movi	r5,12
 800e640:	800d84c0 	call	800d84c <__mulsi3>
 800e644:	1007883a 	mov	r3,r2
 800e648:	00820074 	movhi	r2,2049
 800e64c:	10970004 	addi	r2,r2,23552
 800e650:	1887883a 	add	r3,r3,r2
 800e654:	e0ffff15 	stw	r3,-4(fp)
 800e658:	00000106 	br	800e660 <read+0x50>
 800e65c:	e03fff15 	stw	zero,-4(fp)
 800e660:	e0bfff17 	ldw	r2,-4(fp)
 800e664:	e0bffa15 	stw	r2,-24(fp)
  
  if (fd)
 800e668:	e0bffa17 	ldw	r2,-24(fp)
 800e66c:	1005003a 	cmpeq	r2,r2,zero
 800e670:	1000241e 	bne	r2,zero,800e704 <read+0xf4>
     * If the file has not been opened with read access, or if the driver does
     * not provide an implementation of read(), generate an error. Otherwise
     * call the drivers read() function to process the request.
     */

    if (((fd->fd_flags & O_ACCMODE) != O_WRONLY) && 
 800e674:	e0bffa17 	ldw	r2,-24(fp)
 800e678:	10800217 	ldw	r2,8(r2)
 800e67c:	108000cc 	andi	r2,r2,3
 800e680:	10800060 	cmpeqi	r2,r2,1
 800e684:	10001a1e 	bne	r2,zero,800e6f0 <read+0xe0>
 800e688:	e0bffa17 	ldw	r2,-24(fp)
 800e68c:	10800017 	ldw	r2,0(r2)
 800e690:	10800517 	ldw	r2,20(r2)
 800e694:	1005003a 	cmpeq	r2,r2,zero
 800e698:	1000151e 	bne	r2,zero,800e6f0 <read+0xe0>
        (fd->dev->read))
      {
        if ((rval = fd->dev->read(fd, ptr, len)) < 0)
 800e69c:	e0bffa17 	ldw	r2,-24(fp)
 800e6a0:	10800017 	ldw	r2,0(r2)
 800e6a4:	10800517 	ldw	r2,20(r2)
 800e6a8:	e17ffc17 	ldw	r5,-16(fp)
 800e6ac:	e1bffd17 	ldw	r6,-12(fp)
 800e6b0:	e13ffa17 	ldw	r4,-24(fp)
 800e6b4:	103ee83a 	callr	r2
 800e6b8:	e0bff915 	stw	r2,-28(fp)
 800e6bc:	e0bff917 	ldw	r2,-28(fp)
 800e6c0:	1004403a 	cmpge	r2,r2,zero
 800e6c4:	1000071e 	bne	r2,zero,800e6e4 <read+0xd4>
        {
          ALT_ERRNO = -rval;
 800e6c8:	800e7340 	call	800e734 <alt_get_errno>
 800e6cc:	e0fff917 	ldw	r3,-28(fp)
 800e6d0:	00c7c83a 	sub	r3,zero,r3
 800e6d4:	10c00015 	stw	r3,0(r2)
          return -1;
 800e6d8:	00bfffc4 	movi	r2,-1
 800e6dc:	e0bffe15 	stw	r2,-8(fp)
 800e6e0:	00000e06 	br	800e71c <read+0x10c>
        }
        return rval;
 800e6e4:	e0bff917 	ldw	r2,-28(fp)
 800e6e8:	e0bffe15 	stw	r2,-8(fp)
 800e6ec:	00000b06 	br	800e71c <read+0x10c>
      }
      else
      {
        ALT_ERRNO = EACCES;
 800e6f0:	800e7340 	call	800e734 <alt_get_errno>
 800e6f4:	1007883a 	mov	r3,r2
 800e6f8:	00800344 	movi	r2,13
 800e6fc:	18800015 	stw	r2,0(r3)
 800e700:	00000406 	br	800e714 <read+0x104>
      }
    }
  else
  {
    ALT_ERRNO = EBADFD;
 800e704:	800e7340 	call	800e734 <alt_get_errno>
 800e708:	1007883a 	mov	r3,r2
 800e70c:	00801444 	movi	r2,81
 800e710:	18800015 	stw	r2,0(r3)
  }
  return -1;
 800e714:	00bfffc4 	movi	r2,-1
 800e718:	e0bffe15 	stw	r2,-8(fp)
 800e71c:	e0bffe17 	ldw	r2,-8(fp)
}
 800e720:	e037883a 	mov	sp,fp
 800e724:	dfc00117 	ldw	ra,4(sp)
 800e728:	df000017 	ldw	fp,0(sp)
 800e72c:	dec00204 	addi	sp,sp,8
 800e730:	f800283a 	ret

0800e734 <alt_get_errno>:
#undef errno

extern int errno;

static ALT_INLINE int* alt_get_errno(void)
{
 800e734:	defffd04 	addi	sp,sp,-12
 800e738:	dfc00215 	stw	ra,8(sp)
 800e73c:	df000115 	stw	fp,4(sp)
 800e740:	df000104 	addi	fp,sp,4
  return ((alt_errno) ? alt_errno() : &errno);
 800e744:	00820074 	movhi	r2,2049
 800e748:	109b8e04 	addi	r2,r2,28216
 800e74c:	10800017 	ldw	r2,0(r2)
 800e750:	1005003a 	cmpeq	r2,r2,zero
 800e754:	1000061e 	bne	r2,zero,800e770 <alt_get_errno+0x3c>
 800e758:	00820074 	movhi	r2,2049
 800e75c:	109b8e04 	addi	r2,r2,28216
 800e760:	10800017 	ldw	r2,0(r2)
 800e764:	103ee83a 	callr	r2
 800e768:	e0bfff15 	stw	r2,-4(fp)
 800e76c:	00000306 	br	800e77c <alt_get_errno+0x48>
 800e770:	008200b4 	movhi	r2,2050
 800e774:	10a23b04 	addi	r2,r2,-30484
 800e778:	e0bfff15 	stw	r2,-4(fp)
 800e77c:	e0bfff17 	ldw	r2,-4(fp)
}
 800e780:	e037883a 	mov	sp,fp
 800e784:	dfc00117 	ldw	ra,4(sp)
 800e788:	df000017 	ldw	fp,0(sp)
 800e78c:	dec00204 	addi	sp,sp,8
 800e790:	f800283a 	ret

0800e794 <alt_release_fd>:
 * File descriptors correcponding to standard in, standard out and standard 
 * error cannont be released backed to the pool. They are always reserved.
 */

void alt_release_fd (int fd)
{
 800e794:	defffc04 	addi	sp,sp,-16
 800e798:	dfc00315 	stw	ra,12(sp)
 800e79c:	df000215 	stw	fp,8(sp)
 800e7a0:	dc000115 	stw	r16,4(sp)
 800e7a4:	df000104 	addi	fp,sp,4
 800e7a8:	e13fff15 	stw	r4,-4(fp)
  if (fd > 2)
 800e7ac:	e0bfff17 	ldw	r2,-4(fp)
 800e7b0:	108000d0 	cmplti	r2,r2,3
 800e7b4:	10000f1e 	bne	r2,zero,800e7f4 <alt_release_fd+0x60>
  {
    alt_fd_list[fd].fd_flags = 0;
 800e7b8:	e13fff17 	ldw	r4,-4(fp)
 800e7bc:	04020074 	movhi	r16,2049
 800e7c0:	84170004 	addi	r16,r16,23552
 800e7c4:	01400304 	movi	r5,12
 800e7c8:	800d84c0 	call	800d84c <__mulsi3>
 800e7cc:	1405883a 	add	r2,r2,r16
 800e7d0:	10800204 	addi	r2,r2,8
 800e7d4:	10000015 	stw	zero,0(r2)
    alt_fd_list[fd].dev      = 0;
 800e7d8:	e13fff17 	ldw	r4,-4(fp)
 800e7dc:	04020074 	movhi	r16,2049
 800e7e0:	84170004 	addi	r16,r16,23552
 800e7e4:	01400304 	movi	r5,12
 800e7e8:	800d84c0 	call	800d84c <__mulsi3>
 800e7ec:	1405883a 	add	r2,r2,r16
 800e7f0:	10000015 	stw	zero,0(r2)
  }
}
 800e7f4:	e037883a 	mov	sp,fp
 800e7f8:	dfc00217 	ldw	ra,8(sp)
 800e7fc:	df000117 	ldw	fp,4(sp)
 800e800:	dc000017 	ldw	r16,0(sp)
 800e804:	dec00304 	addi	sp,sp,12
 800e808:	f800283a 	ret

0800e80c <sbrk>:
#endif
 
caddr_t ALT_SBRK (int incr) __attribute__ ((no_instrument_function ));

caddr_t ALT_SBRK (int incr)
{ 
 800e80c:	defff804 	addi	sp,sp,-32
 800e810:	df000715 	stw	fp,28(sp)
 800e814:	df000704 	addi	fp,sp,28
 800e818:	e13ffe15 	stw	r4,-8(fp)
static ALT_INLINE alt_irq_context ALT_ALWAYS_INLINE 
       alt_irq_disable_all (void)
{
  alt_irq_context context;

  NIOS2_READ_STATUS (context);
 800e81c:	0005303a 	rdctl	r2,status
 800e820:	e0bffb15 	stw	r2,-20(fp)

  NIOS2_WRITE_STATUS (context & ~NIOS2_STATUS_PIE_MSK);
 800e824:	e0fffb17 	ldw	r3,-20(fp)
 800e828:	00bfff84 	movi	r2,-2
 800e82c:	1884703a 	and	r2,r3,r2
 800e830:	1001703a 	wrctl	status,r2
  
  return context;
 800e834:	e0bffb17 	ldw	r2,-20(fp)
  alt_irq_context context;
  char *prev_heap_end; 

  context = alt_irq_disable_all();
 800e838:	e0bffd15 	stw	r2,-12(fp)

  /* Always return data aligned on a word boundary */
  heap_end = (char *)(((unsigned int)heap_end + 3) & ~3);
 800e83c:	d0a00c17 	ldw	r2,-32720(gp)
 800e840:	10c000c4 	addi	r3,r2,3
 800e844:	00bfff04 	movi	r2,-4
 800e848:	1884703a 	and	r2,r3,r2
 800e84c:	d0a00c15 	stw	r2,-32720(gp)
  if (((heap_end + incr) - __alt_heap_start) > ALT_MAX_HEAP_BYTES) {
    alt_irq_enable_all(context);
    return (caddr_t)-1;
  }
#else
  if ((heap_end + incr) > __alt_heap_limit) {
 800e850:	d0e00c17 	ldw	r3,-32720(gp)
 800e854:	e0bffe17 	ldw	r2,-8(fp)
 800e858:	1887883a 	add	r3,r3,r2
 800e85c:	00840034 	movhi	r2,4096
 800e860:	10800004 	addi	r2,r2,0
 800e864:	10c0072e 	bgeu	r2,r3,800e884 <sbrk+0x78>
 800e868:	e0bffd17 	ldw	r2,-12(fp)
 800e86c:	e0bffa15 	stw	r2,-24(fp)
  status &= ~NIOS2_STATUS_PIE_MSK;
  status |= (context & NIOS2_STATUS_PIE_MSK);
  
  NIOS2_WRITE_STATUS (status);
#else
  NIOS2_WRITE_STATUS (context);
 800e870:	e0bffa17 	ldw	r2,-24(fp)
 800e874:	1001703a 	wrctl	status,r2
    alt_irq_enable_all(context);
    return (caddr_t)-1;
 800e878:	00bfffc4 	movi	r2,-1
 800e87c:	e0bfff15 	stw	r2,-4(fp)
 800e880:	00000c06 	br	800e8b4 <sbrk+0xa8>
  }
#endif

  prev_heap_end = heap_end; 
 800e884:	d0a00c17 	ldw	r2,-32720(gp)
 800e888:	e0bffc15 	stw	r2,-16(fp)
  heap_end += incr; 
 800e88c:	d0e00c17 	ldw	r3,-32720(gp)
 800e890:	e0bffe17 	ldw	r2,-8(fp)
 800e894:	1885883a 	add	r2,r3,r2
 800e898:	d0a00c15 	stw	r2,-32720(gp)
 800e89c:	e0bffd17 	ldw	r2,-12(fp)
 800e8a0:	e0bff915 	stw	r2,-28(fp)
 800e8a4:	e0bff917 	ldw	r2,-28(fp)
 800e8a8:	1001703a 	wrctl	status,r2

#endif

  alt_irq_enable_all(context);

  return (caddr_t) prev_heap_end; 
 800e8ac:	e0bffc17 	ldw	r2,-16(fp)
 800e8b0:	e0bfff15 	stw	r2,-4(fp)
 800e8b4:	e0bfff17 	ldw	r2,-4(fp)
} 
 800e8b8:	e037883a 	mov	sp,fp
 800e8bc:	df000017 	ldw	fp,0(sp)
 800e8c0:	dec00104 	addi	sp,sp,4
 800e8c4:	f800283a 	ret

0800e8c8 <write>:
}

#else /* !ALT_USE_DIRECT_DRIVERS */

int ALT_WRITE (int file, const void *ptr, size_t len)
{
 800e8c8:	defff704 	addi	sp,sp,-36
 800e8cc:	dfc00815 	stw	ra,32(sp)
 800e8d0:	df000715 	stw	fp,28(sp)
 800e8d4:	df000704 	addi	fp,sp,28
 800e8d8:	e13ffb15 	stw	r4,-20(fp)
 800e8dc:	e17ffc15 	stw	r5,-16(fp)
 800e8e0:	e1bffd15 	stw	r6,-12(fp)
   * A common error case is that when the file descriptor was created, the call
   * to open() failed resulting in a negative file descriptor. This is trapped
   * below so that we don't try and process an invalid file descriptor.
   */

  fd = (file < 0) ? NULL : &alt_fd_list[file];
 800e8e4:	e0bffb17 	ldw	r2,-20(fp)
 800e8e8:	1004803a 	cmplt	r2,r2,zero
 800e8ec:	1000091e 	bne	r2,zero,800e914 <write+0x4c>
 800e8f0:	e13ffb17 	ldw	r4,-20(fp)
 800e8f4:	01400304 	movi	r5,12
 800e8f8:	800d84c0 	call	800d84c <__mulsi3>
 800e8fc:	1007883a 	mov	r3,r2
 800e900:	00820074 	movhi	r2,2049
 800e904:	10970004 	addi	r2,r2,23552
 800e908:	1887883a 	add	r3,r3,r2
 800e90c:	e0ffff15 	stw	r3,-4(fp)
 800e910:	00000106 	br	800e918 <write+0x50>
 800e914:	e03fff15 	stw	zero,-4(fp)
 800e918:	e0bfff17 	ldw	r2,-4(fp)
 800e91c:	e0bffa15 	stw	r2,-24(fp)
  
  if (fd)
 800e920:	e0bffa17 	ldw	r2,-24(fp)
 800e924:	1005003a 	cmpeq	r2,r2,zero
 800e928:	1000241e 	bne	r2,zero,800e9bc <write+0xf4>
     * If the file has not been opened with write access, or if the driver does
     * not provide an implementation of write(), generate an error. Otherwise
     * call the drivers write() function to process the request.
     */

    if (((fd->fd_flags & O_ACCMODE) != O_RDONLY) && fd->dev->write)
 800e92c:	e0bffa17 	ldw	r2,-24(fp)
 800e930:	10800217 	ldw	r2,8(r2)
 800e934:	108000cc 	andi	r2,r2,3
 800e938:	1005003a 	cmpeq	r2,r2,zero
 800e93c:	10001a1e 	bne	r2,zero,800e9a8 <write+0xe0>
 800e940:	e0bffa17 	ldw	r2,-24(fp)
 800e944:	10800017 	ldw	r2,0(r2)
 800e948:	10800617 	ldw	r2,24(r2)
 800e94c:	1005003a 	cmpeq	r2,r2,zero
 800e950:	1000151e 	bne	r2,zero,800e9a8 <write+0xe0>
    {
      
      /* ALT_LOG - see altera_hal/HAL/inc/sys/alt_log_printf.h */
      ALT_LOG_WRITE_FUNCTION(ptr,len);

      if ((rval = fd->dev->write(fd, ptr, len)) < 0)
 800e954:	e0bffa17 	ldw	r2,-24(fp)
 800e958:	10800017 	ldw	r2,0(r2)
 800e95c:	10800617 	ldw	r2,24(r2)
 800e960:	e17ffc17 	ldw	r5,-16(fp)
 800e964:	e1bffd17 	ldw	r6,-12(fp)
 800e968:	e13ffa17 	ldw	r4,-24(fp)
 800e96c:	103ee83a 	callr	r2
 800e970:	e0bff915 	stw	r2,-28(fp)
 800e974:	e0bff917 	ldw	r2,-28(fp)
 800e978:	1004403a 	cmpge	r2,r2,zero
 800e97c:	1000071e 	bne	r2,zero,800e99c <write+0xd4>
      {
        ALT_ERRNO = -rval;
 800e980:	800e9ec0 	call	800e9ec <alt_get_errno>
 800e984:	e0fff917 	ldw	r3,-28(fp)
 800e988:	00c7c83a 	sub	r3,zero,r3
 800e98c:	10c00015 	stw	r3,0(r2)
        return -1;
 800e990:	00bfffc4 	movi	r2,-1
 800e994:	e0bffe15 	stw	r2,-8(fp)
 800e998:	00000e06 	br	800e9d4 <write+0x10c>
      }
      return rval;
 800e99c:	e0bff917 	ldw	r2,-28(fp)
 800e9a0:	e0bffe15 	stw	r2,-8(fp)
 800e9a4:	00000b06 	br	800e9d4 <write+0x10c>
    }
    else
    {
      ALT_ERRNO = EACCES;
 800e9a8:	800e9ec0 	call	800e9ec <alt_get_errno>
 800e9ac:	1007883a 	mov	r3,r2
 800e9b0:	00800344 	movi	r2,13
 800e9b4:	18800015 	stw	r2,0(r3)
 800e9b8:	00000406 	br	800e9cc <write+0x104>
    }
  }
  else  
  {
    ALT_ERRNO = EBADFD;
 800e9bc:	800e9ec0 	call	800e9ec <alt_get_errno>
 800e9c0:	1007883a 	mov	r3,r2
 800e9c4:	00801444 	movi	r2,81
 800e9c8:	18800015 	stw	r2,0(r3)
  }
  return -1;
 800e9cc:	00bfffc4 	movi	r2,-1
 800e9d0:	e0bffe15 	stw	r2,-8(fp)
 800e9d4:	e0bffe17 	ldw	r2,-8(fp)
}
 800e9d8:	e037883a 	mov	sp,fp
 800e9dc:	dfc00117 	ldw	ra,4(sp)
 800e9e0:	df000017 	ldw	fp,0(sp)
 800e9e4:	dec00204 	addi	sp,sp,8
 800e9e8:	f800283a 	ret

0800e9ec <alt_get_errno>:
#undef errno

extern int errno;

static ALT_INLINE int* alt_get_errno(void)
{
 800e9ec:	defffd04 	addi	sp,sp,-12
 800e9f0:	dfc00215 	stw	ra,8(sp)
 800e9f4:	df000115 	stw	fp,4(sp)
 800e9f8:	df000104 	addi	fp,sp,4
  return ((alt_errno) ? alt_errno() : &errno);
 800e9fc:	00820074 	movhi	r2,2049
 800ea00:	109b8e04 	addi	r2,r2,28216
 800ea04:	10800017 	ldw	r2,0(r2)
 800ea08:	1005003a 	cmpeq	r2,r2,zero
 800ea0c:	1000061e 	bne	r2,zero,800ea28 <alt_get_errno+0x3c>
 800ea10:	00820074 	movhi	r2,2049
 800ea14:	109b8e04 	addi	r2,r2,28216
 800ea18:	10800017 	ldw	r2,0(r2)
 800ea1c:	103ee83a 	callr	r2
 800ea20:	e0bfff15 	stw	r2,-4(fp)
 800ea24:	00000306 	br	800ea34 <alt_get_errno+0x48>
 800ea28:	008200b4 	movhi	r2,2050
 800ea2c:	10a23b04 	addi	r2,r2,-30484
 800ea30:	e0bfff15 	stw	r2,-4(fp)
 800ea34:	e0bfff17 	ldw	r2,-4(fp)
}
 800ea38:	e037883a 	mov	sp,fp
 800ea3c:	dfc00117 	ldw	ra,4(sp)
 800ea40:	df000017 	ldw	fp,0(sp)
 800ea44:	dec00204 	addi	sp,sp,8
 800ea48:	f800283a 	ret

0800ea4c <alt_irq_init>:
 * The "base" parameter is ignored and only
 * present for backwards-compatibility.
 */

void alt_irq_init ( const void* base )
{
 800ea4c:	defffd04 	addi	sp,sp,-12
 800ea50:	dfc00215 	stw	ra,8(sp)
 800ea54:	df000115 	stw	fp,4(sp)
 800ea58:	df000104 	addi	fp,sp,4
 800ea5c:	e13fff15 	stw	r4,-4(fp)
    ALTERA_NIOS2_IRQ_INIT ( CPU_0, cpu_0);
 800ea60:	801469c0 	call	801469c <altera_nios2_irq_init>
 * alt_irq_cpu_enable_interrupts() enables the CPU to start taking interrupts.
 */
static ALT_INLINE void ALT_ALWAYS_INLINE 
       alt_irq_cpu_enable_interrupts ()
{
    NIOS2_WRITE_STATUS(NIOS2_STATUS_PIE_MSK
 800ea64:	00800044 	movi	r2,1
 800ea68:	1001703a 	wrctl	status,r2
    alt_irq_cpu_enable_interrupts();
}
 800ea6c:	e037883a 	mov	sp,fp
 800ea70:	dfc00117 	ldw	ra,4(sp)
 800ea74:	df000017 	ldw	fp,0(sp)
 800ea78:	dec00204 	addi	sp,sp,8
 800ea7c:	f800283a 	ret

0800ea80 <alt_sys_init>:
 * Initialize the non-interrupt controller devices.
 * Called after alt_irq_init().
 */

void alt_sys_init( void )
{
 800ea80:	defffe04 	addi	sp,sp,-8
 800ea84:	dfc00115 	stw	ra,4(sp)
 800ea88:	df000015 	stw	fp,0(sp)
 800ea8c:	d839883a 	mov	fp,sp
    ALTERA_AVALON_JTAG_UART_INIT ( JTAG_UART_0, jtag_uart_0);
 800ea90:	01020074 	movhi	r4,2049
 800ea94:	21176a04 	addi	r4,r4,23976
 800ea98:	000b883a 	mov	r5,zero
 800ea9c:	000d883a 	mov	r6,zero
 800eaa0:	800ec500 	call	800ec50 <altera_avalon_jtag_uart_init>
 800eaa4:	01020074 	movhi	r4,2049
 800eaa8:	21176004 	addi	r4,r4,23936
 800eaac:	800ead00 	call	800ead0 <alt_dev_reg>
    ALTERA_AVALON_SYSID_INIT ( SYSID, sysid);
    ALTERA_UP_SD_CARD_AVALON_INTERFACE_INIT ( ALTERA_UP_SD_CARD_AVALON_INTERFACE_0, Altera_UP_SD_Card_Avalon_Interface_0);
 800eab0:	01020074 	movhi	r4,2049
 800eab4:	211b7804 	addi	r4,r4,28128
 800eab8:	800ead00 	call	800ead0 <alt_dev_reg>
}
 800eabc:	e037883a 	mov	sp,fp
 800eac0:	dfc00117 	ldw	ra,4(sp)
 800eac4:	df000017 	ldw	fp,0(sp)
 800eac8:	dec00204 	addi	sp,sp,8
 800eacc:	f800283a 	ret

0800ead0 <alt_dev_reg>:
 */

extern int alt_fs_reg  (alt_dev* dev); 

static ALT_INLINE int alt_dev_reg (alt_dev* dev)
{
 800ead0:	defffd04 	addi	sp,sp,-12
 800ead4:	dfc00215 	stw	ra,8(sp)
 800ead8:	df000115 	stw	fp,4(sp)
 800eadc:	df000104 	addi	fp,sp,4
 800eae0:	e13fff15 	stw	r4,-4(fp)
  extern alt_llist alt_dev_list;

  return alt_dev_llist_insert ((alt_dev_llist*) dev, &alt_dev_list);
 800eae4:	e13fff17 	ldw	r4,-4(fp)
 800eae8:	01420074 	movhi	r5,2049
 800eaec:	295b8b04 	addi	r5,r5,28204
 800eaf0:	8013b6c0 	call	8013b6c <alt_dev_llist_insert>
}
 800eaf4:	e037883a 	mov	sp,fp
 800eaf8:	dfc00117 	ldw	ra,4(sp)
 800eafc:	df000017 	ldw	fp,0(sp)
 800eb00:	dec00204 	addi	sp,sp,8
 800eb04:	f800283a 	ret

0800eb08 <altera_avalon_jtag_uart_read_fd>:
 *
 */

int 
altera_avalon_jtag_uart_read_fd(alt_fd* fd, char* buffer, int space)
{
 800eb08:	defffa04 	addi	sp,sp,-24
 800eb0c:	dfc00515 	stw	ra,20(sp)
 800eb10:	df000415 	stw	fp,16(sp)
 800eb14:	df000404 	addi	fp,sp,16
 800eb18:	e13ffd15 	stw	r4,-12(fp)
 800eb1c:	e17ffe15 	stw	r5,-8(fp)
 800eb20:	e1bfff15 	stw	r6,-4(fp)
    altera_avalon_jtag_uart_dev* dev = (altera_avalon_jtag_uart_dev*) fd->dev; 
 800eb24:	e0bffd17 	ldw	r2,-12(fp)
 800eb28:	10800017 	ldw	r2,0(r2)
 800eb2c:	e0bffc15 	stw	r2,-16(fp)

    return altera_avalon_jtag_uart_read(&dev->state, buffer, space,
 800eb30:	e0bffc17 	ldw	r2,-16(fp)
 800eb34:	11000a04 	addi	r4,r2,40
 800eb38:	e0bffd17 	ldw	r2,-12(fp)
 800eb3c:	11c00217 	ldw	r7,8(r2)
 800eb40:	e17ffe17 	ldw	r5,-8(fp)
 800eb44:	e1bfff17 	ldw	r6,-4(fp)
 800eb48:	800f1500 	call	800f150 <altera_avalon_jtag_uart_read>
      fd->fd_flags);
}
 800eb4c:	e037883a 	mov	sp,fp
 800eb50:	dfc00117 	ldw	ra,4(sp)
 800eb54:	df000017 	ldw	fp,0(sp)
 800eb58:	dec00204 	addi	sp,sp,8
 800eb5c:	f800283a 	ret

0800eb60 <altera_avalon_jtag_uart_write_fd>:

int 
altera_avalon_jtag_uart_write_fd(alt_fd* fd, const char* buffer, int space)
{
 800eb60:	defffa04 	addi	sp,sp,-24
 800eb64:	dfc00515 	stw	ra,20(sp)
 800eb68:	df000415 	stw	fp,16(sp)
 800eb6c:	df000404 	addi	fp,sp,16
 800eb70:	e13ffd15 	stw	r4,-12(fp)
 800eb74:	e17ffe15 	stw	r5,-8(fp)
 800eb78:	e1bfff15 	stw	r6,-4(fp)
    altera_avalon_jtag_uart_dev* dev = (altera_avalon_jtag_uart_dev*) fd->dev; 
 800eb7c:	e0bffd17 	ldw	r2,-12(fp)
 800eb80:	10800017 	ldw	r2,0(r2)
 800eb84:	e0bffc15 	stw	r2,-16(fp)

    return altera_avalon_jtag_uart_write(&dev->state, buffer, space,
 800eb88:	e0bffc17 	ldw	r2,-16(fp)
 800eb8c:	11000a04 	addi	r4,r2,40
 800eb90:	e0bffd17 	ldw	r2,-12(fp)
 800eb94:	11c00217 	ldw	r7,8(r2)
 800eb98:	e17ffe17 	ldw	r5,-8(fp)
 800eb9c:	e1bfff17 	ldw	r6,-4(fp)
 800eba0:	800f3740 	call	800f374 <altera_avalon_jtag_uart_write>
      fd->fd_flags);
}
 800eba4:	e037883a 	mov	sp,fp
 800eba8:	dfc00117 	ldw	ra,4(sp)
 800ebac:	df000017 	ldw	fp,0(sp)
 800ebb0:	dec00204 	addi	sp,sp,8
 800ebb4:	f800283a 	ret

0800ebb8 <altera_avalon_jtag_uart_close_fd>:

#ifndef ALTERA_AVALON_JTAG_UART_SMALL

int 
altera_avalon_jtag_uart_close_fd(alt_fd* fd)
{
 800ebb8:	defffc04 	addi	sp,sp,-16
 800ebbc:	dfc00315 	stw	ra,12(sp)
 800ebc0:	df000215 	stw	fp,8(sp)
 800ebc4:	df000204 	addi	fp,sp,8
 800ebc8:	e13fff15 	stw	r4,-4(fp)
    altera_avalon_jtag_uart_dev* dev = (altera_avalon_jtag_uart_dev*) fd->dev; 
 800ebcc:	e0bfff17 	ldw	r2,-4(fp)
 800ebd0:	10800017 	ldw	r2,0(r2)
 800ebd4:	e0bffe15 	stw	r2,-8(fp)

    return altera_avalon_jtag_uart_close(&dev->state, fd->fd_flags);
 800ebd8:	e0bffe17 	ldw	r2,-8(fp)
 800ebdc:	11000a04 	addi	r4,r2,40
 800ebe0:	e0bfff17 	ldw	r2,-4(fp)
 800ebe4:	11400217 	ldw	r5,8(r2)
 800ebe8:	800efe80 	call	800efe8 <altera_avalon_jtag_uart_close>
}
 800ebec:	e037883a 	mov	sp,fp
 800ebf0:	dfc00117 	ldw	ra,4(sp)
 800ebf4:	df000017 	ldw	fp,0(sp)
 800ebf8:	dec00204 	addi	sp,sp,8
 800ebfc:	f800283a 	ret

0800ec00 <altera_avalon_jtag_uart_ioctl_fd>:

int 
altera_avalon_jtag_uart_ioctl_fd(alt_fd* fd, int req, void* arg)
{
 800ec00:	defffa04 	addi	sp,sp,-24
 800ec04:	dfc00515 	stw	ra,20(sp)
 800ec08:	df000415 	stw	fp,16(sp)
 800ec0c:	df000404 	addi	fp,sp,16
 800ec10:	e13ffd15 	stw	r4,-12(fp)
 800ec14:	e17ffe15 	stw	r5,-8(fp)
 800ec18:	e1bfff15 	stw	r6,-4(fp)
    altera_avalon_jtag_uart_dev* dev = (altera_avalon_jtag_uart_dev*) fd->dev;
 800ec1c:	e0bffd17 	ldw	r2,-12(fp)
 800ec20:	10800017 	ldw	r2,0(r2)
 800ec24:	e0bffc15 	stw	r2,-16(fp)

    return altera_avalon_jtag_uart_ioctl(&dev->state, req, arg);
 800ec28:	e0bffc17 	ldw	r2,-16(fp)
 800ec2c:	11000a04 	addi	r4,r2,40
 800ec30:	e17ffe17 	ldw	r5,-8(fp)
 800ec34:	e1bfff17 	ldw	r6,-4(fp)
 800ec38:	800f05c0 	call	800f05c <altera_avalon_jtag_uart_ioctl>
}
 800ec3c:	e037883a 	mov	sp,fp
 800ec40:	dfc00117 	ldw	ra,4(sp)
 800ec44:	df000017 	ldw	fp,0(sp)
 800ec48:	dec00204 	addi	sp,sp,8
 800ec4c:	f800283a 	ret

0800ec50 <altera_avalon_jtag_uart_init>:
 * Return 1 on sucessful IRQ register and 0 on failure.
 */

void altera_avalon_jtag_uart_init(altera_avalon_jtag_uart_state* sp, 
                                  int irq_controller_id, int irq)
{
 800ec50:	defffa04 	addi	sp,sp,-24
 800ec54:	dfc00515 	stw	ra,20(sp)
 800ec58:	df000415 	stw	fp,16(sp)
 800ec5c:	df000404 	addi	fp,sp,16
 800ec60:	e13ffd15 	stw	r4,-12(fp)
 800ec64:	e17ffe15 	stw	r5,-8(fp)
 800ec68:	e1bfff15 	stw	r6,-4(fp)
  ALT_FLAG_CREATE(&sp->events, 0);
  ALT_SEM_CREATE(&sp->read_lock, 1);
  ALT_SEM_CREATE(&sp->write_lock, 1);

  /* enable read interrupts at the device */
  sp->irq_enable = ALTERA_AVALON_JTAG_UART_CONTROL_RE_MSK;
 800ec6c:	e0fffd17 	ldw	r3,-12(fp)
 800ec70:	00800044 	movi	r2,1
 800ec74:	18800815 	stw	r2,32(r3)

  IOWR_ALTERA_AVALON_JTAG_UART_CONTROL(sp->base, sp->irq_enable); 
 800ec78:	e0bffd17 	ldw	r2,-12(fp)
 800ec7c:	10800017 	ldw	r2,0(r2)
 800ec80:	11000104 	addi	r4,r2,4
 800ec84:	e0bffd17 	ldw	r2,-12(fp)
 800ec88:	10800817 	ldw	r2,32(r2)
 800ec8c:	1007883a 	mov	r3,r2
 800ec90:	2005883a 	mov	r2,r4
 800ec94:	10c00035 	stwio	r3,0(r2)
  
  /* register the interrupt handler */
#ifdef ALT_ENHANCED_INTERRUPT_API_PRESENT
  alt_ic_isr_register(irq_controller_id, irq, altera_avalon_jtag_uart_irq, 
 800ec98:	e13ffe17 	ldw	r4,-8(fp)
 800ec9c:	e17fff17 	ldw	r5,-4(fp)
 800eca0:	d8000015 	stw	zero,0(sp)
 800eca4:	01820074 	movhi	r6,2049
 800eca8:	31bb4404 	addi	r6,r6,-4848
 800ecac:	e1fffd17 	ldw	r7,-12(fp)
 800ecb0:	8013df80 	call	8013df8 <alt_ic_isr_register>
#else
  alt_irq_register(irq, sp, altera_avalon_jtag_uart_irq);
#endif  

  /* Register an alarm to go off every second to check for presence of host */
  sp->host_inactive = 0;
 800ecb4:	e0bffd17 	ldw	r2,-12(fp)
 800ecb8:	10000915 	stw	zero,36(r2)

  if (alt_alarm_start(&sp->alarm, alt_ticks_per_second(), 
 800ecbc:	e0bffd17 	ldw	r2,-12(fp)
 800ecc0:	11000204 	addi	r4,r2,8
 * Obtain the system clock rate in ticks/s. 
 */

static ALT_INLINE alt_u32 ALT_ALWAYS_INLINE alt_ticks_per_second (void)
{
  return _alt_tick_rate;
 800ecc4:	008200b4 	movhi	r2,2050
 800ecc8:	10a25004 	addi	r2,r2,-30400
 800eccc:	10800017 	ldw	r2,0(r2)
 800ecd0:	100b883a 	mov	r5,r2
 800ecd4:	01820074 	movhi	r6,2049
 800ecd8:	31bbce04 	addi	r6,r6,-4296
 800ecdc:	e1fffd17 	ldw	r7,-12(fp)
 800ece0:	80139fc0 	call	80139fc <alt_alarm_start>
 800ece4:	1004403a 	cmpge	r2,r2,zero
 800ece8:	1000041e 	bne	r2,zero,800ecfc <altera_avalon_jtag_uart_init+0xac>
    &altera_avalon_jtag_uart_timeout, sp) < 0)
  {
    /* If we can't set the alarm then record "don't know if host present" 
     * and behave as though the host is present.
     */
    sp->timeout = INT_MAX;
 800ecec:	e0fffd17 	ldw	r3,-12(fp)
 800ecf0:	00a00034 	movhi	r2,32768
 800ecf4:	10bfffc4 	addi	r2,r2,-1
 800ecf8:	18800115 	stw	r2,4(r3)
  }

  /* ALT_LOG - see altera_hal/HAL/inc/sys/alt_log_printf.h */ 
  ALT_LOG_JTAG_UART_ALARM_REGISTER(sp, sp->base);
}
 800ecfc:	e037883a 	mov	sp,fp
 800ed00:	dfc00117 	ldw	ra,4(sp)
 800ed04:	df000017 	ldw	fp,0(sp)
 800ed08:	dec00204 	addi	sp,sp,8
 800ed0c:	f800283a 	ret

0800ed10 <altera_avalon_jtag_uart_irq>:
#ifdef ALT_ENHANCED_INTERRUPT_API_PRESENT
static void altera_avalon_jtag_uart_irq(void* context)
#else
static void altera_avalon_jtag_uart_irq(void* context, alt_u32 id)
#endif
{
 800ed10:	defff804 	addi	sp,sp,-32
 800ed14:	df000715 	stw	fp,28(sp)
 800ed18:	df000704 	addi	fp,sp,28
 800ed1c:	e13fff15 	stw	r4,-4(fp)
  altera_avalon_jtag_uart_state* sp = (altera_avalon_jtag_uart_state*) context;
 800ed20:	e0bfff17 	ldw	r2,-4(fp)
 800ed24:	e0bffe15 	stw	r2,-8(fp)
  unsigned int base = sp->base;
 800ed28:	e0bffe17 	ldw	r2,-8(fp)
 800ed2c:	10800017 	ldw	r2,0(r2)
 800ed30:	e0bffd15 	stw	r2,-12(fp)
 800ed34:	00000006 	br	800ed38 <altera_avalon_jtag_uart_irq+0x28>
  /* ALT_LOG - see altera_hal/HAL/inc/sys/alt_log_printf.h */ 
  ALT_LOG_JTAG_UART_ISR_FUNCTION(base, sp);

  for ( ; ; )
  {
    unsigned int control = IORD_ALTERA_AVALON_JTAG_UART_CONTROL(base);
 800ed38:	e0bffd17 	ldw	r2,-12(fp)
 800ed3c:	10800104 	addi	r2,r2,4
 800ed40:	10800037 	ldwio	r2,0(r2)
 800ed44:	e0bffc15 	stw	r2,-16(fp)

    /* Return once nothing more to do */
    if ((control & (ALTERA_AVALON_JTAG_UART_CONTROL_RI_MSK | ALTERA_AVALON_JTAG_UART_CONTROL_WI_MSK)) == 0)
 800ed48:	e0bffc17 	ldw	r2,-16(fp)
 800ed4c:	1080c00c 	andi	r2,r2,768
 800ed50:	1005003a 	cmpeq	r2,r2,zero
 800ed54:	1000741e 	bne	r2,zero,800ef28 <altera_avalon_jtag_uart_irq+0x218>
      break;

    if (control & ALTERA_AVALON_JTAG_UART_CONTROL_RI_MSK)
 800ed58:	e0bffc17 	ldw	r2,-16(fp)
 800ed5c:	1080400c 	andi	r2,r2,256
 800ed60:	1005003a 	cmpeq	r2,r2,zero
 800ed64:	1000351e 	bne	r2,zero,800ee3c <altera_avalon_jtag_uart_irq+0x12c>
    {
      /* process a read irq.  Start by assuming that there is data in the
       * receive FIFO (otherwise why would we have been interrupted?)
       */
      unsigned int data = 1 << ALTERA_AVALON_JTAG_UART_DATA_RAVAIL_OFST;
 800ed68:	00800074 	movhi	r2,1
 800ed6c:	e0bffb15 	stw	r2,-20(fp)
      for ( ; ; )
      {
        /* Check whether there is space in the buffer.  If not then we must not
         * read any characters from the buffer as they will be lost.
         */
        unsigned int next = (sp->rx_in + 1) % ALTERA_AVALON_JTAG_UART_BUF_LEN;
 800ed70:	e0bffe17 	ldw	r2,-8(fp)
 800ed74:	10800a17 	ldw	r2,40(r2)
 800ed78:	10800044 	addi	r2,r2,1
 800ed7c:	1081ffcc 	andi	r2,r2,2047
 800ed80:	e0bffa15 	stw	r2,-24(fp)
        if (next == sp->rx_out)
 800ed84:	e0bffe17 	ldw	r2,-8(fp)
 800ed88:	10c00b17 	ldw	r3,44(r2)
 800ed8c:	e0bffa17 	ldw	r2,-24(fp)
 800ed90:	18801626 	beq	r3,r2,800edec <altera_avalon_jtag_uart_irq+0xdc>
          break;

        /* Try to remove a character from the FIFO and find out whether there
         * are any more characters remaining.
         */
        data = IORD_ALTERA_AVALON_JTAG_UART_DATA(base);
 800ed94:	e0bffd17 	ldw	r2,-12(fp)
 800ed98:	10800037 	ldwio	r2,0(r2)
 800ed9c:	e0bffb15 	stw	r2,-20(fp)
        
        if ((data & ALTERA_AVALON_JTAG_UART_DATA_RVALID_MSK) == 0)
 800eda0:	e0bffb17 	ldw	r2,-20(fp)
 800eda4:	10a0000c 	andi	r2,r2,32768
 800eda8:	1005003a 	cmpeq	r2,r2,zero
 800edac:	10000f1e 	bne	r2,zero,800edec <altera_avalon_jtag_uart_irq+0xdc>
          break;

        sp->rx_buf[sp->rx_in] = (data & ALTERA_AVALON_JTAG_UART_DATA_DATA_MSK) >> ALTERA_AVALON_JTAG_UART_DATA_DATA_OFST;
 800edb0:	e0bffe17 	ldw	r2,-8(fp)
 800edb4:	10c00a17 	ldw	r3,40(r2)
 800edb8:	e0bffb17 	ldw	r2,-20(fp)
 800edbc:	1009883a 	mov	r4,r2
 800edc0:	e0bffe17 	ldw	r2,-8(fp)
 800edc4:	1885883a 	add	r2,r3,r2
 800edc8:	10800e04 	addi	r2,r2,56
 800edcc:	11000005 	stb	r4,0(r2)
        sp->rx_in = (sp->rx_in + 1) % ALTERA_AVALON_JTAG_UART_BUF_LEN;
 800edd0:	e0bffe17 	ldw	r2,-8(fp)
 800edd4:	10800a17 	ldw	r2,40(r2)
 800edd8:	10800044 	addi	r2,r2,1
 800eddc:	10c1ffcc 	andi	r3,r2,2047
 800ede0:	e0bffe17 	ldw	r2,-8(fp)
 800ede4:	10c00a15 	stw	r3,40(r2)

        /* Post an event to notify jtag_uart_read that a character has been read */
        ALT_FLAG_POST (sp->events, ALT_JTAG_UART_READ_RDY, OS_FLAG_SET);
      }
 800ede8:	003fe106 	br	800ed70 <altera_avalon_jtag_uart_irq+0x60>

      if (data & ALTERA_AVALON_JTAG_UART_DATA_RAVAIL_MSK)
 800edec:	e0bffb17 	ldw	r2,-20(fp)
 800edf0:	10bfffec 	andhi	r2,r2,65535
 800edf4:	1005003a 	cmpeq	r2,r2,zero
 800edf8:	1000101e 	bne	r2,zero,800ee3c <altera_avalon_jtag_uart_irq+0x12c>
      {
        /* If there is still data available here then the buffer is full 
         * so turn off receive interrupts until some space becomes available.
         */
        sp->irq_enable &= ~ALTERA_AVALON_JTAG_UART_CONTROL_RE_MSK;
 800edfc:	e0bffe17 	ldw	r2,-8(fp)
 800ee00:	10c00817 	ldw	r3,32(r2)
 800ee04:	00bfff84 	movi	r2,-2
 800ee08:	1886703a 	and	r3,r3,r2
 800ee0c:	e0bffe17 	ldw	r2,-8(fp)
 800ee10:	10c00815 	stw	r3,32(r2)
        IOWR_ALTERA_AVALON_JTAG_UART_CONTROL(base, sp->irq_enable);
 800ee14:	e0bffd17 	ldw	r2,-12(fp)
 800ee18:	11000104 	addi	r4,r2,4
 800ee1c:	e0bffe17 	ldw	r2,-8(fp)
 800ee20:	10800817 	ldw	r2,32(r2)
 800ee24:	1007883a 	mov	r3,r2
 800ee28:	2005883a 	mov	r2,r4
 800ee2c:	10c00035 	stwio	r3,0(r2)
        
        /* Dummy read to ensure IRQ is cleared prior to ISR completion */
        IORD_ALTERA_AVALON_JTAG_UART_CONTROL(base);
 800ee30:	e0bffd17 	ldw	r2,-12(fp)
 800ee34:	10800104 	addi	r2,r2,4
 800ee38:	10800037 	ldwio	r2,0(r2)
      }
    }

    if (control & ALTERA_AVALON_JTAG_UART_CONTROL_WI_MSK)
 800ee3c:	e0bffc17 	ldw	r2,-16(fp)
 800ee40:	1080800c 	andi	r2,r2,512
 800ee44:	1005003a 	cmpeq	r2,r2,zero
 800ee48:	103fbb1e 	bne	r2,zero,800ed38 <altera_avalon_jtag_uart_irq+0x28>
    {
      /* process a write irq */
      unsigned int space = (control & ALTERA_AVALON_JTAG_UART_CONTROL_WSPACE_MSK) >> ALTERA_AVALON_JTAG_UART_CONTROL_WSPACE_OFST;
 800ee4c:	e0bffc17 	ldw	r2,-16(fp)
 800ee50:	10bfffec 	andhi	r2,r2,65535
 800ee54:	1004d43a 	srli	r2,r2,16
 800ee58:	e0bff915 	stw	r2,-28(fp)

      while (space > 0 && sp->tx_out != sp->tx_in)
 800ee5c:	00001506 	br	800eeb4 <altera_avalon_jtag_uart_irq+0x1a4>
      {
        IOWR_ALTERA_AVALON_JTAG_UART_DATA(base, sp->tx_buf[sp->tx_out]);
 800ee60:	e13ffd17 	ldw	r4,-12(fp)
 800ee64:	e0bffe17 	ldw	r2,-8(fp)
 800ee68:	10c00d17 	ldw	r3,52(r2)
 800ee6c:	e0bffe17 	ldw	r2,-8(fp)
 800ee70:	1885883a 	add	r2,r3,r2
 800ee74:	10820e04 	addi	r2,r2,2104
 800ee78:	10800003 	ldbu	r2,0(r2)
 800ee7c:	10c03fcc 	andi	r3,r2,255
 800ee80:	18c0201c 	xori	r3,r3,128
 800ee84:	18ffe004 	addi	r3,r3,-128
 800ee88:	2005883a 	mov	r2,r4
 800ee8c:	10c00035 	stwio	r3,0(r2)

        sp->tx_out = (sp->tx_out + 1) % ALTERA_AVALON_JTAG_UART_BUF_LEN;
 800ee90:	e0bffe17 	ldw	r2,-8(fp)
 800ee94:	10800d17 	ldw	r2,52(r2)
 800ee98:	10800044 	addi	r2,r2,1
 800ee9c:	10c1ffcc 	andi	r3,r2,2047
 800eea0:	e0bffe17 	ldw	r2,-8(fp)
 800eea4:	10c00d15 	stw	r3,52(r2)

        /* Post an event to notify jtag_uart_write that a character has been written */
        ALT_FLAG_POST (sp->events, ALT_JTAG_UART_WRITE_RDY, OS_FLAG_SET);

        space--;
 800eea8:	e0bff917 	ldw	r2,-28(fp)
 800eeac:	10bfffc4 	addi	r2,r2,-1
 800eeb0:	e0bff915 	stw	r2,-28(fp)
    if (control & ALTERA_AVALON_JTAG_UART_CONTROL_WI_MSK)
    {
      /* process a write irq */
      unsigned int space = (control & ALTERA_AVALON_JTAG_UART_CONTROL_WSPACE_MSK) >> ALTERA_AVALON_JTAG_UART_CONTROL_WSPACE_OFST;

      while (space > 0 && sp->tx_out != sp->tx_in)
 800eeb4:	e0bff917 	ldw	r2,-28(fp)
 800eeb8:	1005003a 	cmpeq	r2,r2,zero
 800eebc:	1000051e 	bne	r2,zero,800eed4 <altera_avalon_jtag_uart_irq+0x1c4>
 800eec0:	e0bffe17 	ldw	r2,-8(fp)
 800eec4:	10c00d17 	ldw	r3,52(r2)
 800eec8:	e0bffe17 	ldw	r2,-8(fp)
 800eecc:	10800c17 	ldw	r2,48(r2)
 800eed0:	18bfe31e 	bne	r3,r2,800ee60 <altera_avalon_jtag_uart_irq+0x150>
        ALT_FLAG_POST (sp->events, ALT_JTAG_UART_WRITE_RDY, OS_FLAG_SET);

        space--;
      }

      if (space > 0)
 800eed4:	e0bff917 	ldw	r2,-28(fp)
 800eed8:	1005003a 	cmpeq	r2,r2,zero
 800eedc:	103f961e 	bne	r2,zero,800ed38 <altera_avalon_jtag_uart_irq+0x28>
      {
        /* If we don't have any more data available then turn off the TX interrupt */
        sp->irq_enable &= ~ALTERA_AVALON_JTAG_UART_CONTROL_WE_MSK;
 800eee0:	e0bffe17 	ldw	r2,-8(fp)
 800eee4:	10c00817 	ldw	r3,32(r2)
 800eee8:	00bfff44 	movi	r2,-3
 800eeec:	1886703a 	and	r3,r3,r2
 800eef0:	e0bffe17 	ldw	r2,-8(fp)
 800eef4:	10c00815 	stw	r3,32(r2)
        IOWR_ALTERA_AVALON_JTAG_UART_CONTROL(sp->base, sp->irq_enable);
 800eef8:	e0bffe17 	ldw	r2,-8(fp)
 800eefc:	10800017 	ldw	r2,0(r2)
 800ef00:	11000104 	addi	r4,r2,4
 800ef04:	e0bffe17 	ldw	r2,-8(fp)
 800ef08:	10800817 	ldw	r2,32(r2)
 800ef0c:	1007883a 	mov	r3,r2
 800ef10:	2005883a 	mov	r2,r4
 800ef14:	10c00035 	stwio	r3,0(r2)
        
        /* Dummy read to ensure IRQ is cleared prior to ISR completion */
        IORD_ALTERA_AVALON_JTAG_UART_CONTROL(base);
 800ef18:	e0bffd17 	ldw	r2,-12(fp)
 800ef1c:	10800104 	addi	r2,r2,4
 800ef20:	10800037 	ldwio	r2,0(r2)
      }
    }
  }
 800ef24:	003f8406 	br	800ed38 <altera_avalon_jtag_uart_irq+0x28>
}
 800ef28:	e037883a 	mov	sp,fp
 800ef2c:	df000017 	ldw	fp,0(sp)
 800ef30:	dec00104 	addi	sp,sp,4
 800ef34:	f800283a 	ret

0800ef38 <altera_avalon_jtag_uart_timeout>:
 * Timeout routine is called every second
 */

static alt_u32 
altera_avalon_jtag_uart_timeout(void* context) 
{
 800ef38:	defffc04 	addi	sp,sp,-16
 800ef3c:	df000315 	stw	fp,12(sp)
 800ef40:	df000304 	addi	fp,sp,12
 800ef44:	e13fff15 	stw	r4,-4(fp)
  altera_avalon_jtag_uart_state* sp = (altera_avalon_jtag_uart_state *) context;
 800ef48:	e0bfff17 	ldw	r2,-4(fp)
 800ef4c:	e0bffe15 	stw	r2,-8(fp)

  unsigned int control = IORD_ALTERA_AVALON_JTAG_UART_CONTROL(sp->base);
 800ef50:	e0bffe17 	ldw	r2,-8(fp)
 800ef54:	10800017 	ldw	r2,0(r2)
 800ef58:	10800104 	addi	r2,r2,4
 800ef5c:	10800037 	ldwio	r2,0(r2)
 800ef60:	e0bffd15 	stw	r2,-12(fp)

  if (control & ALTERA_AVALON_JTAG_UART_CONTROL_AC_MSK)
 800ef64:	e0bffd17 	ldw	r2,-12(fp)
 800ef68:	1081000c 	andi	r2,r2,1024
 800ef6c:	1005003a 	cmpeq	r2,r2,zero
 800ef70:	10000c1e 	bne	r2,zero,800efa4 <altera_avalon_jtag_uart_timeout+0x6c>
  {
    IOWR_ALTERA_AVALON_JTAG_UART_CONTROL(sp->base, sp->irq_enable | ALTERA_AVALON_JTAG_UART_CONTROL_AC_MSK);
 800ef74:	e0bffe17 	ldw	r2,-8(fp)
 800ef78:	10800017 	ldw	r2,0(r2)
 800ef7c:	11000104 	addi	r4,r2,4
 800ef80:	e0bffe17 	ldw	r2,-8(fp)
 800ef84:	10800817 	ldw	r2,32(r2)
 800ef88:	10810014 	ori	r2,r2,1024
 800ef8c:	1007883a 	mov	r3,r2
 800ef90:	2005883a 	mov	r2,r4
 800ef94:	10c00035 	stwio	r3,0(r2)
    sp->host_inactive = 0;
 800ef98:	e0bffe17 	ldw	r2,-8(fp)
 800ef9c:	10000915 	stw	zero,36(r2)
 800efa0:	00000a06 	br	800efcc <altera_avalon_jtag_uart_timeout+0x94>
  }
  else if (sp->host_inactive < INT_MAX - 2) {
 800efa4:	e0bffe17 	ldw	r2,-8(fp)
 800efa8:	10c00917 	ldw	r3,36(r2)
 800efac:	00a00034 	movhi	r2,32768
 800efb0:	10bfff04 	addi	r2,r2,-4
 800efb4:	10c00536 	bltu	r2,r3,800efcc <altera_avalon_jtag_uart_timeout+0x94>
    sp->host_inactive++;
 800efb8:	e0bffe17 	ldw	r2,-8(fp)
 800efbc:	10800917 	ldw	r2,36(r2)
 800efc0:	10c00044 	addi	r3,r2,1
 800efc4:	e0bffe17 	ldw	r2,-8(fp)
 800efc8:	10c00915 	stw	r3,36(r2)
 800efcc:	008200b4 	movhi	r2,2050
 800efd0:	10a25004 	addi	r2,r2,-30400
 800efd4:	10800017 	ldw	r2,0(r2)
      ALT_FLAG_POST (sp->events, ALT_JTAG_UART_TIMEOUT, OS_FLAG_SET);
    }
  }

  return alt_ticks_per_second();
}
 800efd8:	e037883a 	mov	sp,fp
 800efdc:	df000017 	ldw	fp,0(sp)
 800efe0:	dec00104 	addi	sp,sp,4
 800efe4:	f800283a 	ret

0800efe8 <altera_avalon_jtag_uart_close>:
 * The close routine is not implemented for the small driver; instead it will
 * map to null. This is because the small driver simply waits while characters
 * are transmitted; there is no interrupt-serviced buffer to empty 
 */
int altera_avalon_jtag_uart_close(altera_avalon_jtag_uart_state* sp, int flags)
{
 800efe8:	defffc04 	addi	sp,sp,-16
 800efec:	df000315 	stw	fp,12(sp)
 800eff0:	df000304 	addi	fp,sp,12
 800eff4:	e13ffd15 	stw	r4,-12(fp)
 800eff8:	e17ffe15 	stw	r5,-8(fp)
  /* 
   * Wait for all transmit data to be emptied by the JTAG UART ISR, or
   * for a host-inactivity timeout, in which case transmit data will be lost
   */
  while ( (sp->tx_out != sp->tx_in) && (sp->host_inactive < sp->timeout) ) {
 800effc:	00000706 	br	800f01c <altera_avalon_jtag_uart_close+0x34>
    if (flags & O_NONBLOCK) {
 800f000:	e0bffe17 	ldw	r2,-8(fp)
 800f004:	1090000c 	andi	r2,r2,16384
 800f008:	1005003a 	cmpeq	r2,r2,zero
 800f00c:	1000031e 	bne	r2,zero,800f01c <altera_avalon_jtag_uart_close+0x34>
      return -EWOULDBLOCK; 
 800f010:	00bffd44 	movi	r2,-11
 800f014:	e0bfff15 	stw	r2,-4(fp)
 800f018:	00000b06 	br	800f048 <altera_avalon_jtag_uart_close+0x60>
{
  /* 
   * Wait for all transmit data to be emptied by the JTAG UART ISR, or
   * for a host-inactivity timeout, in which case transmit data will be lost
   */
  while ( (sp->tx_out != sp->tx_in) && (sp->host_inactive < sp->timeout) ) {
 800f01c:	e0bffd17 	ldw	r2,-12(fp)
 800f020:	10c00d17 	ldw	r3,52(r2)
 800f024:	e0bffd17 	ldw	r2,-12(fp)
 800f028:	10800c17 	ldw	r2,48(r2)
 800f02c:	18800526 	beq	r3,r2,800f044 <altera_avalon_jtag_uart_close+0x5c>
 800f030:	e0bffd17 	ldw	r2,-12(fp)
 800f034:	10c00917 	ldw	r3,36(r2)
 800f038:	e0bffd17 	ldw	r2,-12(fp)
 800f03c:	10800117 	ldw	r2,4(r2)
 800f040:	18bfef36 	bltu	r3,r2,800f000 <altera_avalon_jtag_uart_close+0x18>
    if (flags & O_NONBLOCK) {
      return -EWOULDBLOCK; 
    }
  }

  return 0;
 800f044:	e03fff15 	stw	zero,-4(fp)
 800f048:	e0bfff17 	ldw	r2,-4(fp)
}
 800f04c:	e037883a 	mov	sp,fp
 800f050:	df000017 	ldw	fp,0(sp)
 800f054:	dec00104 	addi	sp,sp,4
 800f058:	f800283a 	ret

0800f05c <altera_avalon_jtag_uart_ioctl>:
/* ----------------------------------------------------------- */

int 
altera_avalon_jtag_uart_ioctl(altera_avalon_jtag_uart_state* sp, int req,
  void* arg)
{
 800f05c:	defff804 	addi	sp,sp,-32
 800f060:	df000715 	stw	fp,28(sp)
 800f064:	df000704 	addi	fp,sp,28
 800f068:	e13ffb15 	stw	r4,-20(fp)
 800f06c:	e17ffc15 	stw	r5,-16(fp)
 800f070:	e1bffd15 	stw	r6,-12(fp)
  int rc = -ENOTTY;
 800f074:	00bff9c4 	movi	r2,-25
 800f078:	e0bffa15 	stw	r2,-24(fp)

  switch (req)
 800f07c:	e0bffc17 	ldw	r2,-16(fp)
 800f080:	e0bfff15 	stw	r2,-4(fp)
 800f084:	e0ffff17 	ldw	r3,-4(fp)
 800f088:	189a8060 	cmpeqi	r2,r3,27137
 800f08c:	1000041e 	bne	r2,zero,800f0a0 <altera_avalon_jtag_uart_ioctl+0x44>
 800f090:	e0ffff17 	ldw	r3,-4(fp)
 800f094:	189a80a0 	cmpeqi	r2,r3,27138
 800f098:	10001b1e 	bne	r2,zero,800f108 <altera_avalon_jtag_uart_ioctl+0xac>
 800f09c:	00002706 	br	800f13c <altera_avalon_jtag_uart_ioctl+0xe0>
  {
  case TIOCSTIMEOUT:
    /* Set the time to wait until assuming host is not connected */
    if (sp->timeout != INT_MAX)
 800f0a0:	e0bffb17 	ldw	r2,-20(fp)
 800f0a4:	10c00117 	ldw	r3,4(r2)
 800f0a8:	00a00034 	movhi	r2,32768
 800f0ac:	10bfffc4 	addi	r2,r2,-1
 800f0b0:	18802226 	beq	r3,r2,800f13c <altera_avalon_jtag_uart_ioctl+0xe0>
    {
      int timeout = *((int *)arg);
 800f0b4:	e0bffd17 	ldw	r2,-12(fp)
 800f0b8:	10800017 	ldw	r2,0(r2)
 800f0bc:	e0bff915 	stw	r2,-28(fp)
      sp->timeout = (timeout >= 2 && timeout < INT_MAX) ? timeout : INT_MAX - 1;
 800f0c0:	e0bff917 	ldw	r2,-28(fp)
 800f0c4:	10800090 	cmplti	r2,r2,2
 800f0c8:	1000071e 	bne	r2,zero,800f0e8 <altera_avalon_jtag_uart_ioctl+0x8c>
 800f0cc:	e0fff917 	ldw	r3,-28(fp)
 800f0d0:	00a00034 	movhi	r2,32768
 800f0d4:	10bfffc4 	addi	r2,r2,-1
 800f0d8:	18800326 	beq	r3,r2,800f0e8 <altera_avalon_jtag_uart_ioctl+0x8c>
 800f0dc:	e0bff917 	ldw	r2,-28(fp)
 800f0e0:	e0bffe15 	stw	r2,-8(fp)
 800f0e4:	00000306 	br	800f0f4 <altera_avalon_jtag_uart_ioctl+0x98>
 800f0e8:	00e00034 	movhi	r3,32768
 800f0ec:	18ffff84 	addi	r3,r3,-2
 800f0f0:	e0fffe15 	stw	r3,-8(fp)
 800f0f4:	e0bffb17 	ldw	r2,-20(fp)
 800f0f8:	e0fffe17 	ldw	r3,-8(fp)
 800f0fc:	10c00115 	stw	r3,4(r2)
      rc = 0;
 800f100:	e03ffa15 	stw	zero,-24(fp)
    }
    break;
 800f104:	00000d06 	br	800f13c <altera_avalon_jtag_uart_ioctl+0xe0>

  case TIOCGCONNECTED:
    /* Find out whether host is connected */
    if (sp->timeout != INT_MAX)
 800f108:	e0bffb17 	ldw	r2,-20(fp)
 800f10c:	10c00117 	ldw	r3,4(r2)
 800f110:	00a00034 	movhi	r2,32768
 800f114:	10bfffc4 	addi	r2,r2,-1
 800f118:	18800826 	beq	r3,r2,800f13c <altera_avalon_jtag_uart_ioctl+0xe0>
    {
      *((int *)arg) = (sp->host_inactive < sp->timeout) ? 1 : 0;
 800f11c:	e13ffd17 	ldw	r4,-12(fp)
 800f120:	e0bffb17 	ldw	r2,-20(fp)
 800f124:	10c00917 	ldw	r3,36(r2)
 800f128:	e0bffb17 	ldw	r2,-20(fp)
 800f12c:	10800117 	ldw	r2,4(r2)
 800f130:	1885803a 	cmpltu	r2,r3,r2
 800f134:	20800015 	stw	r2,0(r4)
      rc = 0;
 800f138:	e03ffa15 	stw	zero,-24(fp)

  default:
    break;
  }

  return rc;
 800f13c:	e0bffa17 	ldw	r2,-24(fp)
}
 800f140:	e037883a 	mov	sp,fp
 800f144:	df000017 	ldw	fp,0(sp)
 800f148:	dec00104 	addi	sp,sp,4
 800f14c:	f800283a 	ret

0800f150 <altera_avalon_jtag_uart_read>:
/* ----------------------------------------------------------- */

int 
altera_avalon_jtag_uart_read(altera_avalon_jtag_uart_state* sp, 
  char * buffer, int space, int flags)
{
 800f150:	defff204 	addi	sp,sp,-56
 800f154:	dfc00d15 	stw	ra,52(sp)
 800f158:	df000c15 	stw	fp,48(sp)
 800f15c:	df000c04 	addi	fp,sp,48
 800f160:	e13ffb15 	stw	r4,-20(fp)
 800f164:	e17ffc15 	stw	r5,-16(fp)
 800f168:	e1bffd15 	stw	r6,-12(fp)
 800f16c:	e1fffe15 	stw	r7,-8(fp)
  char * ptr = buffer;
 800f170:	e0bffc17 	ldw	r2,-16(fp)
 800f174:	e0bffa15 	stw	r2,-24(fp)
   * When running in a multi threaded environment, obtain the "read_lock"
   * semaphore. This ensures that reading from the device is thread-safe.
   */
  ALT_SEM_PEND (sp->read_lock, 0);

  while (space > 0)
 800f178:	00004806 	br	800f29c <altera_avalon_jtag_uart_read+0x14c>
    unsigned int in, out;

    /* Read as much data as possible */
    do
    {
      in  = sp->rx_in;
 800f17c:	e0bffb17 	ldw	r2,-20(fp)
 800f180:	10800a17 	ldw	r2,40(r2)
 800f184:	e0bff715 	stw	r2,-36(fp)
      out = sp->rx_out;
 800f188:	e0bffb17 	ldw	r2,-20(fp)
 800f18c:	10800b17 	ldw	r2,44(r2)
 800f190:	e0bff615 	stw	r2,-40(fp)

      if (in >= out)
 800f194:	e0fff717 	ldw	r3,-36(fp)
 800f198:	e0bff617 	ldw	r2,-40(fp)
 800f19c:	18800536 	bltu	r3,r2,800f1b4 <altera_avalon_jtag_uart_read+0x64>
        n = in - out;
 800f1a0:	e0bff717 	ldw	r2,-36(fp)
 800f1a4:	e0fff617 	ldw	r3,-40(fp)
 800f1a8:	10c5c83a 	sub	r2,r2,r3
 800f1ac:	e0bff815 	stw	r2,-32(fp)
 800f1b0:	00000406 	br	800f1c4 <altera_avalon_jtag_uart_read+0x74>
      else
        n = ALTERA_AVALON_JTAG_UART_BUF_LEN - out;
 800f1b4:	00820004 	movi	r2,2048
 800f1b8:	e0fff617 	ldw	r3,-40(fp)
 800f1bc:	10c5c83a 	sub	r2,r2,r3
 800f1c0:	e0bff815 	stw	r2,-32(fp)

      if (n == 0)
 800f1c4:	e0bff817 	ldw	r2,-32(fp)
 800f1c8:	1005003a 	cmpeq	r2,r2,zero
 800f1cc:	10001f1e 	bne	r2,zero,800f24c <altera_avalon_jtag_uart_read+0xfc>
        break; /* No more data available */

      if (n > space)
 800f1d0:	e0fffd17 	ldw	r3,-12(fp)
 800f1d4:	e0bff817 	ldw	r2,-32(fp)
 800f1d8:	1880022e 	bgeu	r3,r2,800f1e4 <altera_avalon_jtag_uart_read+0x94>
        n = space;
 800f1dc:	e0bffd17 	ldw	r2,-12(fp)
 800f1e0:	e0bff815 	stw	r2,-32(fp)

      memcpy(ptr, sp->rx_buf + out, n);
 800f1e4:	e0bffb17 	ldw	r2,-20(fp)
 800f1e8:	10c00e04 	addi	r3,r2,56
 800f1ec:	e0bff617 	ldw	r2,-40(fp)
 800f1f0:	1887883a 	add	r3,r3,r2
 800f1f4:	e0bffa17 	ldw	r2,-24(fp)
 800f1f8:	1009883a 	mov	r4,r2
 800f1fc:	180b883a 	mov	r5,r3
 800f200:	e1bff817 	ldw	r6,-32(fp)
 800f204:	8004f880 	call	8004f88 <memcpy>
      ptr   += n;
 800f208:	e0fff817 	ldw	r3,-32(fp)
 800f20c:	e0bffa17 	ldw	r2,-24(fp)
 800f210:	10c5883a 	add	r2,r2,r3
 800f214:	e0bffa15 	stw	r2,-24(fp)
      space -= n;
 800f218:	e0fffd17 	ldw	r3,-12(fp)
 800f21c:	e0bff817 	ldw	r2,-32(fp)
 800f220:	1885c83a 	sub	r2,r3,r2
 800f224:	e0bffd15 	stw	r2,-12(fp)

      sp->rx_out = (out + n) % ALTERA_AVALON_JTAG_UART_BUF_LEN;
 800f228:	e0fff617 	ldw	r3,-40(fp)
 800f22c:	e0bff817 	ldw	r2,-32(fp)
 800f230:	1885883a 	add	r2,r3,r2
 800f234:	10c1ffcc 	andi	r3,r2,2047
 800f238:	e0bffb17 	ldw	r2,-20(fp)
 800f23c:	10c00b15 	stw	r3,44(r2)
    }
    while (space > 0);
 800f240:	e0bffd17 	ldw	r2,-12(fp)
 800f244:	10800048 	cmpgei	r2,r2,1
 800f248:	103fcc1e 	bne	r2,zero,800f17c <altera_avalon_jtag_uart_read+0x2c>

    /* If we read any data then return it */
    if (ptr != buffer)
 800f24c:	e0fffa17 	ldw	r3,-24(fp)
 800f250:	e0bffc17 	ldw	r2,-16(fp)
 800f254:	1880141e 	bne	r3,r2,800f2a8 <altera_avalon_jtag_uart_read+0x158>
      break;

    /* If in non-blocking mode then return error */
    if (flags & O_NONBLOCK)
 800f258:	e0bffe17 	ldw	r2,-8(fp)
 800f25c:	1090000c 	andi	r2,r2,16384
 800f260:	1004c03a 	cmpne	r2,r2,zero
 800f264:	1000101e 	bne	r2,zero,800f2a8 <altera_avalon_jtag_uart_read+0x158>
      while (in == sp->rx_in && sp->host_inactive < sp->timeout)
        ;
    }
#else
    /* No OS: Always spin */
    while (in == sp->rx_in && sp->host_inactive < sp->timeout)
 800f268:	e0bffb17 	ldw	r2,-20(fp)
 800f26c:	10c00a17 	ldw	r3,40(r2)
 800f270:	e0bff717 	ldw	r2,-36(fp)
 800f274:	1880051e 	bne	r3,r2,800f28c <altera_avalon_jtag_uart_read+0x13c>
 800f278:	e0bffb17 	ldw	r2,-20(fp)
 800f27c:	10c00917 	ldw	r3,36(r2)
 800f280:	e0bffb17 	ldw	r2,-20(fp)
 800f284:	10800117 	ldw	r2,4(r2)
 800f288:	18bff736 	bltu	r3,r2,800f268 <altera_avalon_jtag_uart_read+0x118>
      ;
#endif /* __ucosii__ */

    if (in == sp->rx_in)
 800f28c:	e0bffb17 	ldw	r2,-20(fp)
 800f290:	10c00a17 	ldw	r3,40(r2)
 800f294:	e0bff717 	ldw	r2,-36(fp)
 800f298:	18800326 	beq	r3,r2,800f2a8 <altera_avalon_jtag_uart_read+0x158>
   * When running in a multi threaded environment, obtain the "read_lock"
   * semaphore. This ensures that reading from the device is thread-safe.
   */
  ALT_SEM_PEND (sp->read_lock, 0);

  while (space > 0)
 800f29c:	e0bffd17 	ldw	r2,-12(fp)
 800f2a0:	10800048 	cmpgei	r2,r2,1
 800f2a4:	103fb51e 	bne	r2,zero,800f17c <altera_avalon_jtag_uart_read+0x2c>
   * semaphore so that other threads can access the buffer.
   */

  ALT_SEM_POST (sp->read_lock);

  if (ptr != buffer)
 800f2a8:	e0fffa17 	ldw	r3,-24(fp)
 800f2ac:	e0bffc17 	ldw	r2,-16(fp)
 800f2b0:	18801926 	beq	r3,r2,800f318 <altera_avalon_jtag_uart_read+0x1c8>
static ALT_INLINE alt_irq_context ALT_ALWAYS_INLINE 
       alt_irq_disable_all (void)
{
  alt_irq_context context;

  NIOS2_READ_STATUS (context);
 800f2b4:	0005303a 	rdctl	r2,status
 800f2b8:	e0bff515 	stw	r2,-44(fp)

  NIOS2_WRITE_STATUS (context & ~NIOS2_STATUS_PIE_MSK);
 800f2bc:	e0fff517 	ldw	r3,-44(fp)
 800f2c0:	00bfff84 	movi	r2,-2
 800f2c4:	1884703a 	and	r2,r3,r2
 800f2c8:	1001703a 	wrctl	status,r2
  
  return context;
 800f2cc:	e0bff517 	ldw	r2,-44(fp)
  {
    /* If we read any data then there is space in the buffer so enable interrupts */
    context = alt_irq_disable_all();
 800f2d0:	e0bff915 	stw	r2,-28(fp)
    sp->irq_enable |= ALTERA_AVALON_JTAG_UART_CONTROL_RE_MSK;
 800f2d4:	e0bffb17 	ldw	r2,-20(fp)
 800f2d8:	10800817 	ldw	r2,32(r2)
 800f2dc:	10c00054 	ori	r3,r2,1
 800f2e0:	e0bffb17 	ldw	r2,-20(fp)
 800f2e4:	10c00815 	stw	r3,32(r2)
    IOWR_ALTERA_AVALON_JTAG_UART_CONTROL(sp->base, sp->irq_enable);
 800f2e8:	e0bffb17 	ldw	r2,-20(fp)
 800f2ec:	10800017 	ldw	r2,0(r2)
 800f2f0:	11000104 	addi	r4,r2,4
 800f2f4:	e0bffb17 	ldw	r2,-20(fp)
 800f2f8:	10800817 	ldw	r2,32(r2)
 800f2fc:	1007883a 	mov	r3,r2
 800f300:	2005883a 	mov	r2,r4
 800f304:	10c00035 	stwio	r3,0(r2)
 800f308:	e0bff917 	ldw	r2,-28(fp)
 800f30c:	e0bff415 	stw	r2,-48(fp)
  status &= ~NIOS2_STATUS_PIE_MSK;
  status |= (context & NIOS2_STATUS_PIE_MSK);
  
  NIOS2_WRITE_STATUS (status);
#else
  NIOS2_WRITE_STATUS (context);
 800f310:	e0bff417 	ldw	r2,-48(fp)
 800f314:	1001703a 	wrctl	status,r2
    alt_irq_enable_all(context);
  }

  if (ptr != buffer)
 800f318:	e0fffa17 	ldw	r3,-24(fp)
 800f31c:	e0bffc17 	ldw	r2,-16(fp)
 800f320:	18800526 	beq	r3,r2,800f338 <altera_avalon_jtag_uart_read+0x1e8>
    return ptr - buffer;
 800f324:	e0fffa17 	ldw	r3,-24(fp)
 800f328:	e0bffc17 	ldw	r2,-16(fp)
 800f32c:	1887c83a 	sub	r3,r3,r2
 800f330:	e0ffff15 	stw	r3,-4(fp)
 800f334:	00000906 	br	800f35c <altera_avalon_jtag_uart_read+0x20c>
  else if (flags & O_NONBLOCK)
 800f338:	e0bffe17 	ldw	r2,-8(fp)
 800f33c:	1090000c 	andi	r2,r2,16384
 800f340:	1005003a 	cmpeq	r2,r2,zero
 800f344:	1000031e 	bne	r2,zero,800f354 <altera_avalon_jtag_uart_read+0x204>
    return -EWOULDBLOCK;
 800f348:	00bffd44 	movi	r2,-11
 800f34c:	e0bfff15 	stw	r2,-4(fp)
 800f350:	00000206 	br	800f35c <altera_avalon_jtag_uart_read+0x20c>
  else
    return -EIO;
 800f354:	00bffec4 	movi	r2,-5
 800f358:	e0bfff15 	stw	r2,-4(fp)
 800f35c:	e0bfff17 	ldw	r2,-4(fp)
}
 800f360:	e037883a 	mov	sp,fp
 800f364:	dfc00117 	ldw	ra,4(sp)
 800f368:	df000017 	ldw	fp,0(sp)
 800f36c:	dec00204 	addi	sp,sp,8
 800f370:	f800283a 	ret

0800f374 <altera_avalon_jtag_uart_write>:
/* ----------------------------------------------------------- */

int 
altera_avalon_jtag_uart_write(altera_avalon_jtag_uart_state* sp, 
  const char * ptr, int count, int flags)
{
 800f374:	defff204 	addi	sp,sp,-56
 800f378:	dfc00d15 	stw	ra,52(sp)
 800f37c:	df000c15 	stw	fp,48(sp)
 800f380:	df000c04 	addi	fp,sp,48
 800f384:	e13ffb15 	stw	r4,-20(fp)
 800f388:	e17ffc15 	stw	r5,-16(fp)
 800f38c:	e1bffd15 	stw	r6,-12(fp)
 800f390:	e1fffe15 	stw	r7,-8(fp)
  /* Remove warning at optimisation level 03 by seting out to 0 */
  unsigned int in, out=0;
 800f394:	e03ff915 	stw	zero,-28(fp)
  unsigned int n;
  alt_irq_context context;

  const char * start = ptr;
 800f398:	e0bffc17 	ldw	r2,-16(fp)
 800f39c:	e0bff615 	stw	r2,-40(fp)
  ALT_SEM_PEND (sp->write_lock, 0);

  do
  {
    /* Copy as much as we can into the transmit buffer */
    while (count > 0)
 800f3a0:	00003a06 	br	800f48c <altera_avalon_jtag_uart_write+0x118>
    {
      /* We need a stable value of the out pointer to calculate the space available */
      in  = sp->tx_in;
 800f3a4:	e0bffb17 	ldw	r2,-20(fp)
 800f3a8:	10800c17 	ldw	r2,48(r2)
 800f3ac:	e0bffa15 	stw	r2,-24(fp)
      out = sp->tx_out;
 800f3b0:	e0bffb17 	ldw	r2,-20(fp)
 800f3b4:	10800d17 	ldw	r2,52(r2)
 800f3b8:	e0bff915 	stw	r2,-28(fp)

      if (in < out)
 800f3bc:	e0fffa17 	ldw	r3,-24(fp)
 800f3c0:	e0bff917 	ldw	r2,-28(fp)
 800f3c4:	1880062e 	bgeu	r3,r2,800f3e0 <altera_avalon_jtag_uart_write+0x6c>
        n = out - 1 - in;
 800f3c8:	e0fff917 	ldw	r3,-28(fp)
 800f3cc:	e0bffa17 	ldw	r2,-24(fp)
 800f3d0:	1885c83a 	sub	r2,r3,r2
 800f3d4:	10bfffc4 	addi	r2,r2,-1
 800f3d8:	e0bff815 	stw	r2,-32(fp)
 800f3dc:	00000c06 	br	800f410 <altera_avalon_jtag_uart_write+0x9c>
      else if (out > 0)
 800f3e0:	e0bff917 	ldw	r2,-28(fp)
 800f3e4:	1005003a 	cmpeq	r2,r2,zero
 800f3e8:	1000051e 	bne	r2,zero,800f400 <altera_avalon_jtag_uart_write+0x8c>
        n = ALTERA_AVALON_JTAG_UART_BUF_LEN - in;
 800f3ec:	00820004 	movi	r2,2048
 800f3f0:	e0fffa17 	ldw	r3,-24(fp)
 800f3f4:	10c5c83a 	sub	r2,r2,r3
 800f3f8:	e0bff815 	stw	r2,-32(fp)
 800f3fc:	00000406 	br	800f410 <altera_avalon_jtag_uart_write+0x9c>
      else
        n = ALTERA_AVALON_JTAG_UART_BUF_LEN - 1 - in;
 800f400:	0081ffc4 	movi	r2,2047
 800f404:	e0fffa17 	ldw	r3,-24(fp)
 800f408:	10c5c83a 	sub	r2,r2,r3
 800f40c:	e0bff815 	stw	r2,-32(fp)

      if (n == 0)
 800f410:	e0bff817 	ldw	r2,-32(fp)
 800f414:	1005003a 	cmpeq	r2,r2,zero
 800f418:	10001f1e 	bne	r2,zero,800f498 <altera_avalon_jtag_uart_write+0x124>
        break;

      if (n > count)
 800f41c:	e0fffd17 	ldw	r3,-12(fp)
 800f420:	e0bff817 	ldw	r2,-32(fp)
 800f424:	1880022e 	bgeu	r3,r2,800f430 <altera_avalon_jtag_uart_write+0xbc>
        n = count;
 800f428:	e0bffd17 	ldw	r2,-12(fp)
 800f42c:	e0bff815 	stw	r2,-32(fp)

      memcpy(sp->tx_buf + in, ptr, n);
 800f430:	e0bffb17 	ldw	r2,-20(fp)
 800f434:	10c20e04 	addi	r3,r2,2104
 800f438:	e0bffa17 	ldw	r2,-24(fp)
 800f43c:	1885883a 	add	r2,r3,r2
 800f440:	e0fffc17 	ldw	r3,-16(fp)
 800f444:	1009883a 	mov	r4,r2
 800f448:	180b883a 	mov	r5,r3
 800f44c:	e1bff817 	ldw	r6,-32(fp)
 800f450:	8004f880 	call	8004f88 <memcpy>
      ptr   += n;
 800f454:	e0fff817 	ldw	r3,-32(fp)
 800f458:	e0bffc17 	ldw	r2,-16(fp)
 800f45c:	10c5883a 	add	r2,r2,r3
 800f460:	e0bffc15 	stw	r2,-16(fp)
      count -= n;
 800f464:	e0fffd17 	ldw	r3,-12(fp)
 800f468:	e0bff817 	ldw	r2,-32(fp)
 800f46c:	1885c83a 	sub	r2,r3,r2
 800f470:	e0bffd15 	stw	r2,-12(fp)

      sp->tx_in = (in + n) % ALTERA_AVALON_JTAG_UART_BUF_LEN;
 800f474:	e0fffa17 	ldw	r3,-24(fp)
 800f478:	e0bff817 	ldw	r2,-32(fp)
 800f47c:	1885883a 	add	r2,r3,r2
 800f480:	10c1ffcc 	andi	r3,r2,2047
 800f484:	e0bffb17 	ldw	r2,-20(fp)
 800f488:	10c00c15 	stw	r3,48(r2)
  ALT_SEM_PEND (sp->write_lock, 0);

  do
  {
    /* Copy as much as we can into the transmit buffer */
    while (count > 0)
 800f48c:	e0bffd17 	ldw	r2,-12(fp)
 800f490:	10800048 	cmpgei	r2,r2,1
 800f494:	103fc31e 	bne	r2,zero,800f3a4 <altera_avalon_jtag_uart_write+0x30>
static ALT_INLINE alt_irq_context ALT_ALWAYS_INLINE 
       alt_irq_disable_all (void)
{
  alt_irq_context context;

  NIOS2_READ_STATUS (context);
 800f498:	0005303a 	rdctl	r2,status
 800f49c:	e0bff515 	stw	r2,-44(fp)

  NIOS2_WRITE_STATUS (context & ~NIOS2_STATUS_PIE_MSK);
 800f4a0:	e0fff517 	ldw	r3,-44(fp)
 800f4a4:	00bfff84 	movi	r2,-2
 800f4a8:	1884703a 	and	r2,r3,r2
 800f4ac:	1001703a 	wrctl	status,r2
  
  return context;
 800f4b0:	e0bff517 	ldw	r2,-44(fp)
     * to enable interrupts if there is no space left in the FIFO
     *
     * For now kick the interrupt routine every time to make it transmit 
     * the data 
     */
    context = alt_irq_disable_all();
 800f4b4:	e0bff715 	stw	r2,-36(fp)
    sp->irq_enable |= ALTERA_AVALON_JTAG_UART_CONTROL_WE_MSK;
 800f4b8:	e0bffb17 	ldw	r2,-20(fp)
 800f4bc:	10800817 	ldw	r2,32(r2)
 800f4c0:	10c00094 	ori	r3,r2,2
 800f4c4:	e0bffb17 	ldw	r2,-20(fp)
 800f4c8:	10c00815 	stw	r3,32(r2)
    IOWR_ALTERA_AVALON_JTAG_UART_CONTROL(sp->base, sp->irq_enable);
 800f4cc:	e0bffb17 	ldw	r2,-20(fp)
 800f4d0:	10800017 	ldw	r2,0(r2)
 800f4d4:	11000104 	addi	r4,r2,4
 800f4d8:	e0bffb17 	ldw	r2,-20(fp)
 800f4dc:	10800817 	ldw	r2,32(r2)
 800f4e0:	1007883a 	mov	r3,r2
 800f4e4:	2005883a 	mov	r2,r4
 800f4e8:	10c00035 	stwio	r3,0(r2)
 800f4ec:	e0bff717 	ldw	r2,-36(fp)
 800f4f0:	e0bff415 	stw	r2,-48(fp)
  status &= ~NIOS2_STATUS_PIE_MSK;
  status |= (context & NIOS2_STATUS_PIE_MSK);
  
  NIOS2_WRITE_STATUS (status);
#else
  NIOS2_WRITE_STATUS (context);
 800f4f4:	e0bff417 	ldw	r2,-48(fp)
 800f4f8:	1001703a 	wrctl	status,r2
    /* 
     * If there is any data left then either return now or block until 
     * some has been sent 
     */
    /* consider: test whether there is anything there while doing this and delay for at most 2s. */
    if (count > 0)
 800f4fc:	e0bffd17 	ldw	r2,-12(fp)
 800f500:	10800050 	cmplti	r2,r2,1
 800f504:	1000111e 	bne	r2,zero,800f54c <altera_avalon_jtag_uart_write+0x1d8>
    {
      if (flags & O_NONBLOCK)
 800f508:	e0bffe17 	ldw	r2,-8(fp)
 800f50c:	1090000c 	andi	r2,r2,16384
 800f510:	1004c03a 	cmpne	r2,r2,zero
 800f514:	1000101e 	bne	r2,zero,800f558 <altera_avalon_jtag_uart_write+0x1e4>
      /*
       * No OS present: Always wait for data to be removed from buffer.  Once
       * the interrupt routine has removed some data then we will be able to
       * insert some more.
       */
      while (out == sp->tx_out && sp->host_inactive < sp->timeout)
 800f518:	e0bffb17 	ldw	r2,-20(fp)
 800f51c:	10c00d17 	ldw	r3,52(r2)
 800f520:	e0bff917 	ldw	r2,-28(fp)
 800f524:	1880051e 	bne	r3,r2,800f53c <altera_avalon_jtag_uart_write+0x1c8>
 800f528:	e0bffb17 	ldw	r2,-20(fp)
 800f52c:	10c00917 	ldw	r3,36(r2)
 800f530:	e0bffb17 	ldw	r2,-20(fp)
 800f534:	10800117 	ldw	r2,4(r2)
 800f538:	18bff736 	bltu	r3,r2,800f518 <altera_avalon_jtag_uart_write+0x1a4>
        ;
#endif /* __ucosii__ */

      if (out == sp->tx_out)
 800f53c:	e0bffb17 	ldw	r2,-20(fp)
 800f540:	10c00d17 	ldw	r3,52(r2)
 800f544:	e0bff917 	ldw	r2,-28(fp)
 800f548:	18800326 	beq	r3,r2,800f558 <altera_avalon_jtag_uart_write+0x1e4>
        break;
    }
  }
  while (count > 0);
 800f54c:	e0bffd17 	ldw	r2,-12(fp)
 800f550:	10800048 	cmpgei	r2,r2,1
 800f554:	103fcd1e 	bne	r2,zero,800f48c <altera_avalon_jtag_uart_write+0x118>
   * Now that access to the circular buffer is complete, release the write
   * semaphore so that other threads can access the buffer.
   */
  ALT_SEM_POST (sp->write_lock);

  if (ptr != start)
 800f558:	e0fffc17 	ldw	r3,-16(fp)
 800f55c:	e0bff617 	ldw	r2,-40(fp)
 800f560:	18800526 	beq	r3,r2,800f578 <altera_avalon_jtag_uart_write+0x204>
    return ptr - start;
 800f564:	e0fffc17 	ldw	r3,-16(fp)
 800f568:	e0bff617 	ldw	r2,-40(fp)
 800f56c:	1887c83a 	sub	r3,r3,r2
 800f570:	e0ffff15 	stw	r3,-4(fp)
 800f574:	00000906 	br	800f59c <altera_avalon_jtag_uart_write+0x228>
  else if (flags & O_NONBLOCK)
 800f578:	e0bffe17 	ldw	r2,-8(fp)
 800f57c:	1090000c 	andi	r2,r2,16384
 800f580:	1005003a 	cmpeq	r2,r2,zero
 800f584:	1000031e 	bne	r2,zero,800f594 <altera_avalon_jtag_uart_write+0x220>
    return -EWOULDBLOCK;
 800f588:	00bffd44 	movi	r2,-11
 800f58c:	e0bfff15 	stw	r2,-4(fp)
 800f590:	00000206 	br	800f59c <altera_avalon_jtag_uart_write+0x228>
  else
    return -EIO; /* Host not connected */
 800f594:	00bffec4 	movi	r2,-5
 800f598:	e0bfff15 	stw	r2,-4(fp)
 800f59c:	e0bfff17 	ldw	r2,-4(fp)
}
 800f5a0:	e037883a 	mov	sp,fp
 800f5a4:	dfc00117 	ldw	ra,4(sp)
 800f5a8:	df000017 	ldw	fp,0(sp)
 800f5ac:	dec00204 	addi	sp,sp,8
 800f5b0:	f800283a 	ret

0800f5b4 <Write_Sector_Data>:
///////////////////////////////////////////////////////////////////////////

        
bool Write_Sector_Data(int sector_index, int partition_offset)
// This function writes a sector at the specified address on the SD Card.
{
 800f5b4:	defffa04 	addi	sp,sp,-24
 800f5b8:	dfc00515 	stw	ra,20(sp)
 800f5bc:	df000415 	stw	fp,16(sp)
 800f5c0:	df000404 	addi	fp,sp,16
 800f5c4:	e13ffe15 	stw	r4,-8(fp)
 800f5c8:	e17fff15 	stw	r5,-4(fp)
    bool result = false;
 800f5cc:	e03ffd15 	stw	zero,-12(fp)
    
    if (alt_up_sd_card_is_Present())
 800f5d0:	80123dc0 	call	80123dc <alt_up_sd_card_is_Present>
 800f5d4:	1005003a 	cmpeq	r2,r2,zero
 800f5d8:	1000221e 	bne	r2,zero,800f664 <Write_Sector_Data+0xb0>
    {
        short int reg_state = 0xff;
 800f5dc:	00803fc4 	movi	r2,255
 800f5e0:	e0bffc0d 	sth	r2,-16(fp)

		/* Multiply sector offset by sector size to get the address. Sector size is 512. Also,
         * the SD card reads data in 512 byte chunks, so the address must be a multiple of 512. */
        IOWR_32DIRECT(command_argument_register, 0, (sector_index + partition_offset)*512);
 800f5e4:	d0a6c517 	ldw	r2,-25836(gp)
 800f5e8:	1009883a 	mov	r4,r2
 800f5ec:	e0fffe17 	ldw	r3,-8(fp)
 800f5f0:	e0bfff17 	ldw	r2,-4(fp)
 800f5f4:	1885883a 	add	r2,r3,r2
 800f5f8:	1006927a 	slli	r3,r2,9
 800f5fc:	2005883a 	mov	r2,r4
 800f600:	10c00035 	stwio	r3,0(r2)
        IOWR_16DIRECT(command_register, 0, CMD_WRITE_BLOCK);
 800f604:	d0a6c417 	ldw	r2,-25840(gp)
 800f608:	1007883a 	mov	r3,r2
 800f60c:	00800604 	movi	r2,24
 800f610:	1880002d 	sthio	r2,0(r3)
        do {
            reg_state = (short int) IORD_16DIRECT(aux_status_register,0);
 800f614:	d0a6c117 	ldw	r2,-25852(gp)
 800f618:	1080002b 	ldhuio	r2,0(r2)
 800f61c:	e0bffc0d 	sth	r2,-16(fp)
        } while ((reg_state & 0x04)!=0);
 800f620:	e0bffc0b 	ldhu	r2,-16(fp)
 800f624:	10bfffcc 	andi	r2,r2,65535
 800f628:	1080010c 	andi	r2,r2,4
 800f62c:	1004c03a 	cmpne	r2,r2,zero
 800f630:	103ff81e 	bne	r2,zero,800f614 <Write_Sector_Data+0x60>
        // Make sure the request did not time out.
        if ((reg_state & 0x10) == 0)
 800f634:	e0bffc0b 	ldhu	r2,-16(fp)
 800f638:	10bfffcc 	andi	r2,r2,65535
 800f63c:	1080040c 	andi	r2,r2,16
 800f640:	1004c03a 	cmpne	r2,r2,zero
 800f644:	1000071e 	bne	r2,zero,800f664 <Write_Sector_Data+0xb0>
        {
            result = true;
 800f648:	00800044 	movi	r2,1
 800f64c:	e0bffd15 	stw	r2,-12(fp)
            current_sector_modified = false;
 800f650:	d026ca15 	stw	zero,-25816(gp)
            current_sector_index = sector_index+partition_offset;
 800f654:	e0fffe17 	ldw	r3,-8(fp)
 800f658:	e0bfff17 	ldw	r2,-4(fp)
 800f65c:	1885883a 	add	r2,r3,r2
 800f660:	d0a6cb15 	stw	r2,-25812(gp)
        }
    }
    return result;
 800f664:	e0bffd17 	ldw	r2,-12(fp)
}
 800f668:	e037883a 	mov	sp,fp
 800f66c:	dfc00117 	ldw	ra,4(sp)
 800f670:	df000017 	ldw	fp,0(sp)
 800f674:	dec00204 	addi	sp,sp,8
 800f678:	f800283a 	ret

0800f67c <Save_Modified_Sector>:


bool Save_Modified_Sector()
// If the sector has been modified, then save it to the SD Card.
{
 800f67c:	defffd04 	addi	sp,sp,-12
 800f680:	dfc00215 	stw	ra,8(sp)
 800f684:	df000115 	stw	fp,4(sp)
 800f688:	df000104 	addi	fp,sp,4
    bool result = true;
 800f68c:	00800044 	movi	r2,1
 800f690:	e0bfff15 	stw	r2,-4(fp)
    if (current_sector_modified)
 800f694:	d0a6ca17 	ldw	r2,-25816(gp)
 800f698:	1005003a 	cmpeq	r2,r2,zero
 800f69c:	1000051e 	bne	r2,zero,800f6b4 <Save_Modified_Sector+0x38>
    {
        result = Write_Sector_Data(current_sector_index, 0);
 800f6a0:	d0a6cb17 	ldw	r2,-25812(gp)
 800f6a4:	1009883a 	mov	r4,r2
 800f6a8:	000b883a 	mov	r5,zero
 800f6ac:	800f5b40 	call	800f5b4 <Write_Sector_Data>
 800f6b0:	e0bfff15 	stw	r2,-4(fp)
    }
    return result;
 800f6b4:	e0bfff17 	ldw	r2,-4(fp)
}
 800f6b8:	e037883a 	mov	sp,fp
 800f6bc:	dfc00117 	ldw	ra,4(sp)
 800f6c0:	df000017 	ldw	fp,0(sp)
 800f6c4:	dec00204 	addi	sp,sp,8
 800f6c8:	f800283a 	ret

0800f6cc <Read_Sector_Data>:


bool Read_Sector_Data(int sector_index, int partition_offset)
// This function reads a sector at the specified address on the SD Card.
{
 800f6cc:	defff904 	addi	sp,sp,-28
 800f6d0:	dfc00615 	stw	ra,24(sp)
 800f6d4:	df000515 	stw	fp,20(sp)
 800f6d8:	df000504 	addi	fp,sp,20
 800f6dc:	e13ffd15 	stw	r4,-12(fp)
 800f6e0:	e17ffe15 	stw	r5,-8(fp)
	bool result = false;
 800f6e4:	e03ffc15 	stw	zero,-16(fp)
    
	if (alt_up_sd_card_is_Present())
 800f6e8:	80123dc0 	call	80123dc <alt_up_sd_card_is_Present>
 800f6ec:	1005003a 	cmpeq	r2,r2,zero
 800f6f0:	10002d1e 	bne	r2,zero,800f7a8 <Read_Sector_Data+0xdc>
	{
		short int reg_state = 0xff;
 800f6f4:	00803fc4 	movi	r2,255
 800f6f8:	e0bffb0d 	sth	r2,-20(fp)
        
        /* Write data to the SD card if the current buffer is out of date. */
        if (current_sector_modified)
 800f6fc:	d0a6ca17 	ldw	r2,-25816(gp)
 800f700:	1005003a 	cmpeq	r2,r2,zero
 800f704:	1000081e 	bne	r2,zero,800f728 <Read_Sector_Data+0x5c>
        {
            if (Write_Sector_Data(current_sector_index, 0) == false)
 800f708:	d0a6cb17 	ldw	r2,-25812(gp)
 800f70c:	1009883a 	mov	r4,r2
 800f710:	000b883a 	mov	r5,zero
 800f714:	800f5b40 	call	800f5b4 <Write_Sector_Data>
 800f718:	1004c03a 	cmpne	r2,r2,zero
 800f71c:	1000021e 	bne	r2,zero,800f728 <Read_Sector_Data+0x5c>
            {
                return false;
 800f720:	e03fff15 	stw	zero,-4(fp)
 800f724:	00002206 	br	800f7b0 <Read_Sector_Data+0xe4>
            }
        }
		/* Multiply sector offset by sector size to get the address. Sector size is 512. Also,
		 * the SD card reads data in 512 byte chunks, so the address must be a multiple of 512. */
        IOWR_32DIRECT(command_argument_register, 0, (sector_index + partition_offset)*512);
 800f728:	d0a6c517 	ldw	r2,-25836(gp)
 800f72c:	1009883a 	mov	r4,r2
 800f730:	e0fffd17 	ldw	r3,-12(fp)
 800f734:	e0bffe17 	ldw	r2,-8(fp)
 800f738:	1885883a 	add	r2,r3,r2
 800f73c:	1006927a 	slli	r3,r2,9
 800f740:	2005883a 	mov	r2,r4
 800f744:	10c00035 	stwio	r3,0(r2)
        IOWR_16DIRECT(command_register, 0, CMD_READ_BLOCK);
 800f748:	d0a6c417 	ldw	r2,-25840(gp)
 800f74c:	1007883a 	mov	r3,r2
 800f750:	00800444 	movi	r2,17
 800f754:	1880002d 	sthio	r2,0(r3)
		do {
			reg_state = (short int) IORD_16DIRECT(aux_status_register,0);
 800f758:	d0a6c117 	ldw	r2,-25852(gp)
 800f75c:	1080002b 	ldhuio	r2,0(r2)
 800f760:	e0bffb0d 	sth	r2,-20(fp)
		} while ((reg_state & 0x04)!=0);
 800f764:	e0bffb0b 	ldhu	r2,-20(fp)
 800f768:	10bfffcc 	andi	r2,r2,65535
 800f76c:	1080010c 	andi	r2,r2,4
 800f770:	1004c03a 	cmpne	r2,r2,zero
 800f774:	103ff81e 	bne	r2,zero,800f758 <Read_Sector_Data+0x8c>
		// Make sure the request did not time out.
		if ((reg_state & 0x10) == 0)
 800f778:	e0bffb0b 	ldhu	r2,-20(fp)
 800f77c:	10bfffcc 	andi	r2,r2,65535
 800f780:	1080040c 	andi	r2,r2,16
 800f784:	1004c03a 	cmpne	r2,r2,zero
 800f788:	1000071e 	bne	r2,zero,800f7a8 <Read_Sector_Data+0xdc>
		{
			result = true;
 800f78c:	00800044 	movi	r2,1
 800f790:	e0bffc15 	stw	r2,-16(fp)
            current_sector_modified = false;
 800f794:	d026ca15 	stw	zero,-25816(gp)
            current_sector_index = sector_index+partition_offset;
 800f798:	e0fffd17 	ldw	r3,-12(fp)
 800f79c:	e0bffe17 	ldw	r2,-8(fp)
 800f7a0:	1885883a 	add	r2,r3,r2
 800f7a4:	d0a6cb15 	stw	r2,-25812(gp)
		}
	}
	return result;
 800f7a8:	e0bffc17 	ldw	r2,-16(fp)
 800f7ac:	e0bfff15 	stw	r2,-4(fp)
 800f7b0:	e0bfff17 	ldw	r2,-4(fp)
}
 800f7b4:	e037883a 	mov	sp,fp
 800f7b8:	dfc00117 	ldw	ra,4(sp)
 800f7bc:	df000017 	ldw	fp,0(sp)
 800f7c0:	dec00204 	addi	sp,sp,8
 800f7c4:	f800283a 	ret

0800f7c8 <get_cluster_flag>:


bool get_cluster_flag(unsigned int cluster_index, unsigned short int *flag)
// Read a cluster flag.
{
 800f7c8:	defffa04 	addi	sp,sp,-24
 800f7cc:	dfc00515 	stw	ra,20(sp)
 800f7d0:	df000415 	stw	fp,16(sp)
 800f7d4:	df000404 	addi	fp,sp,16
 800f7d8:	e13ffd15 	stw	r4,-12(fp)
 800f7dc:	e17ffe15 	stw	r5,-8(fp)
    unsigned int sector_index = (cluster_index / 256) + fat_partition_offset_in_512_byte_sectors;
 800f7e0:	e0bffd17 	ldw	r2,-12(fp)
 800f7e4:	1006d23a 	srli	r3,r2,8
 800f7e8:	d0a6c717 	ldw	r2,-25828(gp)
 800f7ec:	1885883a 	add	r2,r3,r2
 800f7f0:	e0bffc15 	stw	r2,-16(fp)
    
    sector_index  = sector_index + boot_sector_data.first_fat_sector_offset;
 800f7f4:	008200b4 	movhi	r2,2050
 800f7f8:	10a26104 	addi	r2,r2,-30332
 800f7fc:	10c01117 	ldw	r3,68(r2)
 800f800:	e0bffc17 	ldw	r2,-16(fp)
 800f804:	10c5883a 	add	r2,r2,r3
 800f808:	e0bffc15 	stw	r2,-16(fp)
     
    if (sector_index != current_sector_index)
 800f80c:	d0e6cb17 	ldw	r3,-25812(gp)
 800f810:	e0bffc17 	ldw	r2,-16(fp)
 800f814:	10c00726 	beq	r2,r3,800f834 <get_cluster_flag+0x6c>
    {
        if (Read_Sector_Data(sector_index, 0) == false)
 800f818:	e13ffc17 	ldw	r4,-16(fp)
 800f81c:	000b883a 	mov	r5,zero
 800f820:	800f6cc0 	call	800f6cc <Read_Sector_Data>
 800f824:	1004c03a 	cmpne	r2,r2,zero
 800f828:	1000021e 	bne	r2,zero,800f834 <get_cluster_flag+0x6c>
        {
            return false;
 800f82c:	e03fff15 	stw	zero,-4(fp)
 800f830:	00000d06 	br	800f868 <get_cluster_flag+0xa0>
        }
    }
    *flag = (unsigned short int) IORD_16DIRECT(device_pointer->base, 2*(cluster_index % 256));
 800f834:	d0a6c917 	ldw	r2,-25820(gp)
 800f838:	10800a17 	ldw	r2,40(r2)
 800f83c:	1007883a 	mov	r3,r2
 800f840:	e0bffd17 	ldw	r2,-12(fp)
 800f844:	10803fcc 	andi	r2,r2,255
 800f848:	1085883a 	add	r2,r2,r2
 800f84c:	1885883a 	add	r2,r3,r2
 800f850:	1080002b 	ldhuio	r2,0(r2)
 800f854:	1007883a 	mov	r3,r2
 800f858:	e0bffe17 	ldw	r2,-8(fp)
 800f85c:	10c0000d 	sth	r3,0(r2)
    return true;
 800f860:	00800044 	movi	r2,1
 800f864:	e0bfff15 	stw	r2,-4(fp)
 800f868:	e0bfff17 	ldw	r2,-4(fp)
}
 800f86c:	e037883a 	mov	sp,fp
 800f870:	dfc00117 	ldw	ra,4(sp)
 800f874:	df000017 	ldw	fp,0(sp)
 800f878:	dec00204 	addi	sp,sp,8
 800f87c:	f800283a 	ret

0800f880 <mark_cluster>:


bool mark_cluster(unsigned int cluster_index, short int flag, bool first_fat)
// Place a marker on the specified cluster in a given FAT.
{
 800f880:	defff904 	addi	sp,sp,-28
 800f884:	dfc00615 	stw	ra,24(sp)
 800f888:	df000515 	stw	fp,20(sp)
 800f88c:	df000504 	addi	fp,sp,20
 800f890:	e13ffc15 	stw	r4,-16(fp)
 800f894:	e1bffe15 	stw	r6,-8(fp)
 800f898:	e17ffd0d 	sth	r5,-12(fp)
    unsigned int sector_index = (cluster_index / 256) +  fat_partition_offset_in_512_byte_sectors;
 800f89c:	e0bffc17 	ldw	r2,-16(fp)
 800f8a0:	1006d23a 	srli	r3,r2,8
 800f8a4:	d0a6c717 	ldw	r2,-25828(gp)
 800f8a8:	1885883a 	add	r2,r3,r2
 800f8ac:	e0bffb15 	stw	r2,-20(fp)
    
    if (first_fat)
 800f8b0:	e0bffe17 	ldw	r2,-8(fp)
 800f8b4:	1005003a 	cmpeq	r2,r2,zero
 800f8b8:	1000071e 	bne	r2,zero,800f8d8 <mark_cluster+0x58>
    {
        sector_index  = sector_index + boot_sector_data.first_fat_sector_offset;
 800f8bc:	008200b4 	movhi	r2,2050
 800f8c0:	10a26104 	addi	r2,r2,-30332
 800f8c4:	10c01117 	ldw	r3,68(r2)
 800f8c8:	e0bffb17 	ldw	r2,-20(fp)
 800f8cc:	10c5883a 	add	r2,r2,r3
 800f8d0:	e0bffb15 	stw	r2,-20(fp)
 800f8d4:	00000606 	br	800f8f0 <mark_cluster+0x70>
    }
    else
    {
        sector_index  = sector_index + boot_sector_data.second_fat_sector_offset;
 800f8d8:	008200b4 	movhi	r2,2050
 800f8dc:	10a26104 	addi	r2,r2,-30332
 800f8e0:	10c01217 	ldw	r3,72(r2)
 800f8e4:	e0bffb17 	ldw	r2,-20(fp)
 800f8e8:	10c5883a 	add	r2,r2,r3
 800f8ec:	e0bffb15 	stw	r2,-20(fp)
    }
     
    if (sector_index != current_sector_index)
 800f8f0:	d0e6cb17 	ldw	r3,-25812(gp)
 800f8f4:	e0bffb17 	ldw	r2,-20(fp)
 800f8f8:	10c00726 	beq	r2,r3,800f918 <mark_cluster+0x98>
    {
        if (Read_Sector_Data(sector_index, 0) == false)
 800f8fc:	e13ffb17 	ldw	r4,-20(fp)
 800f900:	000b883a 	mov	r5,zero
 800f904:	800f6cc0 	call	800f6cc <Read_Sector_Data>
 800f908:	1004c03a 	cmpne	r2,r2,zero
 800f90c:	1000021e 	bne	r2,zero,800f918 <mark_cluster+0x98>
        {
            return false;
 800f910:	e03fff15 	stw	zero,-4(fp)
 800f914:	00000d06 	br	800f94c <mark_cluster+0xcc>
        }
    }
    IOWR_16DIRECT(device_pointer->base, 2*(cluster_index % 256), flag);
 800f918:	d0a6c917 	ldw	r2,-25820(gp)
 800f91c:	10800a17 	ldw	r2,40(r2)
 800f920:	1007883a 	mov	r3,r2
 800f924:	e0bffc17 	ldw	r2,-16(fp)
 800f928:	10803fcc 	andi	r2,r2,255
 800f92c:	1085883a 	add	r2,r2,r2
 800f930:	1885883a 	add	r2,r3,r2
 800f934:	e0fffd0f 	ldh	r3,-12(fp)
 800f938:	10c0002d 	sthio	r3,0(r2)
    current_sector_modified = true;
 800f93c:	00800044 	movi	r2,1
 800f940:	d0a6ca15 	stw	r2,-25816(gp)
    return true;
 800f944:	00800044 	movi	r2,1
 800f948:	e0bfff15 	stw	r2,-4(fp)
 800f94c:	e0bfff17 	ldw	r2,-4(fp)
}
 800f950:	e037883a 	mov	sp,fp
 800f954:	dfc00117 	ldw	ra,4(sp)
 800f958:	df000017 	ldw	fp,0(sp)
 800f95c:	dec00204 	addi	sp,sp,8
 800f960:	f800283a 	ret

0800f964 <Check_for_Master_Boot_Record>:

bool Check_for_Master_Boot_Record(void)
// This function reads the first 512 bytes on the SD Card. This data should
// contain the Master Boot Record. If it does, then print
// relevant information and return true. Otherwise, return false. 
{
 800f964:	defff704 	addi	sp,sp,-36
 800f968:	dfc00815 	stw	ra,32(sp)
 800f96c:	df000715 	stw	fp,28(sp)
 800f970:	df000704 	addi	fp,sp,28
	bool result = false;
 800f974:	e03fff15 	stw	zero,-4(fp)
	int index;
	int end, offset, partition_size;

	/* Load the first 512 bytes of data from SD card. */
	if (Read_Sector_Data(0, 0))
 800f978:	0009883a 	mov	r4,zero
 800f97c:	000b883a 	mov	r5,zero
 800f980:	800f6cc0 	call	800f6cc <Read_Sector_Data>
 800f984:	1005003a 	cmpeq	r2,r2,zero
 800f988:	10005c1e 	bne	r2,zero,800fafc <Check_for_Master_Boot_Record+0x198>
	{
		end =  (short int) IORD_16DIRECT(device_pointer->base,0x1fe);
 800f98c:	d0a6c917 	ldw	r2,-25820(gp)
 800f990:	10800a17 	ldw	r2,40(r2)
 800f994:	10807f84 	addi	r2,r2,510
 800f998:	1080002b 	ldhuio	r2,0(r2)
 800f99c:	10bfffcc 	andi	r2,r2,65535
 800f9a0:	10a0001c 	xori	r2,r2,32768
 800f9a4:	10a00004 	addi	r2,r2,-32768
 800f9a8:	e0bffd15 	stw	r2,-12(fp)

		// Check if the end of the sector contains an end string 0xaa55.
		if ((end & 0x0000ffff) == 0x0000aa55)
 800f9ac:	e0bffd17 	ldw	r2,-12(fp)
 800f9b0:	10ffffcc 	andi	r3,r2,65535
 800f9b4:	00aa9554 	movui	r2,43605
 800f9b8:	1880501e 	bne	r3,r2,800fafc <Check_for_Master_Boot_Record+0x198>
		{
			// Check four partition entries and see if any are valid
			for (index = 0; index < 4; index++)
 800f9bc:	e03ffe15 	stw	zero,-8(fp)
 800f9c0:	00004b06 	br	800faf0 <Check_for_Master_Boot_Record+0x18c>
			{
				int partition_data_offset = (index * 16) + 0x01be;
 800f9c4:	e0bffe17 	ldw	r2,-8(fp)
 800f9c8:	1004913a 	slli	r2,r2,4
 800f9cc:	10806f84 	addi	r2,r2,446
 800f9d0:	e0bffa15 	stw	r2,-24(fp)
				char type;
		        
				// Read Partition type
				type = (unsigned char) IORD_8DIRECT(device_pointer->base,partition_data_offset + 0x04);
 800f9d4:	d0a6c917 	ldw	r2,-25820(gp)
 800f9d8:	10800a17 	ldw	r2,40(r2)
 800f9dc:	1007883a 	mov	r3,r2
 800f9e0:	e0bffa17 	ldw	r2,-24(fp)
 800f9e4:	1885883a 	add	r2,r3,r2
 800f9e8:	10800104 	addi	r2,r2,4
 800f9ec:	10800023 	ldbuio	r2,0(r2)
 800f9f0:	e0bff905 	stb	r2,-28(fp)

				// Check if this is an FAT parition
				if ((type == 1) || (type == 4) || (type == 6) || (type == 14))
 800f9f4:	e0bff907 	ldb	r2,-28(fp)
 800f9f8:	10800060 	cmpeqi	r2,r2,1
 800f9fc:	1000091e 	bne	r2,zero,800fa24 <Check_for_Master_Boot_Record+0xc0>
 800fa00:	e0bff907 	ldb	r2,-28(fp)
 800fa04:	10800120 	cmpeqi	r2,r2,4
 800fa08:	1000061e 	bne	r2,zero,800fa24 <Check_for_Master_Boot_Record+0xc0>
 800fa0c:	e0bff907 	ldb	r2,-28(fp)
 800fa10:	108001a0 	cmpeqi	r2,r2,6
 800fa14:	1000031e 	bne	r2,zero,800fa24 <Check_for_Master_Boot_Record+0xc0>
 800fa18:	e0bff907 	ldb	r2,-28(fp)
 800fa1c:	10800398 	cmpnei	r2,r2,14
 800fa20:	1000301e 	bne	r2,zero,800fae4 <Check_for_Master_Boot_Record+0x180>
				{
					// Get partition offset and size.
					offset = (((unsigned short int) IORD_16DIRECT(device_pointer->base,partition_data_offset + 0x0A)) << 16) | ((unsigned short int) IORD_16DIRECT(device_pointer->base,partition_data_offset + 0x08));
 800fa24:	d0a6c917 	ldw	r2,-25820(gp)
 800fa28:	10800a17 	ldw	r2,40(r2)
 800fa2c:	1007883a 	mov	r3,r2
 800fa30:	e0bffa17 	ldw	r2,-24(fp)
 800fa34:	1885883a 	add	r2,r3,r2
 800fa38:	10800284 	addi	r2,r2,10
 800fa3c:	1080002b 	ldhuio	r2,0(r2)
 800fa40:	10bfffcc 	andi	r2,r2,65535
 800fa44:	1008943a 	slli	r4,r2,16
 800fa48:	d0a6c917 	ldw	r2,-25820(gp)
 800fa4c:	10800a17 	ldw	r2,40(r2)
 800fa50:	1007883a 	mov	r3,r2
 800fa54:	e0bffa17 	ldw	r2,-24(fp)
 800fa58:	1885883a 	add	r2,r3,r2
 800fa5c:	10800204 	addi	r2,r2,8
 800fa60:	1080002b 	ldhuio	r2,0(r2)
 800fa64:	10bfffcc 	andi	r2,r2,65535
 800fa68:	2084b03a 	or	r2,r4,r2
 800fa6c:	e0bffc15 	stw	r2,-16(fp)
					partition_size = (((unsigned short int) IORD_16DIRECT(device_pointer->base,partition_data_offset + 0x0E)) << 16) | ((unsigned short int) IORD_16DIRECT(device_pointer->base,partition_data_offset + 0x0C));
 800fa70:	d0a6c917 	ldw	r2,-25820(gp)
 800fa74:	10800a17 	ldw	r2,40(r2)
 800fa78:	1007883a 	mov	r3,r2
 800fa7c:	e0bffa17 	ldw	r2,-24(fp)
 800fa80:	1885883a 	add	r2,r3,r2
 800fa84:	10800384 	addi	r2,r2,14
 800fa88:	1080002b 	ldhuio	r2,0(r2)
 800fa8c:	10bfffcc 	andi	r2,r2,65535
 800fa90:	1008943a 	slli	r4,r2,16
 800fa94:	d0a6c917 	ldw	r2,-25820(gp)
 800fa98:	10800a17 	ldw	r2,40(r2)
 800fa9c:	1007883a 	mov	r3,r2
 800faa0:	e0bffa17 	ldw	r2,-24(fp)
 800faa4:	1885883a 	add	r2,r3,r2
 800faa8:	10800304 	addi	r2,r2,12
 800faac:	1080002b 	ldhuio	r2,0(r2)
 800fab0:	10bfffcc 	andi	r2,r2,65535
 800fab4:	2084b03a 	or	r2,r4,r2
 800fab8:	e0bffb15 	stw	r2,-20(fp)
		            
					// Check if the partition is valid
					if (partition_size > 0)
 800fabc:	e0bffb17 	ldw	r2,-20(fp)
 800fac0:	10800050 	cmplti	r2,r2,1
 800fac4:	1000071e 	bne	r2,zero,800fae4 <Check_for_Master_Boot_Record+0x180>
					{
						result = true;
 800fac8:	00800044 	movi	r2,1
 800facc:	e0bfff15 	stw	r2,-4(fp)
						fat_partition_size_in_512_byte_sectors = partition_size;
 800fad0:	e0bffb17 	ldw	r2,-20(fp)
 800fad4:	d0a6c815 	stw	r2,-25824(gp)
						fat_partition_offset_in_512_byte_sectors = offset;
 800fad8:	e0bffc17 	ldw	r2,-16(fp)
 800fadc:	d0a6c715 	stw	r2,-25828(gp)
						break;
 800fae0:	00000606 	br	800fafc <Check_for_Master_Boot_Record+0x198>

		// Check if the end of the sector contains an end string 0xaa55.
		if ((end & 0x0000ffff) == 0x0000aa55)
		{
			// Check four partition entries and see if any are valid
			for (index = 0; index < 4; index++)
 800fae4:	e0bffe17 	ldw	r2,-8(fp)
 800fae8:	10800044 	addi	r2,r2,1
 800faec:	e0bffe15 	stw	r2,-8(fp)
 800faf0:	e0bffe17 	ldw	r2,-8(fp)
 800faf4:	10800110 	cmplti	r2,r2,4
 800faf8:	103fb21e 	bne	r2,zero,800f9c4 <Check_for_Master_Boot_Record+0x60>
				}
			}
		}
	}

	return result;
 800fafc:	e0bfff17 	ldw	r2,-4(fp)
}
 800fb00:	e037883a 	mov	sp,fp
 800fb04:	dfc00117 	ldw	ra,4(sp)
 800fb08:	df000017 	ldw	fp,0(sp)
 800fb0c:	dec00204 	addi	sp,sp,8
 800fb10:	f800283a 	ret

0800fb14 <Read_File_Record_At_Offset>:


bool Read_File_Record_At_Offset(int offset, t_file_record *record, unsigned int cluster_index, unsigned int sector_in_cluster)
// This function reads a file record
{
 800fb14:	defff804 	addi	sp,sp,-32
 800fb18:	dfc00715 	stw	ra,28(sp)
 800fb1c:	df000615 	stw	fp,24(sp)
 800fb20:	df000604 	addi	fp,sp,24
 800fb24:	e13ffc15 	stw	r4,-16(fp)
 800fb28:	e17ffd15 	stw	r5,-12(fp)
 800fb2c:	e1bffe15 	stw	r6,-8(fp)
 800fb30:	e1ffff15 	stw	r7,-4(fp)
	bool result = false;
 800fb34:	e03ffb15 	stw	zero,-20(fp)
	if (((offset & 0x01f) == 0) && (alt_up_sd_card_is_Present()) && (is_sd_card_formated_as_FAT16))
 800fb38:	e0bffc17 	ldw	r2,-16(fp)
 800fb3c:	108007cc 	andi	r2,r2,31
 800fb40:	1004c03a 	cmpne	r2,r2,zero
 800fb44:	10008e1e 	bne	r2,zero,800fd80 <Read_File_Record_At_Offset+0x26c>
 800fb48:	80123dc0 	call	80123dc <alt_up_sd_card_is_Present>
 800fb4c:	1005003a 	cmpeq	r2,r2,zero
 800fb50:	10008b1e 	bne	r2,zero,800fd80 <Read_File_Record_At_Offset+0x26c>
 800fb54:	d0a6c017 	ldw	r2,-25856(gp)
 800fb58:	1005003a 	cmpeq	r2,r2,zero
 800fb5c:	1000881e 	bne	r2,zero,800fd80 <Read_File_Record_At_Offset+0x26c>
	{
		int counter;

		for (counter = 0; counter < 8; counter++)
 800fb60:	e03ffa15 	stw	zero,-24(fp)
 800fb64:	00001006 	br	800fba8 <Read_File_Record_At_Offset+0x94>
		{
			record->name[counter] = (char) IORD_8DIRECT(device_pointer->base, offset+counter);
 800fb68:	e17ffa17 	ldw	r5,-24(fp)
 800fb6c:	d0a6c917 	ldw	r2,-25820(gp)
 800fb70:	10800a17 	ldw	r2,40(r2)
 800fb74:	1009883a 	mov	r4,r2
 800fb78:	e0fffc17 	ldw	r3,-16(fp)
 800fb7c:	e0bffa17 	ldw	r2,-24(fp)
 800fb80:	1885883a 	add	r2,r3,r2
 800fb84:	2085883a 	add	r2,r4,r2
 800fb88:	10800023 	ldbuio	r2,0(r2)
 800fb8c:	1007883a 	mov	r3,r2
 800fb90:	e0bffd17 	ldw	r2,-12(fp)
 800fb94:	1145883a 	add	r2,r2,r5
 800fb98:	10c00005 	stb	r3,0(r2)
	bool result = false;
	if (((offset & 0x01f) == 0) && (alt_up_sd_card_is_Present()) && (is_sd_card_formated_as_FAT16))
	{
		int counter;

		for (counter = 0; counter < 8; counter++)
 800fb9c:	e0bffa17 	ldw	r2,-24(fp)
 800fba0:	10800044 	addi	r2,r2,1
 800fba4:	e0bffa15 	stw	r2,-24(fp)
 800fba8:	e0bffa17 	ldw	r2,-24(fp)
 800fbac:	10800210 	cmplti	r2,r2,8
 800fbb0:	103fed1e 	bne	r2,zero,800fb68 <Read_File_Record_At_Offset+0x54>
		{
			record->name[counter] = (char) IORD_8DIRECT(device_pointer->base, offset+counter);
		}        
		for (counter = 0; counter < 3; counter++)
 800fbb4:	e03ffa15 	stw	zero,-24(fp)
 800fbb8:	00001206 	br	800fc04 <Read_File_Record_At_Offset+0xf0>
		{
			record->extension[counter] = (char) IORD_8DIRECT(device_pointer->base, offset+counter+8);
 800fbbc:	e17ffa17 	ldw	r5,-24(fp)
 800fbc0:	d0a6c917 	ldw	r2,-25820(gp)
 800fbc4:	10800a17 	ldw	r2,40(r2)
 800fbc8:	1009883a 	mov	r4,r2
 800fbcc:	e0fffc17 	ldw	r3,-16(fp)
 800fbd0:	e0bffa17 	ldw	r2,-24(fp)
 800fbd4:	1885883a 	add	r2,r3,r2
 800fbd8:	2085883a 	add	r2,r4,r2
 800fbdc:	10800204 	addi	r2,r2,8
 800fbe0:	10800023 	ldbuio	r2,0(r2)
 800fbe4:	1007883a 	mov	r3,r2
 800fbe8:	e0bffd17 	ldw	r2,-12(fp)
 800fbec:	2885883a 	add	r2,r5,r2
 800fbf0:	10800204 	addi	r2,r2,8
 800fbf4:	10c00005 	stb	r3,0(r2)

		for (counter = 0; counter < 8; counter++)
		{
			record->name[counter] = (char) IORD_8DIRECT(device_pointer->base, offset+counter);
		}        
		for (counter = 0; counter < 3; counter++)
 800fbf8:	e0bffa17 	ldw	r2,-24(fp)
 800fbfc:	10800044 	addi	r2,r2,1
 800fc00:	e0bffa15 	stw	r2,-24(fp)
 800fc04:	e0bffa17 	ldw	r2,-24(fp)
 800fc08:	108000d0 	cmplti	r2,r2,3
 800fc0c:	103feb1e 	bne	r2,zero,800fbbc <Read_File_Record_At_Offset+0xa8>
		{
			record->extension[counter] = (char) IORD_8DIRECT(device_pointer->base, offset+counter+8);
		}        
		record->attributes          =   (char) IORD_8DIRECT(device_pointer->base, offset+11);
 800fc10:	d0a6c917 	ldw	r2,-25820(gp)
 800fc14:	10800a17 	ldw	r2,40(r2)
 800fc18:	1007883a 	mov	r3,r2
 800fc1c:	e0bffc17 	ldw	r2,-16(fp)
 800fc20:	1885883a 	add	r2,r3,r2
 800fc24:	108002c4 	addi	r2,r2,11
 800fc28:	10800023 	ldbuio	r2,0(r2)
 800fc2c:	1007883a 	mov	r3,r2
 800fc30:	e0bffd17 	ldw	r2,-12(fp)
 800fc34:	10c002c5 	stb	r3,11(r2)
		/* Ignore reserved bytes at locations 12 and 13. */
		record->create_time         =   (unsigned short int) IORD_16DIRECT(device_pointer->base, offset+14);
 800fc38:	d0a6c917 	ldw	r2,-25820(gp)
 800fc3c:	10800a17 	ldw	r2,40(r2)
 800fc40:	1007883a 	mov	r3,r2
 800fc44:	e0bffc17 	ldw	r2,-16(fp)
 800fc48:	1885883a 	add	r2,r3,r2
 800fc4c:	10800384 	addi	r2,r2,14
 800fc50:	1080002b 	ldhuio	r2,0(r2)
 800fc54:	1007883a 	mov	r3,r2
 800fc58:	e0bffd17 	ldw	r2,-12(fp)
 800fc5c:	10c0030d 	sth	r3,12(r2)
		record->create_date         =   (unsigned short int) IORD_16DIRECT(device_pointer->base, offset+16);
 800fc60:	d0a6c917 	ldw	r2,-25820(gp)
 800fc64:	10800a17 	ldw	r2,40(r2)
 800fc68:	1007883a 	mov	r3,r2
 800fc6c:	e0bffc17 	ldw	r2,-16(fp)
 800fc70:	1885883a 	add	r2,r3,r2
 800fc74:	10800404 	addi	r2,r2,16
 800fc78:	1080002b 	ldhuio	r2,0(r2)
 800fc7c:	1007883a 	mov	r3,r2
 800fc80:	e0bffd17 	ldw	r2,-12(fp)
 800fc84:	10c0038d 	sth	r3,14(r2)
		record->last_access_date    =   (unsigned short int) IORD_16DIRECT(device_pointer->base, offset+18);
 800fc88:	d0a6c917 	ldw	r2,-25820(gp)
 800fc8c:	10800a17 	ldw	r2,40(r2)
 800fc90:	1007883a 	mov	r3,r2
 800fc94:	e0bffc17 	ldw	r2,-16(fp)
 800fc98:	1885883a 	add	r2,r3,r2
 800fc9c:	10800484 	addi	r2,r2,18
 800fca0:	1080002b 	ldhuio	r2,0(r2)
 800fca4:	1007883a 	mov	r3,r2
 800fca8:	e0bffd17 	ldw	r2,-12(fp)
 800fcac:	10c0040d 	sth	r3,16(r2)
		/* Ignore reserved bytes at locations 20 and 21. */
		record->last_modified_time  =	(unsigned short int) IORD_16DIRECT(device_pointer->base, offset+22);
 800fcb0:	d0a6c917 	ldw	r2,-25820(gp)
 800fcb4:	10800a17 	ldw	r2,40(r2)
 800fcb8:	1007883a 	mov	r3,r2
 800fcbc:	e0bffc17 	ldw	r2,-16(fp)
 800fcc0:	1885883a 	add	r2,r3,r2
 800fcc4:	10800584 	addi	r2,r2,22
 800fcc8:	1080002b 	ldhuio	r2,0(r2)
 800fccc:	1007883a 	mov	r3,r2
 800fcd0:	e0bffd17 	ldw	r2,-12(fp)
 800fcd4:	10c0048d 	sth	r3,18(r2)
		record->last_modified_date  =	(unsigned short int) IORD_16DIRECT(device_pointer->base, offset+24);
 800fcd8:	d0a6c917 	ldw	r2,-25820(gp)
 800fcdc:	10800a17 	ldw	r2,40(r2)
 800fce0:	1007883a 	mov	r3,r2
 800fce4:	e0bffc17 	ldw	r2,-16(fp)
 800fce8:	1885883a 	add	r2,r3,r2
 800fcec:	10800604 	addi	r2,r2,24
 800fcf0:	1080002b 	ldhuio	r2,0(r2)
 800fcf4:	1007883a 	mov	r3,r2
 800fcf8:	e0bffd17 	ldw	r2,-12(fp)
 800fcfc:	10c0050d 	sth	r3,20(r2)
		record->start_cluster_index =	(unsigned short int) IORD_16DIRECT(device_pointer->base, offset+26);
 800fd00:	d0a6c917 	ldw	r2,-25820(gp)
 800fd04:	10800a17 	ldw	r2,40(r2)
 800fd08:	1007883a 	mov	r3,r2
 800fd0c:	e0bffc17 	ldw	r2,-16(fp)
 800fd10:	1885883a 	add	r2,r3,r2
 800fd14:	10800684 	addi	r2,r2,26
 800fd18:	1080002b 	ldhuio	r2,0(r2)
 800fd1c:	1007883a 	mov	r3,r2
 800fd20:	e0bffd17 	ldw	r2,-12(fp)
 800fd24:	10c0058d 	sth	r3,22(r2)
		record->file_size_in_bytes  =	(unsigned int) IORD_32DIRECT(device_pointer->base, offset+28);
 800fd28:	d0a6c917 	ldw	r2,-25820(gp)
 800fd2c:	10800a17 	ldw	r2,40(r2)
 800fd30:	1007883a 	mov	r3,r2
 800fd34:	e0bffc17 	ldw	r2,-16(fp)
 800fd38:	1885883a 	add	r2,r3,r2
 800fd3c:	10800704 	addi	r2,r2,28
 800fd40:	10800037 	ldwio	r2,0(r2)
 800fd44:	1007883a 	mov	r3,r2
 800fd48:	e0bffd17 	ldw	r2,-12(fp)
 800fd4c:	10c00615 	stw	r3,24(r2)
		record->file_record_cluster = cluster_index;
 800fd50:	e0fffd17 	ldw	r3,-12(fp)
 800fd54:	e0bffe17 	ldw	r2,-8(fp)
 800fd58:	18800a15 	stw	r2,40(r3)
		record->file_record_sector_in_cluster = sector_in_cluster;
 800fd5c:	e0fffd17 	ldw	r3,-12(fp)
 800fd60:	e0bfff17 	ldw	r2,-4(fp)
 800fd64:	18800b15 	stw	r2,44(r3)
		record->file_record_offset = offset;
 800fd68:	e0bffc17 	ldw	r2,-16(fp)
 800fd6c:	1007883a 	mov	r3,r2
 800fd70:	e0bffd17 	ldw	r2,-12(fp)
 800fd74:	10c00c0d 	sth	r3,48(r2)
		result = true;
 800fd78:	00800044 	movi	r2,1
 800fd7c:	e0bffb15 	stw	r2,-20(fp)
	}
	return result;
 800fd80:	e0bffb17 	ldw	r2,-20(fp)
}
 800fd84:	e037883a 	mov	sp,fp
 800fd88:	dfc00117 	ldw	ra,4(sp)
 800fd8c:	df000017 	ldw	fp,0(sp)
 800fd90:	dec00204 	addi	sp,sp,8
 800fd94:	f800283a 	ret

0800fd98 <Write_File_Record_At_Offset>:


bool Write_File_Record_At_Offset(int offset, t_file_record *record)
// This function writes a file record at a given offset. The offset is given in bytes.
{
 800fd98:	defff904 	addi	sp,sp,-28
 800fd9c:	dfc00615 	stw	ra,24(sp)
 800fda0:	df000515 	stw	fp,20(sp)
 800fda4:	df000504 	addi	fp,sp,20
 800fda8:	e13ffe15 	stw	r4,-8(fp)
 800fdac:	e17fff15 	stw	r5,-4(fp)
    bool result = false;
 800fdb0:	e03ffd15 	stw	zero,-12(fp)
    if (((offset & 0x01f) == 0) && (alt_up_sd_card_is_Present()) && (is_sd_card_formated_as_FAT16))
 800fdb4:	e0bffe17 	ldw	r2,-8(fp)
 800fdb8:	108007cc 	andi	r2,r2,31
 800fdbc:	1004c03a 	cmpne	r2,r2,zero
 800fdc0:	10009d1e 	bne	r2,zero,8010038 <Write_File_Record_At_Offset+0x2a0>
 800fdc4:	80123dc0 	call	80123dc <alt_up_sd_card_is_Present>
 800fdc8:	1005003a 	cmpeq	r2,r2,zero
 800fdcc:	10009a1e 	bne	r2,zero,8010038 <Write_File_Record_At_Offset+0x2a0>
 800fdd0:	d0a6c017 	ldw	r2,-25856(gp)
 800fdd4:	1005003a 	cmpeq	r2,r2,zero
 800fdd8:	1000971e 	bne	r2,zero,8010038 <Write_File_Record_At_Offset+0x2a0>
    {
        int counter;

        for (counter = 0; counter < 8; counter=counter+2)
 800fddc:	e03ffc15 	stw	zero,-16(fp)
 800fde0:	00001e06 	br	800fe5c <Write_File_Record_At_Offset+0xc4>
        {
            short int two_chars = (short int) record->name[counter+1];
 800fde4:	e0bffc17 	ldw	r2,-16(fp)
 800fde8:	10c00044 	addi	r3,r2,1
 800fdec:	e0bfff17 	ldw	r2,-4(fp)
 800fdf0:	10c5883a 	add	r2,r2,r3
 800fdf4:	10800003 	ldbu	r2,0(r2)
 800fdf8:	10803fcc 	andi	r2,r2,255
 800fdfc:	e0bffb0d 	sth	r2,-20(fp)
            two_chars = two_chars << 8;
 800fe00:	e0bffb0f 	ldh	r2,-20(fp)
 800fe04:	1004923a 	slli	r2,r2,8
 800fe08:	e0bffb0d 	sth	r2,-20(fp)
            two_chars = two_chars | record->name[counter];
 800fe0c:	e0fffc17 	ldw	r3,-16(fp)
 800fe10:	e0bfff17 	ldw	r2,-4(fp)
 800fe14:	10c5883a 	add	r2,r2,r3
 800fe18:	10800003 	ldbu	r2,0(r2)
 800fe1c:	10c03fcc 	andi	r3,r2,255
 800fe20:	e0bffb0b 	ldhu	r2,-20(fp)
 800fe24:	10c4b03a 	or	r2,r2,r3
 800fe28:	e0bffb0d 	sth	r2,-20(fp)
            IOWR_16DIRECT(device_pointer->base, offset+counter, two_chars);
 800fe2c:	d0a6c917 	ldw	r2,-25820(gp)
 800fe30:	10800a17 	ldw	r2,40(r2)
 800fe34:	1009883a 	mov	r4,r2
 800fe38:	e0fffe17 	ldw	r3,-8(fp)
 800fe3c:	e0bffc17 	ldw	r2,-16(fp)
 800fe40:	1885883a 	add	r2,r3,r2
 800fe44:	2085883a 	add	r2,r4,r2
 800fe48:	e0fffb0f 	ldh	r3,-20(fp)
 800fe4c:	10c0002d 	sthio	r3,0(r2)
    bool result = false;
    if (((offset & 0x01f) == 0) && (alt_up_sd_card_is_Present()) && (is_sd_card_formated_as_FAT16))
    {
        int counter;

        for (counter = 0; counter < 8; counter=counter+2)
 800fe50:	e0bffc17 	ldw	r2,-16(fp)
 800fe54:	10800084 	addi	r2,r2,2
 800fe58:	e0bffc15 	stw	r2,-16(fp)
 800fe5c:	e0bffc17 	ldw	r2,-16(fp)
 800fe60:	10800210 	cmplti	r2,r2,8
 800fe64:	103fdf1e 	bne	r2,zero,800fde4 <Write_File_Record_At_Offset+0x4c>
            short int two_chars = (short int) record->name[counter+1];
            two_chars = two_chars << 8;
            two_chars = two_chars | record->name[counter];
            IOWR_16DIRECT(device_pointer->base, offset+counter, two_chars);
        }        
        for (counter = 0; counter < 3; counter++)
 800fe68:	e03ffc15 	stw	zero,-16(fp)
 800fe6c:	00001306 	br	800febc <Write_File_Record_At_Offset+0x124>
        {
            IOWR_8DIRECT(device_pointer->base, offset+counter+8, record->extension[counter]);
 800fe70:	d0a6c917 	ldw	r2,-25820(gp)
 800fe74:	10800a17 	ldw	r2,40(r2)
 800fe78:	1009883a 	mov	r4,r2
 800fe7c:	e0fffe17 	ldw	r3,-8(fp)
 800fe80:	e0bffc17 	ldw	r2,-16(fp)
 800fe84:	1885883a 	add	r2,r3,r2
 800fe88:	2085883a 	add	r2,r4,r2
 800fe8c:	11000204 	addi	r4,r2,8
 800fe90:	e0fffc17 	ldw	r3,-16(fp)
 800fe94:	e0bfff17 	ldw	r2,-4(fp)
 800fe98:	1885883a 	add	r2,r3,r2
 800fe9c:	10800204 	addi	r2,r2,8
 800fea0:	10800003 	ldbu	r2,0(r2)
 800fea4:	10c03fcc 	andi	r3,r2,255
 800fea8:	2005883a 	mov	r2,r4
 800feac:	10c00025 	stbio	r3,0(r2)
            short int two_chars = (short int) record->name[counter+1];
            two_chars = two_chars << 8;
            two_chars = two_chars | record->name[counter];
            IOWR_16DIRECT(device_pointer->base, offset+counter, two_chars);
        }        
        for (counter = 0; counter < 3; counter++)
 800feb0:	e0bffc17 	ldw	r2,-16(fp)
 800feb4:	10800044 	addi	r2,r2,1
 800feb8:	e0bffc15 	stw	r2,-16(fp)
 800febc:	e0bffc17 	ldw	r2,-16(fp)
 800fec0:	108000d0 	cmplti	r2,r2,3
 800fec4:	103fea1e 	bne	r2,zero,800fe70 <Write_File_Record_At_Offset+0xd8>
        {
            IOWR_8DIRECT(device_pointer->base, offset+counter+8, record->extension[counter]);
        }        
        IOWR_8DIRECT(device_pointer->base, offset+11, record->attributes);
 800fec8:	d0a6c917 	ldw	r2,-25820(gp)
 800fecc:	10800a17 	ldw	r2,40(r2)
 800fed0:	1007883a 	mov	r3,r2
 800fed4:	e0bffe17 	ldw	r2,-8(fp)
 800fed8:	1885883a 	add	r2,r3,r2
 800fedc:	110002c4 	addi	r4,r2,11
 800fee0:	e0bfff17 	ldw	r2,-4(fp)
 800fee4:	108002c3 	ldbu	r2,11(r2)
 800fee8:	10c03fcc 	andi	r3,r2,255
 800feec:	2005883a 	mov	r2,r4
 800fef0:	10c00025 	stbio	r3,0(r2)
        /* Ignore reserved bytes at locations 12 and 13. */
        IOWR_16DIRECT(device_pointer->base, offset+14, record->create_time);
 800fef4:	d0a6c917 	ldw	r2,-25820(gp)
 800fef8:	10800a17 	ldw	r2,40(r2)
 800fefc:	1007883a 	mov	r3,r2
 800ff00:	e0bffe17 	ldw	r2,-8(fp)
 800ff04:	1885883a 	add	r2,r3,r2
 800ff08:	11000384 	addi	r4,r2,14
 800ff0c:	e0bfff17 	ldw	r2,-4(fp)
 800ff10:	1080030b 	ldhu	r2,12(r2)
 800ff14:	10ffffcc 	andi	r3,r2,65535
 800ff18:	2005883a 	mov	r2,r4
 800ff1c:	10c0002d 	sthio	r3,0(r2)
        IOWR_16DIRECT(device_pointer->base, offset+16, record->create_date);
 800ff20:	d0a6c917 	ldw	r2,-25820(gp)
 800ff24:	10800a17 	ldw	r2,40(r2)
 800ff28:	1007883a 	mov	r3,r2
 800ff2c:	e0bffe17 	ldw	r2,-8(fp)
 800ff30:	1885883a 	add	r2,r3,r2
 800ff34:	11000404 	addi	r4,r2,16
 800ff38:	e0bfff17 	ldw	r2,-4(fp)
 800ff3c:	1080038b 	ldhu	r2,14(r2)
 800ff40:	10ffffcc 	andi	r3,r2,65535
 800ff44:	2005883a 	mov	r2,r4
 800ff48:	10c0002d 	sthio	r3,0(r2)
        IOWR_16DIRECT(device_pointer->base, offset+18, record->last_access_date);
 800ff4c:	d0a6c917 	ldw	r2,-25820(gp)
 800ff50:	10800a17 	ldw	r2,40(r2)
 800ff54:	1007883a 	mov	r3,r2
 800ff58:	e0bffe17 	ldw	r2,-8(fp)
 800ff5c:	1885883a 	add	r2,r3,r2
 800ff60:	11000484 	addi	r4,r2,18
 800ff64:	e0bfff17 	ldw	r2,-4(fp)
 800ff68:	1080040b 	ldhu	r2,16(r2)
 800ff6c:	10ffffcc 	andi	r3,r2,65535
 800ff70:	2005883a 	mov	r2,r4
 800ff74:	10c0002d 	sthio	r3,0(r2)
        /* Ignore reserved bytes at locations 20 and 21. */
        IOWR_16DIRECT(device_pointer->base, offset+22, record->last_modified_time);
 800ff78:	d0a6c917 	ldw	r2,-25820(gp)
 800ff7c:	10800a17 	ldw	r2,40(r2)
 800ff80:	1007883a 	mov	r3,r2
 800ff84:	e0bffe17 	ldw	r2,-8(fp)
 800ff88:	1885883a 	add	r2,r3,r2
 800ff8c:	11000584 	addi	r4,r2,22
 800ff90:	e0bfff17 	ldw	r2,-4(fp)
 800ff94:	1080048b 	ldhu	r2,18(r2)
 800ff98:	10ffffcc 	andi	r3,r2,65535
 800ff9c:	2005883a 	mov	r2,r4
 800ffa0:	10c0002d 	sthio	r3,0(r2)
        IOWR_16DIRECT(device_pointer->base, offset+24, record->last_modified_date);
 800ffa4:	d0a6c917 	ldw	r2,-25820(gp)
 800ffa8:	10800a17 	ldw	r2,40(r2)
 800ffac:	1007883a 	mov	r3,r2
 800ffb0:	e0bffe17 	ldw	r2,-8(fp)
 800ffb4:	1885883a 	add	r2,r3,r2
 800ffb8:	11000604 	addi	r4,r2,24
 800ffbc:	e0bfff17 	ldw	r2,-4(fp)
 800ffc0:	1080050b 	ldhu	r2,20(r2)
 800ffc4:	10ffffcc 	andi	r3,r2,65535
 800ffc8:	2005883a 	mov	r2,r4
 800ffcc:	10c0002d 	sthio	r3,0(r2)
        IOWR_16DIRECT(device_pointer->base, offset+26, record->start_cluster_index);
 800ffd0:	d0a6c917 	ldw	r2,-25820(gp)
 800ffd4:	10800a17 	ldw	r2,40(r2)
 800ffd8:	1007883a 	mov	r3,r2
 800ffdc:	e0bffe17 	ldw	r2,-8(fp)
 800ffe0:	1885883a 	add	r2,r3,r2
 800ffe4:	11000684 	addi	r4,r2,26
 800ffe8:	e0bfff17 	ldw	r2,-4(fp)
 800ffec:	1080058b 	ldhu	r2,22(r2)
 800fff0:	10ffffcc 	andi	r3,r2,65535
 800fff4:	2005883a 	mov	r2,r4
 800fff8:	10c0002d 	sthio	r3,0(r2)
        IOWR_32DIRECT(device_pointer->base, offset+28, record->file_size_in_bytes);
 800fffc:	d0a6c917 	ldw	r2,-25820(gp)
 8010000:	10800a17 	ldw	r2,40(r2)
 8010004:	1007883a 	mov	r3,r2
 8010008:	e0bffe17 	ldw	r2,-8(fp)
 801000c:	1885883a 	add	r2,r3,r2
 8010010:	11000704 	addi	r4,r2,28
 8010014:	e0bfff17 	ldw	r2,-4(fp)
 8010018:	10800617 	ldw	r2,24(r2)
 801001c:	1007883a 	mov	r3,r2
 8010020:	2005883a 	mov	r2,r4
 8010024:	10c00035 	stwio	r3,0(r2)
        current_sector_modified = true;                  
 8010028:	00800044 	movi	r2,1
 801002c:	d0a6ca15 	stw	r2,-25816(gp)
        result = true;
 8010030:	00800044 	movi	r2,1
 8010034:	e0bffd15 	stw	r2,-12(fp)
    }
    return result;
 8010038:	e0bffd17 	ldw	r2,-12(fp)
}
 801003c:	e037883a 	mov	sp,fp
 8010040:	dfc00117 	ldw	ra,4(sp)
 8010044:	df000017 	ldw	fp,0(sp)
 8010048:	dec00204 	addi	sp,sp,8
 801004c:	f800283a 	ret

08010050 <Check_for_DOS_FAT>:
// This function reads the boot sector for the FAT file system on the SD Card.
// The offset_address should point to the sector on the card where the boot sector is located.
// The sector number is specified either in the master Boot Record, or is 0 by default for a purely FAT
// based file system. If the specified sector contains a FAT boot sector, then this function prints the
// relevant information and returns 1. Otherwise, it returns 0. 
{
 8010050:	defff804 	addi	sp,sp,-32
 8010054:	dfc00715 	stw	ra,28(sp)
 8010058:	df000615 	stw	fp,24(sp)
 801005c:	dc000515 	stw	r16,20(sp)
 8010060:	df000504 	addi	fp,sp,20
 8010064:	e13fff15 	stw	r4,-4(fp)
	bool result = false;
 8010068:	e03ffe15 	stw	zero,-8(fp)
	int counter = 0;
 801006c:	e03ffd15 	stw	zero,-12(fp)
	short int end;

	result = Read_Sector_Data(0, FAT_partition_start_sector);
 8010070:	0009883a 	mov	r4,zero
 8010074:	e17fff17 	ldw	r5,-4(fp)
 8010078:	800f6cc0 	call	800f6cc <Read_Sector_Data>
 801007c:	e0bffe15 	stw	r2,-8(fp)
	end =  (short int) IORD_16DIRECT(device_pointer->base, 0x1fe);
 8010080:	d0a6c917 	ldw	r2,-25820(gp)
 8010084:	10800a17 	ldw	r2,40(r2)
 8010088:	10807f84 	addi	r2,r2,510
 801008c:	1080002b 	ldhuio	r2,0(r2)
 8010090:	e0bffc0d 	sth	r2,-16(fp)
	if (((end & 0x0000ffff) == 0x0000aa55) && (result))
 8010094:	e0bffc0f 	ldh	r2,-16(fp)
 8010098:	10ffffcc 	andi	r3,r2,65535
 801009c:	00aa9554 	movui	r2,43605
 80100a0:	1881751e 	bne	r3,r2,8010678 <Check_for_DOS_FAT+0x628>
 80100a4:	e0bffe17 	ldw	r2,-8(fp)
 80100a8:	1005003a 	cmpeq	r2,r2,zero
 80100ac:	1001721e 	bne	r2,zero,8010678 <Check_for_DOS_FAT+0x628>
	{
		int num_clusters = 0;
 80100b0:	e03ffb15 	stw	zero,-20(fp)

		boot_sector_data.jump_instruction[0] = (char) IORD_8DIRECT(device_pointer->base, 0);
 80100b4:	d0a6c917 	ldw	r2,-25820(gp)
 80100b8:	10800a17 	ldw	r2,40(r2)
 80100bc:	10800023 	ldbuio	r2,0(r2)
 80100c0:	1007883a 	mov	r3,r2
 80100c4:	008200b4 	movhi	r2,2050
 80100c8:	10a26104 	addi	r2,r2,-30332
 80100cc:	10c00005 	stb	r3,0(r2)
		boot_sector_data.jump_instruction[1] = (char) IORD_8DIRECT(device_pointer->base, 1);
 80100d0:	d0a6c917 	ldw	r2,-25820(gp)
 80100d4:	10800a17 	ldw	r2,40(r2)
 80100d8:	10800044 	addi	r2,r2,1
 80100dc:	10800023 	ldbuio	r2,0(r2)
 80100e0:	1007883a 	mov	r3,r2
 80100e4:	008200b4 	movhi	r2,2050
 80100e8:	10a26104 	addi	r2,r2,-30332
 80100ec:	10c00045 	stb	r3,1(r2)
		boot_sector_data.jump_instruction[2] = (char) IORD_8DIRECT(device_pointer->base, 2);
 80100f0:	d0a6c917 	ldw	r2,-25820(gp)
 80100f4:	10800a17 	ldw	r2,40(r2)
 80100f8:	10800084 	addi	r2,r2,2
 80100fc:	10800023 	ldbuio	r2,0(r2)
 8010100:	1007883a 	mov	r3,r2
 8010104:	008200b4 	movhi	r2,2050
 8010108:	10a26104 	addi	r2,r2,-30332
 801010c:	10c00085 	stb	r3,2(r2)
		for (counter = 0; counter < 8; counter++)
 8010110:	e03ffd15 	stw	zero,-12(fp)
 8010114:	00001006 	br	8010158 <Check_for_DOS_FAT+0x108>
		{
			boot_sector_data.OEM_name[counter] = (char) IORD_8DIRECT(device_pointer->base, 3+counter);
 8010118:	e13ffd17 	ldw	r4,-12(fp)
 801011c:	d0a6c917 	ldw	r2,-25820(gp)
 8010120:	10800a17 	ldw	r2,40(r2)
 8010124:	1007883a 	mov	r3,r2
 8010128:	e0bffd17 	ldw	r2,-12(fp)
 801012c:	1885883a 	add	r2,r3,r2
 8010130:	108000c4 	addi	r2,r2,3
 8010134:	10800023 	ldbuio	r2,0(r2)
 8010138:	1007883a 	mov	r3,r2
 801013c:	008200b4 	movhi	r2,2050
 8010140:	10a26104 	addi	r2,r2,-30332
 8010144:	1105883a 	add	r2,r2,r4
 8010148:	10c000c5 	stb	r3,3(r2)
		int num_clusters = 0;

		boot_sector_data.jump_instruction[0] = (char) IORD_8DIRECT(device_pointer->base, 0);
		boot_sector_data.jump_instruction[1] = (char) IORD_8DIRECT(device_pointer->base, 1);
		boot_sector_data.jump_instruction[2] = (char) IORD_8DIRECT(device_pointer->base, 2);
		for (counter = 0; counter < 8; counter++)
 801014c:	e0bffd17 	ldw	r2,-12(fp)
 8010150:	10800044 	addi	r2,r2,1
 8010154:	e0bffd15 	stw	r2,-12(fp)
 8010158:	e0bffd17 	ldw	r2,-12(fp)
 801015c:	10800210 	cmplti	r2,r2,8
 8010160:	103fed1e 	bne	r2,zero,8010118 <Check_for_DOS_FAT+0xc8>
		{
			boot_sector_data.OEM_name[counter] = (char) IORD_8DIRECT(device_pointer->base, 3+counter);
		}
		boot_sector_data.sector_size_in_bytes = (((unsigned char) IORD_8DIRECT(device_pointer->base, 12)) << 8 ) | ((char) IORD_8DIRECT(device_pointer->base, 11));
 8010164:	d0a6c917 	ldw	r2,-25820(gp)
 8010168:	10800a17 	ldw	r2,40(r2)
 801016c:	10800304 	addi	r2,r2,12
 8010170:	10800023 	ldbuio	r2,0(r2)
 8010174:	10803fcc 	andi	r2,r2,255
 8010178:	1004923a 	slli	r2,r2,8
 801017c:	1007883a 	mov	r3,r2
 8010180:	d0a6c917 	ldw	r2,-25820(gp)
 8010184:	10800a17 	ldw	r2,40(r2)
 8010188:	108002c4 	addi	r2,r2,11
 801018c:	10800023 	ldbuio	r2,0(r2)
 8010190:	10803fcc 	andi	r2,r2,255
 8010194:	1080201c 	xori	r2,r2,128
 8010198:	10bfe004 	addi	r2,r2,-128
 801019c:	1884b03a 	or	r2,r3,r2
 80101a0:	1007883a 	mov	r3,r2
 80101a4:	008200b4 	movhi	r2,2050
 80101a8:	10a26104 	addi	r2,r2,-30332
 80101ac:	10c0030d 	sth	r3,12(r2)
		boot_sector_data.sectors_per_cluster = ((unsigned char) IORD_8DIRECT(device_pointer->base, 13));
 80101b0:	d0a6c917 	ldw	r2,-25820(gp)
 80101b4:	10800a17 	ldw	r2,40(r2)
 80101b8:	10800344 	addi	r2,r2,13
 80101bc:	10800023 	ldbuio	r2,0(r2)
 80101c0:	1007883a 	mov	r3,r2
 80101c4:	008200b4 	movhi	r2,2050
 80101c8:	10a26104 	addi	r2,r2,-30332
 80101cc:	10c00385 	stb	r3,14(r2)
		boot_sector_data.reserved_sectors = ((unsigned short int) IORD_16DIRECT(device_pointer->base, 14));
 80101d0:	d0a6c917 	ldw	r2,-25820(gp)
 80101d4:	10800a17 	ldw	r2,40(r2)
 80101d8:	10800384 	addi	r2,r2,14
 80101dc:	1080002b 	ldhuio	r2,0(r2)
 80101e0:	1007883a 	mov	r3,r2
 80101e4:	008200b4 	movhi	r2,2050
 80101e8:	10a26104 	addi	r2,r2,-30332
 80101ec:	10c0040d 	sth	r3,16(r2)
		boot_sector_data.number_of_FATs = ((unsigned char) IORD_8DIRECT(device_pointer->base, 16));
 80101f0:	d0a6c917 	ldw	r2,-25820(gp)
 80101f4:	10800a17 	ldw	r2,40(r2)
 80101f8:	10800404 	addi	r2,r2,16
 80101fc:	10800023 	ldbuio	r2,0(r2)
 8010200:	1007883a 	mov	r3,r2
 8010204:	008200b4 	movhi	r2,2050
 8010208:	10a26104 	addi	r2,r2,-30332
 801020c:	10c00485 	stb	r3,18(r2)
		boot_sector_data.max_number_of_dir_entires = (((unsigned short int)(((unsigned char) IORD_8DIRECT(device_pointer->base, 18)))) << 8 ) | ((unsigned char) IORD_8DIRECT(device_pointer->base, 17));
 8010210:	d0a6c917 	ldw	r2,-25820(gp)
 8010214:	10800a17 	ldw	r2,40(r2)
 8010218:	10800484 	addi	r2,r2,18
 801021c:	10800023 	ldbuio	r2,0(r2)
 8010220:	10803fcc 	andi	r2,r2,255
 8010224:	1004923a 	slli	r2,r2,8
 8010228:	1007883a 	mov	r3,r2
 801022c:	d0a6c917 	ldw	r2,-25820(gp)
 8010230:	10800a17 	ldw	r2,40(r2)
 8010234:	10800444 	addi	r2,r2,17
 8010238:	10800023 	ldbuio	r2,0(r2)
 801023c:	10803fcc 	andi	r2,r2,255
 8010240:	1884b03a 	or	r2,r3,r2
 8010244:	1007883a 	mov	r3,r2
 8010248:	008200b4 	movhi	r2,2050
 801024c:	10a26104 	addi	r2,r2,-30332
 8010250:	10c0050d 	sth	r3,20(r2)
		boot_sector_data.number_of_sectors_in_partition = (((unsigned short int)(((unsigned char) IORD_8DIRECT(device_pointer->base, 20)))) << 8 ) | ((unsigned char) IORD_8DIRECT(device_pointer->base, 19));
 8010254:	d0a6c917 	ldw	r2,-25820(gp)
 8010258:	10800a17 	ldw	r2,40(r2)
 801025c:	10800504 	addi	r2,r2,20
 8010260:	10800023 	ldbuio	r2,0(r2)
 8010264:	10803fcc 	andi	r2,r2,255
 8010268:	1004923a 	slli	r2,r2,8
 801026c:	1007883a 	mov	r3,r2
 8010270:	d0a6c917 	ldw	r2,-25820(gp)
 8010274:	10800a17 	ldw	r2,40(r2)
 8010278:	108004c4 	addi	r2,r2,19
 801027c:	10800023 	ldbuio	r2,0(r2)
 8010280:	10803fcc 	andi	r2,r2,255
 8010284:	1884b03a 	or	r2,r3,r2
 8010288:	1007883a 	mov	r3,r2
 801028c:	008200b4 	movhi	r2,2050
 8010290:	10a26104 	addi	r2,r2,-30332
 8010294:	10c0058d 	sth	r3,22(r2)
		boot_sector_data.media_descriptor = ((unsigned char) IORD_8DIRECT(device_pointer->base, 21));
 8010298:	d0a6c917 	ldw	r2,-25820(gp)
 801029c:	10800a17 	ldw	r2,40(r2)
 80102a0:	10800544 	addi	r2,r2,21
 80102a4:	10800023 	ldbuio	r2,0(r2)
 80102a8:	1007883a 	mov	r3,r2
 80102ac:	008200b4 	movhi	r2,2050
 80102b0:	10a26104 	addi	r2,r2,-30332
 80102b4:	10c00605 	stb	r3,24(r2)
		boot_sector_data.number_of_sectors_per_table = ((unsigned short int) IORD_16DIRECT(device_pointer->base, 22));
 80102b8:	d0a6c917 	ldw	r2,-25820(gp)
 80102bc:	10800a17 	ldw	r2,40(r2)
 80102c0:	10800584 	addi	r2,r2,22
 80102c4:	1080002b 	ldhuio	r2,0(r2)
 80102c8:	1007883a 	mov	r3,r2
 80102cc:	008200b4 	movhi	r2,2050
 80102d0:	10a26104 	addi	r2,r2,-30332
 80102d4:	10c0068d 	sth	r3,26(r2)
		boot_sector_data.number_of_sectors_per_track = ((unsigned short int) IORD_16DIRECT(device_pointer->base, 24));
 80102d8:	d0a6c917 	ldw	r2,-25820(gp)
 80102dc:	10800a17 	ldw	r2,40(r2)
 80102e0:	10800604 	addi	r2,r2,24
 80102e4:	1080002b 	ldhuio	r2,0(r2)
 80102e8:	1007883a 	mov	r3,r2
 80102ec:	008200b4 	movhi	r2,2050
 80102f0:	10a26104 	addi	r2,r2,-30332
 80102f4:	10c0070d 	sth	r3,28(r2)
		boot_sector_data.number_of_heads = ((unsigned short int) IORD_16DIRECT(device_pointer->base, 26));
 80102f8:	d0a6c917 	ldw	r2,-25820(gp)
 80102fc:	10800a17 	ldw	r2,40(r2)
 8010300:	10800684 	addi	r2,r2,26
 8010304:	1080002b 	ldhuio	r2,0(r2)
 8010308:	1007883a 	mov	r3,r2
 801030c:	008200b4 	movhi	r2,2050
 8010310:	10a26104 	addi	r2,r2,-30332
 8010314:	10c0078d 	sth	r3,30(r2)
		boot_sector_data.number_of_hidden_sectors = ((unsigned int) IORD_32DIRECT(device_pointer->base, 28));
 8010318:	d0a6c917 	ldw	r2,-25820(gp)
 801031c:	10800a17 	ldw	r2,40(r2)
 8010320:	10800704 	addi	r2,r2,28
 8010324:	10800037 	ldwio	r2,0(r2)
 8010328:	1007883a 	mov	r3,r2
 801032c:	008200b4 	movhi	r2,2050
 8010330:	10a26104 	addi	r2,r2,-30332
 8010334:	10c00815 	stw	r3,32(r2)
		boot_sector_data.total_sector_count_if_above_32MB = ((unsigned int) IORD_32DIRECT(device_pointer->base, 32));
 8010338:	d0a6c917 	ldw	r2,-25820(gp)
 801033c:	10800a17 	ldw	r2,40(r2)
 8010340:	10800804 	addi	r2,r2,32
 8010344:	10800037 	ldwio	r2,0(r2)
 8010348:	1007883a 	mov	r3,r2
 801034c:	008200b4 	movhi	r2,2050
 8010350:	10a26104 	addi	r2,r2,-30332
 8010354:	10c00915 	stw	r3,36(r2)
		boot_sector_data.drive_number = ((unsigned char) IORD_8DIRECT(device_pointer->base, 36));
 8010358:	d0a6c917 	ldw	r2,-25820(gp)
 801035c:	10800a17 	ldw	r2,40(r2)
 8010360:	10800904 	addi	r2,r2,36
 8010364:	10800023 	ldbuio	r2,0(r2)
 8010368:	1007883a 	mov	r3,r2
 801036c:	008200b4 	movhi	r2,2050
 8010370:	10a26104 	addi	r2,r2,-30332
 8010374:	10c00a05 	stb	r3,40(r2)
		boot_sector_data.current_head = ((unsigned char) IORD_8DIRECT(device_pointer->base, 37));
 8010378:	d0a6c917 	ldw	r2,-25820(gp)
 801037c:	10800a17 	ldw	r2,40(r2)
 8010380:	10800944 	addi	r2,r2,37
 8010384:	10800023 	ldbuio	r2,0(r2)
 8010388:	1007883a 	mov	r3,r2
 801038c:	008200b4 	movhi	r2,2050
 8010390:	10a26104 	addi	r2,r2,-30332
 8010394:	10c00a45 	stb	r3,41(r2)
		boot_sector_data.boot_signature = ((unsigned char) IORD_8DIRECT(device_pointer->base, 38));
 8010398:	d0a6c917 	ldw	r2,-25820(gp)
 801039c:	10800a17 	ldw	r2,40(r2)
 80103a0:	10800984 	addi	r2,r2,38
 80103a4:	10800023 	ldbuio	r2,0(r2)
 80103a8:	1007883a 	mov	r3,r2
 80103ac:	008200b4 	movhi	r2,2050
 80103b0:	10a26104 	addi	r2,r2,-30332
 80103b4:	10c00a85 	stb	r3,42(r2)
		boot_sector_data.first_fat_sector_offset = boot_sector_data.reserved_sectors;
 80103b8:	008200b4 	movhi	r2,2050
 80103bc:	10a26104 	addi	r2,r2,-30332
 80103c0:	1080040b 	ldhu	r2,16(r2)
 80103c4:	10ffffcc 	andi	r3,r2,65535
 80103c8:	008200b4 	movhi	r2,2050
 80103cc:	10a26104 	addi	r2,r2,-30332
 80103d0:	10c01115 	stw	r3,68(r2)
		boot_sector_data.second_fat_sector_offset = boot_sector_data.first_fat_sector_offset + boot_sector_data.number_of_sectors_per_table;
 80103d4:	008200b4 	movhi	r2,2050
 80103d8:	10a26104 	addi	r2,r2,-30332
 80103dc:	10c01117 	ldw	r3,68(r2)
 80103e0:	008200b4 	movhi	r2,2050
 80103e4:	10a26104 	addi	r2,r2,-30332
 80103e8:	1080068b 	ldhu	r2,26(r2)
 80103ec:	10bfffcc 	andi	r2,r2,65535
 80103f0:	1887883a 	add	r3,r3,r2
 80103f4:	008200b4 	movhi	r2,2050
 80103f8:	10a26104 	addi	r2,r2,-30332
 80103fc:	10c01215 	stw	r3,72(r2)
		boot_sector_data.root_directory_sector_offset = boot_sector_data.second_fat_sector_offset + boot_sector_data.number_of_sectors_per_table; 
 8010400:	008200b4 	movhi	r2,2050
 8010404:	10a26104 	addi	r2,r2,-30332
 8010408:	10c01217 	ldw	r3,72(r2)
 801040c:	008200b4 	movhi	r2,2050
 8010410:	10a26104 	addi	r2,r2,-30332
 8010414:	1080068b 	ldhu	r2,26(r2)
 8010418:	10bfffcc 	andi	r2,r2,65535
 801041c:	1887883a 	add	r3,r3,r2
 8010420:	008200b4 	movhi	r2,2050
 8010424:	10a26104 	addi	r2,r2,-30332
 8010428:	10c01315 	stw	r3,76(r2)
		boot_sector_data.data_sector_offset = boot_sector_data.root_directory_sector_offset + (32*boot_sector_data.max_number_of_dir_entires / boot_sector_data.sector_size_in_bytes);    
 801042c:	008200b4 	movhi	r2,2050
 8010430:	10a26104 	addi	r2,r2,-30332
 8010434:	14001317 	ldw	r16,76(r2)
 8010438:	008200b4 	movhi	r2,2050
 801043c:	10a26104 	addi	r2,r2,-30332
 8010440:	1080050b 	ldhu	r2,20(r2)
 8010444:	10bfffcc 	andi	r2,r2,65535
 8010448:	1008917a 	slli	r4,r2,5
 801044c:	008200b4 	movhi	r2,2050
 8010450:	10a26104 	addi	r2,r2,-30332
 8010454:	1080030b 	ldhu	r2,12(r2)
 8010458:	117fffcc 	andi	r5,r2,65535
 801045c:	800d77c0 	call	800d77c <__divsi3>
 8010460:	8087883a 	add	r3,r16,r2
 8010464:	008200b4 	movhi	r2,2050
 8010468:	10a26104 	addi	r2,r2,-30332
 801046c:	10c01415 	stw	r3,80(r2)
	    
		if (boot_sector_data.number_of_sectors_in_partition > 0)
 8010470:	008200b4 	movhi	r2,2050
 8010474:	10a26104 	addi	r2,r2,-30332
 8010478:	1080058b 	ldhu	r2,22(r2)
 801047c:	10bfffcc 	andi	r2,r2,65535
 8010480:	1005003a 	cmpeq	r2,r2,zero
 8010484:	10000b1e 	bne	r2,zero,80104b4 <Check_for_DOS_FAT+0x464>
		{
			num_clusters = (boot_sector_data.number_of_sectors_in_partition / boot_sector_data.sectors_per_cluster);
 8010488:	008200b4 	movhi	r2,2050
 801048c:	10a26104 	addi	r2,r2,-30332
 8010490:	1080058b 	ldhu	r2,22(r2)
 8010494:	113fffcc 	andi	r4,r2,65535
 8010498:	008200b4 	movhi	r2,2050
 801049c:	10a26104 	addi	r2,r2,-30332
 80104a0:	10800383 	ldbu	r2,14(r2)
 80104a4:	11403fcc 	andi	r5,r2,255
 80104a8:	800d77c0 	call	800d77c <__divsi3>
 80104ac:	e0bffb15 	stw	r2,-20(fp)
 80104b0:	00000906 	br	80104d8 <Check_for_DOS_FAT+0x488>
		}
		else
		{
			num_clusters = (boot_sector_data.total_sector_count_if_above_32MB / boot_sector_data.sectors_per_cluster);
 80104b4:	008200b4 	movhi	r2,2050
 80104b8:	10a26104 	addi	r2,r2,-30332
 80104bc:	11000917 	ldw	r4,36(r2)
 80104c0:	008200b4 	movhi	r2,2050
 80104c4:	10a26104 	addi	r2,r2,-30332
 80104c8:	10800383 	ldbu	r2,14(r2)
 80104cc:	11403fcc 	andi	r5,r2,255
 80104d0:	800d83c0 	call	800d83c <__udivsi3>
 80104d4:	e0bffb15 	stw	r2,-20(fp)
		}
		if (num_clusters < 4087)
 80104d8:	e0bffb17 	ldw	r2,-20(fp)
 80104dc:	1083fdc8 	cmpgei	r2,r2,4087
 80104e0:	1000051e 	bne	r2,zero,80104f8 <Check_for_DOS_FAT+0x4a8>
		{
			boot_sector_data.bits_for_cluster_index = 12;
 80104e4:	00c200b4 	movhi	r3,2050
 80104e8:	18e26104 	addi	r3,r3,-30332
 80104ec:	00800304 	movi	r2,12
 80104f0:	18801085 	stb	r2,66(r3)
 80104f4:	00000c06 	br	8010528 <Check_for_DOS_FAT+0x4d8>
		}
		else if (num_clusters <= 65517)
 80104f8:	e0fffb17 	ldw	r3,-20(fp)
 80104fc:	00bffb54 	movui	r2,65517
 8010500:	10c00516 	blt	r2,r3,8010518 <Check_for_DOS_FAT+0x4c8>
		{
			boot_sector_data.bits_for_cluster_index = 16;
 8010504:	00c200b4 	movhi	r3,2050
 8010508:	18e26104 	addi	r3,r3,-30332
 801050c:	00800404 	movi	r2,16
 8010510:	18801085 	stb	r2,66(r3)
 8010514:	00000406 	br	8010528 <Check_for_DOS_FAT+0x4d8>
		}
		else
		{
			boot_sector_data.bits_for_cluster_index = 32;
 8010518:	00c200b4 	movhi	r3,2050
 801051c:	18e26104 	addi	r3,r3,-30332
 8010520:	00800804 	movi	r2,32
 8010524:	18801085 	stb	r2,66(r3)
		}
	    
		for (counter = 0; counter < 4; counter++)
 8010528:	e03ffd15 	stw	zero,-12(fp)
 801052c:	00001106 	br	8010574 <Check_for_DOS_FAT+0x524>
		{
			boot_sector_data.volume_id[counter] = ((char) IORD_8DIRECT(device_pointer->base, 39+counter));
 8010530:	e13ffd17 	ldw	r4,-12(fp)
 8010534:	d0a6c917 	ldw	r2,-25820(gp)
 8010538:	10800a17 	ldw	r2,40(r2)
 801053c:	1007883a 	mov	r3,r2
 8010540:	e0bffd17 	ldw	r2,-12(fp)
 8010544:	1885883a 	add	r2,r3,r2
 8010548:	108009c4 	addi	r2,r2,39
 801054c:	10800023 	ldbuio	r2,0(r2)
 8010550:	1007883a 	mov	r3,r2
 8010554:	008200b4 	movhi	r2,2050
 8010558:	10a26104 	addi	r2,r2,-30332
 801055c:	2085883a 	add	r2,r4,r2
 8010560:	10800a04 	addi	r2,r2,40
 8010564:	10c000c5 	stb	r3,3(r2)
		else
		{
			boot_sector_data.bits_for_cluster_index = 32;
		}
	    
		for (counter = 0; counter < 4; counter++)
 8010568:	e0bffd17 	ldw	r2,-12(fp)
 801056c:	10800044 	addi	r2,r2,1
 8010570:	e0bffd15 	stw	r2,-12(fp)
 8010574:	e0bffd17 	ldw	r2,-12(fp)
 8010578:	10800110 	cmplti	r2,r2,4
 801057c:	103fec1e 	bne	r2,zero,8010530 <Check_for_DOS_FAT+0x4e0>
		{
			boot_sector_data.volume_id[counter] = ((char) IORD_8DIRECT(device_pointer->base, 39+counter));
		}    
		for (counter = 0; counter < 11; counter++)
 8010580:	e03ffd15 	stw	zero,-12(fp)
 8010584:	00001106 	br	80105cc <Check_for_DOS_FAT+0x57c>
		{
			boot_sector_data.volume_label[counter] = ((char) IORD_8DIRECT(device_pointer->base, 43+counter));
 8010588:	e13ffd17 	ldw	r4,-12(fp)
 801058c:	d0a6c917 	ldw	r2,-25820(gp)
 8010590:	10800a17 	ldw	r2,40(r2)
 8010594:	1007883a 	mov	r3,r2
 8010598:	e0bffd17 	ldw	r2,-12(fp)
 801059c:	1885883a 	add	r2,r3,r2
 80105a0:	10800ac4 	addi	r2,r2,43
 80105a4:	10800023 	ldbuio	r2,0(r2)
 80105a8:	1007883a 	mov	r3,r2
 80105ac:	008200b4 	movhi	r2,2050
 80105b0:	10a26104 	addi	r2,r2,-30332
 80105b4:	2085883a 	add	r2,r4,r2
 80105b8:	10800b04 	addi	r2,r2,44
 80105bc:	10c000c5 	stb	r3,3(r2)
	    
		for (counter = 0; counter < 4; counter++)
		{
			boot_sector_data.volume_id[counter] = ((char) IORD_8DIRECT(device_pointer->base, 39+counter));
		}    
		for (counter = 0; counter < 11; counter++)
 80105c0:	e0bffd17 	ldw	r2,-12(fp)
 80105c4:	10800044 	addi	r2,r2,1
 80105c8:	e0bffd15 	stw	r2,-12(fp)
 80105cc:	e0bffd17 	ldw	r2,-12(fp)
 80105d0:	108002d0 	cmplti	r2,r2,11
 80105d4:	103fec1e 	bne	r2,zero,8010588 <Check_for_DOS_FAT+0x538>
		{
			boot_sector_data.volume_label[counter] = ((char) IORD_8DIRECT(device_pointer->base, 43+counter));
		}    
		for (counter = 0; counter < 8; counter++)
 80105d8:	e03ffd15 	stw	zero,-12(fp)
 80105dc:	00001106 	br	8010624 <Check_for_DOS_FAT+0x5d4>
		{
			boot_sector_data.file_system_type[counter] = ((char) IORD_8DIRECT(device_pointer->base, 54+counter));
 80105e0:	e13ffd17 	ldw	r4,-12(fp)
 80105e4:	d0a6c917 	ldw	r2,-25820(gp)
 80105e8:	10800a17 	ldw	r2,40(r2)
 80105ec:	1007883a 	mov	r3,r2
 80105f0:	e0bffd17 	ldw	r2,-12(fp)
 80105f4:	1885883a 	add	r2,r3,r2
 80105f8:	10800d84 	addi	r2,r2,54
 80105fc:	10800023 	ldbuio	r2,0(r2)
 8010600:	1007883a 	mov	r3,r2
 8010604:	008200b4 	movhi	r2,2050
 8010608:	10a26104 	addi	r2,r2,-30332
 801060c:	2085883a 	add	r2,r4,r2
 8010610:	10800e04 	addi	r2,r2,56
 8010614:	10c00085 	stb	r3,2(r2)
		}    
		for (counter = 0; counter < 11; counter++)
		{
			boot_sector_data.volume_label[counter] = ((char) IORD_8DIRECT(device_pointer->base, 43+counter));
		}    
		for (counter = 0; counter < 8; counter++)
 8010618:	e0bffd17 	ldw	r2,-12(fp)
 801061c:	10800044 	addi	r2,r2,1
 8010620:	e0bffd15 	stw	r2,-12(fp)
 8010624:	e0bffd17 	ldw	r2,-12(fp)
 8010628:	10800210 	cmplti	r2,r2,8
 801062c:	103fec1e 	bne	r2,zero,80105e0 <Check_for_DOS_FAT+0x590>
		{
			boot_sector_data.file_system_type[counter] = ((char) IORD_8DIRECT(device_pointer->base, 54+counter));
		}    
		// Clear file records
		for (counter = 0; counter < MAX_FILES_OPENED; counter++)
 8010630:	e03ffd15 	stw	zero,-12(fp)
 8010634:	00000a06 	br	8010660 <Check_for_DOS_FAT+0x610>
		{
			active_files[counter].in_use = false;
 8010638:	e0bffd17 	ldw	r2,-12(fp)
 801063c:	00c200b4 	movhi	r3,2050
 8010640:	18e27604 	addi	r3,r3,-30248
 8010644:	100491ba 	slli	r2,r2,6
 8010648:	10c5883a 	add	r2,r2,r3
 801064c:	10800f04 	addi	r2,r2,60
 8010650:	10000015 	stw	zero,0(r2)
		for (counter = 0; counter < 8; counter++)
		{
			boot_sector_data.file_system_type[counter] = ((char) IORD_8DIRECT(device_pointer->base, 54+counter));
		}    
		// Clear file records
		for (counter = 0; counter < MAX_FILES_OPENED; counter++)
 8010654:	e0bffd17 	ldw	r2,-12(fp)
 8010658:	10800044 	addi	r2,r2,1
 801065c:	e0bffd15 	stw	r2,-12(fp)
 8010660:	e0bffd17 	ldw	r2,-12(fp)
 8010664:	10800510 	cmplti	r2,r2,20
 8010668:	103ff31e 	bne	r2,zero,8010638 <Check_for_DOS_FAT+0x5e8>
		{
			active_files[counter].in_use = false;
		}
		result = true;
 801066c:	00800044 	movi	r2,1
 8010670:	e0bffe15 	stw	r2,-8(fp)
	int counter = 0;
	short int end;

	result = Read_Sector_Data(0, FAT_partition_start_sector);
	end =  (short int) IORD_16DIRECT(device_pointer->base, 0x1fe);
	if (((end & 0x0000ffff) == 0x0000aa55) && (result))
 8010674:	00000106 	br	801067c <Check_for_DOS_FAT+0x62c>
		}
		result = true;
	}
    else
    {
        result = false;
 8010678:	e03ffe15 	stw	zero,-8(fp)
    }
	return result;
 801067c:	e0bffe17 	ldw	r2,-8(fp)
}
 8010680:	e037883a 	mov	sp,fp
 8010684:	dfc00217 	ldw	ra,8(sp)
 8010688:	df000117 	ldw	fp,4(sp)
 801068c:	dc000017 	ldw	r16,0(sp)
 8010690:	dec00304 	addi	sp,sp,12
 8010694:	f800283a 	ret

08010698 <Look_for_FAT16>:


bool Look_for_FAT16(void)
// Read the SD card to determine if it contains a FAT16 partition.
{
 8010698:	defffc04 	addi	sp,sp,-16
 801069c:	dfc00315 	stw	ra,12(sp)
 80106a0:	df000215 	stw	fp,8(sp)
 80106a4:	df000204 	addi	fp,sp,8
	bool result = false;
 80106a8:	e03fff15 	stw	zero,-4(fp)

	if (alt_up_sd_card_is_Present())
 80106ac:	80123dc0 	call	80123dc <alt_up_sd_card_is_Present>
 80106b0:	1005003a 	cmpeq	r2,r2,zero
 80106b4:	1000301e 	bne	r2,zero,8010778 <Look_for_FAT16+0xe0>
	{
		short int csd_file_format = *CSD_register_w0;
 80106b8:	d0a6c317 	ldw	r2,-25844(gp)
 80106bc:	1080000b 	ldhu	r2,0(r2)
 80106c0:	e0bffe0d 	sth	r2,-8(fp)
        
		fat_partition_offset_in_512_byte_sectors = 0;
 80106c4:	d026c715 	stw	zero,-25828(gp)
		fat_partition_size_in_512_byte_sectors = 0;              
 80106c8:	d026c815 	stw	zero,-25824(gp)

		if (((csd_file_format & 0x8000) == 0) && ((csd_file_format & 0x0c00) != 0x0c00))
 80106cc:	e0bffe0f 	ldh	r2,-8(fp)
 80106d0:	1004803a 	cmplt	r2,r2,zero
 80106d4:	1000281e 	bne	r2,zero,8010778 <Look_for_FAT16+0xe0>
 80106d8:	e0bffe0b 	ldhu	r2,-8(fp)
 80106dc:	10bfffcc 	andi	r2,r2,65535
 80106e0:	1083000c 	andi	r2,r2,3072
 80106e4:	10830020 	cmpeqi	r2,r2,3072
 80106e8:	1000231e 	bne	r2,zero,8010778 <Look_for_FAT16+0xe0>
		{
			if ((csd_file_format & 0x0c00) == 0x0400)
 80106ec:	e0bffe0b 	ldhu	r2,-8(fp)
 80106f0:	10bfffcc 	andi	r2,r2,65535
 80106f4:	1083000c 	andi	r2,r2,3072
 80106f8:	10810018 	cmpnei	r2,r2,1024
 80106fc:	1000031e 	bne	r2,zero,801070c <Look_for_FAT16+0x74>
			{
				/* SD Card contains files stored in a DOS FAT (floppy like) file format, without a partition table */
				result = Check_for_DOS_FAT(0);
 8010700:	0009883a 	mov	r4,zero
 8010704:	80100500 	call	8010050 <Check_for_DOS_FAT>
 8010708:	e0bfff15 	stw	r2,-4(fp)
			}
			if ((csd_file_format & 0x0c00) == 0x0000)
 801070c:	e0bffe0b 	ldhu	r2,-8(fp)
 8010710:	10bfffcc 	andi	r2,r2,65535
 8010714:	1083000c 	andi	r2,r2,3072
 8010718:	1004c03a 	cmpne	r2,r2,zero
 801071c:	1000061e 	bne	r2,zero,8010738 <Look_for_FAT16+0xa0>
			{
				/* SD Card contains files stored in a Hard disk-like file format that contains a partition table */
				if (Check_for_Master_Boot_Record())
 8010720:	800f9640 	call	800f964 <Check_for_Master_Boot_Record>
 8010724:	1005003a 	cmpeq	r2,r2,zero
 8010728:	1000031e 	bne	r2,zero,8010738 <Look_for_FAT16+0xa0>
				{
					result = Check_for_DOS_FAT(fat_partition_offset_in_512_byte_sectors);
 801072c:	d126c717 	ldw	r4,-25828(gp)
 8010730:	80100500 	call	8010050 <Check_for_DOS_FAT>
 8010734:	e0bfff15 	stw	r2,-4(fp)
				}                        
			}
			if (result == true)
 8010738:	e0bfff17 	ldw	r2,-4(fp)
 801073c:	10800058 	cmpnei	r2,r2,1
 8010740:	10000d1e 	bne	r2,zero,8010778 <Look_for_FAT16+0xe0>
			{
				// Accept only FAT16, not FAT12.
				if (boot_sector_data.bits_for_cluster_index != 16)
 8010744:	008200b4 	movhi	r2,2050
 8010748:	10a26104 	addi	r2,r2,-30332
 801074c:	10801083 	ldbu	r2,66(r2)
 8010750:	10803fcc 	andi	r2,r2,255
 8010754:	10800420 	cmpeqi	r2,r2,16
 8010758:	1000021e 	bne	r2,zero,8010764 <Look_for_FAT16+0xcc>
				{
					result = false;
 801075c:	e03fff15 	stw	zero,-4(fp)
 8010760:	00000506 	br	8010778 <Look_for_FAT16+0xe0>
				}
				else
				{
					fat_partition_size_in_512_byte_sectors = boot_sector_data.number_of_sectors_in_partition;
 8010764:	008200b4 	movhi	r2,2050
 8010768:	10a26104 	addi	r2,r2,-30332
 801076c:	1080058b 	ldhu	r2,22(r2)
 8010770:	10bfffcc 	andi	r2,r2,65535
 8010774:	d0a6c815 	stw	r2,-25824(gp)
				}
			}
		}
	}
	return result;
 8010778:	e0bfff17 	ldw	r2,-4(fp)
}
 801077c:	e037883a 	mov	sp,fp
 8010780:	dfc00117 	ldw	ra,4(sp)
 8010784:	df000017 	ldw	fp,0(sp)
 8010788:	dec00204 	addi	sp,sp,8
 801078c:	f800283a 	ret

08010790 <filename_to_upper_case>:
 

void filename_to_upper_case(char *file_name)
// Change file name to upper case.
{
 8010790:	defffb04 	addi	sp,sp,-20
 8010794:	dfc00415 	stw	ra,16(sp)
 8010798:	df000315 	stw	fp,12(sp)
 801079c:	df000304 	addi	fp,sp,12
 80107a0:	e13fff15 	stw	r4,-4(fp)
    int index;
    int length = strlen(file_name);
 80107a4:	e13fff17 	ldw	r4,-4(fp)
 80107a8:	80055880 	call	8005588 <strlen>
 80107ac:	e0bffd15 	stw	r2,-12(fp)
    
    for (index = 0; index < length; index++)
 80107b0:	e03ffe15 	stw	zero,-8(fp)
 80107b4:	00002206 	br	8010840 <filename_to_upper_case+0xb0>
    {
        if ((file_name[index] >= 'a') && (file_name[index] <= 'z'))
 80107b8:	e0bffe17 	ldw	r2,-8(fp)
 80107bc:	1007883a 	mov	r3,r2
 80107c0:	e0bfff17 	ldw	r2,-4(fp)
 80107c4:	1885883a 	add	r2,r3,r2
 80107c8:	10800003 	ldbu	r2,0(r2)
 80107cc:	10803fcc 	andi	r2,r2,255
 80107d0:	1080201c 	xori	r2,r2,128
 80107d4:	10bfe004 	addi	r2,r2,-128
 80107d8:	10801850 	cmplti	r2,r2,97
 80107dc:	1000151e 	bne	r2,zero,8010834 <filename_to_upper_case+0xa4>
 80107e0:	e0bffe17 	ldw	r2,-8(fp)
 80107e4:	1007883a 	mov	r3,r2
 80107e8:	e0bfff17 	ldw	r2,-4(fp)
 80107ec:	1885883a 	add	r2,r3,r2
 80107f0:	10800003 	ldbu	r2,0(r2)
 80107f4:	10803fcc 	andi	r2,r2,255
 80107f8:	1080201c 	xori	r2,r2,128
 80107fc:	10bfe004 	addi	r2,r2,-128
 8010800:	10801ec8 	cmpgei	r2,r2,123
 8010804:	10000b1e 	bne	r2,zero,8010834 <filename_to_upper_case+0xa4>
        {
            file_name[index] = (file_name[index] - 'a') + 'A';
 8010808:	e0bffe17 	ldw	r2,-8(fp)
 801080c:	1007883a 	mov	r3,r2
 8010810:	e0bfff17 	ldw	r2,-4(fp)
 8010814:	1889883a 	add	r4,r3,r2
 8010818:	e0bffe17 	ldw	r2,-8(fp)
 801081c:	1007883a 	mov	r3,r2
 8010820:	e0bfff17 	ldw	r2,-4(fp)
 8010824:	1885883a 	add	r2,r3,r2
 8010828:	10800003 	ldbu	r2,0(r2)
 801082c:	10bff804 	addi	r2,r2,-32
 8010830:	20800005 	stb	r2,0(r4)
// Change file name to upper case.
{
    int index;
    int length = strlen(file_name);
    
    for (index = 0; index < length; index++)
 8010834:	e0bffe17 	ldw	r2,-8(fp)
 8010838:	10800044 	addi	r2,r2,1
 801083c:	e0bffe15 	stw	r2,-8(fp)
 8010840:	e0fffe17 	ldw	r3,-8(fp)
 8010844:	e0bffd17 	ldw	r2,-12(fp)
 8010848:	18bfdb16 	blt	r3,r2,80107b8 <filename_to_upper_case+0x28>
        if ((file_name[index] >= 'a') && (file_name[index] <= 'z'))
        {
            file_name[index] = (file_name[index] - 'a') + 'A';
        }
    }
}
 801084c:	e037883a 	mov	sp,fp
 8010850:	dfc00117 	ldw	ra,4(sp)
 8010854:	df000017 	ldw	fp,0(sp)
 8010858:	dec00204 	addi	sp,sp,8
 801085c:	f800283a 	ret

08010860 <check_file_name_for_FAT16_compliance>:


bool check_file_name_for_FAT16_compliance(char *file_name)
// Check if the file complies with FAT16 naming convention.
{
 8010860:	defff804 	addi	sp,sp,-32
 8010864:	dfc00715 	stw	ra,28(sp)
 8010868:	df000615 	stw	fp,24(sp)
 801086c:	df000604 	addi	fp,sp,24
 8010870:	e13fff15 	stw	r4,-4(fp)
    int length = strlen(file_name);
 8010874:	e13fff17 	ldw	r4,-4(fp)
 8010878:	80055880 	call	8005588 <strlen>
 801087c:	e0bffe15 	stw	r2,-8(fp)
    int index;
    int last_dir_break_position = -1;
 8010880:	00bfffc4 	movi	r2,-1
 8010884:	e0bffc15 	stw	r2,-16(fp)
    int last_period = -1;
 8010888:	00bfffc4 	movi	r2,-1
 801088c:	e0bffb15 	stw	r2,-20(fp)
    bool result = true;
 8010890:	00800044 	movi	r2,1
 8010894:	e0bffa15 	stw	r2,-24(fp)
    
    for(index = 0; index < length; index++)
 8010898:	e03ffd15 	stw	zero,-12(fp)
 801089c:	00007606 	br	8010a78 <check_file_name_for_FAT16_compliance+0x218>
    {
        if ((file_name[index] == ' ') ||
 80108a0:	e0bffd17 	ldw	r2,-12(fp)
 80108a4:	1007883a 	mov	r3,r2
 80108a8:	e0bfff17 	ldw	r2,-4(fp)
 80108ac:	1885883a 	add	r2,r3,r2
 80108b0:	10800003 	ldbu	r2,0(r2)
 80108b4:	10803fcc 	andi	r2,r2,255
 80108b8:	1080201c 	xori	r2,r2,128
 80108bc:	10bfe004 	addi	r2,r2,-128
 80108c0:	10800820 	cmpeqi	r2,r2,32
 80108c4:	1000431e 	bne	r2,zero,80109d4 <check_file_name_for_FAT16_compliance+0x174>
 80108c8:	e0bffd17 	ldw	r2,-12(fp)
 80108cc:	10ffffc4 	addi	r3,r2,-1
 80108d0:	e0bffc17 	ldw	r2,-16(fp)
 80108d4:	1880141e 	bne	r3,r2,8010928 <check_file_name_for_FAT16_compliance+0xc8>
 80108d8:	e0bffd17 	ldw	r2,-12(fp)
 80108dc:	1007883a 	mov	r3,r2
 80108e0:	e0bfff17 	ldw	r2,-4(fp)
 80108e4:	1885883a 	add	r2,r3,r2
 80108e8:	10800003 	ldbu	r2,0(r2)
 80108ec:	10803fcc 	andi	r2,r2,255
 80108f0:	1080201c 	xori	r2,r2,128
 80108f4:	10bfe004 	addi	r2,r2,-128
 80108f8:	10801720 	cmpeqi	r2,r2,92
 80108fc:	1000351e 	bne	r2,zero,80109d4 <check_file_name_for_FAT16_compliance+0x174>
 8010900:	e0bffd17 	ldw	r2,-12(fp)
 8010904:	1007883a 	mov	r3,r2
 8010908:	e0bfff17 	ldw	r2,-4(fp)
 801090c:	1885883a 	add	r2,r3,r2
 8010910:	10800003 	ldbu	r2,0(r2)
 8010914:	10803fcc 	andi	r2,r2,255
 8010918:	1080201c 	xori	r2,r2,128
 801091c:	10bfe004 	addi	r2,r2,-128
 8010920:	10800be0 	cmpeqi	r2,r2,47
 8010924:	10002b1e 	bne	r2,zero,80109d4 <check_file_name_for_FAT16_compliance+0x174>
 8010928:	e0fffd17 	ldw	r3,-12(fp)
 801092c:	e0bffb17 	ldw	r2,-20(fp)
 8010930:	1885c83a 	sub	r2,r3,r2
 8010934:	10800258 	cmpnei	r2,r2,9
 8010938:	10000a1e 	bne	r2,zero,8010964 <check_file_name_for_FAT16_compliance+0x104>
 801093c:	e0bffd17 	ldw	r2,-12(fp)
 8010940:	1007883a 	mov	r3,r2
 8010944:	e0bfff17 	ldw	r2,-4(fp)
 8010948:	1885883a 	add	r2,r3,r2
 801094c:	10800003 	ldbu	r2,0(r2)
 8010950:	10803fcc 	andi	r2,r2,255
 8010954:	1080201c 	xori	r2,r2,128
 8010958:	10bfe004 	addi	r2,r2,-128
 801095c:	10800b98 	cmpnei	r2,r2,46
 8010960:	10001c1e 	bne	r2,zero,80109d4 <check_file_name_for_FAT16_compliance+0x174>
 8010964:	e0fffc17 	ldw	r3,-16(fp)
 8010968:	e0bffb17 	ldw	r2,-20(fp)
 801096c:	18801b26 	beq	r3,r2,80109dc <check_file_name_for_FAT16_compliance+0x17c>
 8010970:	e0fffd17 	ldw	r3,-12(fp)
 8010974:	e0bffb17 	ldw	r2,-20(fp)
 8010978:	1885c83a 	sub	r2,r3,r2
 801097c:	10800110 	cmplti	r2,r2,4
 8010980:	1000161e 	bne	r2,zero,80109dc <check_file_name_for_FAT16_compliance+0x17c>
 8010984:	e0bffd17 	ldw	r2,-12(fp)
 8010988:	1007883a 	mov	r3,r2
 801098c:	e0bfff17 	ldw	r2,-4(fp)
 8010990:	1885883a 	add	r2,r3,r2
 8010994:	10800003 	ldbu	r2,0(r2)
 8010998:	10803fcc 	andi	r2,r2,255
 801099c:	1080201c 	xori	r2,r2,128
 80109a0:	10bfe004 	addi	r2,r2,-128
 80109a4:	10801720 	cmpeqi	r2,r2,92
 80109a8:	10000c1e 	bne	r2,zero,80109dc <check_file_name_for_FAT16_compliance+0x17c>
 80109ac:	e0bffd17 	ldw	r2,-12(fp)
 80109b0:	1007883a 	mov	r3,r2
 80109b4:	e0bfff17 	ldw	r2,-4(fp)
 80109b8:	1885883a 	add	r2,r3,r2
 80109bc:	10800003 	ldbu	r2,0(r2)
 80109c0:	10803fcc 	andi	r2,r2,255
 80109c4:	1080201c 	xori	r2,r2,128
 80109c8:	10bfe004 	addi	r2,r2,-128
 80109cc:	10800be0 	cmpeqi	r2,r2,47
 80109d0:	1000021e 	bne	r2,zero,80109dc <check_file_name_for_FAT16_compliance+0x17c>
            ((index - last_period == 9) && (file_name[index] != '.')) ||
            ((last_dir_break_position != last_period) && (index - last_period > 3) &&
             (file_name[index] != '\\') && (file_name[index] != '/'))
           )
        {
            result = false;
 80109d4:	e03ffa15 	stw	zero,-24(fp)
            break;
 80109d8:	00002a06 	br	8010a84 <check_file_name_for_FAT16_compliance+0x224>
        }
        if ((file_name[index] == '\\') || (file_name[index] == '/'))
 80109dc:	e0bffd17 	ldw	r2,-12(fp)
 80109e0:	1007883a 	mov	r3,r2
 80109e4:	e0bfff17 	ldw	r2,-4(fp)
 80109e8:	1885883a 	add	r2,r3,r2
 80109ec:	10800003 	ldbu	r2,0(r2)
 80109f0:	10803fcc 	andi	r2,r2,255
 80109f4:	1080201c 	xori	r2,r2,128
 80109f8:	10bfe004 	addi	r2,r2,-128
 80109fc:	10801720 	cmpeqi	r2,r2,92
 8010a00:	10000a1e 	bne	r2,zero,8010a2c <check_file_name_for_FAT16_compliance+0x1cc>
 8010a04:	e0bffd17 	ldw	r2,-12(fp)
 8010a08:	1007883a 	mov	r3,r2
 8010a0c:	e0bfff17 	ldw	r2,-4(fp)
 8010a10:	1885883a 	add	r2,r3,r2
 8010a14:	10800003 	ldbu	r2,0(r2)
 8010a18:	10803fcc 	andi	r2,r2,255
 8010a1c:	1080201c 	xori	r2,r2,128
 8010a20:	10bfe004 	addi	r2,r2,-128
 8010a24:	10800bd8 	cmpnei	r2,r2,47
 8010a28:	1000041e 	bne	r2,zero,8010a3c <check_file_name_for_FAT16_compliance+0x1dc>
        {
            last_period = index;
 8010a2c:	e0bffd17 	ldw	r2,-12(fp)
 8010a30:	e0bffb15 	stw	r2,-20(fp)
            last_dir_break_position = index;
 8010a34:	e0bffd17 	ldw	r2,-12(fp)
 8010a38:	e0bffc15 	stw	r2,-16(fp)
        }
        if (file_name[index] == '.')
 8010a3c:	e0bffd17 	ldw	r2,-12(fp)
 8010a40:	1007883a 	mov	r3,r2
 8010a44:	e0bfff17 	ldw	r2,-4(fp)
 8010a48:	1885883a 	add	r2,r3,r2
 8010a4c:	10800003 	ldbu	r2,0(r2)
 8010a50:	10803fcc 	andi	r2,r2,255
 8010a54:	1080201c 	xori	r2,r2,128
 8010a58:	10bfe004 	addi	r2,r2,-128
 8010a5c:	10800b98 	cmpnei	r2,r2,46
 8010a60:	1000021e 	bne	r2,zero,8010a6c <check_file_name_for_FAT16_compliance+0x20c>
        {
            last_period = index;
 8010a64:	e0bffd17 	ldw	r2,-12(fp)
 8010a68:	e0bffb15 	stw	r2,-20(fp)
    int index;
    int last_dir_break_position = -1;
    int last_period = -1;
    bool result = true;
    
    for(index = 0; index < length; index++)
 8010a6c:	e0bffd17 	ldw	r2,-12(fp)
 8010a70:	10800044 	addi	r2,r2,1
 8010a74:	e0bffd15 	stw	r2,-12(fp)
 8010a78:	e0fffd17 	ldw	r3,-12(fp)
 8010a7c:	e0bffe17 	ldw	r2,-8(fp)
 8010a80:	18bf8716 	blt	r3,r2,80108a0 <check_file_name_for_FAT16_compliance+0x40>
        if (file_name[index] == '.')
        {
            last_period = index;
        }
    }
    if ((file_name[length-1] == '\\') || (file_name[length-1] == '/'))
 8010a84:	e0fffe17 	ldw	r3,-8(fp)
 8010a88:	e0bfff17 	ldw	r2,-4(fp)
 8010a8c:	1885883a 	add	r2,r3,r2
 8010a90:	10bfffc4 	addi	r2,r2,-1
 8010a94:	10800003 	ldbu	r2,0(r2)
 8010a98:	10803fcc 	andi	r2,r2,255
 8010a9c:	1080201c 	xori	r2,r2,128
 8010aa0:	10bfe004 	addi	r2,r2,-128
 8010aa4:	10801720 	cmpeqi	r2,r2,92
 8010aa8:	10000a1e 	bne	r2,zero,8010ad4 <check_file_name_for_FAT16_compliance+0x274>
 8010aac:	e0fffe17 	ldw	r3,-8(fp)
 8010ab0:	e0bfff17 	ldw	r2,-4(fp)
 8010ab4:	1885883a 	add	r2,r3,r2
 8010ab8:	10bfffc4 	addi	r2,r2,-1
 8010abc:	10800003 	ldbu	r2,0(r2)
 8010ac0:	10803fcc 	andi	r2,r2,255
 8010ac4:	1080201c 	xori	r2,r2,128
 8010ac8:	10bfe004 	addi	r2,r2,-128
 8010acc:	10800bd8 	cmpnei	r2,r2,47
 8010ad0:	1000011e 	bne	r2,zero,8010ad8 <check_file_name_for_FAT16_compliance+0x278>
    {
        result = false;
 8010ad4:	e03ffa15 	stw	zero,-24(fp)
    }
    return result;
 8010ad8:	e0bffa17 	ldw	r2,-24(fp)
}
 8010adc:	e037883a 	mov	sp,fp
 8010ae0:	dfc00117 	ldw	ra,4(sp)
 8010ae4:	df000017 	ldw	fp,0(sp)
 8010ae8:	dec00204 	addi	sp,sp,8
 8010aec:	f800283a 	ret

08010af0 <get_dir_divider_location>:


int get_dir_divider_location(char *name)
// Find a directory divider location.
{
 8010af0:	defffb04 	addi	sp,sp,-20
 8010af4:	dfc00415 	stw	ra,16(sp)
 8010af8:	df000315 	stw	fp,12(sp)
 8010afc:	df000304 	addi	fp,sp,12
 8010b00:	e13fff15 	stw	r4,-4(fp)
    int index = 0;
 8010b04:	e03ffe15 	stw	zero,-8(fp)
    int length = strlen(name);
 8010b08:	e13fff17 	ldw	r4,-4(fp)
 8010b0c:	80055880 	call	8005588 <strlen>
 8010b10:	e0bffd15 	stw	r2,-12(fp)
    
    for(index = 0; index < length; index++)
 8010b14:	e03ffe15 	stw	zero,-8(fp)
 8010b18:	00001706 	br	8010b78 <get_dir_divider_location+0x88>
    {
        if ((name[index] == '\\') || (name[index] == '/'))
 8010b1c:	e0bffe17 	ldw	r2,-8(fp)
 8010b20:	1007883a 	mov	r3,r2
 8010b24:	e0bfff17 	ldw	r2,-4(fp)
 8010b28:	1885883a 	add	r2,r3,r2
 8010b2c:	10800003 	ldbu	r2,0(r2)
 8010b30:	10803fcc 	andi	r2,r2,255
 8010b34:	1080201c 	xori	r2,r2,128
 8010b38:	10bfe004 	addi	r2,r2,-128
 8010b3c:	10801720 	cmpeqi	r2,r2,92
 8010b40:	1000101e 	bne	r2,zero,8010b84 <get_dir_divider_location+0x94>
 8010b44:	e0bffe17 	ldw	r2,-8(fp)
 8010b48:	1007883a 	mov	r3,r2
 8010b4c:	e0bfff17 	ldw	r2,-4(fp)
 8010b50:	1885883a 	add	r2,r3,r2
 8010b54:	10800003 	ldbu	r2,0(r2)
 8010b58:	10803fcc 	andi	r2,r2,255
 8010b5c:	1080201c 	xori	r2,r2,128
 8010b60:	10bfe004 	addi	r2,r2,-128
 8010b64:	10800be0 	cmpeqi	r2,r2,47
 8010b68:	1000061e 	bne	r2,zero,8010b84 <get_dir_divider_location+0x94>
// Find a directory divider location.
{
    int index = 0;
    int length = strlen(name);
    
    for(index = 0; index < length; index++)
 8010b6c:	e0bffe17 	ldw	r2,-8(fp)
 8010b70:	10800044 	addi	r2,r2,1
 8010b74:	e0bffe15 	stw	r2,-8(fp)
 8010b78:	e0fffe17 	ldw	r3,-8(fp)
 8010b7c:	e0bffd17 	ldw	r2,-12(fp)
 8010b80:	18bfe616 	blt	r3,r2,8010b1c <get_dir_divider_location+0x2c>
        {
            break;
        }
    }
    
    if (index == length)
 8010b84:	e0fffe17 	ldw	r3,-8(fp)
 8010b88:	e0bffd17 	ldw	r2,-12(fp)
 8010b8c:	1880021e 	bne	r3,r2,8010b98 <get_dir_divider_location+0xa8>
    {
        index = -1;
 8010b90:	00bfffc4 	movi	r2,-1
 8010b94:	e0bffe15 	stw	r2,-8(fp)
    }
    
    return index;
 8010b98:	e0bffe17 	ldw	r2,-8(fp)
}
 8010b9c:	e037883a 	mov	sp,fp
 8010ba0:	dfc00117 	ldw	ra,4(sp)
 8010ba4:	df000017 	ldw	fp,0(sp)
 8010ba8:	dec00204 	addi	sp,sp,8
 8010bac:	f800283a 	ret

08010bb0 <match_file_record_to_name_ext>:


bool match_file_record_to_name_ext(t_file_record *file_record, char *name, char *extension)
/* See if the given name and extension match the file record. Return true if this is so, false otherwise. */
{
 8010bb0:	defff604 	addi	sp,sp,-40
 8010bb4:	df000915 	stw	fp,36(sp)
 8010bb8:	df000904 	addi	fp,sp,36
 8010bbc:	e13ff915 	stw	r4,-28(fp)
 8010bc0:	e17ffa15 	stw	r5,-24(fp)
 8010bc4:	e1bffb15 	stw	r6,-20(fp)
    bool match = true;
 8010bc8:	00800044 	movi	r2,1
 8010bcc:	e0bff815 	stw	r2,-32(fp)
	int index;

    for (index = 0; index < 8; index++)
 8010bd0:	e03ff715 	stw	zero,-36(fp)
 8010bd4:	00005006 	br	8010d18 <match_file_record_to_name_ext+0x168>
    {
        if (CHAR_TO_UPPER(file_record->name[index]) != CHAR_TO_UPPER(name[index]))
 8010bd8:	e0fff717 	ldw	r3,-36(fp)
 8010bdc:	e0bff917 	ldw	r2,-28(fp)
 8010be0:	10c5883a 	add	r2,r2,r3
 8010be4:	10800003 	ldbu	r2,0(r2)
 8010be8:	10803fcc 	andi	r2,r2,255
 8010bec:	10801870 	cmpltui	r2,r2,97
 8010bf0:	1000111e 	bne	r2,zero,8010c38 <match_file_record_to_name_ext+0x88>
 8010bf4:	e0fff717 	ldw	r3,-36(fp)
 8010bf8:	e0bff917 	ldw	r2,-28(fp)
 8010bfc:	10c5883a 	add	r2,r2,r3
 8010c00:	10800003 	ldbu	r2,0(r2)
 8010c04:	10803fcc 	andi	r2,r2,255
 8010c08:	10801ee8 	cmpgeui	r2,r2,123
 8010c0c:	10000a1e 	bne	r2,zero,8010c38 <match_file_record_to_name_ext+0x88>
 8010c10:	e0fff717 	ldw	r3,-36(fp)
 8010c14:	e0bff917 	ldw	r2,-28(fp)
 8010c18:	10c5883a 	add	r2,r2,r3
 8010c1c:	10800003 	ldbu	r2,0(r2)
 8010c20:	10bff804 	addi	r2,r2,-32
 8010c24:	10803fcc 	andi	r2,r2,255
 8010c28:	1080201c 	xori	r2,r2,128
 8010c2c:	10bfe004 	addi	r2,r2,-128
 8010c30:	e0bfff15 	stw	r2,-4(fp)
 8010c34:	00000806 	br	8010c58 <match_file_record_to_name_ext+0xa8>
 8010c38:	e0fff717 	ldw	r3,-36(fp)
 8010c3c:	e0bff917 	ldw	r2,-28(fp)
 8010c40:	10c5883a 	add	r2,r2,r3
 8010c44:	10800003 	ldbu	r2,0(r2)
 8010c48:	10803fcc 	andi	r2,r2,255
 8010c4c:	1080201c 	xori	r2,r2,128
 8010c50:	10bfe004 	addi	r2,r2,-128
 8010c54:	e0bfff15 	stw	r2,-4(fp)
 8010c58:	e0bff717 	ldw	r2,-36(fp)
 8010c5c:	1007883a 	mov	r3,r2
 8010c60:	e0bffa17 	ldw	r2,-24(fp)
 8010c64:	1885883a 	add	r2,r3,r2
 8010c68:	10800003 	ldbu	r2,0(r2)
 8010c6c:	10803fcc 	andi	r2,r2,255
 8010c70:	1080201c 	xori	r2,r2,128
 8010c74:	10bfe004 	addi	r2,r2,-128
 8010c78:	10801850 	cmplti	r2,r2,97
 8010c7c:	1000151e 	bne	r2,zero,8010cd4 <match_file_record_to_name_ext+0x124>
 8010c80:	e0bff717 	ldw	r2,-36(fp)
 8010c84:	1007883a 	mov	r3,r2
 8010c88:	e0bffa17 	ldw	r2,-24(fp)
 8010c8c:	1885883a 	add	r2,r3,r2
 8010c90:	10800003 	ldbu	r2,0(r2)
 8010c94:	10803fcc 	andi	r2,r2,255
 8010c98:	1080201c 	xori	r2,r2,128
 8010c9c:	10bfe004 	addi	r2,r2,-128
 8010ca0:	10801ec8 	cmpgei	r2,r2,123
 8010ca4:	10000b1e 	bne	r2,zero,8010cd4 <match_file_record_to_name_ext+0x124>
 8010ca8:	e0bff717 	ldw	r2,-36(fp)
 8010cac:	1007883a 	mov	r3,r2
 8010cb0:	e0bffa17 	ldw	r2,-24(fp)
 8010cb4:	1885883a 	add	r2,r3,r2
 8010cb8:	10800003 	ldbu	r2,0(r2)
 8010cbc:	10bff804 	addi	r2,r2,-32
 8010cc0:	10803fcc 	andi	r2,r2,255
 8010cc4:	1080201c 	xori	r2,r2,128
 8010cc8:	10bfe004 	addi	r2,r2,-128
 8010ccc:	e0bffe15 	stw	r2,-8(fp)
 8010cd0:	00000906 	br	8010cf8 <match_file_record_to_name_ext+0x148>
 8010cd4:	e0bff717 	ldw	r2,-36(fp)
 8010cd8:	1007883a 	mov	r3,r2
 8010cdc:	e0bffa17 	ldw	r2,-24(fp)
 8010ce0:	1885883a 	add	r2,r3,r2
 8010ce4:	10800003 	ldbu	r2,0(r2)
 8010ce8:	10803fcc 	andi	r2,r2,255
 8010cec:	1080201c 	xori	r2,r2,128
 8010cf0:	10bfe004 	addi	r2,r2,-128
 8010cf4:	e0bffe15 	stw	r2,-8(fp)
 8010cf8:	e0bfff17 	ldw	r2,-4(fp)
 8010cfc:	e0fffe17 	ldw	r3,-8(fp)
 8010d00:	10c00226 	beq	r2,r3,8010d0c <match_file_record_to_name_ext+0x15c>
        {
            match = false;
 8010d04:	e03ff815 	stw	zero,-32(fp)
			break;
 8010d08:	00000606 	br	8010d24 <match_file_record_to_name_ext+0x174>
/* See if the given name and extension match the file record. Return true if this is so, false otherwise. */
{
    bool match = true;
	int index;

    for (index = 0; index < 8; index++)
 8010d0c:	e0bff717 	ldw	r2,-36(fp)
 8010d10:	10800044 	addi	r2,r2,1
 8010d14:	e0bff715 	stw	r2,-36(fp)
 8010d18:	e0bff717 	ldw	r2,-36(fp)
 8010d1c:	10800210 	cmplti	r2,r2,8
 8010d20:	103fad1e 	bne	r2,zero,8010bd8 <match_file_record_to_name_ext+0x28>
        {
            match = false;
			break;
        }
    }
    for (index = 0; index < 3; index++)
 8010d24:	e03ff715 	stw	zero,-36(fp)
 8010d28:	00005406 	br	8010e7c <match_file_record_to_name_ext+0x2cc>
    {
        if (CHAR_TO_UPPER(file_record->extension[index]) != CHAR_TO_UPPER(extension[index]))
 8010d2c:	e0fff717 	ldw	r3,-36(fp)
 8010d30:	e0bff917 	ldw	r2,-28(fp)
 8010d34:	1885883a 	add	r2,r3,r2
 8010d38:	10800204 	addi	r2,r2,8
 8010d3c:	10800003 	ldbu	r2,0(r2)
 8010d40:	10803fcc 	andi	r2,r2,255
 8010d44:	10801870 	cmpltui	r2,r2,97
 8010d48:	1000131e 	bne	r2,zero,8010d98 <match_file_record_to_name_ext+0x1e8>
 8010d4c:	e0fff717 	ldw	r3,-36(fp)
 8010d50:	e0bff917 	ldw	r2,-28(fp)
 8010d54:	1885883a 	add	r2,r3,r2
 8010d58:	10800204 	addi	r2,r2,8
 8010d5c:	10800003 	ldbu	r2,0(r2)
 8010d60:	10803fcc 	andi	r2,r2,255
 8010d64:	10801ee8 	cmpgeui	r2,r2,123
 8010d68:	10000b1e 	bne	r2,zero,8010d98 <match_file_record_to_name_ext+0x1e8>
 8010d6c:	e0fff717 	ldw	r3,-36(fp)
 8010d70:	e0bff917 	ldw	r2,-28(fp)
 8010d74:	1885883a 	add	r2,r3,r2
 8010d78:	10800204 	addi	r2,r2,8
 8010d7c:	10800003 	ldbu	r2,0(r2)
 8010d80:	10bff804 	addi	r2,r2,-32
 8010d84:	10803fcc 	andi	r2,r2,255
 8010d88:	1080201c 	xori	r2,r2,128
 8010d8c:	10bfe004 	addi	r2,r2,-128
 8010d90:	e0bffd15 	stw	r2,-12(fp)
 8010d94:	00000906 	br	8010dbc <match_file_record_to_name_ext+0x20c>
 8010d98:	e0fff717 	ldw	r3,-36(fp)
 8010d9c:	e0bff917 	ldw	r2,-28(fp)
 8010da0:	1885883a 	add	r2,r3,r2
 8010da4:	10800204 	addi	r2,r2,8
 8010da8:	10800003 	ldbu	r2,0(r2)
 8010dac:	10803fcc 	andi	r2,r2,255
 8010db0:	1080201c 	xori	r2,r2,128
 8010db4:	10bfe004 	addi	r2,r2,-128
 8010db8:	e0bffd15 	stw	r2,-12(fp)
 8010dbc:	e0bff717 	ldw	r2,-36(fp)
 8010dc0:	1007883a 	mov	r3,r2
 8010dc4:	e0bffb17 	ldw	r2,-20(fp)
 8010dc8:	1885883a 	add	r2,r3,r2
 8010dcc:	10800003 	ldbu	r2,0(r2)
 8010dd0:	10803fcc 	andi	r2,r2,255
 8010dd4:	1080201c 	xori	r2,r2,128
 8010dd8:	10bfe004 	addi	r2,r2,-128
 8010ddc:	10801850 	cmplti	r2,r2,97
 8010de0:	1000151e 	bne	r2,zero,8010e38 <match_file_record_to_name_ext+0x288>
 8010de4:	e0bff717 	ldw	r2,-36(fp)
 8010de8:	1007883a 	mov	r3,r2
 8010dec:	e0bffb17 	ldw	r2,-20(fp)
 8010df0:	1885883a 	add	r2,r3,r2
 8010df4:	10800003 	ldbu	r2,0(r2)
 8010df8:	10803fcc 	andi	r2,r2,255
 8010dfc:	1080201c 	xori	r2,r2,128
 8010e00:	10bfe004 	addi	r2,r2,-128
 8010e04:	10801ec8 	cmpgei	r2,r2,123
 8010e08:	10000b1e 	bne	r2,zero,8010e38 <match_file_record_to_name_ext+0x288>
 8010e0c:	e0bff717 	ldw	r2,-36(fp)
 8010e10:	1007883a 	mov	r3,r2
 8010e14:	e0bffb17 	ldw	r2,-20(fp)
 8010e18:	1885883a 	add	r2,r3,r2
 8010e1c:	10800003 	ldbu	r2,0(r2)
 8010e20:	10bff804 	addi	r2,r2,-32
 8010e24:	10803fcc 	andi	r2,r2,255
 8010e28:	1080201c 	xori	r2,r2,128
 8010e2c:	10bfe004 	addi	r2,r2,-128
 8010e30:	e0bffc15 	stw	r2,-16(fp)
 8010e34:	00000906 	br	8010e5c <match_file_record_to_name_ext+0x2ac>
 8010e38:	e0bff717 	ldw	r2,-36(fp)
 8010e3c:	1007883a 	mov	r3,r2
 8010e40:	e0bffb17 	ldw	r2,-20(fp)
 8010e44:	1885883a 	add	r2,r3,r2
 8010e48:	10800003 	ldbu	r2,0(r2)
 8010e4c:	10803fcc 	andi	r2,r2,255
 8010e50:	1080201c 	xori	r2,r2,128
 8010e54:	10bfe004 	addi	r2,r2,-128
 8010e58:	e0bffc15 	stw	r2,-16(fp)
 8010e5c:	e0bffd17 	ldw	r2,-12(fp)
 8010e60:	e0fffc17 	ldw	r3,-16(fp)
 8010e64:	10c00226 	beq	r2,r3,8010e70 <match_file_record_to_name_ext+0x2c0>
        {
            match = false;
 8010e68:	e03ff815 	stw	zero,-32(fp)
			break;
 8010e6c:	00000606 	br	8010e88 <match_file_record_to_name_ext+0x2d8>
        {
            match = false;
			break;
        }
    }
    for (index = 0; index < 3; index++)
 8010e70:	e0bff717 	ldw	r2,-36(fp)
 8010e74:	10800044 	addi	r2,r2,1
 8010e78:	e0bff715 	stw	r2,-36(fp)
 8010e7c:	e0bff717 	ldw	r2,-36(fp)
 8010e80:	108000d0 	cmplti	r2,r2,3
 8010e84:	103fa91e 	bne	r2,zero,8010d2c <match_file_record_to_name_ext+0x17c>
        {
            match = false;
			break;
        }
    }
	return match;
 8010e88:	e0bff817 	ldw	r2,-32(fp)
}
 8010e8c:	e037883a 	mov	sp,fp
 8010e90:	df000017 	ldw	fp,0(sp)
 8010e94:	dec00104 	addi	sp,sp,4
 8010e98:	f800283a 	ret

08010e9c <get_home_directory_cluster_for_file>:


bool get_home_directory_cluster_for_file(char *file_name, int *home_directory_cluster, t_file_record *file_record)
// Scan the directories in given in the file name and find the root directory for the file.
{
 8010e9c:	deffe604 	addi	sp,sp,-104
 8010ea0:	dfc01915 	stw	ra,100(sp)
 8010ea4:	df001815 	stw	fp,96(sp)
 8010ea8:	df001804 	addi	fp,sp,96
 8010eac:	e13ffc15 	stw	r4,-16(fp)
 8010eb0:	e17ffd15 	stw	r5,-12(fp)
 8010eb4:	e1bffe15 	stw	r6,-8(fp)
    bool result = false;
 8010eb8:	e03ff715 	stw	zero,-36(fp)
    int home_dir_cluster = 0;
 8010ebc:	e03ff615 	stw	zero,-40(fp)
    int location, index;
    int start_location = 0;
 8010ec0:	e03ff315 	stw	zero,-52(fp)
    
    /* Get Next Directory. */
    location = get_dir_divider_location( file_name );
 8010ec4:	e13ffc17 	ldw	r4,-16(fp)
 8010ec8:	8010af00 	call	8010af0 <get_dir_divider_location>
 8010ecc:	e0bff515 	stw	r2,-44(fp)
    while (location > 0)
 8010ed0:	00012206 	br	801135c <get_home_directory_cluster_for_file+0x4c0>
    {
        char name[8] = { ' ', ' ', ' ', ' ', ' ', ' ', ' ', ' ' };
 8010ed4:	00800804 	movi	r2,32
 8010ed8:	e0bff805 	stb	r2,-32(fp)
 8010edc:	00800804 	movi	r2,32
 8010ee0:	e0bff845 	stb	r2,-31(fp)
 8010ee4:	00800804 	movi	r2,32
 8010ee8:	e0bff885 	stb	r2,-30(fp)
 8010eec:	00800804 	movi	r2,32
 8010ef0:	e0bff8c5 	stb	r2,-29(fp)
 8010ef4:	00800804 	movi	r2,32
 8010ef8:	e0bff905 	stb	r2,-28(fp)
 8010efc:	00800804 	movi	r2,32
 8010f00:	e0bff945 	stb	r2,-27(fp)
 8010f04:	00800804 	movi	r2,32
 8010f08:	e0bff985 	stb	r2,-26(fp)
 8010f0c:	00800804 	movi	r2,32
 8010f10:	e0bff9c5 	stb	r2,-25(fp)
        char extension[3] = { ' ', ' ', ' ' };
 8010f14:	00800804 	movi	r2,32
 8010f18:	e0bffa05 	stb	r2,-24(fp)
 8010f1c:	00800804 	movi	r2,32
 8010f20:	e0bffa45 	stb	r2,-23(fp)
 8010f24:	00800804 	movi	r2,32
 8010f28:	e0bffa85 	stb	r2,-22(fp)
        int ext_index = -1;
 8010f2c:	00bfffc4 	movi	r2,-1
 8010f30:	e0bff215 	stw	r2,-56(fp)
        int new_cluster = home_dir_cluster;
 8010f34:	e0bff617 	ldw	r2,-40(fp)
 8010f38:	e0bff115 	stw	r2,-60(fp)
        
        // Get the name of the directory in name/extension format.
        for (index = 0; index < location; index++)
 8010f3c:	e03ff415 	stw	zero,-48(fp)
 8010f40:	00002e06 	br	8010ffc <get_home_directory_cluster_for_file+0x160>
        {
            if (file_name[index+start_location] == '.')
 8010f44:	e0fff417 	ldw	r3,-48(fp)
 8010f48:	e0bff317 	ldw	r2,-52(fp)
 8010f4c:	1885883a 	add	r2,r3,r2
 8010f50:	1007883a 	mov	r3,r2
 8010f54:	e0bffc17 	ldw	r2,-16(fp)
 8010f58:	1885883a 	add	r2,r3,r2
 8010f5c:	10800003 	ldbu	r2,0(r2)
 8010f60:	10803fcc 	andi	r2,r2,255
 8010f64:	1080201c 	xori	r2,r2,128
 8010f68:	10bfe004 	addi	r2,r2,-128
 8010f6c:	10800b98 	cmpnei	r2,r2,46
 8010f70:	1000031e 	bne	r2,zero,8010f80 <get_home_directory_cluster_for_file+0xe4>
            {
                ext_index = index;
 8010f74:	e0bff417 	ldw	r2,-48(fp)
 8010f78:	e0bff215 	stw	r2,-56(fp)
 8010f7c:	00001c06 	br	8010ff0 <get_home_directory_cluster_for_file+0x154>
            }
            else if (ext_index < 0)
 8010f80:	e0bff217 	ldw	r2,-56(fp)
 8010f84:	1004403a 	cmpge	r2,r2,zero
 8010f88:	10000c1e 	bne	r2,zero,8010fbc <get_home_directory_cluster_for_file+0x120>
            {
                name[index] = file_name[index+start_location];
 8010f8c:	e13ff417 	ldw	r4,-48(fp)
 8010f90:	e0fff417 	ldw	r3,-48(fp)
 8010f94:	e0bff317 	ldw	r2,-52(fp)
 8010f98:	1885883a 	add	r2,r3,r2
 8010f9c:	1007883a 	mov	r3,r2
 8010fa0:	e0bffc17 	ldw	r2,-16(fp)
 8010fa4:	1885883a 	add	r2,r3,r2
 8010fa8:	10c00003 	ldbu	r3,0(r2)
 8010fac:	e0bff804 	addi	r2,fp,-32
 8010fb0:	1105883a 	add	r2,r2,r4
 8010fb4:	10c00005 	stb	r3,0(r2)
 8010fb8:	00000d06 	br	8010ff0 <get_home_directory_cluster_for_file+0x154>
            }
            else
            {
                extension[index-ext_index] = file_name[index+start_location];
 8010fbc:	e0fff417 	ldw	r3,-48(fp)
 8010fc0:	e0bff217 	ldw	r2,-56(fp)
 8010fc4:	1889c83a 	sub	r4,r3,r2
 8010fc8:	e0fff417 	ldw	r3,-48(fp)
 8010fcc:	e0bff317 	ldw	r2,-52(fp)
 8010fd0:	1885883a 	add	r2,r3,r2
 8010fd4:	1007883a 	mov	r3,r2
 8010fd8:	e0bffc17 	ldw	r2,-16(fp)
 8010fdc:	1885883a 	add	r2,r3,r2
 8010fe0:	10c00003 	ldbu	r3,0(r2)
 8010fe4:	e0bffa04 	addi	r2,fp,-24
 8010fe8:	1105883a 	add	r2,r2,r4
 8010fec:	10c00005 	stb	r3,0(r2)
        char extension[3] = { ' ', ' ', ' ' };
        int ext_index = -1;
        int new_cluster = home_dir_cluster;
        
        // Get the name of the directory in name/extension format.
        for (index = 0; index < location; index++)
 8010ff0:	e0bff417 	ldw	r2,-48(fp)
 8010ff4:	10800044 	addi	r2,r2,1
 8010ff8:	e0bff415 	stw	r2,-48(fp)
 8010ffc:	e0fff417 	ldw	r3,-48(fp)
 8011000:	e0bff517 	ldw	r2,-44(fp)
 8011004:	18bfcf16 	blt	r3,r2,8010f44 <get_home_directory_cluster_for_file+0xa8>
            {
                extension[index-ext_index] = file_name[index+start_location];
            }
        }
        
        if (home_dir_cluster == 0)
 8011008:	e0bff617 	ldw	r2,-40(fp)
 801100c:	1004c03a 	cmpne	r2,r2,zero
 8011010:	1000551e 	bne	r2,zero,8011168 <get_home_directory_cluster_for_file+0x2cc>
        {
            /* We are in the root directory. Scan the directory (of predefined size) and see if you can find the specified file. */
            int max_root_dir_sectors = ((32*boot_sector_data.max_number_of_dir_entires) / boot_sector_data.sector_size_in_bytes);
 8011014:	008200b4 	movhi	r2,2050
 8011018:	10a26104 	addi	r2,r2,-30332
 801101c:	1080050b 	ldhu	r2,20(r2)
 8011020:	10bfffcc 	andi	r2,r2,65535
 8011024:	1008917a 	slli	r4,r2,5
 8011028:	008200b4 	movhi	r2,2050
 801102c:	10a26104 	addi	r2,r2,-30332
 8011030:	1080030b 	ldhu	r2,12(r2)
 8011034:	117fffcc 	andi	r5,r2,65535
 8011038:	800d77c0 	call	800d77c <__divsi3>
 801103c:	e0bff015 	stw	r2,-64(fp)
            int sector_index;
            
            for (sector_index = 0; sector_index < max_root_dir_sectors; sector_index++)
 8011040:	e03fef15 	stw	zero,-68(fp)
 8011044:	00003806 	br	8011128 <get_home_directory_cluster_for_file+0x28c>
            {
                if (Read_Sector_Data(sector_index+boot_sector_data.root_directory_sector_offset, fat_partition_offset_in_512_byte_sectors))
 8011048:	008200b4 	movhi	r2,2050
 801104c:	10a26104 	addi	r2,r2,-30332
 8011050:	10c01317 	ldw	r3,76(r2)
 8011054:	e0bfef17 	ldw	r2,-68(fp)
 8011058:	1885883a 	add	r2,r3,r2
 801105c:	1009883a 	mov	r4,r2
 8011060:	d166c717 	ldw	r5,-25828(gp)
 8011064:	800f6cc0 	call	800f6cc <Read_Sector_Data>
 8011068:	1005003a 	cmpeq	r2,r2,zero
 801106c:	1000311e 	bne	r2,zero,8011134 <get_home_directory_cluster_for_file+0x298>
                {
                    int file_counter;
                    
                    for (file_counter = 0; file_counter < 16; file_counter++)
 8011070:	e03fee15 	stw	zero,-72(fp)
 8011074:	00002306 	br	8011104 <get_home_directory_cluster_for_file+0x268>
                    {
                       
                        // Read file record.
                        Read_File_Record_At_Offset(file_counter*32, file_record, 0, sector_index);
 8011078:	e0bfee17 	ldw	r2,-72(fp)
 801107c:	1008917a 	slli	r4,r2,5
 8011080:	e1ffef17 	ldw	r7,-68(fp)
 8011084:	e17ffe17 	ldw	r5,-8(fp)
 8011088:	000d883a 	mov	r6,zero
 801108c:	800fb140 	call	800fb14 <Read_File_Record_At_Offset>
                        if ((file_record->name[0] != 0xe5) && (file_record->name[0] != 0x00))
 8011090:	e0bffe17 	ldw	r2,-8(fp)
 8011094:	10800003 	ldbu	r2,0(r2)
 8011098:	10803fcc 	andi	r2,r2,255
 801109c:	10803960 	cmpeqi	r2,r2,229
 80110a0:	1000151e 	bne	r2,zero,80110f8 <get_home_directory_cluster_for_file+0x25c>
 80110a4:	e0bffe17 	ldw	r2,-8(fp)
 80110a8:	10800003 	ldbu	r2,0(r2)
 80110ac:	10803fcc 	andi	r2,r2,255
 80110b0:	1005003a 	cmpeq	r2,r2,zero
 80110b4:	1000101e 	bne	r2,zero,80110f8 <get_home_directory_cluster_for_file+0x25c>
                        {
                            bool match = match_file_record_to_name_ext(file_record, name, extension);
 80110b8:	e17ff804 	addi	r5,fp,-32
 80110bc:	e1bffa04 	addi	r6,fp,-24
 80110c0:	e13ffe17 	ldw	r4,-8(fp)
 80110c4:	8010bb00 	call	8010bb0 <match_file_record_to_name_ext>
 80110c8:	e0bfed15 	stw	r2,-76(fp)
                            if (match)
 80110cc:	e0bfed17 	ldw	r2,-76(fp)
 80110d0:	1005003a 	cmpeq	r2,r2,zero
 80110d4:	1000081e 	bne	r2,zero,80110f8 <get_home_directory_cluster_for_file+0x25c>
                            {
                                new_cluster = file_record->start_cluster_index;
 80110d8:	e0bffe17 	ldw	r2,-8(fp)
 80110dc:	1080058b 	ldhu	r2,22(r2)
 80110e0:	10bfffcc 	andi	r2,r2,65535
 80110e4:	e0bff115 	stw	r2,-60(fp)
                                file_record->file_record_cluster = 1; // Home directory is a subdirectory in the root directory.
 80110e8:	e0fffe17 	ldw	r3,-8(fp)
 80110ec:	00800044 	movi	r2,1
 80110f0:	18800a15 	stw	r2,40(r3)
                                break;
 80110f4:	00000606 	br	8011110 <get_home_directory_cluster_for_file+0x274>
            {
                if (Read_Sector_Data(sector_index+boot_sector_data.root_directory_sector_offset, fat_partition_offset_in_512_byte_sectors))
                {
                    int file_counter;
                    
                    for (file_counter = 0; file_counter < 16; file_counter++)
 80110f8:	e0bfee17 	ldw	r2,-72(fp)
 80110fc:	10800044 	addi	r2,r2,1
 8011100:	e0bfee15 	stw	r2,-72(fp)
 8011104:	e0bfee17 	ldw	r2,-72(fp)
 8011108:	10800410 	cmplti	r2,r2,16
 801110c:	103fda1e 	bne	r2,zero,8011078 <get_home_directory_cluster_for_file+0x1dc>
                }
                else
                {
                    break;
                }
                if (new_cluster != home_dir_cluster)
 8011110:	e0fff117 	ldw	r3,-60(fp)
 8011114:	e0bff617 	ldw	r2,-40(fp)
 8011118:	1880061e 	bne	r3,r2,8011134 <get_home_directory_cluster_for_file+0x298>
        {
            /* We are in the root directory. Scan the directory (of predefined size) and see if you can find the specified file. */
            int max_root_dir_sectors = ((32*boot_sector_data.max_number_of_dir_entires) / boot_sector_data.sector_size_in_bytes);
            int sector_index;
            
            for (sector_index = 0; sector_index < max_root_dir_sectors; sector_index++)
 801111c:	e0bfef17 	ldw	r2,-68(fp)
 8011120:	10800044 	addi	r2,r2,1
 8011124:	e0bfef15 	stw	r2,-68(fp)
 8011128:	e0ffef17 	ldw	r3,-68(fp)
 801112c:	e0bff017 	ldw	r2,-64(fp)
 8011130:	18bfc516 	blt	r3,r2,8011048 <get_home_directory_cluster_for_file+0x1ac>
                if (new_cluster != home_dir_cluster)
                {
                    break;
                }
            }
            if (new_cluster != home_dir_cluster)
 8011134:	e0fff117 	ldw	r3,-60(fp)
 8011138:	e0bff617 	ldw	r2,-40(fp)
 801113c:	18800826 	beq	r3,r2,8011160 <get_home_directory_cluster_for_file+0x2c4>
            {
                // A valid directory is found, so go to it.
                home_dir_cluster = new_cluster;
 8011140:	e0bff117 	ldw	r2,-60(fp)
 8011144:	e0bff615 	stw	r2,-40(fp)
                start_location = start_location+location+1;
 8011148:	e0fff317 	ldw	r3,-52(fp)
 801114c:	e0bff517 	ldw	r2,-44(fp)
 8011150:	1885883a 	add	r2,r3,r2
 8011154:	10800044 	addi	r2,r2,1
 8011158:	e0bff315 	stw	r2,-52(fp)
 801115c:	00007406 	br	8011330 <get_home_directory_cluster_for_file+0x494>
            }
            else
            {
                // Directory path is invalid. 
                return false;
 8011160:	e03fff15 	stw	zero,-4(fp)
 8011164:	00008c06 	br	8011398 <get_home_directory_cluster_for_file+0x4fc>
            }
        } else {
            // This is a subdirectory that can have any number of elements. So scan through it as though it was a file
            // and see if you can find the directory of interest.
            int cluster = home_dir_cluster;
 8011168:	e0bff617 	ldw	r2,-40(fp)
 801116c:	e0bfec15 	stw	r2,-80(fp)
            
            do {
                int start_sector = ( cluster - 2 ) * ( boot_sector_data.sectors_per_cluster ) + boot_sector_data.data_sector_offset;
 8011170:	e0bfec17 	ldw	r2,-80(fp)
 8011174:	113fff84 	addi	r4,r2,-2
 8011178:	008200b4 	movhi	r2,2050
 801117c:	10a26104 	addi	r2,r2,-30332
 8011180:	10800383 	ldbu	r2,14(r2)
 8011184:	11403fcc 	andi	r5,r2,255
 8011188:	800d84c0 	call	800d84c <__mulsi3>
 801118c:	1007883a 	mov	r3,r2
 8011190:	008200b4 	movhi	r2,2050
 8011194:	10a26104 	addi	r2,r2,-30332
 8011198:	10801417 	ldw	r2,80(r2)
 801119c:	1885883a 	add	r2,r3,r2
 80111a0:	e0bfeb15 	stw	r2,-84(fp)
                int sector_index;
                
                for (sector_index = 0; sector_index < boot_sector_data.sectors_per_cluster; sector_index++)
 80111a4:	e03fea15 	stw	zero,-88(fp)
 80111a8:	00003206 	br	8011274 <get_home_directory_cluster_for_file+0x3d8>
                {
                    if (Read_Sector_Data(sector_index + start_sector, fat_partition_offset_in_512_byte_sectors))
 80111ac:	e0ffea17 	ldw	r3,-88(fp)
 80111b0:	e0bfeb17 	ldw	r2,-84(fp)
 80111b4:	1889883a 	add	r4,r3,r2
 80111b8:	d166c717 	ldw	r5,-25828(gp)
 80111bc:	800f6cc0 	call	800f6cc <Read_Sector_Data>
 80111c0:	1005003a 	cmpeq	r2,r2,zero
 80111c4:	1000311e 	bne	r2,zero,801128c <get_home_directory_cluster_for_file+0x3f0>
                    {
                        int file_counter;
                        
                        for (file_counter = 0; file_counter < 16; file_counter++)
 80111c8:	e03fe915 	stw	zero,-92(fp)
 80111cc:	00002006 	br	8011250 <get_home_directory_cluster_for_file+0x3b4>
                        {                         
                            // Read file record.
                            Read_File_Record_At_Offset(file_counter*32, file_record, cluster, sector_index);
 80111d0:	e0bfe917 	ldw	r2,-92(fp)
 80111d4:	1008917a 	slli	r4,r2,5
 80111d8:	e1bfec17 	ldw	r6,-80(fp)
 80111dc:	e1ffea17 	ldw	r7,-88(fp)
 80111e0:	e17ffe17 	ldw	r5,-8(fp)
 80111e4:	800fb140 	call	800fb14 <Read_File_Record_At_Offset>
                            if ((file_record->name[0] != 0xe5) && (file_record->name[0] != 0x00))
 80111e8:	e0bffe17 	ldw	r2,-8(fp)
 80111ec:	10800003 	ldbu	r2,0(r2)
 80111f0:	10803fcc 	andi	r2,r2,255
 80111f4:	10803960 	cmpeqi	r2,r2,229
 80111f8:	1000121e 	bne	r2,zero,8011244 <get_home_directory_cluster_for_file+0x3a8>
 80111fc:	e0bffe17 	ldw	r2,-8(fp)
 8011200:	10800003 	ldbu	r2,0(r2)
 8011204:	10803fcc 	andi	r2,r2,255
 8011208:	1005003a 	cmpeq	r2,r2,zero
 801120c:	10000d1e 	bne	r2,zero,8011244 <get_home_directory_cluster_for_file+0x3a8>
                            {
								bool match = match_file_record_to_name_ext(file_record, name, extension);
 8011210:	e17ff804 	addi	r5,fp,-32
 8011214:	e1bffa04 	addi	r6,fp,-24
 8011218:	e13ffe17 	ldw	r4,-8(fp)
 801121c:	8010bb00 	call	8010bb0 <match_file_record_to_name_ext>
 8011220:	e0bfe815 	stw	r2,-96(fp)
                                if (match)
 8011224:	e0bfe817 	ldw	r2,-96(fp)
 8011228:	1005003a 	cmpeq	r2,r2,zero
 801122c:	1000051e 	bne	r2,zero,8011244 <get_home_directory_cluster_for_file+0x3a8>
                                {
                                    new_cluster = file_record->start_cluster_index;                                   
 8011230:	e0bffe17 	ldw	r2,-8(fp)
 8011234:	1080058b 	ldhu	r2,22(r2)
 8011238:	10bfffcc 	andi	r2,r2,65535
 801123c:	e0bff115 	stw	r2,-60(fp)
                                    break;
 8011240:	00000606 	br	801125c <get_home_directory_cluster_for_file+0x3c0>
                {
                    if (Read_Sector_Data(sector_index + start_sector, fat_partition_offset_in_512_byte_sectors))
                    {
                        int file_counter;
                        
                        for (file_counter = 0; file_counter < 16; file_counter++)
 8011244:	e0bfe917 	ldw	r2,-92(fp)
 8011248:	10800044 	addi	r2,r2,1
 801124c:	e0bfe915 	stw	r2,-92(fp)
 8011250:	e0bfe917 	ldw	r2,-92(fp)
 8011254:	10800410 	cmplti	r2,r2,16
 8011258:	103fdd1e 	bne	r2,zero,80111d0 <get_home_directory_cluster_for_file+0x334>
                    }
                    else
                    {
                        break;
                    }
                    if (new_cluster != home_dir_cluster)
 801125c:	e0fff117 	ldw	r3,-60(fp)
 8011260:	e0bff617 	ldw	r2,-40(fp)
 8011264:	1880091e 	bne	r3,r2,801128c <get_home_directory_cluster_for_file+0x3f0>
            
            do {
                int start_sector = ( cluster - 2 ) * ( boot_sector_data.sectors_per_cluster ) + boot_sector_data.data_sector_offset;
                int sector_index;
                
                for (sector_index = 0; sector_index < boot_sector_data.sectors_per_cluster; sector_index++)
 8011268:	e0bfea17 	ldw	r2,-88(fp)
 801126c:	10800044 	addi	r2,r2,1
 8011270:	e0bfea15 	stw	r2,-88(fp)
 8011274:	008200b4 	movhi	r2,2050
 8011278:	10a26104 	addi	r2,r2,-30332
 801127c:	10800383 	ldbu	r2,14(r2)
 8011280:	10c03fcc 	andi	r3,r2,255
 8011284:	e0bfea17 	ldw	r2,-88(fp)
 8011288:	10ffc816 	blt	r2,r3,80111ac <get_home_directory_cluster_for_file+0x310>
                        break;
                    }
                }
                // If this is the end of the cluster and the directory has not been found, then see if there is another cluster
                // that holds data for the current directory.
                if (new_cluster == home_dir_cluster)
 801128c:	e0fff117 	ldw	r3,-60(fp)
 8011290:	e0bff617 	ldw	r2,-40(fp)
 8011294:	1880131e 	bne	r3,r2,80112e4 <get_home_directory_cluster_for_file+0x448>
                {
					unsigned short int next_cluster;

					if (get_cluster_flag(new_cluster, &next_cluster))
 8011298:	e13ff117 	ldw	r4,-60(fp)
 801129c:	e17ffb04 	addi	r5,fp,-20
 80112a0:	800f7c80 	call	800f7c8 <get_cluster_flag>
 80112a4:	1005003a 	cmpeq	r2,r2,zero
 80112a8:	10000c1e 	bne	r2,zero,80112dc <get_home_directory_cluster_for_file+0x440>
					{
						// The directory needs to be expanded to store more files.
						if ((next_cluster & 0x0000fff8) == 0x0000fff8)
 80112ac:	e0bffb0b 	ldhu	r2,-20(fp)
 80112b0:	10bfffcc 	andi	r2,r2,65535
 80112b4:	10fffe0c 	andi	r3,r2,65528
 80112b8:	00bffe14 	movui	r2,65528
 80112bc:	1880021e 	bne	r3,r2,80112c8 <get_home_directory_cluster_for_file+0x42c>
						{
							return false;
 80112c0:	e03fff15 	stw	zero,-4(fp)
 80112c4:	00003406 	br	8011398 <get_home_directory_cluster_for_file+0x4fc>
						}
						new_cluster = (next_cluster & 0x0000fff8);
 80112c8:	e0bffb0b 	ldhu	r2,-20(fp)
 80112cc:	10bfffcc 	andi	r2,r2,65535
 80112d0:	10bffe0c 	andi	r2,r2,65528
 80112d4:	e0bff115 	stw	r2,-60(fp)
 80112d8:	00000206 	br	80112e4 <get_home_directory_cluster_for_file+0x448>
					}
					else
					{
						// Directory path is invalid.                 
						return false;
 80112dc:	e03fff15 	stw	zero,-4(fp)
 80112e0:	00002d06 	br	8011398 <get_home_directory_cluster_for_file+0x4fc>
					}
                }              
            } while ((cluster < 0x0000fff8) && (new_cluster == home_dir_cluster));
 80112e4:	e0ffec17 	ldw	r3,-80(fp)
 80112e8:	00bffdd4 	movui	r2,65527
 80112ec:	10c00316 	blt	r2,r3,80112fc <get_home_directory_cluster_for_file+0x460>
 80112f0:	e0fff117 	ldw	r3,-60(fp)
 80112f4:	e0bff617 	ldw	r2,-40(fp)
 80112f8:	18bf9d26 	beq	r3,r2,8011170 <get_home_directory_cluster_for_file+0x2d4>
            if (new_cluster != home_dir_cluster)
 80112fc:	e0fff117 	ldw	r3,-60(fp)
 8011300:	e0bff617 	ldw	r2,-40(fp)
 8011304:	18800826 	beq	r3,r2,8011328 <get_home_directory_cluster_for_file+0x48c>
            {
                // A valid directory is found, so go to it.
                home_dir_cluster = new_cluster;
 8011308:	e0bff117 	ldw	r2,-60(fp)
 801130c:	e0bff615 	stw	r2,-40(fp)
                start_location = start_location+location+1;
 8011310:	e0fff317 	ldw	r3,-52(fp)
 8011314:	e0bff517 	ldw	r2,-44(fp)
 8011318:	1885883a 	add	r2,r3,r2
 801131c:	10800044 	addi	r2,r2,1
 8011320:	e0bff315 	stw	r2,-52(fp)
 8011324:	00000206 	br	8011330 <get_home_directory_cluster_for_file+0x494>
            }
            else
            {
                // Directory path is invalid. 
                return false;
 8011328:	e03fff15 	stw	zero,-4(fp)
 801132c:	00001a06 	br	8011398 <get_home_directory_cluster_for_file+0x4fc>
            }            
        }
        location = get_dir_divider_location(&(file_name[start_location]));
 8011330:	e0bff317 	ldw	r2,-52(fp)
 8011334:	1007883a 	mov	r3,r2
 8011338:	e0bffc17 	ldw	r2,-16(fp)
 801133c:	1889883a 	add	r4,r3,r2
 8011340:	8010af00 	call	8010af0 <get_dir_divider_location>
 8011344:	e0bff515 	stw	r2,-44(fp)
        if (location < 0)
 8011348:	e0bff517 	ldw	r2,-44(fp)
 801134c:	1004403a 	cmpge	r2,r2,zero
 8011350:	1000021e 	bne	r2,zero,801135c <get_home_directory_cluster_for_file+0x4c0>
        {
            // Directory has been located.
            result = true;
 8011354:	00800044 	movi	r2,1
 8011358:	e0bff715 	stw	r2,-36(fp)
    int location, index;
    int start_location = 0;
    
    /* Get Next Directory. */
    location = get_dir_divider_location( file_name );
    while (location > 0)
 801135c:	e0bff517 	ldw	r2,-44(fp)
 8011360:	10800048 	cmpgei	r2,r2,1
 8011364:	103edb1e 	bne	r2,zero,8010ed4 <get_home_directory_cluster_for_file+0x38>
            // Directory has been located.
            result = true;
        }
    }
    
    *home_directory_cluster = home_dir_cluster;
 8011368:	e0fffd17 	ldw	r3,-12(fp)
 801136c:	e0bff617 	ldw	r2,-40(fp)
 8011370:	18800015 	stw	r2,0(r3)
    if (home_dir_cluster == 0)
 8011374:	e0bff617 	ldw	r2,-40(fp)
 8011378:	1004c03a 	cmpne	r2,r2,zero
 801137c:	1000041e 	bne	r2,zero,8011390 <get_home_directory_cluster_for_file+0x4f4>
    {
        file_record->file_record_cluster = 0; // Home directory is the root directory.
 8011380:	e0bffe17 	ldw	r2,-8(fp)
 8011384:	10000a15 	stw	zero,40(r2)
		result = true;
 8011388:	00800044 	movi	r2,1
 801138c:	e0bff715 	stw	r2,-36(fp)
    }
    return result;
 8011390:	e0bff717 	ldw	r2,-36(fp)
 8011394:	e0bfff15 	stw	r2,-4(fp)
 8011398:	e0bfff17 	ldw	r2,-4(fp)
}
 801139c:	e037883a 	mov	sp,fp
 80113a0:	dfc00117 	ldw	ra,4(sp)
 80113a4:	df000017 	ldw	fp,0(sp)
 80113a8:	dec00204 	addi	sp,sp,8
 80113ac:	f800283a 	ret

080113b0 <find_file_in_directory>:


bool find_file_in_directory(int directory_start_cluster, char *file_name, t_file_record *file_record)
// Given a cluster and a file name, check if the file already exists. Return the file record if the file is found.
{
 80113b0:	deffe704 	addi	sp,sp,-100
 80113b4:	dfc01815 	stw	ra,96(sp)
 80113b8:	df001715 	stw	fp,92(sp)
 80113bc:	df001704 	addi	fp,sp,92
 80113c0:	e13ffc15 	stw	r4,-16(fp)
 80113c4:	e17ffd15 	stw	r5,-12(fp)
 80113c8:	e1bffe15 	stw	r6,-8(fp)
    int location = get_dir_divider_location( file_name );
 80113cc:	e13ffd17 	ldw	r4,-12(fp)
 80113d0:	8010af00 	call	8010af0 <get_dir_divider_location>
 80113d4:	e0bff715 	stw	r2,-36(fp)
    int last_dir_separator = 0;
 80113d8:	e03ff615 	stw	zero,-40(fp)
    char name[8] = { ' ', ' ', ' ', ' ', ' ', ' ', ' ', ' ' };
 80113dc:	00800804 	movi	r2,32
 80113e0:	e0bff805 	stb	r2,-32(fp)
 80113e4:	00800804 	movi	r2,32
 80113e8:	e0bff845 	stb	r2,-31(fp)
 80113ec:	00800804 	movi	r2,32
 80113f0:	e0bff885 	stb	r2,-30(fp)
 80113f4:	00800804 	movi	r2,32
 80113f8:	e0bff8c5 	stb	r2,-29(fp)
 80113fc:	00800804 	movi	r2,32
 8011400:	e0bff905 	stb	r2,-28(fp)
 8011404:	00800804 	movi	r2,32
 8011408:	e0bff945 	stb	r2,-27(fp)
 801140c:	00800804 	movi	r2,32
 8011410:	e0bff985 	stb	r2,-26(fp)
 8011414:	00800804 	movi	r2,32
 8011418:	e0bff9c5 	stb	r2,-25(fp)
    char extension[3] = { ' ', ' ', ' ' };
 801141c:	00800804 	movi	r2,32
 8011420:	e0bffa05 	stb	r2,-24(fp)
 8011424:	00800804 	movi	r2,32
 8011428:	e0bffa45 	stb	r2,-23(fp)
 801142c:	00800804 	movi	r2,32
 8011430:	e0bffa85 	stb	r2,-22(fp)
    int ext_index = -1;
 8011434:	00bfffc4 	movi	r2,-1
 8011438:	e0bff515 	stw	r2,-44(fp)
    int cluster = directory_start_cluster;
 801143c:	e0bffc17 	ldw	r2,-16(fp)
 8011440:	e0bff415 	stw	r2,-48(fp)
    int index;
	int length = strlen(file_name);
 8011444:	e13ffd17 	ldw	r4,-12(fp)
 8011448:	80055880 	call	8005588 <strlen>
 801144c:	e0bff215 	stw	r2,-56(fp)
    bool result = false;
 8011450:	e03ff115 	stw	zero,-60(fp)
    
    // Skip through all directory separators.
    while (location > 0)
 8011454:	00000b06 	br	8011484 <find_file_in_directory+0xd4>
    {
        last_dir_separator = last_dir_separator+location+1;
 8011458:	e0fff617 	ldw	r3,-40(fp)
 801145c:	e0bff717 	ldw	r2,-36(fp)
 8011460:	1885883a 	add	r2,r3,r2
 8011464:	10800044 	addi	r2,r2,1
 8011468:	e0bff615 	stw	r2,-40(fp)
        location = get_dir_divider_location( &(file_name[last_dir_separator]) );
 801146c:	e0bff617 	ldw	r2,-40(fp)
 8011470:	1007883a 	mov	r3,r2
 8011474:	e0bffd17 	ldw	r2,-12(fp)
 8011478:	1889883a 	add	r4,r3,r2
 801147c:	8010af00 	call	8010af0 <get_dir_divider_location>
 8011480:	e0bff715 	stw	r2,-36(fp)
    int index;
	int length = strlen(file_name);
    bool result = false;
    
    // Skip through all directory separators.
    while (location > 0)
 8011484:	e0bff717 	ldw	r2,-36(fp)
 8011488:	10800048 	cmpgei	r2,r2,1
 801148c:	103ff21e 	bne	r2,zero,8011458 <find_file_in_directory+0xa8>
        last_dir_separator = last_dir_separator+location+1;
        location = get_dir_divider_location( &(file_name[last_dir_separator]) );
    }
        
    // Get the name of the file in name/extension format.
    for (index = last_dir_separator; index < length; index++)
 8011490:	e0bff617 	ldw	r2,-40(fp)
 8011494:	e0bff315 	stw	r2,-52(fp)
 8011498:	00002b06 	br	8011548 <find_file_in_directory+0x198>
    {
        if (file_name[index] == '.')
 801149c:	e0bff317 	ldw	r2,-52(fp)
 80114a0:	1007883a 	mov	r3,r2
 80114a4:	e0bffd17 	ldw	r2,-12(fp)
 80114a8:	1885883a 	add	r2,r3,r2
 80114ac:	10800003 	ldbu	r2,0(r2)
 80114b0:	10803fcc 	andi	r2,r2,255
 80114b4:	1080201c 	xori	r2,r2,128
 80114b8:	10bfe004 	addi	r2,r2,-128
 80114bc:	10800b98 	cmpnei	r2,r2,46
 80114c0:	1000031e 	bne	r2,zero,80114d0 <find_file_in_directory+0x120>
        {
            ext_index = index;
 80114c4:	e0bff317 	ldw	r2,-52(fp)
 80114c8:	e0bff515 	stw	r2,-44(fp)
 80114cc:	00001b06 	br	801153c <find_file_in_directory+0x18c>
        }
        else if (ext_index < 0)
 80114d0:	e0bff517 	ldw	r2,-44(fp)
 80114d4:	1004403a 	cmpge	r2,r2,zero
 80114d8:	10000c1e 	bne	r2,zero,801150c <find_file_in_directory+0x15c>
        {
            name[index-last_dir_separator] = file_name[index];
 80114dc:	e0fff317 	ldw	r3,-52(fp)
 80114e0:	e0bff617 	ldw	r2,-40(fp)
 80114e4:	1889c83a 	sub	r4,r3,r2
 80114e8:	e0bff317 	ldw	r2,-52(fp)
 80114ec:	1007883a 	mov	r3,r2
 80114f0:	e0bffd17 	ldw	r2,-12(fp)
 80114f4:	1885883a 	add	r2,r3,r2
 80114f8:	10c00003 	ldbu	r3,0(r2)
 80114fc:	e0bff804 	addi	r2,fp,-32
 8011500:	1105883a 	add	r2,r2,r4
 8011504:	10c00005 	stb	r3,0(r2)
 8011508:	00000c06 	br	801153c <find_file_in_directory+0x18c>
        }
        else
        {
            extension[index-ext_index-1] = file_name[index];
 801150c:	e0fff317 	ldw	r3,-52(fp)
 8011510:	e0bff517 	ldw	r2,-44(fp)
 8011514:	1885c83a 	sub	r2,r3,r2
 8011518:	113fffc4 	addi	r4,r2,-1
 801151c:	e0bff317 	ldw	r2,-52(fp)
 8011520:	1007883a 	mov	r3,r2
 8011524:	e0bffd17 	ldw	r2,-12(fp)
 8011528:	1885883a 	add	r2,r3,r2
 801152c:	10c00003 	ldbu	r3,0(r2)
 8011530:	e0bffa04 	addi	r2,fp,-24
 8011534:	1105883a 	add	r2,r2,r4
 8011538:	10c00005 	stb	r3,0(r2)
        last_dir_separator = last_dir_separator+location+1;
        location = get_dir_divider_location( &(file_name[last_dir_separator]) );
    }
        
    // Get the name of the file in name/extension format.
    for (index = last_dir_separator; index < length; index++)
 801153c:	e0bff317 	ldw	r2,-52(fp)
 8011540:	10800044 	addi	r2,r2,1
 8011544:	e0bff315 	stw	r2,-52(fp)
 8011548:	e0fff317 	ldw	r3,-52(fp)
 801154c:	e0bff217 	ldw	r2,-56(fp)
 8011550:	18bfd216 	blt	r3,r2,801149c <find_file_in_directory+0xec>
            extension[index-ext_index-1] = file_name[index];
        }
    }

    // Look for the file.
    if (directory_start_cluster == 0)
 8011554:	e0bffc17 	ldw	r2,-16(fp)
 8011558:	1004c03a 	cmpne	r2,r2,zero
 801155c:	1000441e 	bne	r2,zero,8011670 <find_file_in_directory+0x2c0>
    {
        /* We are in the root directory. Scan the directory (of predefined size) and see if you can find the specified file. */
        int max_root_dir_sectors = ((32*boot_sector_data.max_number_of_dir_entires) / boot_sector_data.sector_size_in_bytes);
 8011560:	008200b4 	movhi	r2,2050
 8011564:	10a26104 	addi	r2,r2,-30332
 8011568:	1080050b 	ldhu	r2,20(r2)
 801156c:	10bfffcc 	andi	r2,r2,65535
 8011570:	1008917a 	slli	r4,r2,5
 8011574:	008200b4 	movhi	r2,2050
 8011578:	10a26104 	addi	r2,r2,-30332
 801157c:	1080030b 	ldhu	r2,12(r2)
 8011580:	117fffcc 	andi	r5,r2,65535
 8011584:	800d77c0 	call	800d77c <__divsi3>
 8011588:	e0bff015 	stw	r2,-64(fp)
        int sector_index;
        
        for (sector_index = 0; sector_index < max_root_dir_sectors; sector_index++)
 801158c:	e03fef15 	stw	zero,-68(fp)
 8011590:	00003306 	br	8011660 <find_file_in_directory+0x2b0>
        {
            if (Read_Sector_Data(   sector_index + boot_sector_data.root_directory_sector_offset,
 8011594:	008200b4 	movhi	r2,2050
 8011598:	10a26104 	addi	r2,r2,-30332
 801159c:	10c01317 	ldw	r3,76(r2)
 80115a0:	e0bfef17 	ldw	r2,-68(fp)
 80115a4:	1885883a 	add	r2,r3,r2
 80115a8:	1009883a 	mov	r4,r2
 80115ac:	d166c717 	ldw	r5,-25828(gp)
 80115b0:	800f6cc0 	call	800f6cc <Read_Sector_Data>
 80115b4:	1005003a 	cmpeq	r2,r2,zero
 80115b8:	10008e1e 	bne	r2,zero,80117f4 <find_file_in_directory+0x444>
                                    fat_partition_offset_in_512_byte_sectors))
            {
                int file_counter;
                
                for (file_counter = 0; file_counter < 16; file_counter++)
 80115bc:	e03fee15 	stw	zero,-72(fp)
 80115c0:	00001e06 	br	801163c <find_file_in_directory+0x28c>
                {
                    // Read file record.
                    Read_File_Record_At_Offset(file_counter*32, file_record, 0, sector_index);
 80115c4:	e0bfee17 	ldw	r2,-72(fp)
 80115c8:	1008917a 	slli	r4,r2,5
 80115cc:	e1ffef17 	ldw	r7,-68(fp)
 80115d0:	e17ffe17 	ldw	r5,-8(fp)
 80115d4:	000d883a 	mov	r6,zero
 80115d8:	800fb140 	call	800fb14 <Read_File_Record_At_Offset>
                    if ((file_record->name[0] != 0xe5) && (file_record->name[0] != 0x00))
 80115dc:	e0bffe17 	ldw	r2,-8(fp)
 80115e0:	10800003 	ldbu	r2,0(r2)
 80115e4:	10803fcc 	andi	r2,r2,255
 80115e8:	10803960 	cmpeqi	r2,r2,229
 80115ec:	1000101e 	bne	r2,zero,8011630 <find_file_in_directory+0x280>
 80115f0:	e0bffe17 	ldw	r2,-8(fp)
 80115f4:	10800003 	ldbu	r2,0(r2)
 80115f8:	10803fcc 	andi	r2,r2,255
 80115fc:	1005003a 	cmpeq	r2,r2,zero
 8011600:	10000b1e 	bne	r2,zero,8011630 <find_file_in_directory+0x280>
                    {
                        bool match = match_file_record_to_name_ext(file_record, name, extension);
 8011604:	e17ff804 	addi	r5,fp,-32
 8011608:	e1bffa04 	addi	r6,fp,-24
 801160c:	e13ffe17 	ldw	r4,-8(fp)
 8011610:	8010bb00 	call	8010bb0 <match_file_record_to_name_ext>
 8011614:	e0bfed15 	stw	r2,-76(fp)

                        if (match)
 8011618:	e0bfed17 	ldw	r2,-76(fp)
 801161c:	1005003a 	cmpeq	r2,r2,zero
 8011620:	1000031e 	bne	r2,zero,8011630 <find_file_in_directory+0x280>
                        {
                            result = true;
 8011624:	00800044 	movi	r2,1
 8011628:	e0bff115 	stw	r2,-60(fp)
                            break;
 801162c:	00000606 	br	8011648 <find_file_in_directory+0x298>
            if (Read_Sector_Data(   sector_index + boot_sector_data.root_directory_sector_offset,
                                    fat_partition_offset_in_512_byte_sectors))
            {
                int file_counter;
                
                for (file_counter = 0; file_counter < 16; file_counter++)
 8011630:	e0bfee17 	ldw	r2,-72(fp)
 8011634:	10800044 	addi	r2,r2,1
 8011638:	e0bfee15 	stw	r2,-72(fp)
 801163c:	e0bfee17 	ldw	r2,-72(fp)
 8011640:	10800410 	cmplti	r2,r2,16
 8011644:	103fdf1e 	bne	r2,zero,80115c4 <find_file_in_directory+0x214>
            }
            else
            {
                break;
            }
            if (result)
 8011648:	e0bff117 	ldw	r2,-60(fp)
 801164c:	1004c03a 	cmpne	r2,r2,zero
 8011650:	1000681e 	bne	r2,zero,80117f4 <find_file_in_directory+0x444>
    {
        /* We are in the root directory. Scan the directory (of predefined size) and see if you can find the specified file. */
        int max_root_dir_sectors = ((32*boot_sector_data.max_number_of_dir_entires) / boot_sector_data.sector_size_in_bytes);
        int sector_index;
        
        for (sector_index = 0; sector_index < max_root_dir_sectors; sector_index++)
 8011654:	e0bfef17 	ldw	r2,-68(fp)
 8011658:	10800044 	addi	r2,r2,1
 801165c:	e0bfef15 	stw	r2,-68(fp)
 8011660:	e0ffef17 	ldw	r3,-68(fp)
 8011664:	e0bff017 	ldw	r2,-64(fp)
 8011668:	18bfca16 	blt	r3,r2,8011594 <find_file_in_directory+0x1e4>
 801166c:	00006106 	br	80117f4 <find_file_in_directory+0x444>
        }
    }
    else
    {          
        do {
            int start_sector = ( cluster - 2 ) * ( boot_sector_data.sectors_per_cluster ) + boot_sector_data.data_sector_offset;
 8011670:	e0bff417 	ldw	r2,-48(fp)
 8011674:	113fff84 	addi	r4,r2,-2
 8011678:	008200b4 	movhi	r2,2050
 801167c:	10a26104 	addi	r2,r2,-30332
 8011680:	10800383 	ldbu	r2,14(r2)
 8011684:	11403fcc 	andi	r5,r2,255
 8011688:	800d84c0 	call	800d84c <__mulsi3>
 801168c:	1007883a 	mov	r3,r2
 8011690:	008200b4 	movhi	r2,2050
 8011694:	10a26104 	addi	r2,r2,-30332
 8011698:	10801417 	ldw	r2,80(r2)
 801169c:	1885883a 	add	r2,r3,r2
 80116a0:	e0bfec15 	stw	r2,-80(fp)
            int sector_index;
            
            for (sector_index = 0; sector_index < boot_sector_data.sectors_per_cluster; sector_index++)
 80116a4:	e03feb15 	stw	zero,-84(fp)
 80116a8:	00003006 	br	801176c <find_file_in_directory+0x3bc>
            {
                if (Read_Sector_Data(sector_index + start_sector, fat_partition_offset_in_512_byte_sectors))
 80116ac:	e0ffeb17 	ldw	r3,-84(fp)
 80116b0:	e0bfec17 	ldw	r2,-80(fp)
 80116b4:	1889883a 	add	r4,r3,r2
 80116b8:	d166c717 	ldw	r5,-25828(gp)
 80116bc:	800f6cc0 	call	800f6cc <Read_Sector_Data>
 80116c0:	1005003a 	cmpeq	r2,r2,zero
 80116c4:	10002f1e 	bne	r2,zero,8011784 <find_file_in_directory+0x3d4>
                {
                    int file_counter;
                    
                    for (file_counter = 0; file_counter < 16; file_counter++)
 80116c8:	e03fea15 	stw	zero,-88(fp)
 80116cc:	00001e06 	br	8011748 <find_file_in_directory+0x398>
                    {
                        // Read file record.
                        Read_File_Record_At_Offset(file_counter*32, file_record, cluster, sector_index);
 80116d0:	e0bfea17 	ldw	r2,-88(fp)
 80116d4:	1008917a 	slli	r4,r2,5
 80116d8:	e1bff417 	ldw	r6,-48(fp)
 80116dc:	e1ffeb17 	ldw	r7,-84(fp)
 80116e0:	e17ffe17 	ldw	r5,-8(fp)
 80116e4:	800fb140 	call	800fb14 <Read_File_Record_At_Offset>
                        if ((file_record->name[0] != 0xe5) && (file_record->name[0] != 0x00))
 80116e8:	e0bffe17 	ldw	r2,-8(fp)
 80116ec:	10800003 	ldbu	r2,0(r2)
 80116f0:	10803fcc 	andi	r2,r2,255
 80116f4:	10803960 	cmpeqi	r2,r2,229
 80116f8:	1000101e 	bne	r2,zero,801173c <find_file_in_directory+0x38c>
 80116fc:	e0bffe17 	ldw	r2,-8(fp)
 8011700:	10800003 	ldbu	r2,0(r2)
 8011704:	10803fcc 	andi	r2,r2,255
 8011708:	1005003a 	cmpeq	r2,r2,zero
 801170c:	10000b1e 	bne	r2,zero,801173c <find_file_in_directory+0x38c>
                        {
                            bool match = match_file_record_to_name_ext(file_record, name, extension);
 8011710:	e17ff804 	addi	r5,fp,-32
 8011714:	e1bffa04 	addi	r6,fp,-24
 8011718:	e13ffe17 	ldw	r4,-8(fp)
 801171c:	8010bb00 	call	8010bb0 <match_file_record_to_name_ext>
 8011720:	e0bfe915 	stw	r2,-92(fp)

                            if (match)
 8011724:	e0bfe917 	ldw	r2,-92(fp)
 8011728:	1005003a 	cmpeq	r2,r2,zero
 801172c:	1000031e 	bne	r2,zero,801173c <find_file_in_directory+0x38c>
                            {                               
                                result = true;
 8011730:	00800044 	movi	r2,1
 8011734:	e0bff115 	stw	r2,-60(fp)
                                break;
 8011738:	00000606 	br	8011754 <find_file_in_directory+0x3a4>
            {
                if (Read_Sector_Data(sector_index + start_sector, fat_partition_offset_in_512_byte_sectors))
                {
                    int file_counter;
                    
                    for (file_counter = 0; file_counter < 16; file_counter++)
 801173c:	e0bfea17 	ldw	r2,-88(fp)
 8011740:	10800044 	addi	r2,r2,1
 8011744:	e0bfea15 	stw	r2,-88(fp)
 8011748:	e0bfea17 	ldw	r2,-88(fp)
 801174c:	10800410 	cmplti	r2,r2,16
 8011750:	103fdf1e 	bne	r2,zero,80116d0 <find_file_in_directory+0x320>
                }
                else
                {
                    break;
                }
                if (result)
 8011754:	e0bff117 	ldw	r2,-60(fp)
 8011758:	1004c03a 	cmpne	r2,r2,zero
 801175c:	1000091e 	bne	r2,zero,8011784 <find_file_in_directory+0x3d4>
    {          
        do {
            int start_sector = ( cluster - 2 ) * ( boot_sector_data.sectors_per_cluster ) + boot_sector_data.data_sector_offset;
            int sector_index;
            
            for (sector_index = 0; sector_index < boot_sector_data.sectors_per_cluster; sector_index++)
 8011760:	e0bfeb17 	ldw	r2,-84(fp)
 8011764:	10800044 	addi	r2,r2,1
 8011768:	e0bfeb15 	stw	r2,-84(fp)
 801176c:	008200b4 	movhi	r2,2050
 8011770:	10a26104 	addi	r2,r2,-30332
 8011774:	10800383 	ldbu	r2,14(r2)
 8011778:	10c03fcc 	andi	r3,r2,255
 801177c:	e0bfeb17 	ldw	r2,-84(fp)
 8011780:	10ffca16 	blt	r2,r3,80116ac <find_file_in_directory+0x2fc>
                    break;
                }
            }
            // If this is the end of the cluster and the file has not been found, then see if there is another cluster
            // that holds data for the current directory.
            if (result == false)
 8011784:	e0bff117 	ldw	r2,-60(fp)
 8011788:	1004c03a 	cmpne	r2,r2,zero
 801178c:	1000131e 	bne	r2,zero,80117dc <find_file_in_directory+0x42c>
            {
				unsigned short int new_cluster;

				if (get_cluster_flag(cluster, &new_cluster))
 8011790:	e13ff417 	ldw	r4,-48(fp)
 8011794:	e17ffb04 	addi	r5,fp,-20
 8011798:	800f7c80 	call	800f7c8 <get_cluster_flag>
 801179c:	1005003a 	cmpeq	r2,r2,zero
 80117a0:	10000c1e 	bne	r2,zero,80117d4 <find_file_in_directory+0x424>
				{
					// The directory needs to be expanded to store more files.
					if ((new_cluster & 0x0000fff8) == 0x0000fff8)
 80117a4:	e0bffb0b 	ldhu	r2,-20(fp)
 80117a8:	10bfffcc 	andi	r2,r2,65535
 80117ac:	10fffe0c 	andi	r3,r2,65528
 80117b0:	00bffe14 	movui	r2,65528
 80117b4:	1880021e 	bne	r3,r2,80117c0 <find_file_in_directory+0x410>
					{
						return false;
 80117b8:	e03fff15 	stw	zero,-4(fp)
 80117bc:	00000f06 	br	80117fc <find_file_in_directory+0x44c>
					}
					cluster = (new_cluster & 0x0000fff8);
 80117c0:	e0bffb0b 	ldhu	r2,-20(fp)
 80117c4:	10bfffcc 	andi	r2,r2,65535
 80117c8:	10bffe0c 	andi	r2,r2,65528
 80117cc:	e0bff415 	stw	r2,-48(fp)
 80117d0:	00000206 	br	80117dc <find_file_in_directory+0x42c>
				}
				else
                {
                    // Directory path is invalid.                 
                    return false;
 80117d4:	e03fff15 	stw	zero,-4(fp)
 80117d8:	00000806 	br	80117fc <find_file_in_directory+0x44c>
                }
            }              
        } while ((cluster < 0x0000fff8) && (result == false));
 80117dc:	e0fff417 	ldw	r3,-48(fp)
 80117e0:	00bffdd4 	movui	r2,65527
 80117e4:	10c00316 	blt	r2,r3,80117f4 <find_file_in_directory+0x444>
 80117e8:	e0bff117 	ldw	r2,-60(fp)
 80117ec:	1005003a 	cmpeq	r2,r2,zero
 80117f0:	103f9f1e 	bne	r2,zero,8011670 <find_file_in_directory+0x2c0>
    }
    
    return result;   
 80117f4:	e0bff117 	ldw	r2,-60(fp)
 80117f8:	e0bfff15 	stw	r2,-4(fp)
 80117fc:	e0bfff17 	ldw	r2,-4(fp)
}
 8011800:	e037883a 	mov	sp,fp
 8011804:	dfc00117 	ldw	ra,4(sp)
 8011808:	df000017 	ldw	fp,0(sp)
 801180c:	dec00204 	addi	sp,sp,8
 8011810:	f800283a 	ret

08011814 <find_first_empty_cluster>:


bool find_first_empty_cluster(unsigned int *cluster_number)
// Find the first empty cluster. It will be marked by a 0 entry in the File Allocation Table.
{
 8011814:	defff504 	addi	sp,sp,-44
 8011818:	dfc00a15 	stw	ra,40(sp)
 801181c:	df000915 	stw	fp,36(sp)
 8011820:	df000904 	addi	fp,sp,36
 8011824:	e13fff15 	stw	r4,-4(fp)
    unsigned int sector = boot_sector_data.first_fat_sector_offset;
 8011828:	008200b4 	movhi	r2,2050
 801182c:	10a26104 	addi	r2,r2,-30332
 8011830:	10801117 	ldw	r2,68(r2)
 8011834:	e0bffe15 	stw	r2,-8(fp)
    unsigned int cluster_index = 2;
 8011838:	00800084 	movi	r2,2
 801183c:	e0bffd15 	stw	r2,-12(fp)
    short int cluster = -1;
 8011840:	00bfffc4 	movi	r2,-1
 8011844:	e0bffc0d 	sth	r2,-16(fp)
    bool result = false;
 8011848:	e03ffb15 	stw	zero,-20(fp)
	unsigned max_cluster_index = 0;
 801184c:	e03ffa15 	stw	zero,-24(fp)
	unsigned int non_data_sectors = boot_sector_data.data_sector_offset;
 8011850:	008200b4 	movhi	r2,2050
 8011854:	10a26104 	addi	r2,r2,-30332
 8011858:	10801417 	ldw	r2,80(r2)
 801185c:	e0bff915 	stw	r2,-28(fp)
	unsigned int less_than_32 = boot_sector_data.number_of_sectors_in_partition;
 8011860:	008200b4 	movhi	r2,2050
 8011864:	10a26104 	addi	r2,r2,-30332
 8011868:	1080058b 	ldhu	r2,22(r2)
 801186c:	10bfffcc 	andi	r2,r2,65535
 8011870:	e0bff815 	stw	r2,-32(fp)
	unsigned int greater_than_32 = boot_sector_data.total_sector_count_if_above_32MB;
 8011874:	008200b4 	movhi	r2,2050
 8011878:	10a26104 	addi	r2,r2,-30332
 801187c:	10800917 	ldw	r2,36(r2)
 8011880:	e0bff715 	stw	r2,-36(fp)

	if (less_than_32 > greater_than_32)
 8011884:	e0fff817 	ldw	r3,-32(fp)
 8011888:	e0bff717 	ldw	r2,-36(fp)
 801188c:	10c00b2e 	bgeu	r2,r3,80118bc <find_first_empty_cluster+0xa8>
	{
		max_cluster_index = ((less_than_32 - non_data_sectors) / boot_sector_data.sectors_per_cluster) + 1;
 8011890:	e0fff817 	ldw	r3,-32(fp)
 8011894:	e0bff917 	ldw	r2,-28(fp)
 8011898:	1889c83a 	sub	r4,r3,r2
 801189c:	008200b4 	movhi	r2,2050
 80118a0:	10a26104 	addi	r2,r2,-30332
 80118a4:	10800383 	ldbu	r2,14(r2)
 80118a8:	11403fcc 	andi	r5,r2,255
 80118ac:	800d83c0 	call	800d83c <__udivsi3>
 80118b0:	10800044 	addi	r2,r2,1
 80118b4:	e0bffa15 	stw	r2,-24(fp)
 80118b8:	00002906 	br	8011960 <find_first_empty_cluster+0x14c>
	}
	else
	{
		max_cluster_index = ((greater_than_32 - non_data_sectors) / boot_sector_data.sectors_per_cluster) + 1;
 80118bc:	e0fff717 	ldw	r3,-36(fp)
 80118c0:	e0bff917 	ldw	r2,-28(fp)
 80118c4:	1889c83a 	sub	r4,r3,r2
 80118c8:	008200b4 	movhi	r2,2050
 80118cc:	10a26104 	addi	r2,r2,-30332
 80118d0:	10800383 	ldbu	r2,14(r2)
 80118d4:	11403fcc 	andi	r5,r2,255
 80118d8:	800d83c0 	call	800d83c <__udivsi3>
 80118dc:	10800044 	addi	r2,r2,1
 80118e0:	e0bffa15 	stw	r2,-24(fp)
	}
    // Find an empty cluster for the file.
    while (sector != boot_sector_data.second_fat_sector_offset)
 80118e4:	00001e06 	br	8011960 <find_first_empty_cluster+0x14c>
    {
        if (Read_Sector_Data( sector, fat_partition_offset_in_512_byte_sectors))
 80118e8:	e13ffe17 	ldw	r4,-8(fp)
 80118ec:	d166c717 	ldw	r5,-25828(gp)
 80118f0:	800f6cc0 	call	800f6cc <Read_Sector_Data>
 80118f4:	1005003a 	cmpeq	r2,r2,zero
 80118f8:	1000131e 	bne	r2,zero,8011948 <find_first_empty_cluster+0x134>
        {
            do {
                cluster = ((unsigned short int) IORD_16DIRECT(device_pointer->base, 2*(cluster_index % 256)));
 80118fc:	d0a6c917 	ldw	r2,-25820(gp)
 8011900:	10800a17 	ldw	r2,40(r2)
 8011904:	1007883a 	mov	r3,r2
 8011908:	e0bffd17 	ldw	r2,-12(fp)
 801190c:	10803fcc 	andi	r2,r2,255
 8011910:	1085883a 	add	r2,r2,r2
 8011914:	1885883a 	add	r2,r3,r2
 8011918:	1080002b 	ldhuio	r2,0(r2)
 801191c:	e0bffc0d 	sth	r2,-16(fp)
                if (cluster == 0)
 8011920:	e0bffc0f 	ldh	r2,-16(fp)
 8011924:	1005003a 	cmpeq	r2,r2,zero
 8011928:	1000071e 	bne	r2,zero,8011948 <find_first_empty_cluster+0x134>
                    // Free cluster found.
                    break;
                }
                else
                {
                    cluster_index++;
 801192c:	e0bffd17 	ldw	r2,-12(fp)
 8011930:	10800044 	addi	r2,r2,1
 8011934:	e0bffd15 	stw	r2,-12(fp)
                } 
            } while ((cluster_index % 256) != 0);
 8011938:	e0bffd17 	ldw	r2,-12(fp)
 801193c:	10803fcc 	andi	r2,r2,255
 8011940:	1004c03a 	cmpne	r2,r2,zero
 8011944:	103fed1e 	bne	r2,zero,80118fc <find_first_empty_cluster+0xe8>
        }
        if (cluster == 0)
 8011948:	e0bffc0f 	ldh	r2,-16(fp)
 801194c:	1005003a 	cmpeq	r2,r2,zero
 8011950:	1000081e 	bne	r2,zero,8011974 <find_first_empty_cluster+0x160>
        {
            break;
        }
        sector++;
 8011954:	e0bffe17 	ldw	r2,-8(fp)
 8011958:	10800044 	addi	r2,r2,1
 801195c:	e0bffe15 	stw	r2,-8(fp)
	else
	{
		max_cluster_index = ((greater_than_32 - non_data_sectors) / boot_sector_data.sectors_per_cluster) + 1;
	}
    // Find an empty cluster for the file.
    while (sector != boot_sector_data.second_fat_sector_offset)
 8011960:	008200b4 	movhi	r2,2050
 8011964:	10a26104 	addi	r2,r2,-30332
 8011968:	10c01217 	ldw	r3,72(r2)
 801196c:	e0bffe17 	ldw	r2,-8(fp)
 8011970:	18bfdd1e 	bne	r3,r2,80118e8 <find_first_empty_cluster+0xd4>
        {
            break;
        }
        sector++;
    }
    if ((cluster == 0) && (cluster <= max_cluster_index))
 8011974:	e0bffc0f 	ldh	r2,-16(fp)
 8011978:	1004c03a 	cmpne	r2,r2,zero
 801197c:	1000081e 	bne	r2,zero,80119a0 <find_first_empty_cluster+0x18c>
 8011980:	e0fffc0f 	ldh	r3,-16(fp)
 8011984:	e0bffa17 	ldw	r2,-24(fp)
 8011988:	10c00536 	bltu	r2,r3,80119a0 <find_first_empty_cluster+0x18c>
    {
        *cluster_number = cluster_index;
 801198c:	e0bfff17 	ldw	r2,-4(fp)
 8011990:	e0fffd17 	ldw	r3,-12(fp)
 8011994:	10c00015 	stw	r3,0(r2)
		result = true;
 8011998:	00800044 	movi	r2,1
 801199c:	e0bffb15 	stw	r2,-20(fp)
    }
    return result;
 80119a0:	e0bffb17 	ldw	r2,-20(fp)
}
 80119a4:	e037883a 	mov	sp,fp
 80119a8:	dfc00117 	ldw	ra,4(sp)
 80119ac:	df000017 	ldw	fp,0(sp)
 80119b0:	dec00204 	addi	sp,sp,8
 80119b4:	f800283a 	ret

080119b8 <find_first_empty_record_in_a_subdirectory>:


int find_first_empty_record_in_a_subdirectory(int start_cluster_index)
// Search for a free spot in a subdirectory. Return an encoded location for the file record.
{
 80119b8:	defff404 	addi	sp,sp,-48
 80119bc:	dfc00b15 	stw	ra,44(sp)
 80119c0:	df000a15 	stw	fp,40(sp)
 80119c4:	df000a04 	addi	fp,sp,40
 80119c8:	e13ffe15 	stw	r4,-8(fp)
    int result = -1;
 80119cc:	00bfffc4 	movi	r2,-1
 80119d0:	e0bffb15 	stw	r2,-20(fp)
    int cluster = start_cluster_index;
 80119d4:	e0bffe17 	ldw	r2,-8(fp)
 80119d8:	e0bffa15 	stw	r2,-24(fp)
    do {
        int start_sector = ( cluster - 2 ) * ( boot_sector_data.sectors_per_cluster ) + boot_sector_data.data_sector_offset;
 80119dc:	e0bffa17 	ldw	r2,-24(fp)
 80119e0:	113fff84 	addi	r4,r2,-2
 80119e4:	008200b4 	movhi	r2,2050
 80119e8:	10a26104 	addi	r2,r2,-30332
 80119ec:	10800383 	ldbu	r2,14(r2)
 80119f0:	11403fcc 	andi	r5,r2,255
 80119f4:	800d84c0 	call	800d84c <__mulsi3>
 80119f8:	1007883a 	mov	r3,r2
 80119fc:	008200b4 	movhi	r2,2050
 8011a00:	10a26104 	addi	r2,r2,-30332
 8011a04:	10801417 	ldw	r2,80(r2)
 8011a08:	1885883a 	add	r2,r3,r2
 8011a0c:	e0bff915 	stw	r2,-28(fp)
        int sector_index;
        
        for (sector_index = 0; sector_index < boot_sector_data.sectors_per_cluster; sector_index++)
 8011a10:	e03ff815 	stw	zero,-32(fp)
 8011a14:	00002c06 	br	8011ac8 <find_first_empty_record_in_a_subdirectory+0x110>
        {
            if (Read_Sector_Data(sector_index + start_sector, fat_partition_offset_in_512_byte_sectors))
 8011a18:	e0fff817 	ldw	r3,-32(fp)
 8011a1c:	e0bff917 	ldw	r2,-28(fp)
 8011a20:	1889883a 	add	r4,r3,r2
 8011a24:	d166c717 	ldw	r5,-25828(gp)
 8011a28:	800f6cc0 	call	800f6cc <Read_Sector_Data>
 8011a2c:	1005003a 	cmpeq	r2,r2,zero
 8011a30:	10002b1e 	bne	r2,zero,8011ae0 <find_first_empty_record_in_a_subdirectory+0x128>
            {
                int file_counter;
                
                for (file_counter = 0; file_counter < 16; file_counter++)
 8011a34:	e03ff715 	stw	zero,-36(fp)
 8011a38:	00001d06 	br	8011ab0 <find_first_empty_record_in_a_subdirectory+0xf8>
                {
                    unsigned short int leading_char;
                    
                    // Read file record.
                    leading_char = ((unsigned char) IORD_8DIRECT(device_pointer->base, file_counter*32));
 8011a3c:	d0a6c917 	ldw	r2,-25820(gp)
 8011a40:	10800a17 	ldw	r2,40(r2)
 8011a44:	1007883a 	mov	r3,r2
 8011a48:	e0bff717 	ldw	r2,-36(fp)
 8011a4c:	1004917a 	slli	r2,r2,5
 8011a50:	1885883a 	add	r2,r3,r2
 8011a54:	10800023 	ldbuio	r2,0(r2)
 8011a58:	10803fcc 	andi	r2,r2,255
 8011a5c:	e0bff60d 	sth	r2,-40(fp)
                    if ((leading_char == 0x00e5) || (leading_char == 0))
 8011a60:	e0bff60b 	ldhu	r2,-40(fp)
 8011a64:	10803960 	cmpeqi	r2,r2,229
 8011a68:	1000031e 	bne	r2,zero,8011a78 <find_first_empty_record_in_a_subdirectory+0xc0>
 8011a6c:	e0bff60b 	ldhu	r2,-40(fp)
 8011a70:	1004c03a 	cmpne	r2,r2,zero
 8011a74:	10000b1e 	bne	r2,zero,8011aa4 <find_first_empty_record_in_a_subdirectory+0xec>
                    {
                        result = (cluster) | ((sector_index*16 + file_counter) << 16);
 8011a78:	e0bff817 	ldw	r2,-32(fp)
 8011a7c:	1006913a 	slli	r3,r2,4
 8011a80:	e0bff717 	ldw	r2,-36(fp)
 8011a84:	1885883a 	add	r2,r3,r2
 8011a88:	1006943a 	slli	r3,r2,16
 8011a8c:	e0bffa17 	ldw	r2,-24(fp)
 8011a90:	1884b03a 	or	r2,r3,r2
 8011a94:	e0bffb15 	stw	r2,-20(fp)
                        return result;
 8011a98:	e0bffb17 	ldw	r2,-20(fp)
 8011a9c:	e0bfff15 	stw	r2,-4(fp)
 8011aa0:	00005206 	br	8011bec <find_first_empty_record_in_a_subdirectory+0x234>
        {
            if (Read_Sector_Data(sector_index + start_sector, fat_partition_offset_in_512_byte_sectors))
            {
                int file_counter;
                
                for (file_counter = 0; file_counter < 16; file_counter++)
 8011aa4:	e0bff717 	ldw	r2,-36(fp)
 8011aa8:	10800044 	addi	r2,r2,1
 8011aac:	e0bff715 	stw	r2,-36(fp)
 8011ab0:	e0bff717 	ldw	r2,-36(fp)
 8011ab4:	10800410 	cmplti	r2,r2,16
 8011ab8:	103fe01e 	bne	r2,zero,8011a3c <find_first_empty_record_in_a_subdirectory+0x84>
    int cluster = start_cluster_index;
    do {
        int start_sector = ( cluster - 2 ) * ( boot_sector_data.sectors_per_cluster ) + boot_sector_data.data_sector_offset;
        int sector_index;
        
        for (sector_index = 0; sector_index < boot_sector_data.sectors_per_cluster; sector_index++)
 8011abc:	e0bff817 	ldw	r2,-32(fp)
 8011ac0:	10800044 	addi	r2,r2,1
 8011ac4:	e0bff815 	stw	r2,-32(fp)
 8011ac8:	008200b4 	movhi	r2,2050
 8011acc:	10a26104 	addi	r2,r2,-30332
 8011ad0:	10800383 	ldbu	r2,14(r2)
 8011ad4:	10c03fcc 	andi	r3,r2,255
 8011ad8:	e0bff817 	ldw	r2,-32(fp)
 8011adc:	10ffce16 	blt	r2,r3,8011a18 <find_first_empty_record_in_a_subdirectory+0x60>
                break;
            }
        }
        // If this is the end of the cluster and the file has not been found, then see if there is another cluster
        // that holds data for the current directory.
        if (result < 0)
 8011ae0:	e0bffb17 	ldw	r2,-20(fp)
 8011ae4:	1004403a 	cmpge	r2,r2,zero
 8011ae8:	1000381e 	bne	r2,zero,8011bcc <find_first_empty_record_in_a_subdirectory+0x214>
        {
			unsigned short int new_cluster;
			if (get_cluster_flag(cluster, &new_cluster))
 8011aec:	e13ffa17 	ldw	r4,-24(fp)
 8011af0:	e17ffc04 	addi	r5,fp,-16
 8011af4:	800f7c80 	call	800f7c8 <get_cluster_flag>
 8011af8:	1005003a 	cmpeq	r2,r2,zero
 8011afc:	1000311e 	bne	r2,zero,8011bc4 <find_first_empty_record_in_a_subdirectory+0x20c>
			{
                // The directory needs to be expanded to store more files.
				if ((new_cluster & 0x0000fff8) == 0x0000fff8)
 8011b00:	e0bffc0b 	ldhu	r2,-16(fp)
 8011b04:	10bfffcc 	andi	r2,r2,65535
 8011b08:	10fffe0c 	andi	r3,r2,65528
 8011b0c:	00bffe14 	movui	r2,65528
 8011b10:	18802e1e 	bne	r3,r2,8011bcc <find_first_empty_record_in_a_subdirectory+0x214>
				{
					int new_dir_cluster; 
					if (find_first_empty_cluster(&new_dir_cluster))
 8011b14:	e13ffd04 	addi	r4,fp,-12
 8011b18:	80118140 	call	8011814 <find_first_empty_cluster>
 8011b1c:	1005003a 	cmpeq	r2,r2,zero
 8011b20:	1000231e 	bne	r2,zero,8011bb0 <find_first_empty_record_in_a_subdirectory+0x1f8>
					{
						// Add the new cluster to the linked list of the given directory.
						if (mark_cluster(cluster, ((short int) (new_dir_cluster)), true) &&
 8011b24:	e13ffa17 	ldw	r4,-24(fp)
 8011b28:	e0bffd17 	ldw	r2,-12(fp)
 8011b2c:	117fffcc 	andi	r5,r2,65535
 8011b30:	2960001c 	xori	r5,r5,32768
 8011b34:	29600004 	addi	r5,r5,-32768
 8011b38:	01800044 	movi	r6,1
 8011b3c:	800f8800 	call	800f880 <mark_cluster>
 8011b40:	1005003a 	cmpeq	r2,r2,zero
 8011b44:	10001a1e 	bne	r2,zero,8011bb0 <find_first_empty_record_in_a_subdirectory+0x1f8>
 8011b48:	e0bffd17 	ldw	r2,-12(fp)
 8011b4c:	1009883a 	mov	r4,r2
 8011b50:	017fffc4 	movi	r5,-1
 8011b54:	01800044 	movi	r6,1
 8011b58:	800f8800 	call	800f880 <mark_cluster>
 8011b5c:	1005003a 	cmpeq	r2,r2,zero
 8011b60:	1000131e 	bne	r2,zero,8011bb0 <find_first_empty_record_in_a_subdirectory+0x1f8>
 8011b64:	e13ffa17 	ldw	r4,-24(fp)
 8011b68:	e0bffd17 	ldw	r2,-12(fp)
 8011b6c:	117fffcc 	andi	r5,r2,65535
 8011b70:	2960001c 	xori	r5,r5,32768
 8011b74:	29600004 	addi	r5,r5,-32768
 8011b78:	000d883a 	mov	r6,zero
 8011b7c:	800f8800 	call	800f880 <mark_cluster>
 8011b80:	1005003a 	cmpeq	r2,r2,zero
 8011b84:	10000a1e 	bne	r2,zero,8011bb0 <find_first_empty_record_in_a_subdirectory+0x1f8>
 8011b88:	e0bffd17 	ldw	r2,-12(fp)
 8011b8c:	1009883a 	mov	r4,r2
 8011b90:	017fffc4 	movi	r5,-1
 8011b94:	000d883a 	mov	r6,zero
 8011b98:	800f8800 	call	800f880 <mark_cluster>
 8011b9c:	1005003a 	cmpeq	r2,r2,zero
 8011ba0:	1000031e 	bne	r2,zero,8011bb0 <find_first_empty_record_in_a_subdirectory+0x1f8>
							mark_cluster(new_dir_cluster, ((short int) (0xffff)), true) &&
							mark_cluster(cluster, ((short int) (new_dir_cluster)), false) &&
							mark_cluster(new_dir_cluster, ((short int) (0xffff)), false))
						{
							Save_Modified_Sector();
 8011ba4:	800f67c0 	call	800f67c <Save_Modified_Sector>
							// The new file will begin at the first entry of the directory.
							result = new_dir_cluster;                           
 8011ba8:	e0bffd17 	ldw	r2,-12(fp)
 8011bac:	e0bffb15 	stw	r2,-20(fp)
						}
					}
					cluster = (new_cluster & 0x0000fff8);
 8011bb0:	e0bffc0b 	ldhu	r2,-16(fp)
 8011bb4:	10bfffcc 	andi	r2,r2,65535
 8011bb8:	10bffe0c 	andi	r2,r2,65528
 8011bbc:	e0bffa15 	stw	r2,-24(fp)
 8011bc0:	00000206 	br	8011bcc <find_first_empty_record_in_a_subdirectory+0x214>
				}
			}
			else
			{
				// Error encountered.                 
				result = -1;
 8011bc4:	00bfffc4 	movi	r2,-1
 8011bc8:	e0bffb15 	stw	r2,-20(fp)
			}
        }              
    } while ((cluster < 0x0000fff8) && (result == -1)); 
 8011bcc:	e0fffa17 	ldw	r3,-24(fp)
 8011bd0:	00bffdd4 	movui	r2,65527
 8011bd4:	10c00316 	blt	r2,r3,8011be4 <find_first_empty_record_in_a_subdirectory+0x22c>
 8011bd8:	e0bffb17 	ldw	r2,-20(fp)
 8011bdc:	10bfffe0 	cmpeqi	r2,r2,-1
 8011be0:	103f7e1e 	bne	r2,zero,80119dc <find_first_empty_record_in_a_subdirectory+0x24>
    return result; 
 8011be4:	e0bffb17 	ldw	r2,-20(fp)
 8011be8:	e0bfff15 	stw	r2,-4(fp)
 8011bec:	e0bfff17 	ldw	r2,-4(fp)
}
 8011bf0:	e037883a 	mov	sp,fp
 8011bf4:	dfc00117 	ldw	ra,4(sp)
 8011bf8:	df000017 	ldw	fp,0(sp)
 8011bfc:	dec00204 	addi	sp,sp,8
 8011c00:	f800283a 	ret

08011c04 <find_first_empty_record_in_root_directory>:


int find_first_empty_record_in_root_directory()
// Find a first unused record location to use. Return -1 if none is found.
{
 8011c04:	defff804 	addi	sp,sp,-32
 8011c08:	dfc00715 	stw	ra,28(sp)
 8011c0c:	df000615 	stw	fp,24(sp)
 8011c10:	df000604 	addi	fp,sp,24
    int max_root_dir_sectors = ((32*boot_sector_data.max_number_of_dir_entires) / boot_sector_data.sector_size_in_bytes);
 8011c14:	008200b4 	movhi	r2,2050
 8011c18:	10a26104 	addi	r2,r2,-30332
 8011c1c:	1080050b 	ldhu	r2,20(r2)
 8011c20:	10bfffcc 	andi	r2,r2,65535
 8011c24:	1008917a 	slli	r4,r2,5
 8011c28:	008200b4 	movhi	r2,2050
 8011c2c:	10a26104 	addi	r2,r2,-30332
 8011c30:	1080030b 	ldhu	r2,12(r2)
 8011c34:	117fffcc 	andi	r5,r2,65535
 8011c38:	800d77c0 	call	800d77c <__divsi3>
 8011c3c:	e0bffe15 	stw	r2,-8(fp)
    int sector_index;
    int result = -1;
 8011c40:	00bfffc4 	movi	r2,-1
 8011c44:	e0bffc15 	stw	r2,-16(fp)
    
    for (sector_index = 0; sector_index < max_root_dir_sectors; sector_index++)
 8011c48:	e03ffd15 	stw	zero,-12(fp)
 8011c4c:	00002d06 	br	8011d04 <find_first_empty_record_in_root_directory+0x100>
    {
        if (Read_Sector_Data(   sector_index + boot_sector_data.root_directory_sector_offset,
 8011c50:	008200b4 	movhi	r2,2050
 8011c54:	10a26104 	addi	r2,r2,-30332
 8011c58:	10c01317 	ldw	r3,76(r2)
 8011c5c:	e0bffd17 	ldw	r2,-12(fp)
 8011c60:	1885883a 	add	r2,r3,r2
 8011c64:	1009883a 	mov	r4,r2
 8011c68:	d166c717 	ldw	r5,-25828(gp)
 8011c6c:	800f6cc0 	call	800f6cc <Read_Sector_Data>
 8011c70:	1005003a 	cmpeq	r2,r2,zero
 8011c74:	1000261e 	bne	r2,zero,8011d10 <find_first_empty_record_in_root_directory+0x10c>
                                fat_partition_offset_in_512_byte_sectors))
        {
            int file_counter;
            
            for (file_counter = 0; file_counter < 16; file_counter++)
 8011c78:	e03ffb15 	stw	zero,-20(fp)
 8011c7c:	00001b06 	br	8011cec <find_first_empty_record_in_root_directory+0xe8>
            {
                unsigned short int leading_char;
                
                // Read first character of the file record.
                leading_char = ((unsigned char) IORD_8DIRECT(device_pointer->base, file_counter*32));
 8011c80:	d0a6c917 	ldw	r2,-25820(gp)
 8011c84:	10800a17 	ldw	r2,40(r2)
 8011c88:	1007883a 	mov	r3,r2
 8011c8c:	e0bffb17 	ldw	r2,-20(fp)
 8011c90:	1004917a 	slli	r2,r2,5
 8011c94:	1885883a 	add	r2,r3,r2
 8011c98:	10800023 	ldbuio	r2,0(r2)
 8011c9c:	10803fcc 	andi	r2,r2,255
 8011ca0:	e0bffa0d 	sth	r2,-24(fp)
                if ((leading_char == 0x00e5) || (leading_char == 0))
 8011ca4:	e0bffa0b 	ldhu	r2,-24(fp)
 8011ca8:	10803960 	cmpeqi	r2,r2,229
 8011cac:	1000031e 	bne	r2,zero,8011cbc <find_first_empty_record_in_root_directory+0xb8>
 8011cb0:	e0bffa0b 	ldhu	r2,-24(fp)
 8011cb4:	1004c03a 	cmpne	r2,r2,zero
 8011cb8:	1000091e 	bne	r2,zero,8011ce0 <find_first_empty_record_in_root_directory+0xdc>
                {
                    result = (sector_index*16 + file_counter) << 16;
 8011cbc:	e0bffd17 	ldw	r2,-12(fp)
 8011cc0:	1006913a 	slli	r3,r2,4
 8011cc4:	e0bffb17 	ldw	r2,-20(fp)
 8011cc8:	1885883a 	add	r2,r3,r2
 8011ccc:	1004943a 	slli	r2,r2,16
 8011cd0:	e0bffc15 	stw	r2,-16(fp)
                    return result;
 8011cd4:	e0bffc17 	ldw	r2,-16(fp)
 8011cd8:	e0bfff15 	stw	r2,-4(fp)
 8011cdc:	00000e06 	br	8011d18 <find_first_empty_record_in_root_directory+0x114>
        if (Read_Sector_Data(   sector_index + boot_sector_data.root_directory_sector_offset,
                                fat_partition_offset_in_512_byte_sectors))
        {
            int file_counter;
            
            for (file_counter = 0; file_counter < 16; file_counter++)
 8011ce0:	e0bffb17 	ldw	r2,-20(fp)
 8011ce4:	10800044 	addi	r2,r2,1
 8011ce8:	e0bffb15 	stw	r2,-20(fp)
 8011cec:	e0bffb17 	ldw	r2,-20(fp)
 8011cf0:	10800410 	cmplti	r2,r2,16
 8011cf4:	103fe21e 	bne	r2,zero,8011c80 <find_first_empty_record_in_root_directory+0x7c>
{
    int max_root_dir_sectors = ((32*boot_sector_data.max_number_of_dir_entires) / boot_sector_data.sector_size_in_bytes);
    int sector_index;
    int result = -1;
    
    for (sector_index = 0; sector_index < max_root_dir_sectors; sector_index++)
 8011cf8:	e0bffd17 	ldw	r2,-12(fp)
 8011cfc:	10800044 	addi	r2,r2,1
 8011d00:	e0bffd15 	stw	r2,-12(fp)
 8011d04:	e0fffd17 	ldw	r3,-12(fp)
 8011d08:	e0bffe17 	ldw	r2,-8(fp)
 8011d0c:	18bfd016 	blt	r3,r2,8011c50 <find_first_empty_record_in_root_directory+0x4c>
        else
        {
            break;
        }
    }
    return result;
 8011d10:	e0bffc17 	ldw	r2,-16(fp)
 8011d14:	e0bfff15 	stw	r2,-4(fp)
 8011d18:	e0bfff17 	ldw	r2,-4(fp)
}
 8011d1c:	e037883a 	mov	sp,fp
 8011d20:	dfc00117 	ldw	ra,4(sp)
 8011d24:	df000017 	ldw	fp,0(sp)
 8011d28:	dec00204 	addi	sp,sp,8
 8011d2c:	f800283a 	ret

08011d30 <convert_filename_to_name_extension>:

void convert_filename_to_name_extension(char *filename, char *name, char *extension)
// This function converts the file name into a name . extension format.
{
 8011d30:	defffa04 	addi	sp,sp,-24
 8011d34:	df000515 	stw	fp,20(sp)
 8011d38:	df000504 	addi	fp,sp,20
 8011d3c:	e13ffd15 	stw	r4,-12(fp)
 8011d40:	e17ffe15 	stw	r5,-8(fp)
 8011d44:	e1bfff15 	stw	r6,-4(fp)
    int counter;
    int local = 0;
 8011d48:	e03ffb15 	stw	zero,-20(fp)
    
    for(counter = 0; counter < 8; counter++)
 8011d4c:	e03ffc15 	stw	zero,-16(fp)
 8011d50:	00002b06 	br	8011e00 <convert_filename_to_name_extension+0xd0>
    {
        if (filename[local] != '.')
 8011d54:	e0bffb17 	ldw	r2,-20(fp)
 8011d58:	1007883a 	mov	r3,r2
 8011d5c:	e0bffd17 	ldw	r2,-12(fp)
 8011d60:	1885883a 	add	r2,r3,r2
 8011d64:	10800003 	ldbu	r2,0(r2)
 8011d68:	10803fcc 	andi	r2,r2,255
 8011d6c:	1080201c 	xori	r2,r2,128
 8011d70:	10bfe004 	addi	r2,r2,-128
 8011d74:	10800ba0 	cmpeqi	r2,r2,46
 8011d78:	1000181e 	bne	r2,zero,8011ddc <convert_filename_to_name_extension+0xac>
        {
            name[counter] = filename[local];
 8011d7c:	e0bffc17 	ldw	r2,-16(fp)
 8011d80:	1007883a 	mov	r3,r2
 8011d84:	e0bffe17 	ldw	r2,-8(fp)
 8011d88:	1889883a 	add	r4,r3,r2
 8011d8c:	e0bffb17 	ldw	r2,-20(fp)
 8011d90:	1007883a 	mov	r3,r2
 8011d94:	e0bffd17 	ldw	r2,-12(fp)
 8011d98:	1885883a 	add	r2,r3,r2
 8011d9c:	10800003 	ldbu	r2,0(r2)
 8011da0:	20800005 	stb	r2,0(r4)
            if (filename[local] != 0) local++;
 8011da4:	e0bffb17 	ldw	r2,-20(fp)
 8011da8:	1007883a 	mov	r3,r2
 8011dac:	e0bffd17 	ldw	r2,-12(fp)
 8011db0:	1885883a 	add	r2,r3,r2
 8011db4:	10800003 	ldbu	r2,0(r2)
 8011db8:	10803fcc 	andi	r2,r2,255
 8011dbc:	1080201c 	xori	r2,r2,128
 8011dc0:	10bfe004 	addi	r2,r2,-128
 8011dc4:	1005003a 	cmpeq	r2,r2,zero
 8011dc8:	10000a1e 	bne	r2,zero,8011df4 <convert_filename_to_name_extension+0xc4>
 8011dcc:	e0bffb17 	ldw	r2,-20(fp)
 8011dd0:	10800044 	addi	r2,r2,1
 8011dd4:	e0bffb15 	stw	r2,-20(fp)
 8011dd8:	00000606 	br	8011df4 <convert_filename_to_name_extension+0xc4>
        }
        else
        {
            name[counter] = ' ';
 8011ddc:	e0bffc17 	ldw	r2,-16(fp)
 8011de0:	1007883a 	mov	r3,r2
 8011de4:	e0bffe17 	ldw	r2,-8(fp)
 8011de8:	1887883a 	add	r3,r3,r2
 8011dec:	00800804 	movi	r2,32
 8011df0:	18800005 	stb	r2,0(r3)
// This function converts the file name into a name . extension format.
{
    int counter;
    int local = 0;
    
    for(counter = 0; counter < 8; counter++)
 8011df4:	e0bffc17 	ldw	r2,-16(fp)
 8011df8:	10800044 	addi	r2,r2,1
 8011dfc:	e0bffc15 	stw	r2,-16(fp)
 8011e00:	e0bffc17 	ldw	r2,-16(fp)
 8011e04:	10800210 	cmplti	r2,r2,8
 8011e08:	103fd21e 	bne	r2,zero,8011d54 <convert_filename_to_name_extension+0x24>
        else
        {
            name[counter] = ' ';
        }
    }
    if (filename[local] == '.') local++;
 8011e0c:	e0bffb17 	ldw	r2,-20(fp)
 8011e10:	1007883a 	mov	r3,r2
 8011e14:	e0bffd17 	ldw	r2,-12(fp)
 8011e18:	1885883a 	add	r2,r3,r2
 8011e1c:	10800003 	ldbu	r2,0(r2)
 8011e20:	10803fcc 	andi	r2,r2,255
 8011e24:	1080201c 	xori	r2,r2,128
 8011e28:	10bfe004 	addi	r2,r2,-128
 8011e2c:	10800b98 	cmpnei	r2,r2,46
 8011e30:	1000031e 	bne	r2,zero,8011e40 <convert_filename_to_name_extension+0x110>
 8011e34:	e0bffb17 	ldw	r2,-20(fp)
 8011e38:	10800044 	addi	r2,r2,1
 8011e3c:	e0bffb15 	stw	r2,-20(fp)
    for(counter = 0; counter < 3; counter++)
 8011e40:	e03ffc15 	stw	zero,-16(fp)
 8011e44:	00002106 	br	8011ecc <convert_filename_to_name_extension+0x19c>
    {
        if (filename[local] != 0)
 8011e48:	e0bffb17 	ldw	r2,-20(fp)
 8011e4c:	1007883a 	mov	r3,r2
 8011e50:	e0bffd17 	ldw	r2,-12(fp)
 8011e54:	1885883a 	add	r2,r3,r2
 8011e58:	10800003 	ldbu	r2,0(r2)
 8011e5c:	10803fcc 	andi	r2,r2,255
 8011e60:	1080201c 	xori	r2,r2,128
 8011e64:	10bfe004 	addi	r2,r2,-128
 8011e68:	1005003a 	cmpeq	r2,r2,zero
 8011e6c:	10000e1e 	bne	r2,zero,8011ea8 <convert_filename_to_name_extension+0x178>
        {
            extension[counter] = filename[local];
 8011e70:	e0bffc17 	ldw	r2,-16(fp)
 8011e74:	1007883a 	mov	r3,r2
 8011e78:	e0bfff17 	ldw	r2,-4(fp)
 8011e7c:	1889883a 	add	r4,r3,r2
 8011e80:	e0bffb17 	ldw	r2,-20(fp)
 8011e84:	1007883a 	mov	r3,r2
 8011e88:	e0bffd17 	ldw	r2,-12(fp)
 8011e8c:	1885883a 	add	r2,r3,r2
 8011e90:	10800003 	ldbu	r2,0(r2)
 8011e94:	20800005 	stb	r2,0(r4)
            local++;
 8011e98:	e0bffb17 	ldw	r2,-20(fp)
 8011e9c:	10800044 	addi	r2,r2,1
 8011ea0:	e0bffb15 	stw	r2,-20(fp)
 8011ea4:	00000606 	br	8011ec0 <convert_filename_to_name_extension+0x190>
        }
        else
        {
            extension[counter] = ' ';
 8011ea8:	e0bffc17 	ldw	r2,-16(fp)
 8011eac:	1007883a 	mov	r3,r2
 8011eb0:	e0bfff17 	ldw	r2,-4(fp)
 8011eb4:	1887883a 	add	r3,r3,r2
 8011eb8:	00800804 	movi	r2,32
 8011ebc:	18800005 	stb	r2,0(r3)
        {
            name[counter] = ' ';
        }
    }
    if (filename[local] == '.') local++;
    for(counter = 0; counter < 3; counter++)
 8011ec0:	e0bffc17 	ldw	r2,-16(fp)
 8011ec4:	10800044 	addi	r2,r2,1
 8011ec8:	e0bffc15 	stw	r2,-16(fp)
 8011ecc:	e0bffc17 	ldw	r2,-16(fp)
 8011ed0:	108000d0 	cmplti	r2,r2,3
 8011ed4:	103fdc1e 	bne	r2,zero,8011e48 <convert_filename_to_name_extension+0x118>
        {
            extension[counter] = ' ';
        }
    }

}
 8011ed8:	e037883a 	mov	sp,fp
 8011edc:	df000017 	ldw	fp,0(sp)
 8011ee0:	dec00104 	addi	sp,sp,4
 8011ee4:	f800283a 	ret

08011ee8 <create_file>:

bool create_file(char *name, t_file_record *file_record, t_file_record *home_dir)
// Create a file in a given directory. Expand the directory if needed.
{
 8011ee8:	defff204 	addi	sp,sp,-56
 8011eec:	dfc00d15 	stw	ra,52(sp)
 8011ef0:	df000c15 	stw	fp,48(sp)
 8011ef4:	dc000b15 	stw	r16,44(sp)
 8011ef8:	df000b04 	addi	fp,sp,44
 8011efc:	e13ffb15 	stw	r4,-20(fp)
 8011f00:	e17ffc15 	stw	r5,-16(fp)
 8011f04:	e1bffd15 	stw	r6,-12(fp)
    unsigned int cluster_number;
    bool result = false;
 8011f08:	e03ff915 	stw	zero,-28(fp)
    
    if (find_first_empty_cluster(&cluster_number))
 8011f0c:	e13ffa04 	addi	r4,fp,-24
 8011f10:	80118140 	call	8011814 <find_first_empty_cluster>
 8011f14:	1005003a 	cmpeq	r2,r2,zero
 8011f18:	1000a31e 	bne	r2,zero,80121a8 <create_file+0x2c0>
    {
        int record_index;
        
        if (home_dir->file_record_cluster == 0)
 8011f1c:	e0bffd17 	ldw	r2,-12(fp)
 8011f20:	10800a17 	ldw	r2,40(r2)
 8011f24:	1004c03a 	cmpne	r2,r2,zero
 8011f28:	1000031e 	bne	r2,zero,8011f38 <create_file+0x50>
        {
            // Put a file in the root directory.
            record_index = find_first_empty_record_in_root_directory();
 8011f2c:	8011c040 	call	8011c04 <find_first_empty_record_in_root_directory>
 8011f30:	e0bff815 	stw	r2,-32(fp)
 8011f34:	00000506 	br	8011f4c <create_file+0x64>
        }
        else
        {
            // Put a file in a subdirectory.
            record_index = find_first_empty_record_in_a_subdirectory(home_dir->start_cluster_index);           
 8011f38:	e0bffd17 	ldw	r2,-12(fp)
 8011f3c:	1080058b 	ldhu	r2,22(r2)
 8011f40:	113fffcc 	andi	r4,r2,65535
 8011f44:	80119b80 	call	80119b8 <find_first_empty_record_in_a_subdirectory>
 8011f48:	e0bff815 	stw	r2,-32(fp)
        }
        if (record_index >= 0)
 8011f4c:	e0bff817 	ldw	r2,-32(fp)
 8011f50:	1004803a 	cmplt	r2,r2,zero
 8011f54:	1000941e 	bne	r2,zero,80121a8 <create_file+0x2c0>
        {   
            unsigned int file_record_sector;
            int location = get_dir_divider_location( name );
 8011f58:	e13ffb17 	ldw	r4,-20(fp)
 8011f5c:	8010af00 	call	8010af0 <get_dir_divider_location>
 8011f60:	e0bff615 	stw	r2,-40(fp)
            int last_dir_separator = 0;
 8011f64:	e03ff515 	stw	zero,-44(fp)

            // Skip through all directory separators.
            while (location > 0)
 8011f68:	00000b06 	br	8011f98 <create_file+0xb0>
            {
                last_dir_separator = last_dir_separator+location+1;
 8011f6c:	e0fff517 	ldw	r3,-44(fp)
 8011f70:	e0bff617 	ldw	r2,-40(fp)
 8011f74:	1885883a 	add	r2,r3,r2
 8011f78:	10800044 	addi	r2,r2,1
 8011f7c:	e0bff515 	stw	r2,-44(fp)
                location = get_dir_divider_location( &(name[last_dir_separator]) );
 8011f80:	e0bff517 	ldw	r2,-44(fp)
 8011f84:	1007883a 	mov	r3,r2
 8011f88:	e0bffb17 	ldw	r2,-20(fp)
 8011f8c:	1889883a 	add	r4,r3,r2
 8011f90:	8010af00 	call	8010af0 <get_dir_divider_location>
 8011f94:	e0bff615 	stw	r2,-40(fp)
            unsigned int file_record_sector;
            int location = get_dir_divider_location( name );
            int last_dir_separator = 0;

            // Skip through all directory separators.
            while (location > 0)
 8011f98:	e0bff617 	ldw	r2,-40(fp)
 8011f9c:	10800048 	cmpgei	r2,r2,1
 8011fa0:	103ff21e 	bne	r2,zero,8011f6c <create_file+0x84>
            {
                last_dir_separator = last_dir_separator+location+1;
                location = get_dir_divider_location( &(name[last_dir_separator]) );
            }
            
            convert_filename_to_name_extension(&(name[last_dir_separator]), file_record->name, file_record->extension);
 8011fa4:	e0bff517 	ldw	r2,-44(fp)
 8011fa8:	1007883a 	mov	r3,r2
 8011fac:	e0bffb17 	ldw	r2,-20(fp)
 8011fb0:	1889883a 	add	r4,r3,r2
 8011fb4:	e0bffc17 	ldw	r2,-16(fp)
 8011fb8:	100b883a 	mov	r5,r2
 8011fbc:	e0bffc17 	ldw	r2,-16(fp)
 8011fc0:	10800204 	addi	r2,r2,8
 8011fc4:	100d883a 	mov	r6,r2
 8011fc8:	8011d300 	call	8011d30 <convert_filename_to_name_extension>
                         
            file_record->attributes = 0;
 8011fcc:	e0bffc17 	ldw	r2,-16(fp)
 8011fd0:	100002c5 	stb	zero,11(r2)
            file_record->create_time = 0;
 8011fd4:	e0bffc17 	ldw	r2,-16(fp)
 8011fd8:	1000030d 	sth	zero,12(r2)
            file_record->create_date = 0;
 8011fdc:	e0bffc17 	ldw	r2,-16(fp)
 8011fe0:	1000038d 	sth	zero,14(r2)
            file_record->last_access_date = 0;
 8011fe4:	e0bffc17 	ldw	r2,-16(fp)
 8011fe8:	1000040d 	sth	zero,16(r2)
            file_record->last_modified_time = 0;
 8011fec:	e0bffc17 	ldw	r2,-16(fp)
 8011ff0:	1000048d 	sth	zero,18(r2)
            file_record->last_modified_date = 0;
 8011ff4:	e0bffc17 	ldw	r2,-16(fp)
 8011ff8:	1000050d 	sth	zero,20(r2)
            file_record->start_cluster_index = cluster_number;
 8011ffc:	e0bffa17 	ldw	r2,-24(fp)
 8012000:	1007883a 	mov	r3,r2
 8012004:	e0bffc17 	ldw	r2,-16(fp)
 8012008:	10c0058d 	sth	r3,22(r2)
            file_record->file_size_in_bytes = 0;
 801200c:	e0bffc17 	ldw	r2,-16(fp)
 8012010:	10000615 	stw	zero,24(r2)
            file_record->current_cluster_index = cluster_number;
 8012014:	e0fffa17 	ldw	r3,-24(fp)
 8012018:	e0bffc17 	ldw	r2,-16(fp)
 801201c:	10c00715 	stw	r3,28(r2)
            file_record->current_sector_in_cluster = 0;
 8012020:	e0bffc17 	ldw	r2,-16(fp)
 8012024:	10000815 	stw	zero,32(r2)
            file_record->current_byte_position = 0;
 8012028:	e0bffc17 	ldw	r2,-16(fp)
 801202c:	10000915 	stw	zero,36(r2)
            file_record->file_record_cluster = record_index & 0x0000ffff;
 8012030:	e0bff817 	ldw	r2,-32(fp)
 8012034:	10ffffcc 	andi	r3,r2,65535
 8012038:	e0bffc17 	ldw	r2,-16(fp)
 801203c:	10c00a15 	stw	r3,40(r2)
            file_record->file_record_sector_in_cluster = ((record_index >> 16) & 0x0000ffff) / 16;
 8012040:	e0bff817 	ldw	r2,-32(fp)
 8012044:	1005d43a 	srai	r2,r2,16
 8012048:	10bfffcc 	andi	r2,r2,65535
 801204c:	e0bfff15 	stw	r2,-4(fp)
 8012050:	e0ffff17 	ldw	r3,-4(fp)
 8012054:	1804403a 	cmpge	r2,r3,zero
 8012058:	1000031e 	bne	r2,zero,8012068 <create_file+0x180>
 801205c:	e0bfff17 	ldw	r2,-4(fp)
 8012060:	108003c4 	addi	r2,r2,15
 8012064:	e0bfff15 	stw	r2,-4(fp)
 8012068:	e0ffff17 	ldw	r3,-4(fp)
 801206c:	1805d13a 	srai	r2,r3,4
 8012070:	1007883a 	mov	r3,r2
 8012074:	e0bffc17 	ldw	r2,-16(fp)
 8012078:	10c00b15 	stw	r3,44(r2)
            file_record->file_record_offset = (((record_index >> 16) & 0x0000ffff) % 16)*32;   
 801207c:	e0bff817 	ldw	r2,-32(fp)
 8012080:	1005d43a 	srai	r2,r2,16
 8012084:	108003cc 	andi	r2,r2,15
 8012088:	1004917a 	slli	r2,r2,5
 801208c:	1007883a 	mov	r3,r2
 8012090:	e0bffc17 	ldw	r2,-16(fp)
 8012094:	10c00c0d 	sth	r3,48(r2)
            file_record->home_directory_cluster = home_dir->start_cluster_index;
 8012098:	e0bffd17 	ldw	r2,-12(fp)
 801209c:	1080058b 	ldhu	r2,22(r2)
 80120a0:	10ffffcc 	andi	r3,r2,65535
 80120a4:	e0bffc17 	ldw	r2,-16(fp)
 80120a8:	10c00d15 	stw	r3,52(r2)
            file_record->in_use = true;
 80120ac:	e0fffc17 	ldw	r3,-16(fp)
 80120b0:	00800044 	movi	r2,1
 80120b4:	18800f15 	stw	r2,60(r3)
            file_record->modified = true;
 80120b8:	e0fffc17 	ldw	r3,-16(fp)
 80120bc:	00800044 	movi	r2,1
 80120c0:	18800e15 	stw	r2,56(r3)
            // Now write the record at the specified location.
            file_record_sector = (file_record->file_record_cluster == 0) ? 
 80120c4:	e0bffc17 	ldw	r2,-16(fp)
 80120c8:	10800a17 	ldw	r2,40(r2)
 80120cc:	1004c03a 	cmpne	r2,r2,zero
 80120d0:	1000081e 	bne	r2,zero,80120f4 <create_file+0x20c>
 80120d4:	008200b4 	movhi	r2,2050
 80120d8:	10a26104 	addi	r2,r2,-30332
 80120dc:	10c01317 	ldw	r3,76(r2)
 80120e0:	e0bffc17 	ldw	r2,-16(fp)
 80120e4:	10800b17 	ldw	r2,44(r2)
 80120e8:	1887883a 	add	r3,r3,r2
 80120ec:	e0fffe15 	stw	r3,-8(fp)
 80120f0:	00001006 	br	8012134 <create_file+0x24c>
 80120f4:	008200b4 	movhi	r2,2050
 80120f8:	10a26104 	addi	r2,r2,-30332
 80120fc:	14001417 	ldw	r16,80(r2)
 8012100:	e0bffc17 	ldw	r2,-16(fp)
 8012104:	10800a17 	ldw	r2,40(r2)
 8012108:	113fff84 	addi	r4,r2,-2
 801210c:	008200b4 	movhi	r2,2050
 8012110:	10a26104 	addi	r2,r2,-30332
 8012114:	10800383 	ldbu	r2,14(r2)
 8012118:	11403fcc 	andi	r5,r2,255
 801211c:	800d84c0 	call	800d84c <__mulsi3>
 8012120:	8087883a 	add	r3,r16,r2
 8012124:	e0bffc17 	ldw	r2,-16(fp)
 8012128:	10800b17 	ldw	r2,44(r2)
 801212c:	1887883a 	add	r3,r3,r2
 8012130:	e0fffe15 	stw	r3,-8(fp)
 8012134:	e0bffe17 	ldw	r2,-8(fp)
 8012138:	e0bff715 	stw	r2,-36(fp)
                                    (boot_sector_data.root_directory_sector_offset + file_record->file_record_sector_in_cluster):  
                                    (boot_sector_data.data_sector_offset + (file_record->file_record_cluster-2)*boot_sector_data.sectors_per_cluster +
                                     file_record->file_record_sector_in_cluster);

			if (Read_Sector_Data(file_record_sector, fat_partition_offset_in_512_byte_sectors))
 801213c:	e13ff717 	ldw	r4,-36(fp)
 8012140:	d166c717 	ldw	r5,-25828(gp)
 8012144:	800f6cc0 	call	800f6cc <Read_Sector_Data>
 8012148:	1005003a 	cmpeq	r2,r2,zero
 801214c:	1000161e 	bne	r2,zero,80121a8 <create_file+0x2c0>
            {
                if (Write_File_Record_At_Offset(file_record->file_record_offset, file_record))
 8012150:	e0bffc17 	ldw	r2,-16(fp)
 8012154:	10800c0b 	ldhu	r2,48(r2)
 8012158:	113fffcc 	andi	r4,r2,65535
 801215c:	2120001c 	xori	r4,r4,32768
 8012160:	21200004 	addi	r4,r4,-32768
 8012164:	e17ffc17 	ldw	r5,-16(fp)
 8012168:	800fd980 	call	800fd98 <Write_File_Record_At_Offset>
 801216c:	1005003a 	cmpeq	r2,r2,zero
 8012170:	10000d1e 	bne	r2,zero,80121a8 <create_file+0x2c0>
                {
                    Save_Modified_Sector();
 8012174:	800f67c0 	call	800f67c <Save_Modified_Sector>
                    // Mark the first cluster of the file as the last cluster at first.
                    mark_cluster(cluster_number, ((short int) (0xffff)), true);
 8012178:	e13ffa17 	ldw	r4,-24(fp)
 801217c:	017fffc4 	movi	r5,-1
 8012180:	01800044 	movi	r6,1
 8012184:	800f8800 	call	800f880 <mark_cluster>
                    if (mark_cluster(cluster_number, ((short int) (0xffff)), false))
 8012188:	e13ffa17 	ldw	r4,-24(fp)
 801218c:	017fffc4 	movi	r5,-1
 8012190:	000d883a 	mov	r6,zero
 8012194:	800f8800 	call	800f880 <mark_cluster>
 8012198:	1005003a 	cmpeq	r2,r2,zero
 801219c:	1000021e 	bne	r2,zero,80121a8 <create_file+0x2c0>
                    {
                        result = true;
 80121a0:	00800044 	movi	r2,1
 80121a4:	e0bff915 	stw	r2,-28(fp)
                }
            }
        }

    }
    return result;           
 80121a8:	e0bff917 	ldw	r2,-28(fp)
}
 80121ac:	e037883a 	mov	sp,fp
 80121b0:	dfc00217 	ldw	ra,8(sp)
 80121b4:	df000117 	ldw	fp,4(sp)
 80121b8:	dc000017 	ldw	r16,0(sp)
 80121bc:	dec00304 	addi	sp,sp,12
 80121c0:	f800283a 	ret

080121c4 <copy_file_record_name_to_string>:


void copy_file_record_name_to_string(t_file_record *file_record, char *file_name)
/* Copy a file name from the file record to a given string */
{
 80121c4:	defffb04 	addi	sp,sp,-20
 80121c8:	df000415 	stw	fp,16(sp)
 80121cc:	df000404 	addi	fp,sp,16
 80121d0:	e13ffe15 	stw	r4,-8(fp)
 80121d4:	e17fff15 	stw	r5,-4(fp)
	int index;
	int flength = 0;
 80121d8:	e03ffc15 	stw	zero,-16(fp)

	/* Copy file name.*/
	for (index = 0; index < 8; index++)
 80121dc:	e03ffd15 	stw	zero,-12(fp)
 80121e0:	00001606 	br	801223c <copy_file_record_name_to_string+0x78>
	{
		if (file_record->name[index] != ' ')
 80121e4:	e0fffd17 	ldw	r3,-12(fp)
 80121e8:	e0bffe17 	ldw	r2,-8(fp)
 80121ec:	10c5883a 	add	r2,r2,r3
 80121f0:	10800003 	ldbu	r2,0(r2)
 80121f4:	10803fcc 	andi	r2,r2,255
 80121f8:	10800820 	cmpeqi	r2,r2,32
 80121fc:	10000c1e 	bne	r2,zero,8012230 <copy_file_record_name_to_string+0x6c>
		{
			file_name[flength] = file_record->name[index];
 8012200:	e0bffc17 	ldw	r2,-16(fp)
 8012204:	1007883a 	mov	r3,r2
 8012208:	e0bfff17 	ldw	r2,-4(fp)
 801220c:	1889883a 	add	r4,r3,r2
 8012210:	e0fffd17 	ldw	r3,-12(fp)
 8012214:	e0bffe17 	ldw	r2,-8(fp)
 8012218:	10c5883a 	add	r2,r2,r3
 801221c:	10800003 	ldbu	r2,0(r2)
 8012220:	20800005 	stb	r2,0(r4)
			flength = flength + 1;
 8012224:	e0bffc17 	ldw	r2,-16(fp)
 8012228:	10800044 	addi	r2,r2,1
 801222c:	e0bffc15 	stw	r2,-16(fp)
{
	int index;
	int flength = 0;

	/* Copy file name.*/
	for (index = 0; index < 8; index++)
 8012230:	e0bffd17 	ldw	r2,-12(fp)
 8012234:	10800044 	addi	r2,r2,1
 8012238:	e0bffd15 	stw	r2,-12(fp)
 801223c:	e0bffd17 	ldw	r2,-12(fp)
 8012240:	10800210 	cmplti	r2,r2,8
 8012244:	103fe71e 	bne	r2,zero,80121e4 <copy_file_record_name_to_string+0x20>
		{
			file_name[flength] = file_record->name[index];
			flength = flength + 1;
		}
	}
	if (file_record->extension[0] != ' ')
 8012248:	e0bffe17 	ldw	r2,-8(fp)
 801224c:	10800203 	ldbu	r2,8(r2)
 8012250:	10803fcc 	andi	r2,r2,255
 8012254:	10800820 	cmpeqi	r2,r2,32
 8012258:	1000261e 	bne	r2,zero,80122f4 <copy_file_record_name_to_string+0x130>
	{
		file_name[flength] = '.';
 801225c:	e0bffc17 	ldw	r2,-16(fp)
 8012260:	1007883a 	mov	r3,r2
 8012264:	e0bfff17 	ldw	r2,-4(fp)
 8012268:	1887883a 	add	r3,r3,r2
 801226c:	00800b84 	movi	r2,46
 8012270:	18800005 	stb	r2,0(r3)
		flength = flength + 1;
 8012274:	e0bffc17 	ldw	r2,-16(fp)
 8012278:	10800044 	addi	r2,r2,1
 801227c:	e0bffc15 	stw	r2,-16(fp)
		for (index = 0; index < 3; index++)
 8012280:	e03ffd15 	stw	zero,-12(fp)
 8012284:	00001806 	br	80122e8 <copy_file_record_name_to_string+0x124>
		{
			if (file_record->extension[index] != ' ')
 8012288:	e0fffd17 	ldw	r3,-12(fp)
 801228c:	e0bffe17 	ldw	r2,-8(fp)
 8012290:	1885883a 	add	r2,r3,r2
 8012294:	10800204 	addi	r2,r2,8
 8012298:	10800003 	ldbu	r2,0(r2)
 801229c:	10803fcc 	andi	r2,r2,255
 80122a0:	10800820 	cmpeqi	r2,r2,32
 80122a4:	10000d1e 	bne	r2,zero,80122dc <copy_file_record_name_to_string+0x118>
			{
				file_name[flength] = file_record->extension[index];
 80122a8:	e0bffc17 	ldw	r2,-16(fp)
 80122ac:	1007883a 	mov	r3,r2
 80122b0:	e0bfff17 	ldw	r2,-4(fp)
 80122b4:	1889883a 	add	r4,r3,r2
 80122b8:	e0fffd17 	ldw	r3,-12(fp)
 80122bc:	e0bffe17 	ldw	r2,-8(fp)
 80122c0:	1885883a 	add	r2,r3,r2
 80122c4:	10800204 	addi	r2,r2,8
 80122c8:	10800003 	ldbu	r2,0(r2)
 80122cc:	20800005 	stb	r2,0(r4)
				flength = flength + 1;
 80122d0:	e0bffc17 	ldw	r2,-16(fp)
 80122d4:	10800044 	addi	r2,r2,1
 80122d8:	e0bffc15 	stw	r2,-16(fp)
	}
	if (file_record->extension[0] != ' ')
	{
		file_name[flength] = '.';
		flength = flength + 1;
		for (index = 0; index < 3; index++)
 80122dc:	e0bffd17 	ldw	r2,-12(fp)
 80122e0:	10800044 	addi	r2,r2,1
 80122e4:	e0bffd15 	stw	r2,-12(fp)
 80122e8:	e0bffd17 	ldw	r2,-12(fp)
 80122ec:	108000d0 	cmplti	r2,r2,3
 80122f0:	103fe51e 	bne	r2,zero,8012288 <copy_file_record_name_to_string+0xc4>
				file_name[flength] = file_record->extension[index];
				flength = flength + 1;
			}
		}
	}
	file_name[flength] = 0;
 80122f4:	e0bffc17 	ldw	r2,-16(fp)
 80122f8:	1007883a 	mov	r3,r2
 80122fc:	e0bfff17 	ldw	r2,-4(fp)
 8012300:	1885883a 	add	r2,r3,r2
 8012304:	10000005 	stb	zero,0(r2)
}
 8012308:	e037883a 	mov	sp,fp
 801230c:	df000017 	ldw	fp,0(sp)
 8012310:	dec00104 	addi	sp,sp,4
 8012314:	f800283a 	ret

08012318 <alt_up_sd_card_open_dev>:
// Direct functions
///////////////////////////////////////////////////////////////////////////


alt_up_sd_card_dev* alt_up_sd_card_open_dev(const char* name)
{
 8012318:	defffc04 	addi	sp,sp,-16
 801231c:	dfc00315 	stw	ra,12(sp)
 8012320:	df000215 	stw	fp,8(sp)
 8012324:	df000204 	addi	fp,sp,8
 8012328:	e13fff15 	stw	r4,-4(fp)
	// find the device from the device list 
	// (see altera_hal/HAL/inc/priv/alt_file.h 
	// and altera_hal/HAL/src/alt_find_dev.c 
	// for details)
	alt_up_sd_card_dev *dev = (alt_up_sd_card_dev *) alt_find_dev(name, &alt_dev_list);
 801232c:	e13fff17 	ldw	r4,-4(fp)
 8012330:	01420074 	movhi	r5,2049
 8012334:	295b8b04 	addi	r5,r5,28204
 8012338:	8013d480 	call	8013d48 <alt_find_dev>
 801233c:	e0bffe15 	stw	r2,-8(fp)

	if (dev != NULL)
 8012340:	e0bffe17 	ldw	r2,-8(fp)
 8012344:	1005003a 	cmpeq	r2,r2,zero
 8012348:	10001e1e 	bne	r2,zero,80123c4 <alt_up_sd_card_open_dev+0xac>
	{
		aux_status_register = ((short int *) SD_CARD_AUX_STATUS(dev->base));
 801234c:	e0bffe17 	ldw	r2,-8(fp)
 8012350:	10800a17 	ldw	r2,40(r2)
 8012354:	10808d04 	addi	r2,r2,564
 8012358:	d0a6c115 	stw	r2,-25852(gp)
		status_register = ((int *) SD_CARD_STATUS(dev->base));
 801235c:	e0bffe17 	ldw	r2,-8(fp)
 8012360:	10800a17 	ldw	r2,40(r2)
 8012364:	10808904 	addi	r2,r2,548
 8012368:	d0a6c215 	stw	r2,-25848(gp)
		CSD_register_w0 = ((short int *) SD_CARD_CSD(dev->base, 0));
 801236c:	e0bffe17 	ldw	r2,-8(fp)
 8012370:	10800a17 	ldw	r2,40(r2)
 8012374:	10808404 	addi	r2,r2,528
 8012378:	d0a6c315 	stw	r2,-25844(gp)
		command_register = ((short int *) SD_CARD_COMMAND(dev->base));
 801237c:	e0bffe17 	ldw	r2,-8(fp)
 8012380:	10800a17 	ldw	r2,40(r2)
 8012384:	10808c04 	addi	r2,r2,560
 8012388:	d0a6c415 	stw	r2,-25840(gp)
		command_argument_register = ((int *) SD_CARD_ARGUMENT(dev->base));
 801238c:	e0bffe17 	ldw	r2,-8(fp)
 8012390:	10800a17 	ldw	r2,40(r2)
 8012394:	10808b04 	addi	r2,r2,556
 8012398:	d0a6c515 	stw	r2,-25836(gp)
		buffer_memory = (char *) SD_CARD_BUFFER(dev->base, 0);
 801239c:	e0bffe17 	ldw	r2,-8(fp)
 80123a0:	10800a17 	ldw	r2,40(r2)
 80123a4:	d0a6c615 	stw	r2,-25832(gp)
		device_pointer = dev;
 80123a8:	e0bffe17 	ldw	r2,-8(fp)
 80123ac:	d0a6c915 	stw	r2,-25820(gp)
		initialized = false;
 80123b0:	d026bf15 	stw	zero,-25860(gp)
		is_sd_card_formated_as_FAT16 = false;
 80123b4:	d026c015 	stw	zero,-25856(gp)
		search_data.valid = false;
 80123b8:	008200b4 	movhi	r2,2050
 80123bc:	10a25c04 	addi	r2,r2,-30352
 80123c0:	10000415 	stw	zero,16(r2)
	}
	return dev;
 80123c4:	e0bffe17 	ldw	r2,-8(fp)
}
 80123c8:	e037883a 	mov	sp,fp
 80123cc:	dfc00117 	ldw	ra,4(sp)
 80123d0:	df000017 	ldw	fp,0(sp)
 80123d4:	dec00204 	addi	sp,sp,8
 80123d8:	f800283a 	ret

080123dc <alt_up_sd_card_is_Present>:


bool alt_up_sd_card_is_Present(void)
// Check if there is an SD Card insterted into the SD Card socket.
{
 80123dc:	defffd04 	addi	sp,sp,-12
 80123e0:	df000215 	stw	fp,8(sp)
 80123e4:	df000204 	addi	fp,sp,8
    bool result = false;
 80123e8:	e03fff15 	stw	zero,-4(fp)

    if ((device_pointer != NULL) && ((IORD_16DIRECT(aux_status_register,0) & 0x02) != 0))
 80123ec:	d0a6c917 	ldw	r2,-25820(gp)
 80123f0:	1005003a 	cmpeq	r2,r2,zero
 80123f4:	1000081e 	bne	r2,zero,8012418 <alt_up_sd_card_is_Present+0x3c>
 80123f8:	d0a6c117 	ldw	r2,-25852(gp)
 80123fc:	1080002b 	ldhuio	r2,0(r2)
 8012400:	1080008c 	andi	r2,r2,2
 8012404:	1005003a 	cmpeq	r2,r2,zero
 8012408:	1000031e 	bne	r2,zero,8012418 <alt_up_sd_card_is_Present+0x3c>
    {
        result = true;
 801240c:	00800044 	movi	r2,1
 8012410:	e0bfff15 	stw	r2,-4(fp)
bool alt_up_sd_card_is_Present(void)
// Check if there is an SD Card insterted into the SD Card socket.
{
    bool result = false;

    if ((device_pointer != NULL) && ((IORD_16DIRECT(aux_status_register,0) & 0x02) != 0))
 8012414:	00001e06 	br	8012490 <alt_up_sd_card_is_Present+0xb4>
    {
        result = true;
    }
	else if (initialized == true)
 8012418:	d0a6bf17 	ldw	r2,-25860(gp)
 801241c:	10800058 	cmpnei	r2,r2,1
 8012420:	10001b1e 	bne	r2,zero,8012490 <alt_up_sd_card_is_Present+0xb4>
	{
		int index;

		initialized = false;
 8012424:	d026bf15 	stw	zero,-25860(gp)
		search_data.valid = false;
 8012428:	008200b4 	movhi	r2,2050
 801242c:	10a25c04 	addi	r2,r2,-30352
 8012430:	10000415 	stw	zero,16(r2)
		is_sd_card_formated_as_FAT16 = false;
 8012434:	d026c015 	stw	zero,-25856(gp)

		for(index = 0; index < MAX_FILES_OPENED; index++)
 8012438:	e03ffe15 	stw	zero,-8(fp)
 801243c:	00001106 	br	8012484 <alt_up_sd_card_is_Present+0xa8>
		{
			active_files[index].in_use = false;
 8012440:	e0bffe17 	ldw	r2,-8(fp)
 8012444:	00c200b4 	movhi	r3,2050
 8012448:	18e27604 	addi	r3,r3,-30248
 801244c:	100491ba 	slli	r2,r2,6
 8012450:	10c5883a 	add	r2,r2,r3
 8012454:	10800f04 	addi	r2,r2,60
 8012458:	10000015 	stw	zero,0(r2)
			active_files[index].modified = false;
 801245c:	e0bffe17 	ldw	r2,-8(fp)
 8012460:	00c200b4 	movhi	r3,2050
 8012464:	18e27604 	addi	r3,r3,-30248
 8012468:	100491ba 	slli	r2,r2,6
 801246c:	10c5883a 	add	r2,r2,r3
 8012470:	10800e04 	addi	r2,r2,56
 8012474:	10000015 	stw	zero,0(r2)

		initialized = false;
		search_data.valid = false;
		is_sd_card_formated_as_FAT16 = false;

		for(index = 0; index < MAX_FILES_OPENED; index++)
 8012478:	e0bffe17 	ldw	r2,-8(fp)
 801247c:	10800044 	addi	r2,r2,1
 8012480:	e0bffe15 	stw	r2,-8(fp)
 8012484:	e0bffe17 	ldw	r2,-8(fp)
 8012488:	10800510 	cmplti	r2,r2,20
 801248c:	103fec1e 	bne	r2,zero,8012440 <alt_up_sd_card_is_Present+0x64>
		{
			active_files[index].in_use = false;
			active_files[index].modified = false;
		}
	}
    return result;
 8012490:	e0bfff17 	ldw	r2,-4(fp)
}
 8012494:	e037883a 	mov	sp,fp
 8012498:	df000017 	ldw	fp,0(sp)
 801249c:	dec00104 	addi	sp,sp,4
 80124a0:	f800283a 	ret

080124a4 <alt_up_sd_card_is_FAT16>:
/* This function reads the SD card data in an effort to determine if the card is formated as a FAT16
 * volume. Please note that FAT12 has a similar format, but will not be supported by this driver.
 * If the card contains a FAT16 volume, the local data structures will be initialized to allow reading and writing
 * to the SD card as though it was a hard drive.
 */
{
 80124a4:	defffd04 	addi	sp,sp,-12
 80124a8:	dfc00215 	stw	ra,8(sp)
 80124ac:	df000115 	stw	fp,4(sp)
 80124b0:	df000104 	addi	fp,sp,4
	bool result = false;
 80124b4:	e03fff15 	stw	zero,-4(fp)

	if (alt_up_sd_card_is_Present())
 80124b8:	80123dc0 	call	80123dc <alt_up_sd_card_is_Present>
 80124bc:	1005003a 	cmpeq	r2,r2,zero
 80124c0:	10000d1e 	bne	r2,zero,80124f8 <alt_up_sd_card_is_FAT16+0x54>
	{
		// Check if an SD Card is in the SD Card slot.
		if (initialized == false)
 80124c4:	d0a6bf17 	ldw	r2,-25860(gp)
 80124c8:	1004c03a 	cmpne	r2,r2,zero
 80124cc:	1000071e 	bne	r2,zero,80124ec <alt_up_sd_card_is_FAT16+0x48>
		{
			// Now determine if the card is formatted as FAT 16.
			is_sd_card_formated_as_FAT16 = Look_for_FAT16();
 80124d0:	80106980 	call	8010698 <Look_for_FAT16>
 80124d4:	d0a6c015 	stw	r2,-25856(gp)
			initialized = is_sd_card_formated_as_FAT16;
 80124d8:	d0a6c017 	ldw	r2,-25856(gp)
 80124dc:	d0a6bf15 	stw	r2,-25860(gp)
			search_data.valid = false;
 80124e0:	008200b4 	movhi	r2,2050
 80124e4:	10a25c04 	addi	r2,r2,-30352
 80124e8:	10000415 	stw	zero,16(r2)
		}
		result = is_sd_card_formated_as_FAT16;
 80124ec:	d0a6c017 	ldw	r2,-25856(gp)
 80124f0:	e0bfff15 	stw	r2,-4(fp)
 80124f4:	00000206 	br	8012500 <alt_up_sd_card_is_FAT16+0x5c>
	}
	else
	{
		// If not then you may as well not open the device.
		initialized = false;
 80124f8:	d026bf15 	stw	zero,-25860(gp)
		is_sd_card_formated_as_FAT16 = false;
 80124fc:	d026c015 	stw	zero,-25856(gp)
	}

	return result;
 8012500:	e0bfff17 	ldw	r2,-4(fp)
}
 8012504:	e037883a 	mov	sp,fp
 8012508:	dfc00117 	ldw	ra,4(sp)
 801250c:	df000017 	ldw	fp,0(sp)
 8012510:	dec00204 	addi	sp,sp,8
 8012514:	f800283a 	ret

08012518 <alt_up_sd_card_find_first>:
 * "first/sub/." - look through a directory named "sub", that is located within the subdirectory named "first". "first" is located in the root directory.
 * Invalid examples include:
 * "/.", "/////." - this is not the root directory.
 * "/first/." - the first character may not be a '/'.
 */
{
 8012518:	deffea04 	addi	sp,sp,-88
 801251c:	dfc01515 	stw	ra,84(sp)
 8012520:	df001415 	stw	fp,80(sp)
 8012524:	df001404 	addi	fp,sp,80
 8012528:	e13ffe15 	stw	r4,-8(fp)
 801252c:	e17fff15 	stw	r5,-4(fp)
	short int result = 2;
 8012530:	00800084 	movi	r2,2
 8012534:	e0bfec0d 	sth	r2,-80(fp)
	if ((alt_up_sd_card_is_Present()) && (is_sd_card_formated_as_FAT16))
 8012538:	80123dc0 	call	80123dc <alt_up_sd_card_is_Present>
 801253c:	1005003a 	cmpeq	r2,r2,zero
 8012540:	1000241e 	bne	r2,zero,80125d4 <alt_up_sd_card_find_first+0xbc>
 8012544:	d0a6c017 	ldw	r2,-25856(gp)
 8012548:	1005003a 	cmpeq	r2,r2,zero
 801254c:	1000211e 	bne	r2,zero,80125d4 <alt_up_sd_card_find_first+0xbc>
	{
		int home_directory_cluster;
		t_file_record file_record;

		if (get_home_directory_cluster_for_file(directory_to_search_through, &home_directory_cluster, &file_record))
 8012550:	e17fed04 	addi	r5,fp,-76
 8012554:	e1bfee04 	addi	r6,fp,-72
 8012558:	e13ffe17 	ldw	r4,-8(fp)
 801255c:	8010e9c0 	call	8010e9c <get_home_directory_cluster_for_file>
 8012560:	1005003a 	cmpeq	r2,r2,zero
 8012564:	1000191e 	bne	r2,zero,80125cc <alt_up_sd_card_find_first+0xb4>
		{
			search_data.directory_root_cluster = home_directory_cluster;
 8012568:	e0bfed17 	ldw	r2,-76(fp)
 801256c:	1007883a 	mov	r3,r2
 8012570:	008200b4 	movhi	r2,2050
 8012574:	10a25c04 	addi	r2,r2,-30352
 8012578:	10c00015 	stw	r3,0(r2)
			search_data.current_cluster_index = home_directory_cluster;
 801257c:	e0bfed17 	ldw	r2,-76(fp)
 8012580:	1007883a 	mov	r3,r2
 8012584:	008200b4 	movhi	r2,2050
 8012588:	10a25c04 	addi	r2,r2,-30352
 801258c:	10c00115 	stw	r3,4(r2)
			search_data.current_sector_in_cluster = 0;
 8012590:	008200b4 	movhi	r2,2050
 8012594:	10a25c04 	addi	r2,r2,-30352
 8012598:	10000215 	stw	zero,8(r2)
			search_data.file_index_in_sector = -1;
 801259c:	00c200b4 	movhi	r3,2050
 80125a0:	18e25c04 	addi	r3,r3,-30352
 80125a4:	00bfffc4 	movi	r2,-1
 80125a8:	1880030d 	sth	r2,12(r3)
			search_data.valid = true;
 80125ac:	00c200b4 	movhi	r3,2050
 80125b0:	18e25c04 	addi	r3,r3,-30352
 80125b4:	00800044 	movi	r2,1
 80125b8:	18800415 	stw	r2,16(r3)
			result = alt_up_sd_card_find_next(file_name);
 80125bc:	e13fff17 	ldw	r4,-4(fp)
 80125c0:	80125ec0 	call	80125ec <alt_up_sd_card_find_next>
 80125c4:	e0bfec0d 	sth	r2,-80(fp)
 80125c8:	00000206 	br	80125d4 <alt_up_sd_card_find_first+0xbc>
		}
		else
		{
			result = 1;
 80125cc:	00800044 	movi	r2,1
 80125d0:	e0bfec0d 	sth	r2,-80(fp)
		}
	}
	return result;
 80125d4:	e0bfec0f 	ldh	r2,-80(fp)
}
 80125d8:	e037883a 	mov	sp,fp
 80125dc:	dfc00117 	ldw	ra,4(sp)
 80125e0:	df000017 	ldw	fp,0(sp)
 80125e4:	dec00204 	addi	sp,sp,8
 80125e8:	f800283a 	ret

080125ec <alt_up_sd_card_find_next>:
 *		-1 - end of directory.
 *		0 - success
 *		2 - No card or incorrect card format.
 *		3 - find_first has not been called successfully.
 */
{
 80125ec:	deffe404 	addi	sp,sp,-112
 80125f0:	dfc01b15 	stw	ra,108(sp)
 80125f4:	df001a15 	stw	fp,104(sp)
 80125f8:	df001a04 	addi	fp,sp,104
 80125fc:	e13ffe15 	stw	r4,-8(fp)
	short int result = 2;
 8012600:	00800084 	movi	r2,2
 8012604:	e0bfed0d 	sth	r2,-76(fp)
	if ((alt_up_sd_card_is_Present()) && (is_sd_card_formated_as_FAT16))
 8012608:	80123dc0 	call	80123dc <alt_up_sd_card_is_Present>
 801260c:	1005003a 	cmpeq	r2,r2,zero
 8012610:	1000da1e 	bne	r2,zero,801297c <alt_up_sd_card_find_next+0x390>
 8012614:	d0a6c017 	ldw	r2,-25856(gp)
 8012618:	1005003a 	cmpeq	r2,r2,zero
 801261c:	1000d71e 	bne	r2,zero,801297c <alt_up_sd_card_find_next+0x390>
	{
		if (search_data.valid)
 8012620:	008200b4 	movhi	r2,2050
 8012624:	10a25c04 	addi	r2,r2,-30352
 8012628:	10800417 	ldw	r2,16(r2)
 801262c:	1005003a 	cmpeq	r2,r2,zero
 8012630:	1000d01e 	bne	r2,zero,8012974 <alt_up_sd_card_find_next+0x388>
		{
			t_file_record file_record;
			int cluster = search_data.current_cluster_index;
 8012634:	008200b4 	movhi	r2,2050
 8012638:	10a25c04 	addi	r2,r2,-30352
 801263c:	10800117 	ldw	r2,4(r2)
 8012640:	e0bfec15 	stw	r2,-80(fp)

			if (cluster == 0)
 8012644:	e0bfec17 	ldw	r2,-80(fp)
 8012648:	1004c03a 	cmpne	r2,r2,zero
 801264c:	1000511e 	bne	r2,zero,8012794 <alt_up_sd_card_find_next+0x1a8>
			{
				// Searching through the root directory
				int max_root_dir_sectors = ((32*boot_sector_data.max_number_of_dir_entires) / boot_sector_data.sector_size_in_bytes);
 8012650:	008200b4 	movhi	r2,2050
 8012654:	10a26104 	addi	r2,r2,-30332
 8012658:	1080050b 	ldhu	r2,20(r2)
 801265c:	10bfffcc 	andi	r2,r2,65535
 8012660:	1008917a 	slli	r4,r2,5
 8012664:	008200b4 	movhi	r2,2050
 8012668:	10a26104 	addi	r2,r2,-30332
 801266c:	1080030b 	ldhu	r2,12(r2)
 8012670:	117fffcc 	andi	r5,r2,65535
 8012674:	800d77c0 	call	800d77c <__divsi3>
 8012678:	e0bfeb15 	stw	r2,-84(fp)
				int sector_index = search_data.current_sector_in_cluster;
 801267c:	008200b4 	movhi	r2,2050
 8012680:	10a25c04 	addi	r2,r2,-30352
 8012684:	10800217 	ldw	r2,8(r2)
 8012688:	e0bfea15 	stw	r2,-88(fp)
				int file_counter = search_data.file_index_in_sector+1;
 801268c:	008200b4 	movhi	r2,2050
 8012690:	10a25c04 	addi	r2,r2,-30352
 8012694:	1080030b 	ldhu	r2,12(r2)
 8012698:	10bfffcc 	andi	r2,r2,65535
 801269c:	10a0001c 	xori	r2,r2,32768
 80126a0:	10a00004 	addi	r2,r2,-32768
 80126a4:	10800044 	addi	r2,r2,1
 80126a8:	e0bfe915 	stw	r2,-92(fp)
    
				for (; sector_index < max_root_dir_sectors; sector_index++)
 80126ac:	00003306 	br	801277c <alt_up_sd_card_find_next+0x190>
				{
					if (Read_Sector_Data(   sector_index + boot_sector_data.root_directory_sector_offset,
 80126b0:	008200b4 	movhi	r2,2050
 80126b4:	10a26104 	addi	r2,r2,-30332
 80126b8:	10c01317 	ldw	r3,76(r2)
 80126bc:	e0bfea17 	ldw	r2,-88(fp)
 80126c0:	1885883a 	add	r2,r3,r2
 80126c4:	1009883a 	mov	r4,r2
 80126c8:	d166c717 	ldw	r5,-25828(gp)
 80126cc:	800f6cc0 	call	800f6cc <Read_Sector_Data>
 80126d0:	1005003a 	cmpeq	r2,r2,zero
 80126d4:	10002c1e 	bne	r2,zero,8012788 <alt_up_sd_card_find_next+0x19c>
											fat_partition_offset_in_512_byte_sectors))
					{
						for (; file_counter < 16; file_counter++)
 80126d8:	00002106 	br	8012760 <alt_up_sd_card_find_next+0x174>
						{
							if (Read_File_Record_At_Offset(file_counter*32, &file_record, 0, sector_index))
 80126dc:	e0bfe917 	ldw	r2,-92(fp)
 80126e0:	1008917a 	slli	r4,r2,5
 80126e4:	e1ffea17 	ldw	r7,-88(fp)
 80126e8:	e17fee04 	addi	r5,fp,-72
 80126ec:	000d883a 	mov	r6,zero
 80126f0:	800fb140 	call	800fb14 <Read_File_Record_At_Offset>
 80126f4:	1005003a 	cmpeq	r2,r2,zero
 80126f8:	1000161e 	bne	r2,zero,8012754 <alt_up_sd_card_find_next+0x168>
							{
								if ((file_record.name[0] != 0) && (file_record.name[0] != 0xe5))
 80126fc:	e0bfee03 	ldbu	r2,-72(fp)
 8012700:	10803fcc 	andi	r2,r2,255
 8012704:	1005003a 	cmpeq	r2,r2,zero
 8012708:	1000121e 	bne	r2,zero,8012754 <alt_up_sd_card_find_next+0x168>
 801270c:	e0bfee03 	ldbu	r2,-72(fp)
 8012710:	10803fcc 	andi	r2,r2,255
 8012714:	10803960 	cmpeqi	r2,r2,229
 8012718:	10000e1e 	bne	r2,zero,8012754 <alt_up_sd_card_find_next+0x168>
								{
									/* Update search structure. */
									search_data.file_index_in_sector = file_counter;
 801271c:	e0bfe917 	ldw	r2,-92(fp)
 8012720:	1007883a 	mov	r3,r2
 8012724:	008200b4 	movhi	r2,2050
 8012728:	10a25c04 	addi	r2,r2,-30352
 801272c:	10c0030d 	sth	r3,12(r2)
									search_data.current_sector_in_cluster = sector_index;
 8012730:	e0ffea17 	ldw	r3,-88(fp)
 8012734:	008200b4 	movhi	r2,2050
 8012738:	10a25c04 	addi	r2,r2,-30352
 801273c:	10c00215 	stw	r3,8(r2)

									/* Copy file name.*/
									copy_file_record_name_to_string(&file_record, file_name);
 8012740:	e13fee04 	addi	r4,fp,-72
 8012744:	e17ffe17 	ldw	r5,-8(fp)
 8012748:	80121c40 	call	80121c4 <copy_file_record_name_to_string>
									return 0;
 801274c:	e03fff15 	stw	zero,-4(fp)
 8012750:	00008c06 	br	8012984 <alt_up_sd_card_find_next+0x398>
				for (; sector_index < max_root_dir_sectors; sector_index++)
				{
					if (Read_Sector_Data(   sector_index + boot_sector_data.root_directory_sector_offset,
											fat_partition_offset_in_512_byte_sectors))
					{
						for (; file_counter < 16; file_counter++)
 8012754:	e0bfe917 	ldw	r2,-92(fp)
 8012758:	10800044 	addi	r2,r2,1
 801275c:	e0bfe915 	stw	r2,-92(fp)
 8012760:	e0bfe917 	ldw	r2,-92(fp)
 8012764:	10800410 	cmplti	r2,r2,16
 8012768:	103fdc1e 	bne	r2,zero,80126dc <alt_up_sd_card_find_next+0xf0>
									copy_file_record_name_to_string(&file_record, file_name);
									return 0;
								}
							}
						}
						file_counter = 0;
 801276c:	e03fe915 	stw	zero,-92(fp)
				// Searching through the root directory
				int max_root_dir_sectors = ((32*boot_sector_data.max_number_of_dir_entires) / boot_sector_data.sector_size_in_bytes);
				int sector_index = search_data.current_sector_in_cluster;
				int file_counter = search_data.file_index_in_sector+1;
    
				for (; sector_index < max_root_dir_sectors; sector_index++)
 8012770:	e0bfea17 	ldw	r2,-88(fp)
 8012774:	10800044 	addi	r2,r2,1
 8012778:	e0bfea15 	stw	r2,-88(fp)
 801277c:	e0ffea17 	ldw	r3,-88(fp)
 8012780:	e0bfeb17 	ldw	r2,-84(fp)
 8012784:	18bfca16 	blt	r3,r2,80126b0 <alt_up_sd_card_find_next+0xc4>
					else
					{
						break;
					}
				}
				result = -1;
 8012788:	00bfffc4 	movi	r2,-1
 801278c:	e0bfed0d 	sth	r2,-76(fp)
 8012790:	00007a06 	br	801297c <alt_up_sd_card_find_next+0x390>
			}
			else
			{
				int file_counter = search_data.file_index_in_sector+1;
 8012794:	008200b4 	movhi	r2,2050
 8012798:	10a25c04 	addi	r2,r2,-30352
 801279c:	1080030b 	ldhu	r2,12(r2)
 80127a0:	10bfffcc 	andi	r2,r2,65535
 80127a4:	10a0001c 	xori	r2,r2,32768
 80127a8:	10a00004 	addi	r2,r2,-32768
 80127ac:	10800044 	addi	r2,r2,1
 80127b0:	e0bfe815 	stw	r2,-96(fp)
				do 
				{
					int start_sector = ( cluster - 2 ) * ( boot_sector_data.sectors_per_cluster ) + boot_sector_data.data_sector_offset;
 80127b4:	e0bfec17 	ldw	r2,-80(fp)
 80127b8:	113fff84 	addi	r4,r2,-2
 80127bc:	008200b4 	movhi	r2,2050
 80127c0:	10a26104 	addi	r2,r2,-30332
 80127c4:	10800383 	ldbu	r2,14(r2)
 80127c8:	11403fcc 	andi	r5,r2,255
 80127cc:	800d84c0 	call	800d84c <__mulsi3>
 80127d0:	1007883a 	mov	r3,r2
 80127d4:	008200b4 	movhi	r2,2050
 80127d8:	10a26104 	addi	r2,r2,-30332
 80127dc:	10801417 	ldw	r2,80(r2)
 80127e0:	1885883a 	add	r2,r3,r2
 80127e4:	e0bfe715 	stw	r2,-100(fp)
					int sector_index = search_data.current_sector_in_cluster;
 80127e8:	008200b4 	movhi	r2,2050
 80127ec:	10a25c04 	addi	r2,r2,-30352
 80127f0:	10800217 	ldw	r2,8(r2)
 80127f4:	e0bfe615 	stw	r2,-104(fp)
			        
					for (; sector_index < boot_sector_data.sectors_per_cluster; sector_index++)
 80127f8:	00003406 	br	80128cc <alt_up_sd_card_find_next+0x2e0>
					{
						if (Read_Sector_Data(sector_index + start_sector, fat_partition_offset_in_512_byte_sectors))
 80127fc:	e0ffe617 	ldw	r3,-104(fp)
 8012800:	e0bfe717 	ldw	r2,-100(fp)
 8012804:	1889883a 	add	r4,r3,r2
 8012808:	d166c717 	ldw	r5,-25828(gp)
 801280c:	800f6cc0 	call	800f6cc <Read_Sector_Data>
 8012810:	1005003a 	cmpeq	r2,r2,zero
 8012814:	1000331e 	bne	r2,zero,80128e4 <alt_up_sd_card_find_next+0x2f8>
						{        
							for (; file_counter < 16; file_counter++)
 8012818:	00002506 	br	80128b0 <alt_up_sd_card_find_next+0x2c4>
							{
								if (Read_File_Record_At_Offset(file_counter*32, &file_record, cluster, sector_index))
 801281c:	e0bfe817 	ldw	r2,-96(fp)
 8012820:	1008917a 	slli	r4,r2,5
 8012824:	e1bfec17 	ldw	r6,-80(fp)
 8012828:	e1ffe617 	ldw	r7,-104(fp)
 801282c:	e17fee04 	addi	r5,fp,-72
 8012830:	800fb140 	call	800fb14 <Read_File_Record_At_Offset>
 8012834:	1005003a 	cmpeq	r2,r2,zero
 8012838:	10001a1e 	bne	r2,zero,80128a4 <alt_up_sd_card_find_next+0x2b8>
								{
									if ((file_record.name[0] != 0) && (file_record.name[0] != 0xe5))
 801283c:	e0bfee03 	ldbu	r2,-72(fp)
 8012840:	10803fcc 	andi	r2,r2,255
 8012844:	1005003a 	cmpeq	r2,r2,zero
 8012848:	1000161e 	bne	r2,zero,80128a4 <alt_up_sd_card_find_next+0x2b8>
 801284c:	e0bfee03 	ldbu	r2,-72(fp)
 8012850:	10803fcc 	andi	r2,r2,255
 8012854:	10803960 	cmpeqi	r2,r2,229
 8012858:	1000121e 	bne	r2,zero,80128a4 <alt_up_sd_card_find_next+0x2b8>
									{
										/* Update search structure. */
										search_data.current_cluster_index = cluster;
 801285c:	e0ffec17 	ldw	r3,-80(fp)
 8012860:	008200b4 	movhi	r2,2050
 8012864:	10a25c04 	addi	r2,r2,-30352
 8012868:	10c00115 	stw	r3,4(r2)
										search_data.file_index_in_sector = file_counter;
 801286c:	e0bfe817 	ldw	r2,-96(fp)
 8012870:	1007883a 	mov	r3,r2
 8012874:	008200b4 	movhi	r2,2050
 8012878:	10a25c04 	addi	r2,r2,-30352
 801287c:	10c0030d 	sth	r3,12(r2)
										search_data.current_sector_in_cluster = sector_index;
 8012880:	e0ffe617 	ldw	r3,-104(fp)
 8012884:	008200b4 	movhi	r2,2050
 8012888:	10a25c04 	addi	r2,r2,-30352
 801288c:	10c00215 	stw	r3,8(r2)

										/* Copy file name.*/
										copy_file_record_name_to_string(&file_record, file_name);
 8012890:	e13fee04 	addi	r4,fp,-72
 8012894:	e17ffe17 	ldw	r5,-8(fp)
 8012898:	80121c40 	call	80121c4 <copy_file_record_name_to_string>
										return 0;
 801289c:	e03fff15 	stw	zero,-4(fp)
 80128a0:	00003806 	br	8012984 <alt_up_sd_card_find_next+0x398>
			        
					for (; sector_index < boot_sector_data.sectors_per_cluster; sector_index++)
					{
						if (Read_Sector_Data(sector_index + start_sector, fat_partition_offset_in_512_byte_sectors))
						{        
							for (; file_counter < 16; file_counter++)
 80128a4:	e0bfe817 	ldw	r2,-96(fp)
 80128a8:	10800044 	addi	r2,r2,1
 80128ac:	e0bfe815 	stw	r2,-96(fp)
 80128b0:	e0bfe817 	ldw	r2,-96(fp)
 80128b4:	10800410 	cmplti	r2,r2,16
 80128b8:	103fd81e 	bne	r2,zero,801281c <alt_up_sd_card_find_next+0x230>
										copy_file_record_name_to_string(&file_record, file_name);
										return 0;
									}
								}
							}
							file_counter = 0;
 80128bc:	e03fe815 	stw	zero,-96(fp)
				do 
				{
					int start_sector = ( cluster - 2 ) * ( boot_sector_data.sectors_per_cluster ) + boot_sector_data.data_sector_offset;
					int sector_index = search_data.current_sector_in_cluster;
			        
					for (; sector_index < boot_sector_data.sectors_per_cluster; sector_index++)
 80128c0:	e0bfe617 	ldw	r2,-104(fp)
 80128c4:	10800044 	addi	r2,r2,1
 80128c8:	e0bfe615 	stw	r2,-104(fp)
 80128cc:	008200b4 	movhi	r2,2050
 80128d0:	10a26104 	addi	r2,r2,-30332
 80128d4:	10800383 	ldbu	r2,14(r2)
 80128d8:	10c03fcc 	andi	r3,r2,255
 80128dc:	e0bfe617 	ldw	r2,-104(fp)
 80128e0:	10ffc616 	blt	r2,r3,80127fc <alt_up_sd_card_find_next+0x210>
							break;
						}
					}
					// If this is the end of the cluster and the file has not been found, then see if there is another cluster
					// that holds data for the current directory.
					if (sector_index >= boot_sector_data.sectors_per_cluster)
 80128e4:	008200b4 	movhi	r2,2050
 80128e8:	10a26104 	addi	r2,r2,-30332
 80128ec:	10800383 	ldbu	r2,14(r2)
 80128f0:	10c03fcc 	andi	r3,r2,255
 80128f4:	e0bfe617 	ldw	r2,-104(fp)
 80128f8:	10c01a16 	blt	r2,r3,8012964 <alt_up_sd_card_find_next+0x378>
					{
						short int new_cluster;

						if (get_cluster_flag(cluster, &new_cluster))
 80128fc:	e13fec17 	ldw	r4,-80(fp)
 8012900:	e17fed84 	addi	r5,fp,-74
 8012904:	800f7c80 	call	800f7c8 <get_cluster_flag>
 8012908:	1005003a 	cmpeq	r2,r2,zero
 801290c:	1000131e 	bne	r2,zero,801295c <alt_up_sd_card_find_next+0x370>
						{
							if ((new_cluster & 0x0000fff8) == 0x0000fff8)
 8012910:	e0bfed8b 	ldhu	r2,-74(fp)
 8012914:	10bfffcc 	andi	r2,r2,65535
 8012918:	10a0001c 	xori	r2,r2,32768
 801291c:	10a00004 	addi	r2,r2,-32768
 8012920:	10fffe0c 	andi	r3,r2,65528
 8012924:	00bffe14 	movui	r2,65528
 8012928:	1880051e 	bne	r3,r2,8012940 <alt_up_sd_card_find_next+0x354>
							{
								result = -1;
 801292c:	00bfffc4 	movi	r2,-1
 8012930:	e0bfed0d 	sth	r2,-76(fp)
								search_data.valid = false;
 8012934:	008200b4 	movhi	r2,2050
 8012938:	10a25c04 	addi	r2,r2,-30352
 801293c:	10000415 	stw	zero,16(r2)
							}
							cluster = ((new_cluster) & 0x0000fff8);
 8012940:	e0bfed8b 	ldhu	r2,-74(fp)
 8012944:	10bfffcc 	andi	r2,r2,65535
 8012948:	10a0001c 	xori	r2,r2,32768
 801294c:	10a00004 	addi	r2,r2,-32768
 8012950:	10bffe0c 	andi	r2,r2,65528
 8012954:	e0bfec15 	stw	r2,-80(fp)
 8012958:	00000206 	br	8012964 <alt_up_sd_card_find_next+0x378>
						}
						else
						{
							// Error encountered.                 
							result = -1;
 801295c:	00bfffc4 	movi	r2,-1
 8012960:	e0bfed0d 	sth	r2,-76(fp)
						}
					}              
				} while (cluster < 0x0000fff8);
 8012964:	e0ffec17 	ldw	r3,-80(fp)
 8012968:	00bffdd4 	movui	r2,65527
 801296c:	10ff910e 	bge	r2,r3,80127b4 <alt_up_sd_card_find_next+0x1c8>
 8012970:	00000206 	br	801297c <alt_up_sd_card_find_next+0x390>
			}
		}
		else
		{
			// Call Find_First first.
			result = 3;
 8012974:	008000c4 	movi	r2,3
 8012978:	e0bfed0d 	sth	r2,-76(fp)
		}
	}
	return result;
 801297c:	e0bfed0f 	ldh	r2,-76(fp)
 8012980:	e0bfff15 	stw	r2,-4(fp)
 8012984:	e0bfff17 	ldw	r2,-4(fp)
}
 8012988:	e037883a 	mov	sp,fp
 801298c:	dfc00117 	ldw	ra,4(sp)
 8012990:	df000017 	ldw	fp,0(sp)
 8012994:	dec00204 	addi	sp,sp,8
 8012998:	f800283a 	ret

0801299c <alt_up_sd_card_fopen>:
 *      create - a flag set to true to create a file if it does not already exist
 * Output:
 *      An index to the file record assigned to the specified file. -1 is returned if the file could not be opened.
 *		Return -2 if the specified file has already been opened previously.
 */
{
 801299c:	deffe804 	addi	sp,sp,-96
 80129a0:	dfc01715 	stw	ra,92(sp)
 80129a4:	df001615 	stw	fp,88(sp)
 80129a8:	df001604 	addi	fp,sp,88
 80129ac:	e13ffd15 	stw	r4,-12(fp)
 80129b0:	e17ffe15 	stw	r5,-8(fp)
	short int file_record_index = -1;
 80129b4:	00bfffc4 	movi	r2,-1
 80129b8:	e0bfeb0d 	sth	r2,-84(fp)

	if ((alt_up_sd_card_is_Present()) && (is_sd_card_formated_as_FAT16))
 80129bc:	80123dc0 	call	80123dc <alt_up_sd_card_is_Present>
 80129c0:	1005003a 	cmpeq	r2,r2,zero
 80129c4:	1000d71e 	bne	r2,zero,8012d24 <alt_up_sd_card_fopen+0x388>
 80129c8:	d0a6c017 	ldw	r2,-25856(gp)
 80129cc:	1005003a 	cmpeq	r2,r2,zero
 80129d0:	1000d41e 	bne	r2,zero,8012d24 <alt_up_sd_card_fopen+0x388>
	{
        unsigned int home_directory_cluster = 0;
 80129d4:	e03fec15 	stw	zero,-80(fp)
         * Rules:
         *  - no spaces
         *  - at most 12 chatacters per name, with a period in 9th position.
         *  - a / or a \ every at most 12 characters.
         */
        filename_to_upper_case(name);
 80129d8:	e13ffd17 	ldw	r4,-12(fp)
 80129dc:	80107900 	call	8010790 <filename_to_upper_case>
        if (check_file_name_for_FAT16_compliance(name))
 80129e0:	e13ffd17 	ldw	r4,-12(fp)
 80129e4:	80108600 	call	8010860 <check_file_name_for_FAT16_compliance>
 80129e8:	1005003a 	cmpeq	r2,r2,zero
 80129ec:	1000cd1e 	bne	r2,zero,8012d24 <alt_up_sd_card_fopen+0x388>
        {
			int index;

            /* Get home directory cluster location for the specified file. 0 means root directory. */
            if (!get_home_directory_cluster_for_file(name, &home_directory_cluster, &home_dir))
 80129f0:	e17fec04 	addi	r5,fp,-80
 80129f4:	e1bfed04 	addi	r6,fp,-76
 80129f8:	e13ffd17 	ldw	r4,-12(fp)
 80129fc:	8010e9c0 	call	8010e9c <get_home_directory_cluster_for_file>
 8012a00:	1004c03a 	cmpne	r2,r2,zero
 8012a04:	1000031e 	bne	r2,zero,8012a14 <alt_up_sd_card_fopen+0x78>
            {
                return file_record_index;
 8012a08:	e0bfeb0f 	ldh	r2,-84(fp)
 8012a0c:	e0bfff15 	stw	r2,-4(fp)
 8012a10:	0000c606 	br	8012d2c <alt_up_sd_card_fopen+0x390>
            }
            
    		/* Find a free file slot to store file specs in. */
    		for (index = 0; index < MAX_FILES_OPENED; index++)
 8012a14:	e03fea15 	stw	zero,-88(fp)
 8012a18:	00000f06 	br	8012a58 <alt_up_sd_card_fopen+0xbc>
    		{
    			if (active_files[index].in_use == false)
 8012a1c:	e0bfea17 	ldw	r2,-88(fp)
 8012a20:	00c200b4 	movhi	r3,2050
 8012a24:	18e27604 	addi	r3,r3,-30248
 8012a28:	100491ba 	slli	r2,r2,6
 8012a2c:	10c5883a 	add	r2,r2,r3
 8012a30:	10800f04 	addi	r2,r2,60
 8012a34:	10800017 	ldw	r2,0(r2)
 8012a38:	1004c03a 	cmpne	r2,r2,zero
 8012a3c:	1000031e 	bne	r2,zero,8012a4c <alt_up_sd_card_fopen+0xb0>
    			{
    				file_record_index = index;
 8012a40:	e0bfea17 	ldw	r2,-88(fp)
 8012a44:	e0bfeb0d 	sth	r2,-84(fp)
    				break;
 8012a48:	00000606 	br	8012a64 <alt_up_sd_card_fopen+0xc8>
            {
                return file_record_index;
            }
            
    		/* Find a free file slot to store file specs in. */
    		for (index = 0; index < MAX_FILES_OPENED; index++)
 8012a4c:	e0bfea17 	ldw	r2,-88(fp)
 8012a50:	10800044 	addi	r2,r2,1
 8012a54:	e0bfea15 	stw	r2,-88(fp)
 8012a58:	e0bfea17 	ldw	r2,-88(fp)
 8012a5c:	10800510 	cmplti	r2,r2,20
 8012a60:	103fee1e 	bne	r2,zero,8012a1c <alt_up_sd_card_fopen+0x80>
    			{
    				file_record_index = index;
    				break;
    			}
    		}
    		if (file_record_index >= 0)
 8012a64:	e0bfeb0f 	ldh	r2,-84(fp)
 8012a68:	1004803a 	cmplt	r2,r2,zero
 8012a6c:	1000ad1e 	bne	r2,zero,8012d24 <alt_up_sd_card_fopen+0x388>
    		{
    			/* If file record is found, then look for the specified file. If the create flag is set to true 
    			 * and the file is not found, then it should be created in the current directory. 
    			 */
                
                if (find_file_in_directory(home_directory_cluster, name, &(active_files[file_record_index])))
 8012a70:	e0bfec17 	ldw	r2,-80(fp)
 8012a74:	1009883a 	mov	r4,r2
 8012a78:	e0bfeb0f 	ldh	r2,-84(fp)
 8012a7c:	100491ba 	slli	r2,r2,6
 8012a80:	1007883a 	mov	r3,r2
 8012a84:	008200b4 	movhi	r2,2050
 8012a88:	10a27604 	addi	r2,r2,-30248
 8012a8c:	188d883a 	add	r6,r3,r2
 8012a90:	e17ffd17 	ldw	r5,-12(fp)
 8012a94:	80113b00 	call	80113b0 <find_file_in_directory>
 8012a98:	1005003a 	cmpeq	r2,r2,zero
 8012a9c:	10007d1e 	bne	r2,zero,8012c94 <alt_up_sd_card_fopen+0x2f8>
                {
                    if (create)
 8012aa0:	e0bffe17 	ldw	r2,-8(fp)
 8012aa4:	1005003a 	cmpeq	r2,r2,zero
 8012aa8:	1000031e 	bne	r2,zero,8012ab8 <alt_up_sd_card_fopen+0x11c>
                    {
                        /* Do not allow overwriting existing files for now. */
                        return -1;
 8012aac:	00bfffc4 	movi	r2,-1
 8012ab0:	e0bfff15 	stw	r2,-4(fp)
 8012ab4:	00009d06 	br	8012d2c <alt_up_sd_card_fopen+0x390>
                    }
                    active_files[file_record_index].current_cluster_index = active_files[file_record_index].start_cluster_index;
 8012ab8:	e17feb0f 	ldh	r5,-84(fp)
 8012abc:	e0bfeb0f 	ldh	r2,-84(fp)
 8012ac0:	00c200b4 	movhi	r3,2050
 8012ac4:	18e27604 	addi	r3,r3,-30248
 8012ac8:	100491ba 	slli	r2,r2,6
 8012acc:	10c5883a 	add	r2,r2,r3
 8012ad0:	10800504 	addi	r2,r2,20
 8012ad4:	1080008b 	ldhu	r2,2(r2)
 8012ad8:	113fffcc 	andi	r4,r2,65535
 8012adc:	00c200b4 	movhi	r3,2050
 8012ae0:	18e27604 	addi	r3,r3,-30248
 8012ae4:	280491ba 	slli	r2,r5,6
 8012ae8:	10c5883a 	add	r2,r2,r3
 8012aec:	10800704 	addi	r2,r2,28
 8012af0:	11000015 	stw	r4,0(r2)
                    active_files[file_record_index].current_sector_in_cluster = 0;
 8012af4:	e0bfeb0f 	ldh	r2,-84(fp)
 8012af8:	00c200b4 	movhi	r3,2050
 8012afc:	18e27604 	addi	r3,r3,-30248
 8012b00:	100491ba 	slli	r2,r2,6
 8012b04:	10c5883a 	add	r2,r2,r3
 8012b08:	10800804 	addi	r2,r2,32
 8012b0c:	10000015 	stw	zero,0(r2)
                    active_files[file_record_index].current_byte_position = 0;
 8012b10:	e0bfeb0f 	ldh	r2,-84(fp)
 8012b14:	00c200b4 	movhi	r3,2050
 8012b18:	18e27604 	addi	r3,r3,-30248
 8012b1c:	100491ba 	slli	r2,r2,6
 8012b20:	10c5883a 	add	r2,r2,r3
 8012b24:	10800904 	addi	r2,r2,36
 8012b28:	10000015 	stw	zero,0(r2)
                    active_files[file_record_index].in_use = true;
 8012b2c:	e0bfeb0f 	ldh	r2,-84(fp)
 8012b30:	00c200b4 	movhi	r3,2050
 8012b34:	18e27604 	addi	r3,r3,-30248
 8012b38:	100491ba 	slli	r2,r2,6
 8012b3c:	10c5883a 	add	r2,r2,r3
 8012b40:	10c00f04 	addi	r3,r2,60
 8012b44:	00800044 	movi	r2,1
 8012b48:	18800015 	stw	r2,0(r3)
    				active_files[file_record_index].modified = false;
 8012b4c:	e0bfeb0f 	ldh	r2,-84(fp)
 8012b50:	00c200b4 	movhi	r3,2050
 8012b54:	18e27604 	addi	r3,r3,-30248
 8012b58:	100491ba 	slli	r2,r2,6
 8012b5c:	10c5883a 	add	r2,r2,r3
 8012b60:	10800e04 	addi	r2,r2,56
 8012b64:	10000015 	stw	zero,0(r2)

					/* Check if the file has already been opened. */
					for (index = 0; index < MAX_FILES_OPENED; index++)
 8012b68:	e03fea15 	stw	zero,-88(fp)
 8012b6c:	00004506 	br	8012c84 <alt_up_sd_card_fopen+0x2e8>
					{
						if ((file_record_index != index) && (active_files[index].in_use == true))
 8012b70:	e0ffeb0f 	ldh	r3,-84(fp)
 8012b74:	e0bfea17 	ldw	r2,-88(fp)
 8012b78:	18803f26 	beq	r3,r2,8012c78 <alt_up_sd_card_fopen+0x2dc>
 8012b7c:	e0bfea17 	ldw	r2,-88(fp)
 8012b80:	00c200b4 	movhi	r3,2050
 8012b84:	18e27604 	addi	r3,r3,-30248
 8012b88:	100491ba 	slli	r2,r2,6
 8012b8c:	10c5883a 	add	r2,r2,r3
 8012b90:	10800f04 	addi	r2,r2,60
 8012b94:	10800017 	ldw	r2,0(r2)
 8012b98:	10800058 	cmpnei	r2,r2,1
 8012b9c:	1000361e 	bne	r2,zero,8012c78 <alt_up_sd_card_fopen+0x2dc>
						{
							if ((active_files[file_record_index].file_record_cluster == active_files[index].file_record_cluster) &&
 8012ba0:	e0bfeb0f 	ldh	r2,-84(fp)
 8012ba4:	00c200b4 	movhi	r3,2050
 8012ba8:	18e27604 	addi	r3,r3,-30248
 8012bac:	100491ba 	slli	r2,r2,6
 8012bb0:	10c5883a 	add	r2,r2,r3
 8012bb4:	10800a04 	addi	r2,r2,40
 8012bb8:	11000017 	ldw	r4,0(r2)
 8012bbc:	e0bfea17 	ldw	r2,-88(fp)
 8012bc0:	00c200b4 	movhi	r3,2050
 8012bc4:	18e27604 	addi	r3,r3,-30248
 8012bc8:	100491ba 	slli	r2,r2,6
 8012bcc:	10c5883a 	add	r2,r2,r3
 8012bd0:	10800a04 	addi	r2,r2,40
 8012bd4:	10800017 	ldw	r2,0(r2)
 8012bd8:	2080271e 	bne	r4,r2,8012c78 <alt_up_sd_card_fopen+0x2dc>
 8012bdc:	e0bfeb0f 	ldh	r2,-84(fp)
 8012be0:	00c200b4 	movhi	r3,2050
 8012be4:	18e27604 	addi	r3,r3,-30248
 8012be8:	100491ba 	slli	r2,r2,6
 8012bec:	10c5883a 	add	r2,r2,r3
 8012bf0:	10800b04 	addi	r2,r2,44
 8012bf4:	11000017 	ldw	r4,0(r2)
 8012bf8:	e0bfea17 	ldw	r2,-88(fp)
 8012bfc:	00c200b4 	movhi	r3,2050
 8012c00:	18e27604 	addi	r3,r3,-30248
 8012c04:	100491ba 	slli	r2,r2,6
 8012c08:	10c5883a 	add	r2,r2,r3
 8012c0c:	10800b04 	addi	r2,r2,44
 8012c10:	10800017 	ldw	r2,0(r2)
 8012c14:	2080181e 	bne	r4,r2,8012c78 <alt_up_sd_card_fopen+0x2dc>
 8012c18:	e0bfeb0f 	ldh	r2,-84(fp)
 8012c1c:	00c200b4 	movhi	r3,2050
 8012c20:	18e27604 	addi	r3,r3,-30248
 8012c24:	100491ba 	slli	r2,r2,6
 8012c28:	10c5883a 	add	r2,r2,r3
 8012c2c:	10800c04 	addi	r2,r2,48
 8012c30:	1100000b 	ldhu	r4,0(r2)
 8012c34:	e0bfea17 	ldw	r2,-88(fp)
 8012c38:	00c200b4 	movhi	r3,2050
 8012c3c:	18e27604 	addi	r3,r3,-30248
 8012c40:	100491ba 	slli	r2,r2,6
 8012c44:	10c5883a 	add	r2,r2,r3
 8012c48:	10800c04 	addi	r2,r2,48
 8012c4c:	1080000b 	ldhu	r2,0(r2)
 8012c50:	20ffffcc 	andi	r3,r4,65535
 8012c54:	18e0001c 	xori	r3,r3,32768
 8012c58:	18e00004 	addi	r3,r3,-32768
 8012c5c:	10bfffcc 	andi	r2,r2,65535
 8012c60:	10a0001c 	xori	r2,r2,32768
 8012c64:	10a00004 	addi	r2,r2,-32768
 8012c68:	1880031e 	bne	r3,r2,8012c78 <alt_up_sd_card_fopen+0x2dc>
								(active_files[file_record_index].file_record_sector_in_cluster == active_files[index].file_record_sector_in_cluster) &&
								(active_files[file_record_index].file_record_offset == active_files[index].file_record_offset))
							{
								// file already in use.
								file_record_index = -2;
 8012c6c:	00bfff84 	movi	r2,-2
 8012c70:	e0bfeb0d 	sth	r2,-84(fp)
								break;
 8012c74:	00002b06 	br	8012d24 <alt_up_sd_card_fopen+0x388>
                    active_files[file_record_index].current_byte_position = 0;
                    active_files[file_record_index].in_use = true;
    				active_files[file_record_index].modified = false;

					/* Check if the file has already been opened. */
					for (index = 0; index < MAX_FILES_OPENED; index++)
 8012c78:	e0bfea17 	ldw	r2,-88(fp)
 8012c7c:	10800044 	addi	r2,r2,1
 8012c80:	e0bfea15 	stw	r2,-88(fp)
 8012c84:	e0bfea17 	ldw	r2,-88(fp)
 8012c88:	10800510 	cmplti	r2,r2,20
 8012c8c:	103fb81e 	bne	r2,zero,8012b70 <alt_up_sd_card_fopen+0x1d4>
 8012c90:	00002406 	br	8012d24 <alt_up_sd_card_fopen+0x388>
							}
						}
					}

                }
                else if (create)
 8012c94:	e0bffe17 	ldw	r2,-8(fp)
 8012c98:	1005003a 	cmpeq	r2,r2,zero
 8012c9c:	10001f1e 	bne	r2,zero,8012d1c <alt_up_sd_card_fopen+0x380>
                {
                    /* Create file if needed. */
                    if (create_file(name, &(active_files[file_record_index]), &home_dir))
 8012ca0:	e0bfeb0f 	ldh	r2,-84(fp)
 8012ca4:	100491ba 	slli	r2,r2,6
 8012ca8:	1007883a 	mov	r3,r2
 8012cac:	008200b4 	movhi	r2,2050
 8012cb0:	10a27604 	addi	r2,r2,-30248
 8012cb4:	188b883a 	add	r5,r3,r2
 8012cb8:	e1bfed04 	addi	r6,fp,-76
 8012cbc:	e13ffd17 	ldw	r4,-12(fp)
 8012cc0:	8011ee80 	call	8011ee8 <create_file>
 8012cc4:	1005003a 	cmpeq	r2,r2,zero
 8012cc8:	1000111e 	bne	r2,zero,8012d10 <alt_up_sd_card_fopen+0x374>
                    {
                        active_files[file_record_index].in_use = true;
 8012ccc:	e0bfeb0f 	ldh	r2,-84(fp)
 8012cd0:	00c200b4 	movhi	r3,2050
 8012cd4:	18e27604 	addi	r3,r3,-30248
 8012cd8:	100491ba 	slli	r2,r2,6
 8012cdc:	10c5883a 	add	r2,r2,r3
 8012ce0:	10c00f04 	addi	r3,r2,60
 8012ce4:	00800044 	movi	r2,1
 8012ce8:	18800015 	stw	r2,0(r3)
    					active_files[file_record_index].modified = true;
 8012cec:	e0bfeb0f 	ldh	r2,-84(fp)
 8012cf0:	00c200b4 	movhi	r3,2050
 8012cf4:	18e27604 	addi	r3,r3,-30248
 8012cf8:	100491ba 	slli	r2,r2,6
 8012cfc:	10c5883a 	add	r2,r2,r3
 8012d00:	10c00e04 	addi	r3,r2,56
 8012d04:	00800044 	movi	r2,1
 8012d08:	18800015 	stw	r2,0(r3)
 8012d0c:	00000506 	br	8012d24 <alt_up_sd_card_fopen+0x388>
                    }
                    else
                    {
                        /* If file creation fails then return an invalid file handle. */
                        file_record_index = -1;
 8012d10:	00bfffc4 	movi	r2,-1
 8012d14:	e0bfeb0d 	sth	r2,-84(fp)
 8012d18:	00000206 	br	8012d24 <alt_up_sd_card_fopen+0x388>
                    }                
                }
                else
                {
                    /* Otherwise the file could not be opened.*/
                    file_record_index = -1;
 8012d1c:	00bfffc4 	movi	r2,-1
 8012d20:	e0bfeb0d 	sth	r2,-84(fp)
                }
    		}
        }
	}

	return file_record_index;
 8012d24:	e0bfeb0f 	ldh	r2,-84(fp)
 8012d28:	e0bfff15 	stw	r2,-4(fp)
 8012d2c:	e0bfff17 	ldw	r2,-4(fp)
}
 8012d30:	e037883a 	mov	sp,fp
 8012d34:	dfc00117 	ldw	ra,4(sp)
 8012d38:	df000017 	ldw	fp,0(sp)
 8012d3c:	dec00204 	addi	sp,sp,8
 8012d40:	f800283a 	ret

08012d44 <alt_up_sd_card_set_attributes>:


void alt_up_sd_card_set_attributes(short int file_handle, short int attributes)
/* Return file attributes, or -1 if the file_handle is invalid.
 */
{
 8012d44:	defffd04 	addi	sp,sp,-12
 8012d48:	df000215 	stw	fp,8(sp)
 8012d4c:	df000204 	addi	fp,sp,8
 8012d50:	e13ffe0d 	sth	r4,-8(fp)
 8012d54:	e17fff0d 	sth	r5,-4(fp)
    if ((file_handle >= 0) && (file_handle < MAX_FILES_OPENED))
 8012d58:	e0bffe0f 	ldh	r2,-8(fp)
 8012d5c:	1004803a 	cmplt	r2,r2,zero
 8012d60:	1000181e 	bne	r2,zero,8012dc4 <alt_up_sd_card_set_attributes+0x80>
 8012d64:	e0bffe0f 	ldh	r2,-8(fp)
 8012d68:	10800508 	cmpgei	r2,r2,20
 8012d6c:	1000151e 	bne	r2,zero,8012dc4 <alt_up_sd_card_set_attributes+0x80>
    {
        if (active_files[file_handle].in_use)
 8012d70:	e0bffe0f 	ldh	r2,-8(fp)
 8012d74:	00c200b4 	movhi	r3,2050
 8012d78:	18e27604 	addi	r3,r3,-30248
 8012d7c:	100491ba 	slli	r2,r2,6
 8012d80:	10c5883a 	add	r2,r2,r3
 8012d84:	10800f04 	addi	r2,r2,60
 8012d88:	10800017 	ldw	r2,0(r2)
 8012d8c:	1005003a 	cmpeq	r2,r2,zero
 8012d90:	10000c1e 	bne	r2,zero,8012dc4 <alt_up_sd_card_set_attributes+0x80>
        {
            active_files[file_handle].attributes = ((char)(attributes & 0x00ff));
 8012d94:	e17ffe0f 	ldh	r5,-8(fp)
 8012d98:	e0bfff0b 	ldhu	r2,-4(fp)
 8012d9c:	1007883a 	mov	r3,r2
 8012da0:	00bfffc4 	movi	r2,-1
 8012da4:	1884703a 	and	r2,r3,r2
 8012da8:	1009883a 	mov	r4,r2
 8012dac:	00c200b4 	movhi	r3,2050
 8012db0:	18e27604 	addi	r3,r3,-30248
 8012db4:	280491ba 	slli	r2,r5,6
 8012db8:	10c5883a 	add	r2,r2,r3
 8012dbc:	10800204 	addi	r2,r2,8
 8012dc0:	110000c5 	stb	r4,3(r2)
        }
    }
}
 8012dc4:	e037883a 	mov	sp,fp
 8012dc8:	df000017 	ldw	fp,0(sp)
 8012dcc:	dec00104 	addi	sp,sp,4
 8012dd0:	f800283a 	ret

08012dd4 <alt_up_sd_card_get_attributes>:


short int alt_up_sd_card_get_attributes(short int file_handle)
/* Return file attributes, or -1 if the file_handle is invalid.
 */
{
 8012dd4:	defffd04 	addi	sp,sp,-12
 8012dd8:	df000215 	stw	fp,8(sp)
 8012ddc:	df000204 	addi	fp,sp,8
 8012de0:	e13fff0d 	sth	r4,-4(fp)
	short int result = -1;
 8012de4:	00bfffc4 	movi	r2,-1
 8012de8:	e0bffe0d 	sth	r2,-8(fp)
    if ((file_handle >= 0) && (file_handle < MAX_FILES_OPENED))
 8012dec:	e0bfff0f 	ldh	r2,-4(fp)
 8012df0:	1004803a 	cmplt	r2,r2,zero
 8012df4:	1000151e 	bne	r2,zero,8012e4c <alt_up_sd_card_get_attributes+0x78>
 8012df8:	e0bfff0f 	ldh	r2,-4(fp)
 8012dfc:	10800508 	cmpgei	r2,r2,20
 8012e00:	1000121e 	bne	r2,zero,8012e4c <alt_up_sd_card_get_attributes+0x78>
    {
        if (active_files[file_handle].in_use)
 8012e04:	e0bfff0f 	ldh	r2,-4(fp)
 8012e08:	00c200b4 	movhi	r3,2050
 8012e0c:	18e27604 	addi	r3,r3,-30248
 8012e10:	100491ba 	slli	r2,r2,6
 8012e14:	10c5883a 	add	r2,r2,r3
 8012e18:	10800f04 	addi	r2,r2,60
 8012e1c:	10800017 	ldw	r2,0(r2)
 8012e20:	1005003a 	cmpeq	r2,r2,zero
 8012e24:	1000091e 	bne	r2,zero,8012e4c <alt_up_sd_card_get_attributes+0x78>
		{
			result = ((active_files[file_handle].attributes) & 0x00ff);
 8012e28:	e0bfff0f 	ldh	r2,-4(fp)
 8012e2c:	00c200b4 	movhi	r3,2050
 8012e30:	18e27604 	addi	r3,r3,-30248
 8012e34:	100491ba 	slli	r2,r2,6
 8012e38:	10c5883a 	add	r2,r2,r3
 8012e3c:	10800204 	addi	r2,r2,8
 8012e40:	108000c3 	ldbu	r2,3(r2)
 8012e44:	10803fcc 	andi	r2,r2,255
 8012e48:	e0bffe0d 	sth	r2,-8(fp)
		}
	}
	return result;
 8012e4c:	e0bffe0f 	ldh	r2,-8(fp)
}
 8012e50:	e037883a 	mov	sp,fp
 8012e54:	df000017 	ldw	fp,0(sp)
 8012e58:	dec00104 	addi	sp,sp,4
 8012e5c:	f800283a 	ret

08012e60 <alt_up_sd_card_read>:

short int alt_up_sd_card_read(short int file_handle)
/* Read a single character from a given file. Return -1 if at the end of a file. Any other negative number
 * means that the file could not be read. A number between 0 and 255 is an ASCII character read from the SD Card. */
{
 8012e60:	defff904 	addi	sp,sp,-28
 8012e64:	dfc00615 	stw	ra,24(sp)
 8012e68:	df000515 	stw	fp,20(sp)
 8012e6c:	dc000415 	stw	r16,16(sp)
 8012e70:	df000404 	addi	fp,sp,16
 8012e74:	e13ffe0d 	sth	r4,-8(fp)
    short int ch = -1;
 8012e78:	00bfffc4 	movi	r2,-1
 8012e7c:	e0bffd0d 	sth	r2,-12(fp)
    
    if ((file_handle >= 0) && (file_handle < MAX_FILES_OPENED))
 8012e80:	e0bffe0f 	ldh	r2,-8(fp)
 8012e84:	1004803a 	cmplt	r2,r2,zero
 8012e88:	1000d51e 	bne	r2,zero,80131e0 <alt_up_sd_card_read+0x380>
 8012e8c:	e0bffe0f 	ldh	r2,-8(fp)
 8012e90:	10800508 	cmpgei	r2,r2,20
 8012e94:	1000d21e 	bne	r2,zero,80131e0 <alt_up_sd_card_read+0x380>
    {
        if (active_files[file_handle].in_use)
 8012e98:	e0bffe0f 	ldh	r2,-8(fp)
 8012e9c:	00c200b4 	movhi	r3,2050
 8012ea0:	18e27604 	addi	r3,r3,-30248
 8012ea4:	100491ba 	slli	r2,r2,6
 8012ea8:	10c5883a 	add	r2,r2,r3
 8012eac:	10800f04 	addi	r2,r2,60
 8012eb0:	10800017 	ldw	r2,0(r2)
 8012eb4:	1005003a 	cmpeq	r2,r2,zero
 8012eb8:	1000c91e 	bne	r2,zero,80131e0 <alt_up_sd_card_read+0x380>
        {
            if (active_files[file_handle].current_byte_position < active_files[file_handle].file_size_in_bytes)
 8012ebc:	e0bffe0f 	ldh	r2,-8(fp)
 8012ec0:	00c200b4 	movhi	r3,2050
 8012ec4:	18e27604 	addi	r3,r3,-30248
 8012ec8:	100491ba 	slli	r2,r2,6
 8012ecc:	10c5883a 	add	r2,r2,r3
 8012ed0:	10800904 	addi	r2,r2,36
 8012ed4:	11000017 	ldw	r4,0(r2)
 8012ed8:	e0bffe0f 	ldh	r2,-8(fp)
 8012edc:	00c200b4 	movhi	r3,2050
 8012ee0:	18e27604 	addi	r3,r3,-30248
 8012ee4:	100491ba 	slli	r2,r2,6
 8012ee8:	10c5883a 	add	r2,r2,r3
 8012eec:	10800604 	addi	r2,r2,24
 8012ef0:	10800017 	ldw	r2,0(r2)
 8012ef4:	2080ba2e 	bgeu	r4,r2,80131e0 <alt_up_sd_card_read+0x380>
            {
                int data_sector = boot_sector_data.data_sector_offset + (active_files[file_handle].current_cluster_index - 2)*boot_sector_data.sectors_per_cluster +
                                  active_files[file_handle].current_sector_in_cluster;
 8012ef8:	008200b4 	movhi	r2,2050
 8012efc:	10a26104 	addi	r2,r2,-30332
 8012f00:	14001417 	ldw	r16,80(r2)
 8012f04:	e0bffe0f 	ldh	r2,-8(fp)
 8012f08:	00c200b4 	movhi	r3,2050
 8012f0c:	18e27604 	addi	r3,r3,-30248
 8012f10:	100491ba 	slli	r2,r2,6
 8012f14:	10c5883a 	add	r2,r2,r3
 8012f18:	10800704 	addi	r2,r2,28
 8012f1c:	10800017 	ldw	r2,0(r2)
 8012f20:	113fff84 	addi	r4,r2,-2
 8012f24:	008200b4 	movhi	r2,2050
 8012f28:	10a26104 	addi	r2,r2,-30332
 8012f2c:	10800383 	ldbu	r2,14(r2)
 8012f30:	11403fcc 	andi	r5,r2,255
 8012f34:	800d84c0 	call	800d84c <__mulsi3>
 8012f38:	8089883a 	add	r4,r16,r2
 8012f3c:	e0bffe0f 	ldh	r2,-8(fp)
 8012f40:	00c200b4 	movhi	r3,2050
 8012f44:	18e27604 	addi	r3,r3,-30248
 8012f48:	100491ba 	slli	r2,r2,6
 8012f4c:	10c5883a 	add	r2,r2,r3
 8012f50:	10800804 	addi	r2,r2,32
 8012f54:	10800017 	ldw	r2,0(r2)
 8012f58:	2085883a 	add	r2,r4,r2
 8012f5c:	e0bffc15 	stw	r2,-16(fp)
                
                if ((active_files[file_handle].current_byte_position > 0) && ((active_files[file_handle].current_byte_position % 512) == 0))
 8012f60:	e0bffe0f 	ldh	r2,-8(fp)
 8012f64:	00c200b4 	movhi	r3,2050
 8012f68:	18e27604 	addi	r3,r3,-30248
 8012f6c:	100491ba 	slli	r2,r2,6
 8012f70:	10c5883a 	add	r2,r2,r3
 8012f74:	10800904 	addi	r2,r2,36
 8012f78:	10800017 	ldw	r2,0(r2)
 8012f7c:	1005003a 	cmpeq	r2,r2,zero
 8012f80:	10006a1e 	bne	r2,zero,801312c <alt_up_sd_card_read+0x2cc>
 8012f84:	e0bffe0f 	ldh	r2,-8(fp)
 8012f88:	00c200b4 	movhi	r3,2050
 8012f8c:	18e27604 	addi	r3,r3,-30248
 8012f90:	100491ba 	slli	r2,r2,6
 8012f94:	10c5883a 	add	r2,r2,r3
 8012f98:	10800904 	addi	r2,r2,36
 8012f9c:	10800017 	ldw	r2,0(r2)
 8012fa0:	10807fcc 	andi	r2,r2,511
 8012fa4:	1004c03a 	cmpne	r2,r2,zero
 8012fa8:	1000601e 	bne	r2,zero,801312c <alt_up_sd_card_read+0x2cc>
                {
                    // Read in a new sector of data.
                    if (active_files[file_handle].current_sector_in_cluster == boot_sector_data.sectors_per_cluster - 1)
 8012fac:	e0bffe0f 	ldh	r2,-8(fp)
 8012fb0:	00c200b4 	movhi	r3,2050
 8012fb4:	18e27604 	addi	r3,r3,-30248
 8012fb8:	100491ba 	slli	r2,r2,6
 8012fbc:	10c5883a 	add	r2,r2,r3
 8012fc0:	10800804 	addi	r2,r2,32
 8012fc4:	10c00017 	ldw	r3,0(r2)
 8012fc8:	008200b4 	movhi	r2,2050
 8012fcc:	10a26104 	addi	r2,r2,-30332
 8012fd0:	10800383 	ldbu	r2,14(r2)
 8012fd4:	10803fcc 	andi	r2,r2,255
 8012fd8:	10bfffc4 	addi	r2,r2,-1
 8012fdc:	1880411e 	bne	r3,r2,80130e4 <alt_up_sd_card_read+0x284>
                    {
                        // Go to the next cluster.
                        unsigned short int next_cluster;
                        if (get_cluster_flag(active_files[file_handle].current_cluster_index, &next_cluster))
 8012fe0:	e0bffe0f 	ldh	r2,-8(fp)
 8012fe4:	00c200b4 	movhi	r3,2050
 8012fe8:	18e27604 	addi	r3,r3,-30248
 8012fec:	100491ba 	slli	r2,r2,6
 8012ff0:	10c5883a 	add	r2,r2,r3
 8012ff4:	10800704 	addi	r2,r2,28
 8012ff8:	11000017 	ldw	r4,0(r2)
 8012ffc:	e17ffd84 	addi	r5,fp,-10
 8013000:	800f7c80 	call	800f7c8 <get_cluster_flag>
 8013004:	1005003a 	cmpeq	r2,r2,zero
 8013008:	1000331e 	bne	r2,zero,80130d8 <alt_up_sd_card_read+0x278>
                        {
                            if ((next_cluster & 0x0000fff8) == 0x0000fff8)
 801300c:	e0bffd8b 	ldhu	r2,-10(fp)
 8013010:	10bfffcc 	andi	r2,r2,65535
 8013014:	10fffe0c 	andi	r3,r2,65528
 8013018:	00bffe14 	movui	r2,65528
 801301c:	1880031e 	bne	r3,r2,801302c <alt_up_sd_card_read+0x1cc>
                            {
                                /* End of file */
                                return -1;
 8013020:	00bfffc4 	movi	r2,-1
 8013024:	e0bfff15 	stw	r2,-4(fp)
 8013028:	00006f06 	br	80131e8 <alt_up_sd_card_read+0x388>
                            } 
                            else
                            {
                                active_files[file_handle].current_cluster_index = next_cluster;
 801302c:	e13ffe0f 	ldh	r4,-8(fp)
 8013030:	e0bffd8b 	ldhu	r2,-10(fp)
 8013034:	117fffcc 	andi	r5,r2,65535
 8013038:	00c200b4 	movhi	r3,2050
 801303c:	18e27604 	addi	r3,r3,-30248
 8013040:	200491ba 	slli	r2,r4,6
 8013044:	10c5883a 	add	r2,r2,r3
 8013048:	10800704 	addi	r2,r2,28
 801304c:	11400015 	stw	r5,0(r2)
								active_files[file_handle].current_sector_in_cluster = 0;
 8013050:	e0bffe0f 	ldh	r2,-8(fp)
 8013054:	00c200b4 	movhi	r3,2050
 8013058:	18e27604 	addi	r3,r3,-30248
 801305c:	100491ba 	slli	r2,r2,6
 8013060:	10c5883a 	add	r2,r2,r3
 8013064:	10800804 	addi	r2,r2,32
 8013068:	10000015 	stw	zero,0(r2)
                                data_sector = boot_sector_data.data_sector_offset + (active_files[file_handle].current_cluster_index - 2)*boot_sector_data.sectors_per_cluster +
 801306c:	008200b4 	movhi	r2,2050
 8013070:	10a26104 	addi	r2,r2,-30332
 8013074:	14001417 	ldw	r16,80(r2)
 8013078:	e0bffe0f 	ldh	r2,-8(fp)
 801307c:	00c200b4 	movhi	r3,2050
 8013080:	18e27604 	addi	r3,r3,-30248
 8013084:	100491ba 	slli	r2,r2,6
 8013088:	10c5883a 	add	r2,r2,r3
 801308c:	10800704 	addi	r2,r2,28
 8013090:	10800017 	ldw	r2,0(r2)
 8013094:	113fff84 	addi	r4,r2,-2
 8013098:	008200b4 	movhi	r2,2050
 801309c:	10a26104 	addi	r2,r2,-30332
 80130a0:	10800383 	ldbu	r2,14(r2)
 80130a4:	11403fcc 	andi	r5,r2,255
 80130a8:	800d84c0 	call	800d84c <__mulsi3>
 80130ac:	8089883a 	add	r4,r16,r2
 80130b0:	e0bffe0f 	ldh	r2,-8(fp)
 80130b4:	00c200b4 	movhi	r3,2050
 80130b8:	18e27604 	addi	r3,r3,-30248
 80130bc:	100491ba 	slli	r2,r2,6
 80130c0:	10c5883a 	add	r2,r2,r3
 80130c4:	10800804 	addi	r2,r2,32
 80130c8:	10800017 	ldw	r2,0(r2)
 80130cc:	2085883a 	add	r2,r4,r2
 80130d0:	e0bffc15 	stw	r2,-16(fp)
 80130d4:	00001506 	br	801312c <alt_up_sd_card_read+0x2cc>
                                  active_files[file_handle].current_sector_in_cluster;                                
                            }
                        }
                        else
                        {
                            return -2;
 80130d8:	00bfff84 	movi	r2,-2
 80130dc:	e0bfff15 	stw	r2,-4(fp)
 80130e0:	00004106 	br	80131e8 <alt_up_sd_card_read+0x388>
                        }
                    }
                    else
                    {
                        active_files[file_handle].current_sector_in_cluster = active_files[file_handle].current_sector_in_cluster + 1;
 80130e4:	e17ffe0f 	ldh	r5,-8(fp)
 80130e8:	e0bffe0f 	ldh	r2,-8(fp)
 80130ec:	00c200b4 	movhi	r3,2050
 80130f0:	18e27604 	addi	r3,r3,-30248
 80130f4:	100491ba 	slli	r2,r2,6
 80130f8:	10c5883a 	add	r2,r2,r3
 80130fc:	10800804 	addi	r2,r2,32
 8013100:	10800017 	ldw	r2,0(r2)
 8013104:	11000044 	addi	r4,r2,1
 8013108:	00c200b4 	movhi	r3,2050
 801310c:	18e27604 	addi	r3,r3,-30248
 8013110:	280491ba 	slli	r2,r5,6
 8013114:	10c5883a 	add	r2,r2,r3
 8013118:	10800804 	addi	r2,r2,32
 801311c:	11000015 	stw	r4,0(r2)
                        data_sector = data_sector + 1;
 8013120:	e0bffc17 	ldw	r2,-16(fp)
 8013124:	10800044 	addi	r2,r2,1
 8013128:	e0bffc15 	stw	r2,-16(fp)
                    }
                }
                // Reading te first byte of the file.
                if (current_sector_index != (data_sector + fat_partition_offset_in_512_byte_sectors))
 801312c:	d0e6c717 	ldw	r3,-25828(gp)
 8013130:	e0bffc17 	ldw	r2,-16(fp)
 8013134:	1885883a 	add	r2,r3,r2
 8013138:	1007883a 	mov	r3,r2
 801313c:	d0a6cb17 	ldw	r2,-25812(gp)
 8013140:	18800826 	beq	r3,r2,8013164 <alt_up_sd_card_read+0x304>
                {
                    if (!Read_Sector_Data(data_sector, fat_partition_offset_in_512_byte_sectors))
 8013144:	d166c717 	ldw	r5,-25828(gp)
 8013148:	e13ffc17 	ldw	r4,-16(fp)
 801314c:	800f6cc0 	call	800f6cc <Read_Sector_Data>
 8013150:	1004c03a 	cmpne	r2,r2,zero
 8013154:	1000031e 	bne	r2,zero,8013164 <alt_up_sd_card_read+0x304>
                    {
						return -2;
 8013158:	00bfff84 	movi	r2,-2
 801315c:	e0bfff15 	stw	r2,-4(fp)
 8013160:	00002106 	br	80131e8 <alt_up_sd_card_read+0x388>
                    }
                }

                ch = (char) IORD_8DIRECT(buffer_memory, (active_files[file_handle].current_byte_position % 512));
 8013164:	e0bffe0f 	ldh	r2,-8(fp)
 8013168:	00c200b4 	movhi	r3,2050
 801316c:	18e27604 	addi	r3,r3,-30248
 8013170:	100491ba 	slli	r2,r2,6
 8013174:	10c5883a 	add	r2,r2,r3
 8013178:	10800904 	addi	r2,r2,36
 801317c:	10800017 	ldw	r2,0(r2)
 8013180:	10807fcc 	andi	r2,r2,511
 8013184:	1007883a 	mov	r3,r2
 8013188:	d0a6c617 	ldw	r2,-25832(gp)
 801318c:	1885883a 	add	r2,r3,r2
 8013190:	10800023 	ldbuio	r2,0(r2)
 8013194:	10803fcc 	andi	r2,r2,255
 8013198:	1080201c 	xori	r2,r2,128
 801319c:	10bfe004 	addi	r2,r2,-128
 80131a0:	e0bffd0d 	sth	r2,-12(fp)
                active_files[file_handle].current_byte_position = active_files[file_handle].current_byte_position + 1;
 80131a4:	e17ffe0f 	ldh	r5,-8(fp)
 80131a8:	e0bffe0f 	ldh	r2,-8(fp)
 80131ac:	00c200b4 	movhi	r3,2050
 80131b0:	18e27604 	addi	r3,r3,-30248
 80131b4:	100491ba 	slli	r2,r2,6
 80131b8:	10c5883a 	add	r2,r2,r3
 80131bc:	10800904 	addi	r2,r2,36
 80131c0:	10800017 	ldw	r2,0(r2)
 80131c4:	11000044 	addi	r4,r2,1
 80131c8:	00c200b4 	movhi	r3,2050
 80131cc:	18e27604 	addi	r3,r3,-30248
 80131d0:	280491ba 	slli	r2,r5,6
 80131d4:	10c5883a 	add	r2,r2,r3
 80131d8:	10800904 	addi	r2,r2,36
 80131dc:	11000015 	stw	r4,0(r2)
            }
        }
    }
    
    return ch;
 80131e0:	e0bffd0f 	ldh	r2,-12(fp)
 80131e4:	e0bfff15 	stw	r2,-4(fp)
 80131e8:	e0bfff17 	ldw	r2,-4(fp)
}
 80131ec:	e037883a 	mov	sp,fp
 80131f0:	dfc00217 	ldw	ra,8(sp)
 80131f4:	df000117 	ldw	fp,4(sp)
 80131f8:	dc000017 	ldw	r16,0(sp)
 80131fc:	dec00304 	addi	sp,sp,12
 8013200:	f800283a 	ret

08013204 <alt_up_sd_card_write>:


bool alt_up_sd_card_write(short int file_handle, char byte_of_data)
/* Write a single character to a given file. Return true if successful, and false otherwise. */
{
 8013204:	defff504 	addi	sp,sp,-44
 8013208:	dfc00a15 	stw	ra,40(sp)
 801320c:	df000915 	stw	fp,36(sp)
 8013210:	dc000815 	stw	r16,32(sp)
 8013214:	df000804 	addi	fp,sp,32
 8013218:	e13ffd0d 	sth	r4,-12(fp)
 801321c:	e17ffe05 	stb	r5,-8(fp)
    bool result = false;
 8013220:	e03ffa15 	stw	zero,-24(fp)
    
    if ((file_handle >= 0) && (file_handle < MAX_FILES_OPENED))
 8013224:	e0bffd0f 	ldh	r2,-12(fp)
 8013228:	1004803a 	cmplt	r2,r2,zero
 801322c:	1001751e 	bne	r2,zero,8013804 <alt_up_sd_card_write+0x600>
 8013230:	e0bffd0f 	ldh	r2,-12(fp)
 8013234:	10800508 	cmpgei	r2,r2,20
 8013238:	1001721e 	bne	r2,zero,8013804 <alt_up_sd_card_write+0x600>
    {
        if (active_files[file_handle].in_use)
 801323c:	e0bffd0f 	ldh	r2,-12(fp)
 8013240:	00c200b4 	movhi	r3,2050
 8013244:	18e27604 	addi	r3,r3,-30248
 8013248:	100491ba 	slli	r2,r2,6
 801324c:	10c5883a 	add	r2,r2,r3
 8013250:	10800f04 	addi	r2,r2,60
 8013254:	10800017 	ldw	r2,0(r2)
 8013258:	1005003a 	cmpeq	r2,r2,zero
 801325c:	1001691e 	bne	r2,zero,8013804 <alt_up_sd_card_write+0x600>
        {
            int data_sector = boot_sector_data.data_sector_offset + (active_files[file_handle].current_cluster_index - 2)*boot_sector_data.sectors_per_cluster +
                              active_files[file_handle].current_sector_in_cluster;
 8013260:	008200b4 	movhi	r2,2050
 8013264:	10a26104 	addi	r2,r2,-30332
 8013268:	14001417 	ldw	r16,80(r2)
 801326c:	e0bffd0f 	ldh	r2,-12(fp)
 8013270:	00c200b4 	movhi	r3,2050
 8013274:	18e27604 	addi	r3,r3,-30248
 8013278:	100491ba 	slli	r2,r2,6
 801327c:	10c5883a 	add	r2,r2,r3
 8013280:	10800704 	addi	r2,r2,28
 8013284:	10800017 	ldw	r2,0(r2)
 8013288:	113fff84 	addi	r4,r2,-2
 801328c:	008200b4 	movhi	r2,2050
 8013290:	10a26104 	addi	r2,r2,-30332
 8013294:	10800383 	ldbu	r2,14(r2)
 8013298:	11403fcc 	andi	r5,r2,255
 801329c:	800d84c0 	call	800d84c <__mulsi3>
 80132a0:	8089883a 	add	r4,r16,r2
 80132a4:	e0bffd0f 	ldh	r2,-12(fp)
 80132a8:	00c200b4 	movhi	r3,2050
 80132ac:	18e27604 	addi	r3,r3,-30248
 80132b0:	100491ba 	slli	r2,r2,6
 80132b4:	10c5883a 	add	r2,r2,r3
 80132b8:	10800804 	addi	r2,r2,32
 80132bc:	10800017 	ldw	r2,0(r2)
 80132c0:	2085883a 	add	r2,r4,r2
 80132c4:	e0bff915 	stw	r2,-28(fp)
			short int buffer_offset = active_files[file_handle].current_byte_position % boot_sector_data.sector_size_in_bytes;
 80132c8:	e0bffd0f 	ldh	r2,-12(fp)
 80132cc:	00c200b4 	movhi	r3,2050
 80132d0:	18e27604 	addi	r3,r3,-30248
 80132d4:	100491ba 	slli	r2,r2,6
 80132d8:	10c5883a 	add	r2,r2,r3
 80132dc:	10800904 	addi	r2,r2,36
 80132e0:	11000017 	ldw	r4,0(r2)
 80132e4:	008200b4 	movhi	r2,2050
 80132e8:	10a26104 	addi	r2,r2,-30332
 80132ec:	1080030b 	ldhu	r2,12(r2)
 80132f0:	117fffcc 	andi	r5,r2,65535
 80132f4:	800d8440 	call	800d844 <__umodsi3>
 80132f8:	e0bff80d 	sth	r2,-32(fp)

			if (active_files[file_handle].current_byte_position < active_files[file_handle].file_size_in_bytes)
 80132fc:	e0bffd0f 	ldh	r2,-12(fp)
 8013300:	00c200b4 	movhi	r3,2050
 8013304:	18e27604 	addi	r3,r3,-30248
 8013308:	100491ba 	slli	r2,r2,6
 801330c:	10c5883a 	add	r2,r2,r3
 8013310:	10800904 	addi	r2,r2,36
 8013314:	11000017 	ldw	r4,0(r2)
 8013318:	e0bffd0f 	ldh	r2,-12(fp)
 801331c:	00c200b4 	movhi	r3,2050
 8013320:	18e27604 	addi	r3,r3,-30248
 8013324:	100491ba 	slli	r2,r2,6
 8013328:	10c5883a 	add	r2,r2,r3
 801332c:	10800604 	addi	r2,r2,24
 8013330:	10800017 	ldw	r2,0(r2)
 8013334:	2080682e 	bgeu	r4,r2,80134d8 <alt_up_sd_card_write+0x2d4>
            {
                if ((active_files[file_handle].current_byte_position > 0) && (buffer_offset == 0))
 8013338:	e0bffd0f 	ldh	r2,-12(fp)
 801333c:	00c200b4 	movhi	r3,2050
 8013340:	18e27604 	addi	r3,r3,-30248
 8013344:	100491ba 	slli	r2,r2,6
 8013348:	10c5883a 	add	r2,r2,r3
 801334c:	10800904 	addi	r2,r2,36
 8013350:	10800017 	ldw	r2,0(r2)
 8013354:	1005003a 	cmpeq	r2,r2,zero
 8013358:	1000de1e 	bne	r2,zero,80136d4 <alt_up_sd_card_write+0x4d0>
 801335c:	e0bff80f 	ldh	r2,-32(fp)
 8013360:	1004c03a 	cmpne	r2,r2,zero
 8013364:	1000db1e 	bne	r2,zero,80136d4 <alt_up_sd_card_write+0x4d0>
                {
                    // Read in a new sector of data.
                    if (active_files[file_handle].current_sector_in_cluster == boot_sector_data.sectors_per_cluster - 1)
 8013368:	e0bffd0f 	ldh	r2,-12(fp)
 801336c:	00c200b4 	movhi	r3,2050
 8013370:	18e27604 	addi	r3,r3,-30248
 8013374:	100491ba 	slli	r2,r2,6
 8013378:	10c5883a 	add	r2,r2,r3
 801337c:	10800804 	addi	r2,r2,32
 8013380:	10c00017 	ldw	r3,0(r2)
 8013384:	008200b4 	movhi	r2,2050
 8013388:	10a26104 	addi	r2,r2,-30332
 801338c:	10800383 	ldbu	r2,14(r2)
 8013390:	10803fcc 	andi	r2,r2,255
 8013394:	10bfffc4 	addi	r2,r2,-1
 8013398:	18803c1e 	bne	r3,r2,801348c <alt_up_sd_card_write+0x288>
                    {
                        // Go to the next cluster.
                        unsigned short int next_cluster;
                        if (get_cluster_flag(active_files[file_handle].current_cluster_index, &next_cluster))
 801339c:	e0bffd0f 	ldh	r2,-12(fp)
 80133a0:	00c200b4 	movhi	r3,2050
 80133a4:	18e27604 	addi	r3,r3,-30248
 80133a8:	100491ba 	slli	r2,r2,6
 80133ac:	10c5883a 	add	r2,r2,r3
 80133b0:	10800704 	addi	r2,r2,28
 80133b4:	11000017 	ldw	r4,0(r2)
 80133b8:	e17ffb04 	addi	r5,fp,-20
 80133bc:	800f7c80 	call	800f7c8 <get_cluster_flag>
 80133c0:	1005003a 	cmpeq	r2,r2,zero
 80133c4:	10002f1e 	bne	r2,zero,8013484 <alt_up_sd_card_write+0x280>
                        {
                            if (next_cluster < 0x0000fff8)
 80133c8:	e0bffb0b 	ldhu	r2,-20(fp)
 80133cc:	10ffffcc 	andi	r3,r2,65535
 80133d0:	00bffdd4 	movui	r2,65527
 80133d4:	10c0bf36 	bltu	r2,r3,80136d4 <alt_up_sd_card_write+0x4d0>
                            {
                                active_files[file_handle].current_cluster_index = next_cluster;
 80133d8:	e13ffd0f 	ldh	r4,-12(fp)
 80133dc:	e0bffb0b 	ldhu	r2,-20(fp)
 80133e0:	117fffcc 	andi	r5,r2,65535
 80133e4:	00c200b4 	movhi	r3,2050
 80133e8:	18e27604 	addi	r3,r3,-30248
 80133ec:	200491ba 	slli	r2,r4,6
 80133f0:	10c5883a 	add	r2,r2,r3
 80133f4:	10800704 	addi	r2,r2,28
 80133f8:	11400015 	stw	r5,0(r2)
								active_files[file_handle].current_sector_in_cluster = 0;
 80133fc:	e0bffd0f 	ldh	r2,-12(fp)
 8013400:	00c200b4 	movhi	r3,2050
 8013404:	18e27604 	addi	r3,r3,-30248
 8013408:	100491ba 	slli	r2,r2,6
 801340c:	10c5883a 	add	r2,r2,r3
 8013410:	10800804 	addi	r2,r2,32
 8013414:	10000015 	stw	zero,0(r2)
                                data_sector = boot_sector_data.data_sector_offset + (active_files[file_handle].current_cluster_index - 2)*boot_sector_data.sectors_per_cluster +
 8013418:	008200b4 	movhi	r2,2050
 801341c:	10a26104 	addi	r2,r2,-30332
 8013420:	14001417 	ldw	r16,80(r2)
 8013424:	e0bffd0f 	ldh	r2,-12(fp)
 8013428:	00c200b4 	movhi	r3,2050
 801342c:	18e27604 	addi	r3,r3,-30248
 8013430:	100491ba 	slli	r2,r2,6
 8013434:	10c5883a 	add	r2,r2,r3
 8013438:	10800704 	addi	r2,r2,28
 801343c:	10800017 	ldw	r2,0(r2)
 8013440:	113fff84 	addi	r4,r2,-2
 8013444:	008200b4 	movhi	r2,2050
 8013448:	10a26104 	addi	r2,r2,-30332
 801344c:	10800383 	ldbu	r2,14(r2)
 8013450:	11403fcc 	andi	r5,r2,255
 8013454:	800d84c0 	call	800d84c <__mulsi3>
 8013458:	8089883a 	add	r4,r16,r2
 801345c:	e0bffd0f 	ldh	r2,-12(fp)
 8013460:	00c200b4 	movhi	r3,2050
 8013464:	18e27604 	addi	r3,r3,-30248
 8013468:	100491ba 	slli	r2,r2,6
 801346c:	10c5883a 	add	r2,r2,r3
 8013470:	10800804 	addi	r2,r2,32
 8013474:	10800017 	ldw	r2,0(r2)
 8013478:	2085883a 	add	r2,r4,r2
 801347c:	e0bff915 	stw	r2,-28(fp)
 8013480:	00009406 	br	80136d4 <alt_up_sd_card_write+0x4d0>
                                  active_files[file_handle].current_sector_in_cluster;                                
                            }
                        }
                        else
                        {
                            return false;
 8013484:	e03fff15 	stw	zero,-4(fp)
 8013488:	0000e006 	br	801380c <alt_up_sd_card_write+0x608>
                        }
                    }
                    else
                    {
                        active_files[file_handle].current_sector_in_cluster = active_files[file_handle].current_sector_in_cluster + 1;
 801348c:	e17ffd0f 	ldh	r5,-12(fp)
 8013490:	e0bffd0f 	ldh	r2,-12(fp)
 8013494:	00c200b4 	movhi	r3,2050
 8013498:	18e27604 	addi	r3,r3,-30248
 801349c:	100491ba 	slli	r2,r2,6
 80134a0:	10c5883a 	add	r2,r2,r3
 80134a4:	10800804 	addi	r2,r2,32
 80134a8:	10800017 	ldw	r2,0(r2)
 80134ac:	11000044 	addi	r4,r2,1
 80134b0:	00c200b4 	movhi	r3,2050
 80134b4:	18e27604 	addi	r3,r3,-30248
 80134b8:	280491ba 	slli	r2,r5,6
 80134bc:	10c5883a 	add	r2,r2,r3
 80134c0:	10800804 	addi	r2,r2,32
 80134c4:	11000015 	stw	r4,0(r2)
                        data_sector = data_sector + 1;
 80134c8:	e0bff917 	ldw	r2,-28(fp)
 80134cc:	10800044 	addi	r2,r2,1
 80134d0:	e0bff915 	stw	r2,-28(fp)
 80134d4:	00007f06 	br	80136d4 <alt_up_sd_card_write+0x4d0>
                }
            }
			else
			{
				/* You are adding data to the end of the file, so increment its size and look for an additional data cluster if needed. */
				if ((active_files[file_handle].current_byte_position > 0) && (buffer_offset == 0))
 80134d8:	e0bffd0f 	ldh	r2,-12(fp)
 80134dc:	00c200b4 	movhi	r3,2050
 80134e0:	18e27604 	addi	r3,r3,-30248
 80134e4:	100491ba 	slli	r2,r2,6
 80134e8:	10c5883a 	add	r2,r2,r3
 80134ec:	10800904 	addi	r2,r2,36
 80134f0:	10800017 	ldw	r2,0(r2)
 80134f4:	1005003a 	cmpeq	r2,r2,zero
 80134f8:	1000761e 	bne	r2,zero,80136d4 <alt_up_sd_card_write+0x4d0>
 80134fc:	e0bff80f 	ldh	r2,-32(fp)
 8013500:	1004c03a 	cmpne	r2,r2,zero
 8013504:	1000731e 	bne	r2,zero,80136d4 <alt_up_sd_card_write+0x4d0>
				{
					if (active_files[file_handle].current_sector_in_cluster == boot_sector_data.sectors_per_cluster - 1)
 8013508:	e0bffd0f 	ldh	r2,-12(fp)
 801350c:	00c200b4 	movhi	r3,2050
 8013510:	18e27604 	addi	r3,r3,-30248
 8013514:	100491ba 	slli	r2,r2,6
 8013518:	10c5883a 	add	r2,r2,r3
 801351c:	10800804 	addi	r2,r2,32
 8013520:	10c00017 	ldw	r3,0(r2)
 8013524:	008200b4 	movhi	r2,2050
 8013528:	10a26104 	addi	r2,r2,-30332
 801352c:	10800383 	ldbu	r2,14(r2)
 8013530:	10803fcc 	andi	r2,r2,255
 8013534:	10bfffc4 	addi	r2,r2,-1
 8013538:	1880381e 	bne	r3,r2,801361c <alt_up_sd_card_write+0x418>
					{
						/* Find a new cluster if possible. */
						unsigned int cluster_number;

						if (find_first_empty_cluster(&cluster_number))
 801353c:	e13ffc04 	addi	r4,fp,-16
 8013540:	80118140 	call	8011814 <find_first_empty_cluster>
 8013544:	1005003a 	cmpeq	r2,r2,zero
 8013548:	1000321e 	bne	r2,zero,8013614 <alt_up_sd_card_write+0x410>
						{
							// mark clusters in both File Allocation Tables.
							mark_cluster(active_files[file_handle].current_cluster_index, ((unsigned short int) (cluster_number & 0x0000ffff)), true);
 801354c:	e0bffd0f 	ldh	r2,-12(fp)
 8013550:	00c200b4 	movhi	r3,2050
 8013554:	18e27604 	addi	r3,r3,-30248
 8013558:	100491ba 	slli	r2,r2,6
 801355c:	10c5883a 	add	r2,r2,r3
 8013560:	10800704 	addi	r2,r2,28
 8013564:	11000017 	ldw	r4,0(r2)
 8013568:	e0bffc17 	ldw	r2,-16(fp)
 801356c:	117fffcc 	andi	r5,r2,65535
 8013570:	2960001c 	xori	r5,r5,32768
 8013574:	29600004 	addi	r5,r5,-32768
 8013578:	01800044 	movi	r6,1
 801357c:	800f8800 	call	800f880 <mark_cluster>
							mark_cluster(cluster_number, 0xffff, true);
 8013580:	e13ffc17 	ldw	r4,-16(fp)
 8013584:	017fffc4 	movi	r5,-1
 8013588:	01800044 	movi	r6,1
 801358c:	800f8800 	call	800f880 <mark_cluster>
							mark_cluster(active_files[file_handle].current_cluster_index, ((unsigned short int) (cluster_number & 0x0000ffff)), false);
 8013590:	e0bffd0f 	ldh	r2,-12(fp)
 8013594:	00c200b4 	movhi	r3,2050
 8013598:	18e27604 	addi	r3,r3,-30248
 801359c:	100491ba 	slli	r2,r2,6
 80135a0:	10c5883a 	add	r2,r2,r3
 80135a4:	10800704 	addi	r2,r2,28
 80135a8:	11000017 	ldw	r4,0(r2)
 80135ac:	e0bffc17 	ldw	r2,-16(fp)
 80135b0:	117fffcc 	andi	r5,r2,65535
 80135b4:	2960001c 	xori	r5,r5,32768
 80135b8:	29600004 	addi	r5,r5,-32768
 80135bc:	000d883a 	mov	r6,zero
 80135c0:	800f8800 	call	800f880 <mark_cluster>
							mark_cluster(cluster_number, 0xffff, false);
 80135c4:	e13ffc17 	ldw	r4,-16(fp)
 80135c8:	017fffc4 	movi	r5,-1
 80135cc:	000d883a 	mov	r6,zero
 80135d0:	800f8800 	call	800f880 <mark_cluster>
							// Change cluster index and sector index to compute a new data sector.
							active_files[file_handle].current_cluster_index = cluster_number;
 80135d4:	e0bffd0f 	ldh	r2,-12(fp)
 80135d8:	e13ffc17 	ldw	r4,-16(fp)
 80135dc:	00c200b4 	movhi	r3,2050
 80135e0:	18e27604 	addi	r3,r3,-30248
 80135e4:	100491ba 	slli	r2,r2,6
 80135e8:	10c5883a 	add	r2,r2,r3
 80135ec:	10800704 	addi	r2,r2,28
 80135f0:	11000015 	stw	r4,0(r2)
							active_files[file_handle].current_sector_in_cluster = 0;
 80135f4:	e0bffd0f 	ldh	r2,-12(fp)
 80135f8:	00c200b4 	movhi	r3,2050
 80135fc:	18e27604 	addi	r3,r3,-30248
 8013600:	100491ba 	slli	r2,r2,6
 8013604:	10c5883a 	add	r2,r2,r3
 8013608:	10800804 	addi	r2,r2,32
 801360c:	10000015 	stw	zero,0(r2)
 8013610:	00001606 	br	801366c <alt_up_sd_card_write+0x468>
						}
						else
						{
							return false;
 8013614:	e03fff15 	stw	zero,-4(fp)
 8013618:	00007c06 	br	801380c <alt_up_sd_card_write+0x608>
						}
					}
					else
					{
						/* Read the next sector in the cluster and modify it. We only need to change the data_sector value. The actual read happens a few lines below. */
						active_files[file_handle].current_sector_in_cluster = active_files[file_handle].current_byte_position / boot_sector_data.sector_size_in_bytes;
 801361c:	e43ffd0f 	ldh	r16,-12(fp)
 8013620:	e0bffd0f 	ldh	r2,-12(fp)
 8013624:	00c200b4 	movhi	r3,2050
 8013628:	18e27604 	addi	r3,r3,-30248
 801362c:	100491ba 	slli	r2,r2,6
 8013630:	10c5883a 	add	r2,r2,r3
 8013634:	10800904 	addi	r2,r2,36
 8013638:	11000017 	ldw	r4,0(r2)
 801363c:	008200b4 	movhi	r2,2050
 8013640:	10a26104 	addi	r2,r2,-30332
 8013644:	1080030b 	ldhu	r2,12(r2)
 8013648:	117fffcc 	andi	r5,r2,65535
 801364c:	800d83c0 	call	800d83c <__udivsi3>
 8013650:	1009883a 	mov	r4,r2
 8013654:	00c200b4 	movhi	r3,2050
 8013658:	18e27604 	addi	r3,r3,-30248
 801365c:	800491ba 	slli	r2,r16,6
 8013660:	10c5883a 	add	r2,r2,r3
 8013664:	10800804 	addi	r2,r2,32
 8013668:	11000015 	stw	r4,0(r2)
					}
					data_sector = boot_sector_data.data_sector_offset + (active_files[file_handle].current_cluster_index - 2)*boot_sector_data.sectors_per_cluster +
 801366c:	008200b4 	movhi	r2,2050
 8013670:	10a26104 	addi	r2,r2,-30332
 8013674:	14001417 	ldw	r16,80(r2)
 8013678:	e0bffd0f 	ldh	r2,-12(fp)
 801367c:	00c200b4 	movhi	r3,2050
 8013680:	18e27604 	addi	r3,r3,-30248
 8013684:	100491ba 	slli	r2,r2,6
 8013688:	10c5883a 	add	r2,r2,r3
 801368c:	10800704 	addi	r2,r2,28
 8013690:	10800017 	ldw	r2,0(r2)
 8013694:	113fff84 	addi	r4,r2,-2
 8013698:	008200b4 	movhi	r2,2050
 801369c:	10a26104 	addi	r2,r2,-30332
 80136a0:	10800383 	ldbu	r2,14(r2)
 80136a4:	11403fcc 	andi	r5,r2,255
 80136a8:	800d84c0 	call	800d84c <__mulsi3>
 80136ac:	8089883a 	add	r4,r16,r2
 80136b0:	e0bffd0f 	ldh	r2,-12(fp)
 80136b4:	00c200b4 	movhi	r3,2050
 80136b8:	18e27604 	addi	r3,r3,-30248
 80136bc:	100491ba 	slli	r2,r2,6
 80136c0:	10c5883a 	add	r2,r2,r3
 80136c4:	10800804 	addi	r2,r2,32
 80136c8:	10800017 	ldw	r2,0(r2)
 80136cc:	2085883a 	add	r2,r4,r2
 80136d0:	e0bff915 	stw	r2,-28(fp)
                          active_files[file_handle].current_sector_in_cluster;
				}
			}
            // Reading a data sector into the buffer. Note that changes to the most recently modified sector will be saved before
			// a new sector is read from the SD Card.
            if (current_sector_index != data_sector + fat_partition_offset_in_512_byte_sectors)
 80136d4:	d0e6c717 	ldw	r3,-25828(gp)
 80136d8:	e0bff917 	ldw	r2,-28(fp)
 80136dc:	1885883a 	add	r2,r3,r2
 80136e0:	1007883a 	mov	r3,r2
 80136e4:	d0a6cb17 	ldw	r2,-25812(gp)
 80136e8:	18800726 	beq	r3,r2,8013708 <alt_up_sd_card_write+0x504>
            {
                if (!Read_Sector_Data(data_sector, fat_partition_offset_in_512_byte_sectors))
 80136ec:	d166c717 	ldw	r5,-25828(gp)
 80136f0:	e13ff917 	ldw	r4,-28(fp)
 80136f4:	800f6cc0 	call	800f6cc <Read_Sector_Data>
 80136f8:	1004c03a 	cmpne	r2,r2,zero
 80136fc:	1000021e 	bne	r2,zero,8013708 <alt_up_sd_card_write+0x504>
                {
					return false;
 8013700:	e03fff15 	stw	zero,-4(fp)
 8013704:	00004106 	br	801380c <alt_up_sd_card_write+0x608>
                }
            }
            // Write a byte of data to the buffer.
			IOWR_8DIRECT(buffer_memory, buffer_offset, byte_of_data);
 8013708:	e0bff80f 	ldh	r2,-32(fp)
 801370c:	1007883a 	mov	r3,r2
 8013710:	d0a6c617 	ldw	r2,-25832(gp)
 8013714:	1885883a 	add	r2,r3,r2
 8013718:	e0fffe07 	ldb	r3,-8(fp)
 801371c:	10c00025 	stbio	r3,0(r2)
			active_files[file_handle].current_byte_position = active_files[file_handle].current_byte_position + 1;
 8013720:	e17ffd0f 	ldh	r5,-12(fp)
 8013724:	e0bffd0f 	ldh	r2,-12(fp)
 8013728:	00c200b4 	movhi	r3,2050
 801372c:	18e27604 	addi	r3,r3,-30248
 8013730:	100491ba 	slli	r2,r2,6
 8013734:	10c5883a 	add	r2,r2,r3
 8013738:	10800904 	addi	r2,r2,36
 801373c:	10800017 	ldw	r2,0(r2)
 8013740:	11000044 	addi	r4,r2,1
 8013744:	00c200b4 	movhi	r3,2050
 8013748:	18e27604 	addi	r3,r3,-30248
 801374c:	280491ba 	slli	r2,r5,6
 8013750:	10c5883a 	add	r2,r2,r3
 8013754:	10800904 	addi	r2,r2,36
 8013758:	11000015 	stw	r4,0(r2)

			// Modify the file record only when necessary.
			if (active_files[file_handle].current_byte_position >= active_files[file_handle].file_size_in_bytes)
 801375c:	e0bffd0f 	ldh	r2,-12(fp)
 8013760:	00c200b4 	movhi	r3,2050
 8013764:	18e27604 	addi	r3,r3,-30248
 8013768:	100491ba 	slli	r2,r2,6
 801376c:	10c5883a 	add	r2,r2,r3
 8013770:	10800904 	addi	r2,r2,36
 8013774:	11000017 	ldw	r4,0(r2)
 8013778:	e0bffd0f 	ldh	r2,-12(fp)
 801377c:	00c200b4 	movhi	r3,2050
 8013780:	18e27604 	addi	r3,r3,-30248
 8013784:	100491ba 	slli	r2,r2,6
 8013788:	10c5883a 	add	r2,r2,r3
 801378c:	10800604 	addi	r2,r2,24
 8013790:	10800017 	ldw	r2,0(r2)
 8013794:	20801736 	bltu	r4,r2,80137f4 <alt_up_sd_card_write+0x5f0>
			{
				active_files[file_handle].file_size_in_bytes = active_files[file_handle].file_size_in_bytes + 1;
 8013798:	e17ffd0f 	ldh	r5,-12(fp)
 801379c:	e0bffd0f 	ldh	r2,-12(fp)
 80137a0:	00c200b4 	movhi	r3,2050
 80137a4:	18e27604 	addi	r3,r3,-30248
 80137a8:	100491ba 	slli	r2,r2,6
 80137ac:	10c5883a 	add	r2,r2,r3
 80137b0:	10800604 	addi	r2,r2,24
 80137b4:	10800017 	ldw	r2,0(r2)
 80137b8:	11000044 	addi	r4,r2,1
 80137bc:	00c200b4 	movhi	r3,2050
 80137c0:	18e27604 	addi	r3,r3,-30248
 80137c4:	280491ba 	slli	r2,r5,6
 80137c8:	10c5883a 	add	r2,r2,r3
 80137cc:	10800604 	addi	r2,r2,24
 80137d0:	11000015 	stw	r4,0(r2)
				active_files[file_handle].modified = true;
 80137d4:	e0bffd0f 	ldh	r2,-12(fp)
 80137d8:	00c200b4 	movhi	r3,2050
 80137dc:	18e27604 	addi	r3,r3,-30248
 80137e0:	100491ba 	slli	r2,r2,6
 80137e4:	10c5883a 	add	r2,r2,r3
 80137e8:	10c00e04 	addi	r3,r2,56
 80137ec:	00800044 	movi	r2,1
 80137f0:	18800015 	stw	r2,0(r3)
			}
            // Invaldiate the buffer to ensure that the buffer contents are written to the SD card whe nthe file is closed.
            current_sector_modified = true;
 80137f4:	00800044 	movi	r2,1
 80137f8:	d0a6ca15 	stw	r2,-25816(gp)
			result = true;
 80137fc:	00800044 	movi	r2,1
 8013800:	e0bffa15 	stw	r2,-24(fp)
		}
    }
    
    return result;
 8013804:	e0bffa17 	ldw	r2,-24(fp)
 8013808:	e0bfff15 	stw	r2,-4(fp)
 801380c:	e0bfff17 	ldw	r2,-4(fp)
}
 8013810:	e037883a 	mov	sp,fp
 8013814:	dfc00217 	ldw	ra,8(sp)
 8013818:	df000117 	ldw	fp,4(sp)
 801381c:	dc000017 	ldw	r16,0(sp)
 8013820:	dec00304 	addi	sp,sp,12
 8013824:	f800283a 	ret

08013828 <alt_up_sd_card_fclose>:


bool alt_up_sd_card_fclose(short int file_handle)
// This function closes an opened file and saves data to SD Card if necessary.
{
 8013828:	defffa04 	addi	sp,sp,-24
 801382c:	dfc00515 	stw	ra,20(sp)
 8013830:	df000415 	stw	fp,16(sp)
 8013834:	dc000315 	stw	r16,12(sp)
 8013838:	df000304 	addi	fp,sp,12
 801383c:	e13fff0d 	sth	r4,-4(fp)
    bool result = false;
 8013840:	e03ffe15 	stw	zero,-8(fp)
    if ((alt_up_sd_card_is_Present()) && (is_sd_card_formated_as_FAT16))
 8013844:	80123dc0 	call	80123dc <alt_up_sd_card_is_Present>
 8013848:	1005003a 	cmpeq	r2,r2,zero
 801384c:	1000641e 	bne	r2,zero,80139e0 <alt_up_sd_card_fclose+0x1b8>
 8013850:	d0a6c017 	ldw	r2,-25856(gp)
 8013854:	1005003a 	cmpeq	r2,r2,zero
 8013858:	1000611e 	bne	r2,zero,80139e0 <alt_up_sd_card_fclose+0x1b8>
    {
        if (active_files[file_handle].in_use) 
 801385c:	e0bfff0f 	ldh	r2,-4(fp)
 8013860:	00c200b4 	movhi	r3,2050
 8013864:	18e27604 	addi	r3,r3,-30248
 8013868:	100491ba 	slli	r2,r2,6
 801386c:	10c5883a 	add	r2,r2,r3
 8013870:	10800f04 	addi	r2,r2,60
 8013874:	10800017 	ldw	r2,0(r2)
 8013878:	1005003a 	cmpeq	r2,r2,zero
 801387c:	1000581e 	bne	r2,zero,80139e0 <alt_up_sd_card_fclose+0x1b8>
        {
			if (active_files[file_handle].modified)
 8013880:	e0bfff0f 	ldh	r2,-4(fp)
 8013884:	00c200b4 	movhi	r3,2050
 8013888:	18e27604 	addi	r3,r3,-30248
 801388c:	100491ba 	slli	r2,r2,6
 8013890:	10c5883a 	add	r2,r2,r3
 8013894:	10800e04 	addi	r2,r2,56
 8013898:	10800017 	ldw	r2,0(r2)
 801389c:	1005003a 	cmpeq	r2,r2,zero
 80138a0:	1000461e 	bne	r2,zero,80139bc <alt_up_sd_card_fclose+0x194>
			{
				unsigned int record_sector = active_files[file_handle].file_record_sector_in_cluster;
 80138a4:	e0bfff0f 	ldh	r2,-4(fp)
 80138a8:	00c200b4 	movhi	r3,2050
 80138ac:	18e27604 	addi	r3,r3,-30248
 80138b0:	100491ba 	slli	r2,r2,6
 80138b4:	10c5883a 	add	r2,r2,r3
 80138b8:	10800b04 	addi	r2,r2,44
 80138bc:	10800017 	ldw	r2,0(r2)
 80138c0:	e0bffd15 	stw	r2,-12(fp)
				if (active_files[file_handle].file_record_cluster == 0)
 80138c4:	e0bfff0f 	ldh	r2,-4(fp)
 80138c8:	00c200b4 	movhi	r3,2050
 80138cc:	18e27604 	addi	r3,r3,-30248
 80138d0:	100491ba 	slli	r2,r2,6
 80138d4:	10c5883a 	add	r2,r2,r3
 80138d8:	10800a04 	addi	r2,r2,40
 80138dc:	10800017 	ldw	r2,0(r2)
 80138e0:	1004c03a 	cmpne	r2,r2,zero
 80138e4:	1000071e 	bne	r2,zero,8013904 <alt_up_sd_card_fclose+0xdc>
				{
					record_sector = record_sector + boot_sector_data.root_directory_sector_offset;
 80138e8:	008200b4 	movhi	r2,2050
 80138ec:	10a26104 	addi	r2,r2,-30332
 80138f0:	10c01317 	ldw	r3,76(r2)
 80138f4:	e0bffd17 	ldw	r2,-12(fp)
 80138f8:	10c5883a 	add	r2,r2,r3
 80138fc:	e0bffd15 	stw	r2,-12(fp)
 8013900:	00001406 	br	8013954 <alt_up_sd_card_fclose+0x12c>
				}
				else
				{
					record_sector = record_sector + boot_sector_data.data_sector_offset + 
 8013904:	008200b4 	movhi	r2,2050
 8013908:	10a26104 	addi	r2,r2,-30332
 801390c:	10c01417 	ldw	r3,80(r2)
 8013910:	e0bffd17 	ldw	r2,-12(fp)
 8013914:	18a1883a 	add	r16,r3,r2
 8013918:	e0bfff0f 	ldh	r2,-4(fp)
 801391c:	00c200b4 	movhi	r3,2050
 8013920:	18e27604 	addi	r3,r3,-30248
 8013924:	100491ba 	slli	r2,r2,6
 8013928:	10c5883a 	add	r2,r2,r3
 801392c:	10800a04 	addi	r2,r2,40
 8013930:	10800017 	ldw	r2,0(r2)
 8013934:	113fff84 	addi	r4,r2,-2
 8013938:	008200b4 	movhi	r2,2050
 801393c:	10a26104 	addi	r2,r2,-30332
 8013940:	10800383 	ldbu	r2,14(r2)
 8013944:	11403fcc 	andi	r5,r2,255
 8013948:	800d84c0 	call	800d84c <__mulsi3>
 801394c:	8085883a 	add	r2,r16,r2
 8013950:	e0bffd15 	stw	r2,-12(fp)
									(active_files[file_handle].file_record_cluster - 2)*boot_sector_data.sectors_per_cluster;
				}
				if (Read_Sector_Data(record_sector, fat_partition_offset_in_512_byte_sectors))
 8013954:	e13ffd17 	ldw	r4,-12(fp)
 8013958:	d166c717 	ldw	r5,-25828(gp)
 801395c:	800f6cc0 	call	800f6cc <Read_Sector_Data>
 8013960:	1005003a 	cmpeq	r2,r2,zero
 8013964:	1000151e 	bne	r2,zero,80139bc <alt_up_sd_card_fclose+0x194>
				{
					if (Write_File_Record_At_Offset(active_files[file_handle].file_record_offset, &(active_files[file_handle])))
 8013968:	e0bfff0f 	ldh	r2,-4(fp)
 801396c:	00c200b4 	movhi	r3,2050
 8013970:	18e27604 	addi	r3,r3,-30248
 8013974:	100491ba 	slli	r2,r2,6
 8013978:	10c5883a 	add	r2,r2,r3
 801397c:	10800c04 	addi	r2,r2,48
 8013980:	1080000b 	ldhu	r2,0(r2)
 8013984:	113fffcc 	andi	r4,r2,65535
 8013988:	2120001c 	xori	r4,r4,32768
 801398c:	21200004 	addi	r4,r4,-32768
 8013990:	e0bfff0f 	ldh	r2,-4(fp)
 8013994:	100491ba 	slli	r2,r2,6
 8013998:	1007883a 	mov	r3,r2
 801399c:	008200b4 	movhi	r2,2050
 80139a0:	10a27604 	addi	r2,r2,-30248
 80139a4:	188b883a 	add	r5,r3,r2
 80139a8:	800fd980 	call	800fd98 <Write_File_Record_At_Offset>
 80139ac:	1005003a 	cmpeq	r2,r2,zero
 80139b0:	1000021e 	bne	r2,zero,80139bc <alt_up_sd_card_fclose+0x194>
					{
						// Make sure that the Data has been saved to the SD Card.
						result = Save_Modified_Sector();
 80139b4:	800f67c0 	call	800f67c <Save_Modified_Sector>
 80139b8:	e0bffe15 	stw	r2,-8(fp)
					}
				}
			}
			active_files[file_handle].in_use = false;
 80139bc:	e0bfff0f 	ldh	r2,-4(fp)
 80139c0:	00c200b4 	movhi	r3,2050
 80139c4:	18e27604 	addi	r3,r3,-30248
 80139c8:	100491ba 	slli	r2,r2,6
 80139cc:	10c5883a 	add	r2,r2,r3
 80139d0:	10800f04 	addi	r2,r2,60
 80139d4:	10000015 	stw	zero,0(r2)
			result = true;
 80139d8:	00800044 	movi	r2,1
 80139dc:	e0bffe15 	stw	r2,-8(fp)
        }
    }
    
    return result;
 80139e0:	e0bffe17 	ldw	r2,-8(fp)
}
 80139e4:	e037883a 	mov	sp,fp
 80139e8:	dfc00217 	ldw	ra,8(sp)
 80139ec:	df000117 	ldw	fp,4(sp)
 80139f0:	dc000017 	ldw	r16,0(sp)
 80139f4:	dec00304 	addi	sp,sp,12
 80139f8:	f800283a 	ret

080139fc <alt_alarm_start>:
 */ 

int alt_alarm_start (alt_alarm* alarm, alt_u32 nticks,
                     alt_u32 (*callback) (void* context),
                     void* context)
{
 80139fc:	defff404 	addi	sp,sp,-48
 8013a00:	df000b15 	stw	fp,44(sp)
 8013a04:	df000b04 	addi	fp,sp,44
 8013a08:	e13ffb15 	stw	r4,-20(fp)
 8013a0c:	e17ffc15 	stw	r5,-16(fp)
 8013a10:	e1bffd15 	stw	r6,-12(fp)
 8013a14:	e1fffe15 	stw	r7,-8(fp)
  alt_irq_context irq_context;
  alt_u32 current_nticks = 0;
 8013a18:	e03ff915 	stw	zero,-28(fp)
 8013a1c:	008200b4 	movhi	r2,2050
 8013a20:	10a25004 	addi	r2,r2,-30400
 8013a24:	10800017 	ldw	r2,0(r2)
  
  if (alt_ticks_per_second ())
 8013a28:	1005003a 	cmpeq	r2,r2,zero
 8013a2c:	1000411e 	bne	r2,zero,8013b34 <alt_alarm_start+0x138>
  {
    if (alarm)
 8013a30:	e0bffb17 	ldw	r2,-20(fp)
 8013a34:	1005003a 	cmpeq	r2,r2,zero
 8013a38:	10003b1e 	bne	r2,zero,8013b28 <alt_alarm_start+0x12c>
    {
      alarm->callback = callback;
 8013a3c:	e0fffb17 	ldw	r3,-20(fp)
 8013a40:	e0bffd17 	ldw	r2,-12(fp)
 8013a44:	18800315 	stw	r2,12(r3)
      alarm->context  = context;
 8013a48:	e0fffb17 	ldw	r3,-20(fp)
 8013a4c:	e0bffe17 	ldw	r2,-8(fp)
 8013a50:	18800515 	stw	r2,20(r3)
static ALT_INLINE alt_irq_context ALT_ALWAYS_INLINE 
       alt_irq_disable_all (void)
{
  alt_irq_context context;

  NIOS2_READ_STATUS (context);
 8013a54:	0005303a 	rdctl	r2,status
 8013a58:	e0bff815 	stw	r2,-32(fp)

  NIOS2_WRITE_STATUS (context & ~NIOS2_STATUS_PIE_MSK);
 8013a5c:	e0fff817 	ldw	r3,-32(fp)
 8013a60:	00bfff84 	movi	r2,-2
 8013a64:	1884703a 	and	r2,r3,r2
 8013a68:	1001703a 	wrctl	status,r2
  
  return context;
 8013a6c:	e0bff817 	ldw	r2,-32(fp)
 
      irq_context = alt_irq_disable_all ();
 8013a70:	e0bffa15 	stw	r2,-24(fp)
 * alt_nticks() returns the elapsed number of system clock ticks since reset.
 */

static ALT_INLINE alt_u32 ALT_ALWAYS_INLINE alt_nticks (void)
{
  return _alt_nticks;
 8013a74:	008200b4 	movhi	r2,2050
 8013a78:	10a25104 	addi	r2,r2,-30396
 8013a7c:	10800017 	ldw	r2,0(r2)
      
      current_nticks = alt_nticks();
 8013a80:	e0bff915 	stw	r2,-28(fp)
      
      alarm->time = nticks + current_nticks + 1; 
 8013a84:	e0fffc17 	ldw	r3,-16(fp)
 8013a88:	e0bff917 	ldw	r2,-28(fp)
 8013a8c:	1885883a 	add	r2,r3,r2
 8013a90:	10c00044 	addi	r3,r2,1
 8013a94:	e0bffb17 	ldw	r2,-20(fp)
 8013a98:	10c00215 	stw	r3,8(r2)
      /* 
       * If the desired alarm time causes a roll-over, set the rollover
       * flag. This will prevent the subsequent tick event from causing
       * an alarm too early.
       */
      if(alarm->time < current_nticks)
 8013a9c:	e0bffb17 	ldw	r2,-20(fp)
 8013aa0:	10c00217 	ldw	r3,8(r2)
 8013aa4:	e0bff917 	ldw	r2,-28(fp)
 8013aa8:	1880042e 	bgeu	r3,r2,8013abc <alt_alarm_start+0xc0>
      {
        alarm->rollover = 1;
 8013aac:	e0fffb17 	ldw	r3,-20(fp)
 8013ab0:	00800044 	movi	r2,1
 8013ab4:	18800405 	stb	r2,16(r3)
 8013ab8:	00000206 	br	8013ac4 <alt_alarm_start+0xc8>
      }
      else
      {
        alarm->rollover = 0;
 8013abc:	e0bffb17 	ldw	r2,-20(fp)
 8013ac0:	10000405 	stb	zero,16(r2)
      }
    
      alt_llist_insert (&alt_alarm_list, &alarm->llist);
 8013ac4:	e0fffb17 	ldw	r3,-20(fp)
 8013ac8:	00820074 	movhi	r2,2049
 8013acc:	109b9104 	addi	r2,r2,28228
 8013ad0:	e0bff615 	stw	r2,-40(fp)
 8013ad4:	e0fff715 	stw	r3,-36(fp)
 */

static ALT_INLINE void ALT_ALWAYS_INLINE alt_llist_insert(alt_llist* list, 
                alt_llist* entry)
{
  entry->previous = list;
 8013ad8:	e0fff717 	ldw	r3,-36(fp)
 8013adc:	e0bff617 	ldw	r2,-40(fp)
 8013ae0:	18800115 	stw	r2,4(r3)
  entry->next     = list->next;
 8013ae4:	e0bff617 	ldw	r2,-40(fp)
 8013ae8:	10c00017 	ldw	r3,0(r2)
 8013aec:	e0bff717 	ldw	r2,-36(fp)
 8013af0:	10c00015 	stw	r3,0(r2)

  list->next->previous = entry;
 8013af4:	e0bff617 	ldw	r2,-40(fp)
 8013af8:	10c00017 	ldw	r3,0(r2)
 8013afc:	e0bff717 	ldw	r2,-36(fp)
 8013b00:	18800115 	stw	r2,4(r3)
  list->next           = entry;
 8013b04:	e0fff617 	ldw	r3,-40(fp)
 8013b08:	e0bff717 	ldw	r2,-36(fp)
 8013b0c:	18800015 	stw	r2,0(r3)
 8013b10:	e0bffa17 	ldw	r2,-24(fp)
 8013b14:	e0bff515 	stw	r2,-44(fp)
  status &= ~NIOS2_STATUS_PIE_MSK;
  status |= (context & NIOS2_STATUS_PIE_MSK);
  
  NIOS2_WRITE_STATUS (status);
#else
  NIOS2_WRITE_STATUS (context);
 8013b18:	e0bff517 	ldw	r2,-44(fp)
 8013b1c:	1001703a 	wrctl	status,r2
      alt_irq_enable_all (irq_context);

      return 0;
 8013b20:	e03fff15 	stw	zero,-4(fp)
 8013b24:	00000506 	br	8013b3c <alt_alarm_start+0x140>
    }
    else
    {
      return -EINVAL;
 8013b28:	00bffa84 	movi	r2,-22
 8013b2c:	e0bfff15 	stw	r2,-4(fp)
 8013b30:	00000206 	br	8013b3c <alt_alarm_start+0x140>
    }
  }
  else
  {
    return -ENOTSUP;
 8013b34:	00bfde84 	movi	r2,-134
 8013b38:	e0bfff15 	stw	r2,-4(fp)
 8013b3c:	e0bfff17 	ldw	r2,-4(fp)
  }
}
 8013b40:	e037883a 	mov	sp,fp
 8013b44:	df000017 	ldw	fp,0(sp)
 8013b48:	dec00104 	addi	sp,sp,4
 8013b4c:	f800283a 	ret

08013b50 <alt_dcache_flush_all>:
/*
 * alt_dcache_flush_all() is called to flush the entire data cache.
 */

void alt_dcache_flush_all (void)
{
 8013b50:	deffff04 	addi	sp,sp,-4
 8013b54:	df000015 	stw	fp,0(sp)
 8013b58:	d839883a 	mov	fp,sp
  for (i = (char*) 0; i < (char*) NIOS2_DCACHE_SIZE; i+= NIOS2_DCACHE_LINE_SIZE)
  { 
    __asm__ volatile ("flushd (%0)" :: "r" (i));
  }
#endif /* NIOS2_DCACHE_SIZE > 0 */
}
 8013b5c:	e037883a 	mov	sp,fp
 8013b60:	df000017 	ldw	fp,0(sp)
 8013b64:	dec00104 	addi	sp,sp,4
 8013b68:	f800283a 	ret

08013b6c <alt_dev_llist_insert>:
/*
 *
 */

int alt_dev_llist_insert (alt_dev_llist* dev, alt_llist* list)
{
 8013b6c:	defff904 	addi	sp,sp,-28
 8013b70:	dfc00615 	stw	ra,24(sp)
 8013b74:	df000515 	stw	fp,20(sp)
 8013b78:	df000504 	addi	fp,sp,20
 8013b7c:	e13ffd15 	stw	r4,-12(fp)
 8013b80:	e17ffe15 	stw	r5,-8(fp)
  /*
   * check that the device exists, and that it has a valid name.
   */

  if (!dev || !dev->name)
 8013b84:	e0bffd17 	ldw	r2,-12(fp)
 8013b88:	1005003a 	cmpeq	r2,r2,zero
 8013b8c:	1000041e 	bne	r2,zero,8013ba0 <alt_dev_llist_insert+0x34>
 8013b90:	e0bffd17 	ldw	r2,-12(fp)
 8013b94:	10800217 	ldw	r2,8(r2)
 8013b98:	1004c03a 	cmpne	r2,r2,zero
 8013b9c:	1000071e 	bne	r2,zero,8013bbc <alt_dev_llist_insert+0x50>
  {
    ALT_ERRNO = EINVAL;
 8013ba0:	8013c200 	call	8013c20 <alt_get_errno>
 8013ba4:	1007883a 	mov	r3,r2
 8013ba8:	00800584 	movi	r2,22
 8013bac:	18800015 	stw	r2,0(r3)
    return -EINVAL;
 8013bb0:	00bffa84 	movi	r2,-22
 8013bb4:	e0bfff15 	stw	r2,-4(fp)
 8013bb8:	00001306 	br	8013c08 <alt_dev_llist_insert+0x9c>
  
  /*
   * register the device.
   */
  
  alt_llist_insert(list, &dev->llist);
 8013bbc:	e0fffd17 	ldw	r3,-12(fp)
 8013bc0:	e0bffe17 	ldw	r2,-8(fp)
 8013bc4:	e0bffb15 	stw	r2,-20(fp)
 8013bc8:	e0fffc15 	stw	r3,-16(fp)
 */

static ALT_INLINE void ALT_ALWAYS_INLINE alt_llist_insert(alt_llist* list, 
                alt_llist* entry)
{
  entry->previous = list;
 8013bcc:	e0fffc17 	ldw	r3,-16(fp)
 8013bd0:	e0bffb17 	ldw	r2,-20(fp)
 8013bd4:	18800115 	stw	r2,4(r3)
  entry->next     = list->next;
 8013bd8:	e0bffb17 	ldw	r2,-20(fp)
 8013bdc:	10c00017 	ldw	r3,0(r2)
 8013be0:	e0bffc17 	ldw	r2,-16(fp)
 8013be4:	10c00015 	stw	r3,0(r2)

  list->next->previous = entry;
 8013be8:	e0bffb17 	ldw	r2,-20(fp)
 8013bec:	10c00017 	ldw	r3,0(r2)
 8013bf0:	e0bffc17 	ldw	r2,-16(fp)
 8013bf4:	18800115 	stw	r2,4(r3)
  list->next           = entry;
 8013bf8:	e0fffb17 	ldw	r3,-20(fp)
 8013bfc:	e0bffc17 	ldw	r2,-16(fp)
 8013c00:	18800015 	stw	r2,0(r3)

  return 0;  
 8013c04:	e03fff15 	stw	zero,-4(fp)
 8013c08:	e0bfff17 	ldw	r2,-4(fp)
}
 8013c0c:	e037883a 	mov	sp,fp
 8013c10:	dfc00117 	ldw	ra,4(sp)
 8013c14:	df000017 	ldw	fp,0(sp)
 8013c18:	dec00204 	addi	sp,sp,8
 8013c1c:	f800283a 	ret

08013c20 <alt_get_errno>:
#undef errno

extern int errno;

static ALT_INLINE int* alt_get_errno(void)
{
 8013c20:	defffd04 	addi	sp,sp,-12
 8013c24:	dfc00215 	stw	ra,8(sp)
 8013c28:	df000115 	stw	fp,4(sp)
 8013c2c:	df000104 	addi	fp,sp,4
  return ((alt_errno) ? alt_errno() : &errno);
 8013c30:	00820074 	movhi	r2,2049
 8013c34:	109b8e04 	addi	r2,r2,28216
 8013c38:	10800017 	ldw	r2,0(r2)
 8013c3c:	1005003a 	cmpeq	r2,r2,zero
 8013c40:	1000061e 	bne	r2,zero,8013c5c <alt_get_errno+0x3c>
 8013c44:	00820074 	movhi	r2,2049
 8013c48:	109b8e04 	addi	r2,r2,28216
 8013c4c:	10800017 	ldw	r2,0(r2)
 8013c50:	103ee83a 	callr	r2
 8013c54:	e0bfff15 	stw	r2,-4(fp)
 8013c58:	00000306 	br	8013c68 <alt_get_errno+0x48>
 8013c5c:	008200b4 	movhi	r2,2050
 8013c60:	10a23b04 	addi	r2,r2,-30484
 8013c64:	e0bfff15 	stw	r2,-4(fp)
 8013c68:	e0bfff17 	ldw	r2,-4(fp)
}
 8013c6c:	e037883a 	mov	sp,fp
 8013c70:	dfc00117 	ldw	ra,4(sp)
 8013c74:	df000017 	ldw	fp,0(sp)
 8013c78:	dec00204 	addi	sp,sp,8
 8013c7c:	f800283a 	ret

08013c80 <_do_ctors>:
/*
 * Run the C++ static constructors.
 */

void _do_ctors(void)
{
 8013c80:	defffd04 	addi	sp,sp,-12
 8013c84:	dfc00215 	stw	ra,8(sp)
 8013c88:	df000115 	stw	fp,4(sp)
 8013c8c:	df000104 	addi	fp,sp,4
  constructor* ctor;

  for (ctor = &__CTOR_END__[-1]; ctor >= __CTOR_LIST__; ctor--)
 8013c90:	00bfff04 	movi	r2,-4
 8013c94:	00c20074 	movhi	r3,2049
 8013c98:	18d32e04 	addi	r3,r3,19640
 8013c9c:	1885883a 	add	r2,r3,r2
 8013ca0:	e0bfff15 	stw	r2,-4(fp)
 8013ca4:	00000606 	br	8013cc0 <_do_ctors+0x40>
        (*ctor) (); 
 8013ca8:	e0bfff17 	ldw	r2,-4(fp)
 8013cac:	10800017 	ldw	r2,0(r2)
 8013cb0:	103ee83a 	callr	r2

void _do_ctors(void)
{
  constructor* ctor;

  for (ctor = &__CTOR_END__[-1]; ctor >= __CTOR_LIST__; ctor--)
 8013cb4:	e0bfff17 	ldw	r2,-4(fp)
 8013cb8:	10bfff04 	addi	r2,r2,-4
 8013cbc:	e0bfff15 	stw	r2,-4(fp)
 8013cc0:	e0ffff17 	ldw	r3,-4(fp)
 8013cc4:	00820074 	movhi	r2,2049
 8013cc8:	10932d04 	addi	r2,r2,19636
 8013ccc:	18bff62e 	bgeu	r3,r2,8013ca8 <_do_ctors+0x28>
        (*ctor) (); 
}
 8013cd0:	e037883a 	mov	sp,fp
 8013cd4:	dfc00117 	ldw	ra,4(sp)
 8013cd8:	df000017 	ldw	fp,0(sp)
 8013cdc:	dec00204 	addi	sp,sp,8
 8013ce0:	f800283a 	ret

08013ce4 <_do_dtors>:
/*
 * Run the C++ static destructors.
 */

void _do_dtors(void)
{
 8013ce4:	defffd04 	addi	sp,sp,-12
 8013ce8:	dfc00215 	stw	ra,8(sp)
 8013cec:	df000115 	stw	fp,4(sp)
 8013cf0:	df000104 	addi	fp,sp,4
  destructor* dtor;

  for (dtor = &__DTOR_END__[-1]; dtor >= __DTOR_LIST__; dtor--)
 8013cf4:	00bfff04 	movi	r2,-4
 8013cf8:	00c20074 	movhi	r3,2049
 8013cfc:	18d32e04 	addi	r3,r3,19640
 8013d00:	1885883a 	add	r2,r3,r2
 8013d04:	e0bfff15 	stw	r2,-4(fp)
 8013d08:	00000606 	br	8013d24 <_do_dtors+0x40>
        (*dtor) (); 
 8013d0c:	e0bfff17 	ldw	r2,-4(fp)
 8013d10:	10800017 	ldw	r2,0(r2)
 8013d14:	103ee83a 	callr	r2

void _do_dtors(void)
{
  destructor* dtor;

  for (dtor = &__DTOR_END__[-1]; dtor >= __DTOR_LIST__; dtor--)
 8013d18:	e0bfff17 	ldw	r2,-4(fp)
 8013d1c:	10bfff04 	addi	r2,r2,-4
 8013d20:	e0bfff15 	stw	r2,-4(fp)
 8013d24:	e0ffff17 	ldw	r3,-4(fp)
 8013d28:	00820074 	movhi	r2,2049
 8013d2c:	10932e04 	addi	r2,r2,19640
 8013d30:	18bff62e 	bgeu	r3,r2,8013d0c <_do_dtors+0x28>
        (*dtor) (); 
}
 8013d34:	e037883a 	mov	sp,fp
 8013d38:	dfc00117 	ldw	ra,4(sp)
 8013d3c:	df000017 	ldw	fp,0(sp)
 8013d40:	dec00204 	addi	sp,sp,8
 8013d44:	f800283a 	ret

08013d48 <alt_find_dev>:
 * "name" must be an exact match for the devices registered name for a match to
 * be found.
 */
 
alt_dev* alt_find_dev(const char* name, alt_llist* llist)
{
 8013d48:	defff904 	addi	sp,sp,-28
 8013d4c:	dfc00615 	stw	ra,24(sp)
 8013d50:	df000515 	stw	fp,20(sp)
 8013d54:	df000504 	addi	fp,sp,20
 8013d58:	e13ffd15 	stw	r4,-12(fp)
 8013d5c:	e17ffe15 	stw	r5,-8(fp)
  alt_dev* next = (alt_dev*) llist->next;
 8013d60:	e0bffe17 	ldw	r2,-8(fp)
 8013d64:	10800017 	ldw	r2,0(r2)
 8013d68:	e0bffc15 	stw	r2,-16(fp)
  alt_32 len;

  len  = strlen(name) + 1;
 8013d6c:	e13ffd17 	ldw	r4,-12(fp)
 8013d70:	80055880 	call	8005588 <strlen>
 8013d74:	10800044 	addi	r2,r2,1
 8013d78:	e0bffb15 	stw	r2,-20(fp)
  /*
   * Check each list entry in turn, until a match is found, or we reach the
   * end of the list (i.e. next winds up pointing back to the list head).
   */ 

  while (next != (alt_dev*) llist)
 8013d7c:	00000d06 	br	8013db4 <alt_find_dev+0x6c>
    /* 
     * memcmp() is used here rather than strcmp() in order to reduce the size
     * of the executable.
     */

    if (!memcmp (next->name, name, len))
 8013d80:	e0bffc17 	ldw	r2,-16(fp)
 8013d84:	11000217 	ldw	r4,8(r2)
 8013d88:	e1bffb17 	ldw	r6,-20(fp)
 8013d8c:	e17ffd17 	ldw	r5,-12(fp)
 8013d90:	80148f80 	call	80148f8 <memcmp>
 8013d94:	1004c03a 	cmpne	r2,r2,zero
 8013d98:	1000031e 	bne	r2,zero,8013da8 <alt_find_dev+0x60>
    {
      /* match found */

      return next;
 8013d9c:	e0bffc17 	ldw	r2,-16(fp)
 8013da0:	e0bfff15 	stw	r2,-4(fp)
 8013da4:	00000706 	br	8013dc4 <alt_find_dev+0x7c>
    }
    next = (alt_dev*) next->llist.next;
 8013da8:	e0bffc17 	ldw	r2,-16(fp)
 8013dac:	10800017 	ldw	r2,0(r2)
 8013db0:	e0bffc15 	stw	r2,-16(fp)
  /*
   * Check each list entry in turn, until a match is found, or we reach the
   * end of the list (i.e. next winds up pointing back to the list head).
   */ 

  while (next != (alt_dev*) llist)
 8013db4:	e0fffe17 	ldw	r3,-8(fp)
 8013db8:	e0bffc17 	ldw	r2,-16(fp)
 8013dbc:	10fff01e 	bne	r2,r3,8013d80 <alt_find_dev+0x38>
    next = (alt_dev*) next->llist.next;
  }
  
  /* No match found */
  
  return NULL;
 8013dc0:	e03fff15 	stw	zero,-4(fp)
 8013dc4:	e0bfff17 	ldw	r2,-4(fp)
}
 8013dc8:	e037883a 	mov	sp,fp
 8013dcc:	dfc00117 	ldw	ra,4(sp)
 8013dd0:	df000017 	ldw	fp,0(sp)
 8013dd4:	dec00204 	addi	sp,sp,8
 8013dd8:	f800283a 	ret

08013ddc <alt_icache_flush_all>:
/*
 * alt_icache_flush_all() is called to flush the entire instruction cache.
 */

void alt_icache_flush_all (void)
{
 8013ddc:	deffff04 	addi	sp,sp,-4
 8013de0:	df000015 	stw	fp,0(sp)
 8013de4:	d839883a 	mov	fp,sp
#if NIOS2_ICACHE_SIZE > 0
  alt_icache_flush (0, NIOS2_ICACHE_SIZE);
#endif
}
 8013de8:	e037883a 	mov	sp,fp
 8013dec:	df000017 	ldw	fp,0(sp)
 8013df0:	dec00104 	addi	sp,sp,4
 8013df4:	f800283a 	ret

08013df8 <alt_ic_isr_register>:
  * @param irq              IRQ number
  * @return                 0 if successful, else error (-1)
  */
int alt_ic_isr_register(alt_u32 ic_id, alt_u32 irq, alt_isr_func isr, 
  void *isr_context, void *flags)
{
 8013df8:	defff904 	addi	sp,sp,-28
 8013dfc:	dfc00615 	stw	ra,24(sp)
 8013e00:	df000515 	stw	fp,20(sp)
 8013e04:	df000504 	addi	fp,sp,20
 8013e08:	e13ffc15 	stw	r4,-16(fp)
 8013e0c:	e17ffd15 	stw	r5,-12(fp)
 8013e10:	e1bffe15 	stw	r6,-8(fp)
 8013e14:	e1ffff15 	stw	r7,-4(fp)
    return alt_iic_isr_register(ic_id, irq, isr, isr_context, flags);
 8013e18:	e0800217 	ldw	r2,8(fp)
 8013e1c:	d8800015 	stw	r2,0(sp)
 8013e20:	e13ffc17 	ldw	r4,-16(fp)
 8013e24:	e17ffd17 	ldw	r5,-12(fp)
 8013e28:	e1bffe17 	ldw	r6,-8(fp)
 8013e2c:	e1ffff17 	ldw	r7,-4(fp)
 8013e30:	8013fcc0 	call	8013fcc <alt_iic_isr_register>
}  
 8013e34:	e037883a 	mov	sp,fp
 8013e38:	dfc00117 	ldw	ra,4(sp)
 8013e3c:	df000017 	ldw	fp,0(sp)
 8013e40:	dec00204 	addi	sp,sp,8
 8013e44:	f800283a 	ret

08013e48 <alt_ic_irq_enable>:
  * @param ic_id            Ignored.
  * @param irq              IRQ number
  * @return                 0 if successful, else error (-1)
  */
int alt_ic_irq_enable (alt_u32 ic_id, alt_u32 irq)
{
 8013e48:	defff904 	addi	sp,sp,-28
 8013e4c:	df000615 	stw	fp,24(sp)
 8013e50:	df000604 	addi	fp,sp,24
 8013e54:	e13ffe15 	stw	r4,-8(fp)
 8013e58:	e17fff15 	stw	r5,-4(fp)
 8013e5c:	e0bfff17 	ldw	r2,-4(fp)
 8013e60:	e0bffc15 	stw	r2,-16(fp)
static ALT_INLINE alt_irq_context ALT_ALWAYS_INLINE 
       alt_irq_disable_all (void)
{
  alt_irq_context context;

  NIOS2_READ_STATUS (context);
 8013e64:	0005303a 	rdctl	r2,status
 8013e68:	e0bffb15 	stw	r2,-20(fp)

  NIOS2_WRITE_STATUS (context & ~NIOS2_STATUS_PIE_MSK);
 8013e6c:	e0fffb17 	ldw	r3,-20(fp)
 8013e70:	00bfff84 	movi	r2,-2
 8013e74:	1884703a 	and	r2,r3,r2
 8013e78:	1001703a 	wrctl	status,r2
  
  return context;
 8013e7c:	e0bffb17 	ldw	r2,-20(fp)
static ALT_INLINE int ALT_ALWAYS_INLINE alt_irq_enable (alt_u32 id)
{
  alt_irq_context  status;
  extern volatile alt_u32 alt_irq_active;

  status = alt_irq_disable_all ();
 8013e80:	e0bffd15 	stw	r2,-12(fp)

  alt_irq_active |= (1 << id);
 8013e84:	e0fffc17 	ldw	r3,-16(fp)
 8013e88:	00800044 	movi	r2,1
 8013e8c:	10c4983a 	sll	r2,r2,r3
 8013e90:	1007883a 	mov	r3,r2
 8013e94:	008200b4 	movhi	r2,2050
 8013e98:	10a24f04 	addi	r2,r2,-30404
 8013e9c:	10800017 	ldw	r2,0(r2)
 8013ea0:	1886b03a 	or	r3,r3,r2
 8013ea4:	008200b4 	movhi	r2,2050
 8013ea8:	10a24f04 	addi	r2,r2,-30404
 8013eac:	10c00015 	stw	r3,0(r2)
  NIOS2_WRITE_IENABLE (alt_irq_active);
 8013eb0:	008200b4 	movhi	r2,2050
 8013eb4:	10a24f04 	addi	r2,r2,-30404
 8013eb8:	10800017 	ldw	r2,0(r2)
 8013ebc:	100170fa 	wrctl	ienable,r2
 8013ec0:	e0bffd17 	ldw	r2,-12(fp)
 8013ec4:	e0bffa15 	stw	r2,-24(fp)
  status &= ~NIOS2_STATUS_PIE_MSK;
  status |= (context & NIOS2_STATUS_PIE_MSK);
  
  NIOS2_WRITE_STATUS (status);
#else
  NIOS2_WRITE_STATUS (context);
 8013ec8:	e0bffa17 	ldw	r2,-24(fp)
 8013ecc:	1001703a 	wrctl	status,r2

  alt_irq_enable_all(status);

  return 0;
 8013ed0:	0005883a 	mov	r2,zero
    return alt_irq_enable(irq);
}
 8013ed4:	e037883a 	mov	sp,fp
 8013ed8:	df000017 	ldw	fp,0(sp)
 8013edc:	dec00104 	addi	sp,sp,4
 8013ee0:	f800283a 	ret

08013ee4 <alt_ic_irq_disable>:
  * @param ic_id            Ignored.
  * @param irq              IRQ number
  * @return                 0 if successful, else error (-1)
  */
int alt_ic_irq_disable(alt_u32 ic_id, alt_u32 irq)
{
 8013ee4:	defff904 	addi	sp,sp,-28
 8013ee8:	df000615 	stw	fp,24(sp)
 8013eec:	df000604 	addi	fp,sp,24
 8013ef0:	e13ffe15 	stw	r4,-8(fp)
 8013ef4:	e17fff15 	stw	r5,-4(fp)
 8013ef8:	e0bfff17 	ldw	r2,-4(fp)
 8013efc:	e0bffc15 	stw	r2,-16(fp)
static ALT_INLINE alt_irq_context ALT_ALWAYS_INLINE 
       alt_irq_disable_all (void)
{
  alt_irq_context context;

  NIOS2_READ_STATUS (context);
 8013f00:	0005303a 	rdctl	r2,status
 8013f04:	e0bffb15 	stw	r2,-20(fp)

  NIOS2_WRITE_STATUS (context & ~NIOS2_STATUS_PIE_MSK);
 8013f08:	e0fffb17 	ldw	r3,-20(fp)
 8013f0c:	00bfff84 	movi	r2,-2
 8013f10:	1884703a 	and	r2,r3,r2
 8013f14:	1001703a 	wrctl	status,r2
  
  return context;
 8013f18:	e0bffb17 	ldw	r2,-20(fp)
static ALT_INLINE int ALT_ALWAYS_INLINE alt_irq_disable (alt_u32 id)
{
  alt_irq_context  status;
  extern volatile alt_u32 alt_irq_active;

  status = alt_irq_disable_all ();
 8013f1c:	e0bffd15 	stw	r2,-12(fp)

  alt_irq_active &= ~(1 << id);
 8013f20:	e0fffc17 	ldw	r3,-16(fp)
 8013f24:	00800044 	movi	r2,1
 8013f28:	10c4983a 	sll	r2,r2,r3
 8013f2c:	0084303a 	nor	r2,zero,r2
 8013f30:	1007883a 	mov	r3,r2
 8013f34:	008200b4 	movhi	r2,2050
 8013f38:	10a24f04 	addi	r2,r2,-30404
 8013f3c:	10800017 	ldw	r2,0(r2)
 8013f40:	1886703a 	and	r3,r3,r2
 8013f44:	008200b4 	movhi	r2,2050
 8013f48:	10a24f04 	addi	r2,r2,-30404
 8013f4c:	10c00015 	stw	r3,0(r2)
  NIOS2_WRITE_IENABLE (alt_irq_active);
 8013f50:	008200b4 	movhi	r2,2050
 8013f54:	10a24f04 	addi	r2,r2,-30404
 8013f58:	10800017 	ldw	r2,0(r2)
 8013f5c:	100170fa 	wrctl	ienable,r2
 8013f60:	e0bffd17 	ldw	r2,-12(fp)
 8013f64:	e0bffa15 	stw	r2,-24(fp)
  status &= ~NIOS2_STATUS_PIE_MSK;
  status |= (context & NIOS2_STATUS_PIE_MSK);
  
  NIOS2_WRITE_STATUS (status);
#else
  NIOS2_WRITE_STATUS (context);
 8013f68:	e0bffa17 	ldw	r2,-24(fp)
 8013f6c:	1001703a 	wrctl	status,r2

  alt_irq_enable_all(status);

  return 0;
 8013f70:	0005883a 	mov	r2,zero
    return alt_irq_disable(irq);
}
 8013f74:	e037883a 	mov	sp,fp
 8013f78:	df000017 	ldw	fp,0(sp)
 8013f7c:	dec00104 	addi	sp,sp,4
 8013f80:	f800283a 	ret

08013f84 <alt_ic_irq_enabled>:
  * @param irq              IRQ number
  * @return                 Zero if corresponding interrupt is disabled and
  *                         non-zero otherwise.
  */
alt_u32 alt_ic_irq_enabled(alt_u32 ic_id, alt_u32 irq)
{
 8013f84:	defffc04 	addi	sp,sp,-16
 8013f88:	df000315 	stw	fp,12(sp)
 8013f8c:	df000304 	addi	fp,sp,12
 8013f90:	e13ffe15 	stw	r4,-8(fp)
 8013f94:	e17fff15 	stw	r5,-4(fp)
    alt_u32 irq_enabled;

    NIOS2_READ_IENABLE(irq_enabled);
 8013f98:	000530fa 	rdctl	r2,ienable
 8013f9c:	e0bffd15 	stw	r2,-12(fp)

    return (irq_enabled & (1 << irq)) ? 1: 0;
 8013fa0:	e0ffff17 	ldw	r3,-4(fp)
 8013fa4:	00800044 	movi	r2,1
 8013fa8:	10c4983a 	sll	r2,r2,r3
 8013fac:	1007883a 	mov	r3,r2
 8013fb0:	e0bffd17 	ldw	r2,-12(fp)
 8013fb4:	1884703a 	and	r2,r3,r2
 8013fb8:	1004c03a 	cmpne	r2,r2,zero
}
 8013fbc:	e037883a 	mov	sp,fp
 8013fc0:	df000017 	ldw	fp,0(sp)
 8013fc4:	dec00104 	addi	sp,sp,4
 8013fc8:	f800283a 	ret

08013fcc <alt_iic_isr_register>:
  * @param flags            
  * @return                 0 if successful, else error (-1)
  */
int alt_iic_isr_register(alt_u32 ic_id, alt_u32 irq, alt_isr_func isr, 
  void *isr_context, void *flags)
{
 8013fcc:	defff404 	addi	sp,sp,-48
 8013fd0:	dfc00b15 	stw	ra,44(sp)
 8013fd4:	df000a15 	stw	fp,40(sp)
 8013fd8:	df000a04 	addi	fp,sp,40
 8013fdc:	e13ffb15 	stw	r4,-20(fp)
 8013fe0:	e17ffc15 	stw	r5,-16(fp)
 8013fe4:	e1bffd15 	stw	r6,-12(fp)
 8013fe8:	e1fffe15 	stw	r7,-8(fp)
  int rc = -EINVAL;  
 8013fec:	00bffa84 	movi	r2,-22
 8013ff0:	e0bffa15 	stw	r2,-24(fp)
  int id = irq;             /* IRQ interpreted as the interrupt ID. */
 8013ff4:	e0bffc17 	ldw	r2,-16(fp)
 8013ff8:	e0bff915 	stw	r2,-28(fp)
  alt_irq_context status;

  if (id < ALT_NIRQ)
 8013ffc:	e0bff917 	ldw	r2,-28(fp)
 8014000:	10800808 	cmpgei	r2,r2,32
 8014004:	1000291e 	bne	r2,zero,80140ac <alt_iic_isr_register+0xe0>
static ALT_INLINE alt_irq_context ALT_ALWAYS_INLINE 
       alt_irq_disable_all (void)
{
  alt_irq_context context;

  NIOS2_READ_STATUS (context);
 8014008:	0005303a 	rdctl	r2,status
 801400c:	e0bff715 	stw	r2,-36(fp)

  NIOS2_WRITE_STATUS (context & ~NIOS2_STATUS_PIE_MSK);
 8014010:	e0fff717 	ldw	r3,-36(fp)
 8014014:	00bfff84 	movi	r2,-2
 8014018:	1884703a 	and	r2,r3,r2
 801401c:	1001703a 	wrctl	status,r2
  
  return context;
 8014020:	e0bff717 	ldw	r2,-36(fp)
     * interrupts are disabled while the handler tables are updated to ensure
     * that an interrupt doesn't occur while the tables are in an inconsistant
     * state.
     */

    status = alt_irq_disable_all();
 8014024:	e0bff815 	stw	r2,-32(fp)

    alt_irq[id].handler = isr;
 8014028:	e0bff917 	ldw	r2,-28(fp)
 801402c:	00c200b4 	movhi	r3,2050
 8014030:	18e3b604 	addi	r3,r3,-28968
 8014034:	100490fa 	slli	r2,r2,3
 8014038:	10c7883a 	add	r3,r2,r3
 801403c:	e0bffd17 	ldw	r2,-12(fp)
 8014040:	18800015 	stw	r2,0(r3)
    alt_irq[id].context = isr_context;
 8014044:	e0bff917 	ldw	r2,-28(fp)
 8014048:	00c200b4 	movhi	r3,2050
 801404c:	18e3b604 	addi	r3,r3,-28968
 8014050:	100490fa 	slli	r2,r2,3
 8014054:	10c5883a 	add	r2,r2,r3
 8014058:	10c00104 	addi	r3,r2,4
 801405c:	e0bffe17 	ldw	r2,-8(fp)
 8014060:	18800015 	stw	r2,0(r3)

    rc = (isr) ? alt_ic_irq_enable(ic_id, id) : alt_ic_irq_disable(ic_id, id);
 8014064:	e0bffd17 	ldw	r2,-12(fp)
 8014068:	1005003a 	cmpeq	r2,r2,zero
 801406c:	1000051e 	bne	r2,zero,8014084 <alt_iic_isr_register+0xb8>
 8014070:	e17ff917 	ldw	r5,-28(fp)
 8014074:	e13ffb17 	ldw	r4,-20(fp)
 8014078:	8013e480 	call	8013e48 <alt_ic_irq_enable>
 801407c:	e0bfff15 	stw	r2,-4(fp)
 8014080:	00000406 	br	8014094 <alt_iic_isr_register+0xc8>
 8014084:	e17ff917 	ldw	r5,-28(fp)
 8014088:	e13ffb17 	ldw	r4,-20(fp)
 801408c:	8013ee40 	call	8013ee4 <alt_ic_irq_disable>
 8014090:	e0bfff15 	stw	r2,-4(fp)
 8014094:	e0bfff17 	ldw	r2,-4(fp)
 8014098:	e0bffa15 	stw	r2,-24(fp)
 801409c:	e0bff817 	ldw	r2,-32(fp)
 80140a0:	e0bff615 	stw	r2,-40(fp)
  status &= ~NIOS2_STATUS_PIE_MSK;
  status |= (context & NIOS2_STATUS_PIE_MSK);
  
  NIOS2_WRITE_STATUS (status);
#else
  NIOS2_WRITE_STATUS (context);
 80140a4:	e0bff617 	ldw	r2,-40(fp)
 80140a8:	1001703a 	wrctl	status,r2

    alt_irq_enable_all(status);
  }

  return rc; 
 80140ac:	e0bffa17 	ldw	r2,-24(fp)
}
 80140b0:	e037883a 	mov	sp,fp
 80140b4:	dfc00117 	ldw	ra,4(sp)
 80140b8:	df000017 	ldw	fp,0(sp)
 80140bc:	dec00204 	addi	sp,sp,8
 80140c0:	f800283a 	ret

080140c4 <alt_open_fd>:
 * If the device can not be succesfully opened, then the input file descriptor
 * remains unchanged.
 */

static void alt_open_fd(alt_fd* fd, const char* name, int flags, int mode)
{
 80140c4:	defff804 	addi	sp,sp,-32
 80140c8:	dfc00715 	stw	ra,28(sp)
 80140cc:	df000615 	stw	fp,24(sp)
 80140d0:	dc000515 	stw	r16,20(sp)
 80140d4:	df000504 	addi	fp,sp,20
 80140d8:	e13ffc15 	stw	r4,-16(fp)
 80140dc:	e17ffd15 	stw	r5,-12(fp)
 80140e0:	e1bffe15 	stw	r6,-8(fp)
 80140e4:	e1ffff15 	stw	r7,-4(fp)
  int old;

  old = open (name, flags, mode);
 80140e8:	e13ffd17 	ldw	r4,-12(fp)
 80140ec:	e17ffe17 	ldw	r5,-8(fp)
 80140f0:	e1bfff17 	ldw	r6,-4(fp)
 80140f4:	801430c0 	call	801430c <open>
 80140f8:	e0bffb15 	stw	r2,-20(fp)

  if (old >= 0)
 80140fc:	e0bffb17 	ldw	r2,-20(fp)
 8014100:	1004803a 	cmplt	r2,r2,zero
 8014104:	10001f1e 	bne	r2,zero,8014184 <alt_open_fd+0xc0>
  {
    fd->dev      = alt_fd_list[old].dev;
 8014108:	e13ffb17 	ldw	r4,-20(fp)
 801410c:	04020074 	movhi	r16,2049
 8014110:	84170004 	addi	r16,r16,23552
 8014114:	01400304 	movi	r5,12
 8014118:	800d84c0 	call	800d84c <__mulsi3>
 801411c:	1405883a 	add	r2,r2,r16
 8014120:	10c00017 	ldw	r3,0(r2)
 8014124:	e0bffc17 	ldw	r2,-16(fp)
 8014128:	10c00015 	stw	r3,0(r2)
    fd->priv     = alt_fd_list[old].priv;
 801412c:	e13ffb17 	ldw	r4,-20(fp)
 8014130:	04020074 	movhi	r16,2049
 8014134:	84170004 	addi	r16,r16,23552
 8014138:	01400304 	movi	r5,12
 801413c:	800d84c0 	call	800d84c <__mulsi3>
 8014140:	1405883a 	add	r2,r2,r16
 8014144:	10800104 	addi	r2,r2,4
 8014148:	10c00017 	ldw	r3,0(r2)
 801414c:	e0bffc17 	ldw	r2,-16(fp)
 8014150:	10c00115 	stw	r3,4(r2)
    fd->fd_flags = alt_fd_list[old].fd_flags;
 8014154:	e13ffb17 	ldw	r4,-20(fp)
 8014158:	04020074 	movhi	r16,2049
 801415c:	84170004 	addi	r16,r16,23552
 8014160:	01400304 	movi	r5,12
 8014164:	800d84c0 	call	800d84c <__mulsi3>
 8014168:	1405883a 	add	r2,r2,r16
 801416c:	10800204 	addi	r2,r2,8
 8014170:	10c00017 	ldw	r3,0(r2)
 8014174:	e0bffc17 	ldw	r2,-16(fp)
 8014178:	10c00215 	stw	r3,8(r2)

    alt_release_fd (old);
 801417c:	e13ffb17 	ldw	r4,-20(fp)
 8014180:	800e7940 	call	800e794 <alt_release_fd>
  }
} 
 8014184:	e037883a 	mov	sp,fp
 8014188:	dfc00217 	ldw	ra,8(sp)
 801418c:	df000117 	ldw	fp,4(sp)
 8014190:	dc000017 	ldw	r16,0(sp)
 8014194:	dec00304 	addi	sp,sp,12
 8014198:	f800283a 	ret

0801419c <alt_io_redirect>:
 */
 
void alt_io_redirect(const char* stdout_dev, 
                     const char* stdin_dev, 
                     const char* stderr_dev)
{
 801419c:	defffb04 	addi	sp,sp,-20
 80141a0:	dfc00415 	stw	ra,16(sp)
 80141a4:	df000315 	stw	fp,12(sp)
 80141a8:	df000304 	addi	fp,sp,12
 80141ac:	e13ffd15 	stw	r4,-12(fp)
 80141b0:	e17ffe15 	stw	r5,-8(fp)
 80141b4:	e1bfff15 	stw	r6,-4(fp)
  /* Redirect the channels */

  alt_open_fd (&alt_fd_list[STDOUT_FILENO], stdout_dev, O_WRONLY, 0777);
 80141b8:	01020074 	movhi	r4,2049
 80141bc:	21170304 	addi	r4,r4,23564
 80141c0:	e17ffd17 	ldw	r5,-12(fp)
 80141c4:	01800044 	movi	r6,1
 80141c8:	01c07fc4 	movi	r7,511
 80141cc:	80140c40 	call	80140c4 <alt_open_fd>
  alt_open_fd (&alt_fd_list[STDIN_FILENO], stdin_dev, O_RDONLY, 0777);
 80141d0:	01020074 	movhi	r4,2049
 80141d4:	21170004 	addi	r4,r4,23552
 80141d8:	e17ffe17 	ldw	r5,-8(fp)
 80141dc:	000d883a 	mov	r6,zero
 80141e0:	01c07fc4 	movi	r7,511
 80141e4:	80140c40 	call	80140c4 <alt_open_fd>
  alt_open_fd (&alt_fd_list[STDERR_FILENO], stderr_dev, O_WRONLY, 0777);
 80141e8:	01020074 	movhi	r4,2049
 80141ec:	21170604 	addi	r4,r4,23576
 80141f0:	e17fff17 	ldw	r5,-4(fp)
 80141f4:	01800044 	movi	r6,1
 80141f8:	01c07fc4 	movi	r7,511
 80141fc:	80140c40 	call	80140c4 <alt_open_fd>
}  
 8014200:	e037883a 	mov	sp,fp
 8014204:	dfc00117 	ldw	ra,4(sp)
 8014208:	df000017 	ldw	fp,0(sp)
 801420c:	dec00204 	addi	sp,sp,8
 8014210:	f800283a 	ret

08014214 <alt_file_locked>:
 * performed for devices. Filesystems are required to handle the ioctl() call
 * themselves, and report the error from the filesystems open() function. 
 */ 

static int alt_file_locked (alt_fd* fd)
{
 8014214:	defffa04 	addi	sp,sp,-24
 8014218:	dfc00515 	stw	ra,20(sp)
 801421c:	df000415 	stw	fp,16(sp)
 8014220:	dc000315 	stw	r16,12(sp)
 8014224:	df000304 	addi	fp,sp,12
 8014228:	e13ffe15 	stw	r4,-8(fp)

  /*
   * Mark the file descriptor as belonging to a device.
   */

  fd->fd_flags |= ALT_FD_DEV;
 801422c:	e0bffe17 	ldw	r2,-8(fp)
 8014230:	10800217 	ldw	r2,8(r2)
 8014234:	10d00034 	orhi	r3,r2,16384
 8014238:	e0bffe17 	ldw	r2,-8(fp)
 801423c:	10c00215 	stw	r3,8(r2)
  /*
   * Loop through all current file descriptors searching for one that's locked
   * for exclusive access. If a match is found, generate an error.
   */

  for (i = 0; i <= alt_max_fd; i++)
 8014240:	e03ffd15 	stw	zero,-12(fp)
 8014244:	00002306 	br	80142d4 <alt_file_locked+0xc0>
  {
    if ((alt_fd_list[i].dev == fd->dev) &&
 8014248:	e13ffd17 	ldw	r4,-12(fp)
 801424c:	04020074 	movhi	r16,2049
 8014250:	84170004 	addi	r16,r16,23552
 8014254:	01400304 	movi	r5,12
 8014258:	800d84c0 	call	800d84c <__mulsi3>
 801425c:	1405883a 	add	r2,r2,r16
 8014260:	10c00017 	ldw	r3,0(r2)
 8014264:	e0bffe17 	ldw	r2,-8(fp)
 8014268:	10800017 	ldw	r2,0(r2)
 801426c:	1880161e 	bne	r3,r2,80142c8 <alt_file_locked+0xb4>
 8014270:	e13ffd17 	ldw	r4,-12(fp)
 8014274:	04020074 	movhi	r16,2049
 8014278:	84170004 	addi	r16,r16,23552
 801427c:	01400304 	movi	r5,12
 8014280:	800d84c0 	call	800d84c <__mulsi3>
 8014284:	1405883a 	add	r2,r2,r16
 8014288:	10800204 	addi	r2,r2,8
 801428c:	10800017 	ldw	r2,0(r2)
 8014290:	1004403a 	cmpge	r2,r2,zero
 8014294:	10000c1e 	bne	r2,zero,80142c8 <alt_file_locked+0xb4>
 8014298:	e13ffd17 	ldw	r4,-12(fp)
 801429c:	01400304 	movi	r5,12
 80142a0:	800d84c0 	call	800d84c <__mulsi3>
 80142a4:	1007883a 	mov	r3,r2
 80142a8:	00820074 	movhi	r2,2049
 80142ac:	10970004 	addi	r2,r2,23552
 80142b0:	1887883a 	add	r3,r3,r2
 80142b4:	e0bffe17 	ldw	r2,-8(fp)
 80142b8:	18800326 	beq	r3,r2,80142c8 <alt_file_locked+0xb4>
        (alt_fd_list[i].fd_flags & ALT_FD_EXCL) &&
        (&alt_fd_list[i] != fd))
    {
      return -EACCES;
 80142bc:	00bffcc4 	movi	r2,-13
 80142c0:	e0bfff15 	stw	r2,-4(fp)
 80142c4:	00000a06 	br	80142f0 <alt_file_locked+0xdc>
  /*
   * Loop through all current file descriptors searching for one that's locked
   * for exclusive access. If a match is found, generate an error.
   */

  for (i = 0; i <= alt_max_fd; i++)
 80142c8:	e0bffd17 	ldw	r2,-12(fp)
 80142cc:	10800044 	addi	r2,r2,1
 80142d0:	e0bffd15 	stw	r2,-12(fp)
 80142d4:	00820074 	movhi	r2,2049
 80142d8:	109b8d04 	addi	r2,r2,28212
 80142dc:	10800017 	ldw	r2,0(r2)
 80142e0:	1007883a 	mov	r3,r2
 80142e4:	e0bffd17 	ldw	r2,-12(fp)
 80142e8:	18bfd72e 	bgeu	r3,r2,8014248 <alt_file_locked+0x34>
    }
  }
  
  /* The device is not locked */
 
  return 0;
 80142ec:	e03fff15 	stw	zero,-4(fp)
 80142f0:	e0bfff17 	ldw	r2,-4(fp)
}
 80142f4:	e037883a 	mov	sp,fp
 80142f8:	dfc00217 	ldw	ra,8(sp)
 80142fc:	df000117 	ldw	fp,4(sp)
 8014300:	dc000017 	ldw	r16,0(sp)
 8014304:	dec00304 	addi	sp,sp,12
 8014308:	f800283a 	ret

0801430c <open>:
 *
 * ALT_OPEN is mapped onto the open() system call in alt_syscall.h
 */
 
int ALT_OPEN (const char* file, int flags, int mode)
{ 
 801430c:	defff404 	addi	sp,sp,-48
 8014310:	dfc00b15 	stw	ra,44(sp)
 8014314:	df000a15 	stw	fp,40(sp)
 8014318:	df000a04 	addi	fp,sp,40
 801431c:	e13ffb15 	stw	r4,-20(fp)
 8014320:	e17ffc15 	stw	r5,-16(fp)
 8014324:	e1bffd15 	stw	r6,-12(fp)
  alt_dev* dev;
  alt_fd*  fd;
  int index  = -1;
 8014328:	00bfffc4 	movi	r2,-1
 801432c:	e0bff815 	stw	r2,-32(fp)
  int status = -ENODEV;
 8014330:	00bffb44 	movi	r2,-19
 8014334:	e0bff715 	stw	r2,-36(fp)
  int isafs = 0;
 8014338:	e03ff615 	stw	zero,-40(fp)
  /* 
   * Check the device list, to see if a device with a matching name is 
   * registered.
   */
  
  if (!(dev = alt_find_dev (file, &alt_dev_list)))
 801433c:	e13ffb17 	ldw	r4,-20(fp)
 8014340:	01420074 	movhi	r5,2049
 8014344:	295b8b04 	addi	r5,r5,28204
 8014348:	8013d480 	call	8013d48 <alt_find_dev>
 801434c:	e0bffa15 	stw	r2,-24(fp)
 8014350:	e0bffa17 	ldw	r2,-24(fp)
 8014354:	1004c03a 	cmpne	r2,r2,zero
 8014358:	1000051e 	bne	r2,zero,8014370 <open+0x64>
  {
    /* No matching device, so try the filesystem list */

    dev   = alt_find_file (file);
 801435c:	e13ffb17 	ldw	r4,-20(fp)
 8014360:	80146bc0 	call	80146bc <alt_find_file>
 8014364:	e0bffa15 	stw	r2,-24(fp)
    isafs = 1;
 8014368:	00800044 	movi	r2,1
 801436c:	e0bff615 	stw	r2,-40(fp)

  /* 
   * If a matching device or filesystem is found, allocate a file descriptor. 
   */

  if (dev)
 8014370:	e0bffa17 	ldw	r2,-24(fp)
 8014374:	1005003a 	cmpeq	r2,r2,zero
 8014378:	1000311e 	bne	r2,zero,8014440 <open+0x134>
  {
    if ((index = alt_get_fd (dev)) < 0)
 801437c:	e13ffa17 	ldw	r4,-24(fp)
 8014380:	80147dc0 	call	80147dc <alt_get_fd>
 8014384:	e0bff815 	stw	r2,-32(fp)
 8014388:	e0bff817 	ldw	r2,-32(fp)
 801438c:	1004403a 	cmpge	r2,r2,zero
 8014390:	1000031e 	bne	r2,zero,80143a0 <open+0x94>
    {
      status = index;
 8014394:	e0bff817 	ldw	r2,-32(fp)
 8014398:	e0bff715 	stw	r2,-36(fp)
 801439c:	00002a06 	br	8014448 <open+0x13c>
    }
    else
    {
      fd = &alt_fd_list[index];
 80143a0:	e13ff817 	ldw	r4,-32(fp)
 80143a4:	01400304 	movi	r5,12
 80143a8:	800d84c0 	call	800d84c <__mulsi3>
 80143ac:	1007883a 	mov	r3,r2
 80143b0:	00820074 	movhi	r2,2049
 80143b4:	10970004 	addi	r2,r2,23552
 80143b8:	1885883a 	add	r2,r3,r2
 80143bc:	e0bff915 	stw	r2,-28(fp)
      fd->fd_flags = (flags & ~ALT_FD_FLAGS_MASK);
 80143c0:	e0fffc17 	ldw	r3,-16(fp)
 80143c4:	00900034 	movhi	r2,16384
 80143c8:	10bfffc4 	addi	r2,r2,-1
 80143cc:	1886703a 	and	r3,r3,r2
 80143d0:	e0bff917 	ldw	r2,-28(fp)
 80143d4:	10c00215 	stw	r3,8(r2)
      
      /* If this is a device, ensure it isn't already locked */

      if (isafs || ((status = alt_file_locked (fd)) >= 0))
 80143d8:	e0bff617 	ldw	r2,-40(fp)
 80143dc:	1004c03a 	cmpne	r2,r2,zero
 80143e0:	1000061e 	bne	r2,zero,80143fc <open+0xf0>
 80143e4:	e13ff917 	ldw	r4,-28(fp)
 80143e8:	80142140 	call	8014214 <alt_file_locked>
 80143ec:	e0bff715 	stw	r2,-36(fp)
 80143f0:	e0bff717 	ldw	r2,-36(fp)
 80143f4:	1004803a 	cmplt	r2,r2,zero
 80143f8:	1000131e 	bne	r2,zero,8014448 <open+0x13c>
        /* 
         * If the device or filesystem provides an open() callback function,
         * call it now to perform any device/filesystem specific operations.
         */
    
        status = (dev->open) ? dev->open(fd, file, flags, mode): 0;
 80143fc:	e0bffa17 	ldw	r2,-24(fp)
 8014400:	10800317 	ldw	r2,12(r2)
 8014404:	1005003a 	cmpeq	r2,r2,zero
 8014408:	1000091e 	bne	r2,zero,8014430 <open+0x124>
 801440c:	e0bffa17 	ldw	r2,-24(fp)
 8014410:	10800317 	ldw	r2,12(r2)
 8014414:	e13ff917 	ldw	r4,-28(fp)
 8014418:	e17ffb17 	ldw	r5,-20(fp)
 801441c:	e1bffc17 	ldw	r6,-16(fp)
 8014420:	e1fffd17 	ldw	r7,-12(fp)
 8014424:	103ee83a 	callr	r2
 8014428:	e0bfff15 	stw	r2,-4(fp)
 801442c:	00000106 	br	8014434 <open+0x128>
 8014430:	e03fff15 	stw	zero,-4(fp)
 8014434:	e0bfff17 	ldw	r2,-4(fp)
 8014438:	e0bff715 	stw	r2,-36(fp)
 801443c:	00000206 	br	8014448 <open+0x13c>
      }
    }
  }
  else
  {
    status = -ENODEV;
 8014440:	00bffb44 	movi	r2,-19
 8014444:	e0bff715 	stw	r2,-36(fp)
  }

  /* Allocation failed, so clean up and return an error */ 

  if (status < 0)
 8014448:	e0bff717 	ldw	r2,-36(fp)
 801444c:	1004403a 	cmpge	r2,r2,zero
 8014450:	1000091e 	bne	r2,zero,8014478 <open+0x16c>
  {
    alt_release_fd (index);  
 8014454:	e13ff817 	ldw	r4,-32(fp)
 8014458:	800e7940 	call	800e794 <alt_release_fd>
    ALT_ERRNO = -status;
 801445c:	80144980 	call	8014498 <alt_get_errno>
 8014460:	e0fff717 	ldw	r3,-36(fp)
 8014464:	00c7c83a 	sub	r3,zero,r3
 8014468:	10c00015 	stw	r3,0(r2)
    return -1;
 801446c:	00bfffc4 	movi	r2,-1
 8014470:	e0bffe15 	stw	r2,-8(fp)
 8014474:	00000206 	br	8014480 <open+0x174>
  }
  
  /* return the reference upon success */

  return index;
 8014478:	e0bff817 	ldw	r2,-32(fp)
 801447c:	e0bffe15 	stw	r2,-8(fp)
 8014480:	e0bffe17 	ldw	r2,-8(fp)
}
 8014484:	e037883a 	mov	sp,fp
 8014488:	dfc00117 	ldw	ra,4(sp)
 801448c:	df000017 	ldw	fp,0(sp)
 8014490:	dec00204 	addi	sp,sp,8
 8014494:	f800283a 	ret

08014498 <alt_get_errno>:
#undef errno

extern int errno;

static ALT_INLINE int* alt_get_errno(void)
{
 8014498:	defffd04 	addi	sp,sp,-12
 801449c:	dfc00215 	stw	ra,8(sp)
 80144a0:	df000115 	stw	fp,4(sp)
 80144a4:	df000104 	addi	fp,sp,4
  return ((alt_errno) ? alt_errno() : &errno);
 80144a8:	00820074 	movhi	r2,2049
 80144ac:	109b8e04 	addi	r2,r2,28216
 80144b0:	10800017 	ldw	r2,0(r2)
 80144b4:	1005003a 	cmpeq	r2,r2,zero
 80144b8:	1000061e 	bne	r2,zero,80144d4 <alt_get_errno+0x3c>
 80144bc:	00820074 	movhi	r2,2049
 80144c0:	109b8e04 	addi	r2,r2,28216
 80144c4:	10800017 	ldw	r2,0(r2)
 80144c8:	103ee83a 	callr	r2
 80144cc:	e0bfff15 	stw	r2,-4(fp)
 80144d0:	00000306 	br	80144e0 <alt_get_errno+0x48>
 80144d4:	008200b4 	movhi	r2,2050
 80144d8:	10a23b04 	addi	r2,r2,-30484
 80144dc:	e0bfff15 	stw	r2,-4(fp)
 80144e0:	e0bfff17 	ldw	r2,-4(fp)
}
 80144e4:	e037883a 	mov	sp,fp
 80144e8:	dfc00117 	ldw	ra,4(sp)
 80144ec:	df000017 	ldw	fp,0(sp)
 80144f0:	dec00204 	addi	sp,sp,8
 80144f4:	f800283a 	ret

080144f8 <alt_alarm_stop>:
 * alarms. Alternatively an alarm can unregister itself by returning zero when 
 * the alarm executes.
 */

void alt_alarm_stop (alt_alarm* alarm)
{
 80144f8:	defffa04 	addi	sp,sp,-24
 80144fc:	df000515 	stw	fp,20(sp)
 8014500:	df000504 	addi	fp,sp,20
 8014504:	e13fff15 	stw	r4,-4(fp)
static ALT_INLINE alt_irq_context ALT_ALWAYS_INLINE 
       alt_irq_disable_all (void)
{
  alt_irq_context context;

  NIOS2_READ_STATUS (context);
 8014508:	0005303a 	rdctl	r2,status
 801450c:	e0bffd15 	stw	r2,-12(fp)

  NIOS2_WRITE_STATUS (context & ~NIOS2_STATUS_PIE_MSK);
 8014510:	e0fffd17 	ldw	r3,-12(fp)
 8014514:	00bfff84 	movi	r2,-2
 8014518:	1884703a 	and	r2,r3,r2
 801451c:	1001703a 	wrctl	status,r2
  
  return context;
 8014520:	e0bffd17 	ldw	r2,-12(fp)
  alt_irq_context irq_context;

  irq_context = alt_irq_disable_all();
 8014524:	e0bffe15 	stw	r2,-8(fp)
  alt_llist_remove (&alarm->llist);
 8014528:	e0bfff17 	ldw	r2,-4(fp)
 801452c:	e0bffc15 	stw	r2,-16(fp)
 * input argument is the element to remove.
 */
     
static ALT_INLINE void ALT_ALWAYS_INLINE alt_llist_remove(alt_llist* entry)
{
  entry->next->previous = entry->previous;
 8014530:	e0bffc17 	ldw	r2,-16(fp)
 8014534:	10c00017 	ldw	r3,0(r2)
 8014538:	e0bffc17 	ldw	r2,-16(fp)
 801453c:	10800117 	ldw	r2,4(r2)
 8014540:	18800115 	stw	r2,4(r3)
  entry->previous->next = entry->next;
 8014544:	e0bffc17 	ldw	r2,-16(fp)
 8014548:	10c00117 	ldw	r3,4(r2)
 801454c:	e0bffc17 	ldw	r2,-16(fp)
 8014550:	10800017 	ldw	r2,0(r2)
 8014554:	18800015 	stw	r2,0(r3)
  /* 
   * Set the entry to point to itself, so that any further calls to
   * alt_llist_remove() are harmless.
   */

  entry->previous = entry;
 8014558:	e0fffc17 	ldw	r3,-16(fp)
 801455c:	e0bffc17 	ldw	r2,-16(fp)
 8014560:	18800115 	stw	r2,4(r3)
  entry->next     = entry;
 8014564:	e0fffc17 	ldw	r3,-16(fp)
 8014568:	e0bffc17 	ldw	r2,-16(fp)
 801456c:	18800015 	stw	r2,0(r3)
 8014570:	e0bffe17 	ldw	r2,-8(fp)
 8014574:	e0bffb15 	stw	r2,-20(fp)
  status &= ~NIOS2_STATUS_PIE_MSK;
  status |= (context & NIOS2_STATUS_PIE_MSK);
  
  NIOS2_WRITE_STATUS (status);
#else
  NIOS2_WRITE_STATUS (context);
 8014578:	e0bffb17 	ldw	r2,-20(fp)
 801457c:	1001703a 	wrctl	status,r2
  alt_irq_enable_all (irq_context);
}
 8014580:	e037883a 	mov	sp,fp
 8014584:	df000017 	ldw	fp,0(sp)
 8014588:	dec00104 	addi	sp,sp,4
 801458c:	f800283a 	ret

08014590 <alt_tick>:
 * 
 * alt_tick() is expected to run at interrupt level.
 */

void alt_tick (void)
{
 8014590:	defffb04 	addi	sp,sp,-20
 8014594:	dfc00415 	stw	ra,16(sp)
 8014598:	df000315 	stw	fp,12(sp)
 801459c:	df000304 	addi	fp,sp,12
  alt_alarm* next;
  alt_alarm* alarm = (alt_alarm*) alt_alarm_list.next;
 80145a0:	d0a00e17 	ldw	r2,-32712(gp)
 80145a4:	e0bffe15 	stw	r2,-8(fp)

  alt_u32    next_callback;

  /* update the tick counter */

  _alt_nticks++;
 80145a8:	d0a6ce17 	ldw	r2,-25800(gp)
 80145ac:	10800044 	addi	r2,r2,1
 80145b0:	d0a6ce15 	stw	r2,-25800(gp)

  /* process the registered callbacks */

  while (alarm != (alt_alarm*) &alt_alarm_list)
 80145b4:	00003106 	br	801467c <alt_tick+0xec>
  {
    next = (alt_alarm*) alarm->llist.next;
 80145b8:	e0bffe17 	ldw	r2,-8(fp)
 80145bc:	10800017 	ldw	r2,0(r2)
 80145c0:	e0bfff15 	stw	r2,-4(fp)
    /* 
     * Upon the tick-counter rolling over it is safe to clear the 
     * roll-over flag; once the flag is cleared this (or subsequnt)
     * tick events are enabled to generate an alarm event. 
     */
    if ((alarm->rollover) && (_alt_nticks == 0))
 80145c4:	e0bffe17 	ldw	r2,-8(fp)
 80145c8:	10800403 	ldbu	r2,16(r2)
 80145cc:	10803fcc 	andi	r2,r2,255
 80145d0:	1005003a 	cmpeq	r2,r2,zero
 80145d4:	1000051e 	bne	r2,zero,80145ec <alt_tick+0x5c>
 80145d8:	d0a6ce17 	ldw	r2,-25800(gp)
 80145dc:	1004c03a 	cmpne	r2,r2,zero
 80145e0:	1000021e 	bne	r2,zero,80145ec <alt_tick+0x5c>
    {
      alarm->rollover = 0;
 80145e4:	e0bffe17 	ldw	r2,-8(fp)
 80145e8:	10000405 	stb	zero,16(r2)
    }
    
    /* if the alarm period has expired, make the callback */    
    if ((alarm->time <= _alt_nticks) && (alarm->rollover == 0))
 80145ec:	e0bffe17 	ldw	r2,-8(fp)
 80145f0:	10c00217 	ldw	r3,8(r2)
 80145f4:	d0a6ce17 	ldw	r2,-25800(gp)
 80145f8:	10c01e36 	bltu	r2,r3,8014674 <alt_tick+0xe4>
 80145fc:	e0bffe17 	ldw	r2,-8(fp)
 8014600:	10800403 	ldbu	r2,16(r2)
 8014604:	10803fcc 	andi	r2,r2,255
 8014608:	1004c03a 	cmpne	r2,r2,zero
 801460c:	1000191e 	bne	r2,zero,8014674 <alt_tick+0xe4>
    {
      next_callback = alarm->callback (alarm->context);
 8014610:	e0bffe17 	ldw	r2,-8(fp)
 8014614:	10c00317 	ldw	r3,12(r2)
 8014618:	e0bffe17 	ldw	r2,-8(fp)
 801461c:	11000517 	ldw	r4,20(r2)
 8014620:	183ee83a 	callr	r3
 8014624:	e0bffd15 	stw	r2,-12(fp)

      /* deactivate the alarm if the return value is zero */

      if (next_callback == 0)
 8014628:	e0bffd17 	ldw	r2,-12(fp)
 801462c:	1004c03a 	cmpne	r2,r2,zero
 8014630:	1000031e 	bne	r2,zero,8014640 <alt_tick+0xb0>
      {
        alt_alarm_stop (alarm);
 8014634:	e13ffe17 	ldw	r4,-8(fp)
 8014638:	80144f80 	call	80144f8 <alt_alarm_stop>
 801463c:	00000d06 	br	8014674 <alt_tick+0xe4>
      }
      else
      {
        alarm->time += next_callback;
 8014640:	e0bffe17 	ldw	r2,-8(fp)
 8014644:	10c00217 	ldw	r3,8(r2)
 8014648:	e0bffd17 	ldw	r2,-12(fp)
 801464c:	1887883a 	add	r3,r3,r2
 8014650:	e0bffe17 	ldw	r2,-8(fp)
 8014654:	10c00215 	stw	r3,8(r2)
        /* 
         * If the desired alarm time causes a roll-over, set the rollover
         * flag. This will prevent the subsequent tick event from causing
         * an alarm too early.
         */
        if(alarm->time < _alt_nticks)
 8014658:	e0bffe17 	ldw	r2,-8(fp)
 801465c:	10c00217 	ldw	r3,8(r2)
 8014660:	d0a6ce17 	ldw	r2,-25800(gp)
 8014664:	1880032e 	bgeu	r3,r2,8014674 <alt_tick+0xe4>
        {
          alarm->rollover = 1;
 8014668:	e0fffe17 	ldw	r3,-8(fp)
 801466c:	00800044 	movi	r2,1
 8014670:	18800405 	stb	r2,16(r3)
        }
      }
    }
    alarm = next;
 8014674:	e0bfff17 	ldw	r2,-4(fp)
 8014678:	e0bffe15 	stw	r2,-8(fp)

  _alt_nticks++;

  /* process the registered callbacks */

  while (alarm != (alt_alarm*) &alt_alarm_list)
 801467c:	d0e00e04 	addi	r3,gp,-32712
 8014680:	e0bffe17 	ldw	r2,-8(fp)
 8014684:	10ffcc1e 	bne	r2,r3,80145b8 <alt_tick+0x28>
  /* 
   * Update the operating system specific timer facilities.
   */

  ALT_OS_TIME_TICK();
}
 8014688:	e037883a 	mov	sp,fp
 801468c:	dfc00117 	ldw	ra,4(sp)
 8014690:	df000017 	ldw	fp,0(sp)
 8014694:	dec00204 	addi	sp,sp,8
 8014698:	f800283a 	ret

0801469c <altera_nios2_irq_init>:
/*
 * To initialize the internal interrupt controller, just clear the IENABLE
 * register so that all possible IRQs are disabled.
 */
void altera_nios2_irq_init(void) 
{
 801469c:	deffff04 	addi	sp,sp,-4
 80146a0:	df000015 	stw	fp,0(sp)
 80146a4:	d839883a 	mov	fp,sp
    NIOS2_WRITE_IENABLE(0);
 80146a8:	000170fa 	wrctl	ienable,zero
}
 80146ac:	e037883a 	mov	sp,fp
 80146b0:	df000017 	ldw	fp,0(sp)
 80146b4:	dec00104 	addi	sp,sp,4
 80146b8:	f800283a 	ret

080146bc <alt_find_file>:
 * either '/' or '\0' is the prefix of the filename. For example the filename:
 * "/myfilesystem/junk.txt" would match: "/myfilesystem", but not: "/myfile". 
 */
 
alt_dev* alt_find_file (const char* name)
{
 80146bc:	defffa04 	addi	sp,sp,-24
 80146c0:	dfc00515 	stw	ra,20(sp)
 80146c4:	df000415 	stw	fp,16(sp)
 80146c8:	df000404 	addi	fp,sp,16
 80146cc:	e13ffe15 	stw	r4,-8(fp)
  alt_dev* next = (alt_dev*) alt_fs_list.next;   
 80146d0:	00820074 	movhi	r2,2049
 80146d4:	109b8904 	addi	r2,r2,28196
 80146d8:	10800017 	ldw	r2,0(r2)
 80146dc:	e0bffd15 	stw	r2,-12(fp)
  /*
   * Check each list entry in turn, until a match is found, or we reach the
   * end of the list (i.e. next winds up pointing back to the list head).
   */ 
 
  while (next != (alt_dev*) &alt_fs_list)
 80146e0:	00003306 	br	80147b0 <alt_find_file+0xf4>
  {
    len = strlen(next->name);
 80146e4:	e0bffd17 	ldw	r2,-12(fp)
 80146e8:	11000217 	ldw	r4,8(r2)
 80146ec:	80055880 	call	8005588 <strlen>
 80146f0:	e0bffc15 	stw	r2,-16(fp)
    
    if (next->name[len-1] == '/')
 80146f4:	e0bffd17 	ldw	r2,-12(fp)
 80146f8:	10c00217 	ldw	r3,8(r2)
 80146fc:	e0bffc17 	ldw	r2,-16(fp)
 8014700:	1885883a 	add	r2,r3,r2
 8014704:	10bfffc4 	addi	r2,r2,-1
 8014708:	10800003 	ldbu	r2,0(r2)
 801470c:	10803fcc 	andi	r2,r2,255
 8014710:	1080201c 	xori	r2,r2,128
 8014714:	10bfe004 	addi	r2,r2,-128
 8014718:	10800bd8 	cmpnei	r2,r2,47
 801471c:	1000031e 	bne	r2,zero,801472c <alt_find_file+0x70>
    {
      len -= 1;
 8014720:	e0bffc17 	ldw	r2,-16(fp)
 8014724:	10bfffc4 	addi	r2,r2,-1
 8014728:	e0bffc15 	stw	r2,-16(fp)
    }

    if (((name[len] == '/') || (name[len] == '\0')) && 
 801472c:	e0bffc17 	ldw	r2,-16(fp)
 8014730:	1007883a 	mov	r3,r2
 8014734:	e0bffe17 	ldw	r2,-8(fp)
 8014738:	1885883a 	add	r2,r3,r2
 801473c:	10800003 	ldbu	r2,0(r2)
 8014740:	10803fcc 	andi	r2,r2,255
 8014744:	1080201c 	xori	r2,r2,128
 8014748:	10bfe004 	addi	r2,r2,-128
 801474c:	10800be0 	cmpeqi	r2,r2,47
 8014750:	10000a1e 	bne	r2,zero,801477c <alt_find_file+0xc0>
 8014754:	e0bffc17 	ldw	r2,-16(fp)
 8014758:	1007883a 	mov	r3,r2
 801475c:	e0bffe17 	ldw	r2,-8(fp)
 8014760:	1885883a 	add	r2,r3,r2
 8014764:	10800003 	ldbu	r2,0(r2)
 8014768:	10803fcc 	andi	r2,r2,255
 801476c:	1080201c 	xori	r2,r2,128
 8014770:	10bfe004 	addi	r2,r2,-128
 8014774:	1004c03a 	cmpne	r2,r2,zero
 8014778:	10000a1e 	bne	r2,zero,80147a4 <alt_find_file+0xe8>
 801477c:	e0bffd17 	ldw	r2,-12(fp)
 8014780:	11000217 	ldw	r4,8(r2)
 8014784:	e1bffc17 	ldw	r6,-16(fp)
 8014788:	e17ffe17 	ldw	r5,-8(fp)
 801478c:	80148f80 	call	80148f8 <memcmp>
 8014790:	1004c03a 	cmpne	r2,r2,zero
 8014794:	1000031e 	bne	r2,zero,80147a4 <alt_find_file+0xe8>
        !memcmp (next->name, name, len))
    {
      /* match found */

      return next;
 8014798:	e0bffd17 	ldw	r2,-12(fp)
 801479c:	e0bfff15 	stw	r2,-4(fp)
 80147a0:	00000806 	br	80147c4 <alt_find_file+0x108>
    }
    next = (alt_dev*) next->llist.next;
 80147a4:	e0bffd17 	ldw	r2,-12(fp)
 80147a8:	10800017 	ldw	r2,0(r2)
 80147ac:	e0bffd15 	stw	r2,-12(fp)
  /*
   * Check each list entry in turn, until a match is found, or we reach the
   * end of the list (i.e. next winds up pointing back to the list head).
   */ 
 
  while (next != (alt_dev*) &alt_fs_list)
 80147b0:	00c20074 	movhi	r3,2049
 80147b4:	18db8904 	addi	r3,r3,28196
 80147b8:	e0bffd17 	ldw	r2,-12(fp)
 80147bc:	10ffc91e 	bne	r2,r3,80146e4 <alt_find_file+0x28>
    next = (alt_dev*) next->llist.next;
  }
  
  /* No match found */
  
  return NULL;     
 80147c0:	e03fff15 	stw	zero,-4(fp)
 80147c4:	e0bfff17 	ldw	r2,-4(fp)
}
 80147c8:	e037883a 	mov	sp,fp
 80147cc:	dfc00117 	ldw	ra,4(sp)
 80147d0:	df000017 	ldw	fp,0(sp)
 80147d4:	dec00204 	addi	sp,sp,8
 80147d8:	f800283a 	ret

080147dc <alt_get_fd>:
 * the offset of the file descriptor within the file descriptor array). A
 * negative value indicates failure.
 */

int alt_get_fd (alt_dev* dev)
{
 80147dc:	defffa04 	addi	sp,sp,-24
 80147e0:	dfc00515 	stw	ra,20(sp)
 80147e4:	df000415 	stw	fp,16(sp)
 80147e8:	dc000315 	stw	r16,12(sp)
 80147ec:	df000304 	addi	fp,sp,12
 80147f0:	e13fff15 	stw	r4,-4(fp)
  alt_32 i;
  int rc = -EMFILE;
 80147f4:	00bffa04 	movi	r2,-24
 80147f8:	e0bffd15 	stw	r2,-12(fp)
   * indicates the highest file descriptor ever allocated. This is used to
   * improve efficency when searching the file descriptor list, and 
   * therefore reduce contention on the alt_fd_list_lock semaphore. 
   */

  for (i = 0; i < ALT_MAX_FD; i++)
 80147fc:	e03ffe15 	stw	zero,-8(fp)
 8014800:	00002006 	br	8014884 <alt_get_fd+0xa8>
  {
    if (!alt_fd_list[i].dev)
 8014804:	e13ffe17 	ldw	r4,-8(fp)
 8014808:	04020074 	movhi	r16,2049
 801480c:	84170004 	addi	r16,r16,23552
 8014810:	01400304 	movi	r5,12
 8014814:	800d84c0 	call	800d84c <__mulsi3>
 8014818:	1405883a 	add	r2,r2,r16
 801481c:	10800017 	ldw	r2,0(r2)
 8014820:	1004c03a 	cmpne	r2,r2,zero
 8014824:	1000141e 	bne	r2,zero,8014878 <alt_get_fd+0x9c>
    {
      alt_fd_list[i].dev = dev;
 8014828:	e13ffe17 	ldw	r4,-8(fp)
 801482c:	04020074 	movhi	r16,2049
 8014830:	84170004 	addi	r16,r16,23552
 8014834:	01400304 	movi	r5,12
 8014838:	800d84c0 	call	800d84c <__mulsi3>
 801483c:	1407883a 	add	r3,r2,r16
 8014840:	e0bfff17 	ldw	r2,-4(fp)
 8014844:	18800015 	stw	r2,0(r3)
      if (i > alt_max_fd)
 8014848:	00820074 	movhi	r2,2049
 801484c:	109b8d04 	addi	r2,r2,28212
 8014850:	10c00017 	ldw	r3,0(r2)
 8014854:	e0bffe17 	ldw	r2,-8(fp)
 8014858:	1880040e 	bge	r3,r2,801486c <alt_get_fd+0x90>
      {
        alt_max_fd = i;
 801485c:	00c20074 	movhi	r3,2049
 8014860:	18db8d04 	addi	r3,r3,28212
 8014864:	e0bffe17 	ldw	r2,-8(fp)
 8014868:	18800015 	stw	r2,0(r3)
      }
      rc = i;
 801486c:	e0bffe17 	ldw	r2,-8(fp)
 8014870:	e0bffd15 	stw	r2,-12(fp)
      goto alt_get_fd_exit;
 8014874:	00000606 	br	8014890 <alt_get_fd+0xb4>
   * indicates the highest file descriptor ever allocated. This is used to
   * improve efficency when searching the file descriptor list, and 
   * therefore reduce contention on the alt_fd_list_lock semaphore. 
   */

  for (i = 0; i < ALT_MAX_FD; i++)
 8014878:	e0bffe17 	ldw	r2,-8(fp)
 801487c:	10800044 	addi	r2,r2,1
 8014880:	e0bffe15 	stw	r2,-8(fp)
 8014884:	e0bffe17 	ldw	r2,-8(fp)
 8014888:	10800810 	cmplti	r2,r2,32
 801488c:	103fdd1e 	bne	r2,zero,8014804 <alt_get_fd+0x28>
   * file descriptor pool.
   */

  ALT_SEM_POST(alt_fd_list_lock);

  return rc;
 8014890:	e0bffd17 	ldw	r2,-12(fp)
}
 8014894:	e037883a 	mov	sp,fp
 8014898:	dfc00217 	ldw	ra,8(sp)
 801489c:	df000117 	ldw	fp,4(sp)
 80148a0:	dc000017 	ldw	r16,0(sp)
 80148a4:	dec00304 	addi	sp,sp,12
 80148a8:	f800283a 	ret

080148ac <atexit>:
 80148ac:	200b883a 	mov	r5,r4
 80148b0:	000d883a 	mov	r6,zero
 80148b4:	0009883a 	mov	r4,zero
 80148b8:	000f883a 	mov	r7,zero
 80148bc:	801496c1 	jmpi	801496c <__register_exitproc>

080148c0 <exit>:
 80148c0:	defffe04 	addi	sp,sp,-8
 80148c4:	000b883a 	mov	r5,zero
 80148c8:	dc000015 	stw	r16,0(sp)
 80148cc:	dfc00115 	stw	ra,4(sp)
 80148d0:	2021883a 	mov	r16,r4
 80148d4:	8014aa40 	call	8014aa4 <__call_exitprocs>
 80148d8:	00820074 	movhi	r2,2049
 80148dc:	109b8404 	addi	r2,r2,28176
 80148e0:	11000017 	ldw	r4,0(r2)
 80148e4:	20800f17 	ldw	r2,60(r4)
 80148e8:	10000126 	beq	r2,zero,80148f0 <exit+0x30>
 80148ec:	103ee83a 	callr	r2
 80148f0:	8009883a 	mov	r4,r16
 80148f4:	8014c940 	call	8014c94 <_exit>

080148f8 <memcmp>:
 80148f8:	00c000c4 	movi	r3,3
 80148fc:	1980032e 	bgeu	r3,r6,801490c <memcmp+0x14>
 8014900:	2144b03a 	or	r2,r4,r5
 8014904:	10c4703a 	and	r2,r2,r3
 8014908:	10000f26 	beq	r2,zero,8014948 <memcmp+0x50>
 801490c:	31ffffc4 	addi	r7,r6,-1
 8014910:	3000061e 	bne	r6,zero,801492c <memcmp+0x34>
 8014914:	00000a06 	br	8014940 <memcmp+0x48>
 8014918:	39ffffc4 	addi	r7,r7,-1
 801491c:	00bfffc4 	movi	r2,-1
 8014920:	21000044 	addi	r4,r4,1
 8014924:	29400044 	addi	r5,r5,1
 8014928:	38800526 	beq	r7,r2,8014940 <memcmp+0x48>
 801492c:	20c00003 	ldbu	r3,0(r4)
 8014930:	28800003 	ldbu	r2,0(r5)
 8014934:	18bff826 	beq	r3,r2,8014918 <memcmp+0x20>
 8014938:	1885c83a 	sub	r2,r3,r2
 801493c:	f800283a 	ret
 8014940:	0005883a 	mov	r2,zero
 8014944:	f800283a 	ret
 8014948:	180f883a 	mov	r7,r3
 801494c:	20c00017 	ldw	r3,0(r4)
 8014950:	28800017 	ldw	r2,0(r5)
 8014954:	18bfed1e 	bne	r3,r2,801490c <memcmp+0x14>
 8014958:	31bfff04 	addi	r6,r6,-4
 801495c:	21000104 	addi	r4,r4,4
 8014960:	29400104 	addi	r5,r5,4
 8014964:	39bff936 	bltu	r7,r6,801494c <memcmp+0x54>
 8014968:	003fe806 	br	801490c <memcmp+0x14>

0801496c <__register_exitproc>:
 801496c:	defffa04 	addi	sp,sp,-24
 8014970:	00820074 	movhi	r2,2049
 8014974:	109b8404 	addi	r2,r2,28176
 8014978:	dc000015 	stw	r16,0(sp)
 801497c:	14000017 	ldw	r16,0(r2)
 8014980:	dd000415 	stw	r20,16(sp)
 8014984:	2829883a 	mov	r20,r5
 8014988:	81405217 	ldw	r5,328(r16)
 801498c:	dcc00315 	stw	r19,12(sp)
 8014990:	dc800215 	stw	r18,8(sp)
 8014994:	dc400115 	stw	r17,4(sp)
 8014998:	dfc00515 	stw	ra,20(sp)
 801499c:	2023883a 	mov	r17,r4
 80149a0:	3027883a 	mov	r19,r6
 80149a4:	3825883a 	mov	r18,r7
 80149a8:	28002526 	beq	r5,zero,8014a40 <__register_exitproc+0xd4>
 80149ac:	29000117 	ldw	r4,4(r5)
 80149b0:	008007c4 	movi	r2,31
 80149b4:	11002716 	blt	r2,r4,8014a54 <__register_exitproc+0xe8>
 80149b8:	8800101e 	bne	r17,zero,80149fc <__register_exitproc+0x90>
 80149bc:	2105883a 	add	r2,r4,r4
 80149c0:	1085883a 	add	r2,r2,r2
 80149c4:	20c00044 	addi	r3,r4,1
 80149c8:	1145883a 	add	r2,r2,r5
 80149cc:	0009883a 	mov	r4,zero
 80149d0:	15000215 	stw	r20,8(r2)
 80149d4:	28c00115 	stw	r3,4(r5)
 80149d8:	2005883a 	mov	r2,r4
 80149dc:	dfc00517 	ldw	ra,20(sp)
 80149e0:	dd000417 	ldw	r20,16(sp)
 80149e4:	dcc00317 	ldw	r19,12(sp)
 80149e8:	dc800217 	ldw	r18,8(sp)
 80149ec:	dc400117 	ldw	r17,4(sp)
 80149f0:	dc000017 	ldw	r16,0(sp)
 80149f4:	dec00604 	addi	sp,sp,24
 80149f8:	f800283a 	ret
 80149fc:	29802204 	addi	r6,r5,136
 8014a00:	00800044 	movi	r2,1
 8014a04:	110e983a 	sll	r7,r2,r4
 8014a08:	30c04017 	ldw	r3,256(r6)
 8014a0c:	2105883a 	add	r2,r4,r4
 8014a10:	1085883a 	add	r2,r2,r2
 8014a14:	1185883a 	add	r2,r2,r6
 8014a18:	19c6b03a 	or	r3,r3,r7
 8014a1c:	14802015 	stw	r18,128(r2)
 8014a20:	14c00015 	stw	r19,0(r2)
 8014a24:	00800084 	movi	r2,2
 8014a28:	30c04015 	stw	r3,256(r6)
 8014a2c:	88bfe31e 	bne	r17,r2,80149bc <__register_exitproc+0x50>
 8014a30:	30804117 	ldw	r2,260(r6)
 8014a34:	11c4b03a 	or	r2,r2,r7
 8014a38:	30804115 	stw	r2,260(r6)
 8014a3c:	003fdf06 	br	80149bc <__register_exitproc+0x50>
 8014a40:	008200b4 	movhi	r2,2050
 8014a44:	10a3f604 	addi	r2,r2,-28712
 8014a48:	100b883a 	mov	r5,r2
 8014a4c:	80805215 	stw	r2,328(r16)
 8014a50:	003fd606 	br	80149ac <__register_exitproc+0x40>
 8014a54:	00820034 	movhi	r2,2048
 8014a58:	1091d404 	addi	r2,r2,18256
 8014a5c:	1000021e 	bne	r2,zero,8014a68 <__register_exitproc+0xfc>
 8014a60:	013fffc4 	movi	r4,-1
 8014a64:	003fdc06 	br	80149d8 <__register_exitproc+0x6c>
 8014a68:	01006404 	movi	r4,400
 8014a6c:	103ee83a 	callr	r2
 8014a70:	1007883a 	mov	r3,r2
 8014a74:	103ffa26 	beq	r2,zero,8014a60 <__register_exitproc+0xf4>
 8014a78:	80805217 	ldw	r2,328(r16)
 8014a7c:	180b883a 	mov	r5,r3
 8014a80:	18000115 	stw	zero,4(r3)
 8014a84:	18800015 	stw	r2,0(r3)
 8014a88:	80c05215 	stw	r3,328(r16)
 8014a8c:	18006215 	stw	zero,392(r3)
 8014a90:	18006315 	stw	zero,396(r3)
 8014a94:	0009883a 	mov	r4,zero
 8014a98:	883fc826 	beq	r17,zero,80149bc <__register_exitproc+0x50>
 8014a9c:	003fd706 	br	80149fc <__register_exitproc+0x90>

08014aa0 <register_fini>:
 8014aa0:	f800283a 	ret

08014aa4 <__call_exitprocs>:
 8014aa4:	00820074 	movhi	r2,2049
 8014aa8:	109b8404 	addi	r2,r2,28176
 8014aac:	10800017 	ldw	r2,0(r2)
 8014ab0:	defff304 	addi	sp,sp,-52
 8014ab4:	df000b15 	stw	fp,44(sp)
 8014ab8:	d8800115 	stw	r2,4(sp)
 8014abc:	00820034 	movhi	r2,2048
 8014ac0:	1091cf04 	addi	r2,r2,18236
 8014ac4:	1005003a 	cmpeq	r2,r2,zero
 8014ac8:	d8800215 	stw	r2,8(sp)
 8014acc:	d8800117 	ldw	r2,4(sp)
 8014ad0:	dd400815 	stw	r21,32(sp)
 8014ad4:	dd000715 	stw	r20,28(sp)
 8014ad8:	10805204 	addi	r2,r2,328
 8014adc:	dfc00c15 	stw	ra,48(sp)
 8014ae0:	ddc00a15 	stw	r23,40(sp)
 8014ae4:	dd800915 	stw	r22,36(sp)
 8014ae8:	dcc00615 	stw	r19,24(sp)
 8014aec:	dc800515 	stw	r18,20(sp)
 8014af0:	dc400415 	stw	r17,16(sp)
 8014af4:	dc000315 	stw	r16,12(sp)
 8014af8:	282b883a 	mov	r21,r5
 8014afc:	2039883a 	mov	fp,r4
 8014b00:	d8800015 	stw	r2,0(sp)
 8014b04:	2829003a 	cmpeq	r20,r5,zero
 8014b08:	d8800117 	ldw	r2,4(sp)
 8014b0c:	14405217 	ldw	r17,328(r2)
 8014b10:	88001026 	beq	r17,zero,8014b54 <__call_exitprocs+0xb0>
 8014b14:	ddc00017 	ldw	r23,0(sp)
 8014b18:	88800117 	ldw	r2,4(r17)
 8014b1c:	8c802204 	addi	r18,r17,136
 8014b20:	143fffc4 	addi	r16,r2,-1
 8014b24:	80000916 	blt	r16,zero,8014b4c <__call_exitprocs+0xa8>
 8014b28:	05bfffc4 	movi	r22,-1
 8014b2c:	a000151e 	bne	r20,zero,8014b84 <__call_exitprocs+0xe0>
 8014b30:	8409883a 	add	r4,r16,r16
 8014b34:	2105883a 	add	r2,r4,r4
 8014b38:	1485883a 	add	r2,r2,r18
 8014b3c:	10c02017 	ldw	r3,128(r2)
 8014b40:	a8c01126 	beq	r21,r3,8014b88 <__call_exitprocs+0xe4>
 8014b44:	843fffc4 	addi	r16,r16,-1
 8014b48:	85bff81e 	bne	r16,r22,8014b2c <__call_exitprocs+0x88>
 8014b4c:	d8800217 	ldw	r2,8(sp)
 8014b50:	10003126 	beq	r2,zero,8014c18 <__call_exitprocs+0x174>
 8014b54:	dfc00c17 	ldw	ra,48(sp)
 8014b58:	df000b17 	ldw	fp,44(sp)
 8014b5c:	ddc00a17 	ldw	r23,40(sp)
 8014b60:	dd800917 	ldw	r22,36(sp)
 8014b64:	dd400817 	ldw	r21,32(sp)
 8014b68:	dd000717 	ldw	r20,28(sp)
 8014b6c:	dcc00617 	ldw	r19,24(sp)
 8014b70:	dc800517 	ldw	r18,20(sp)
 8014b74:	dc400417 	ldw	r17,16(sp)
 8014b78:	dc000317 	ldw	r16,12(sp)
 8014b7c:	dec00d04 	addi	sp,sp,52
 8014b80:	f800283a 	ret
 8014b84:	8409883a 	add	r4,r16,r16
 8014b88:	88c00117 	ldw	r3,4(r17)
 8014b8c:	2105883a 	add	r2,r4,r4
 8014b90:	1445883a 	add	r2,r2,r17
 8014b94:	18ffffc4 	addi	r3,r3,-1
 8014b98:	11800217 	ldw	r6,8(r2)
 8014b9c:	1c001526 	beq	r3,r16,8014bf4 <__call_exitprocs+0x150>
 8014ba0:	10000215 	stw	zero,8(r2)
 8014ba4:	303fe726 	beq	r6,zero,8014b44 <__call_exitprocs+0xa0>
 8014ba8:	00c00044 	movi	r3,1
 8014bac:	1c06983a 	sll	r3,r3,r16
 8014bb0:	90804017 	ldw	r2,256(r18)
 8014bb4:	8cc00117 	ldw	r19,4(r17)
 8014bb8:	1884703a 	and	r2,r3,r2
 8014bbc:	10001426 	beq	r2,zero,8014c10 <__call_exitprocs+0x16c>
 8014bc0:	90804117 	ldw	r2,260(r18)
 8014bc4:	1884703a 	and	r2,r3,r2
 8014bc8:	10000c1e 	bne	r2,zero,8014bfc <__call_exitprocs+0x158>
 8014bcc:	2105883a 	add	r2,r4,r4
 8014bd0:	1485883a 	add	r2,r2,r18
 8014bd4:	11400017 	ldw	r5,0(r2)
 8014bd8:	e009883a 	mov	r4,fp
 8014bdc:	303ee83a 	callr	r6
 8014be0:	88800117 	ldw	r2,4(r17)
 8014be4:	98bfc81e 	bne	r19,r2,8014b08 <__call_exitprocs+0x64>
 8014be8:	b8800017 	ldw	r2,0(r23)
 8014bec:	147fd526 	beq	r2,r17,8014b44 <__call_exitprocs+0xa0>
 8014bf0:	003fc506 	br	8014b08 <__call_exitprocs+0x64>
 8014bf4:	8c000115 	stw	r16,4(r17)
 8014bf8:	003fea06 	br	8014ba4 <__call_exitprocs+0x100>
 8014bfc:	2105883a 	add	r2,r4,r4
 8014c00:	1485883a 	add	r2,r2,r18
 8014c04:	11000017 	ldw	r4,0(r2)
 8014c08:	303ee83a 	callr	r6
 8014c0c:	003ff406 	br	8014be0 <__call_exitprocs+0x13c>
 8014c10:	303ee83a 	callr	r6
 8014c14:	003ff206 	br	8014be0 <__call_exitprocs+0x13c>
 8014c18:	88800117 	ldw	r2,4(r17)
 8014c1c:	1000081e 	bne	r2,zero,8014c40 <__call_exitprocs+0x19c>
 8014c20:	89000017 	ldw	r4,0(r17)
 8014c24:	20000726 	beq	r4,zero,8014c44 <__call_exitprocs+0x1a0>
 8014c28:	b9000015 	stw	r4,0(r23)
 8014c2c:	8809883a 	mov	r4,r17
 8014c30:	800473c0 	call	800473c <free>
 8014c34:	bc400017 	ldw	r17,0(r23)
 8014c38:	883fb71e 	bne	r17,zero,8014b18 <__call_exitprocs+0x74>
 8014c3c:	003fc506 	br	8014b54 <__call_exitprocs+0xb0>
 8014c40:	89000017 	ldw	r4,0(r17)
 8014c44:	882f883a 	mov	r23,r17
 8014c48:	2023883a 	mov	r17,r4
 8014c4c:	883fb21e 	bne	r17,zero,8014b18 <__call_exitprocs+0x74>
 8014c50:	003fc006 	br	8014b54 <__call_exitprocs+0xb0>

08014c54 <alt_sim_halt>:

/*
 * Routine called on exit.
 */
static ALT_ALWAYS_INLINE void alt_sim_halt(int exit_code)
{
 8014c54:	defffd04 	addi	sp,sp,-12
 8014c58:	df000215 	stw	fp,8(sp)
 8014c5c:	df000204 	addi	fp,sp,8
 8014c60:	e13fff15 	stw	r4,-4(fp)
  int r2 = exit_code;
 8014c64:	e0bfff17 	ldw	r2,-4(fp)
 8014c68:	e0bffe15 	stw	r2,-8(fp)
  __asm__ volatile ("\n0:\n\taddi %0,%0, -1\n\tbgt %0,zero,0b" : : "r" (ALT_CPU_FREQ/100) ); /* Delay for >30ms */

  __asm__ volatile ("break 2" : : "D02"(r2), "D03"(r3) ALT_GMON_DATA );

#else /* !DEBUG_STUB */
  if (r2) {
 8014c6c:	e0bffe17 	ldw	r2,-8(fp)
 8014c70:	1005003a 	cmpeq	r2,r2,zero
 8014c74:	1000021e 	bne	r2,zero,8014c80 <alt_sim_halt+0x2c>
    ALT_SIM_FAIL();
 8014c78:	002af070 	cmpltui	zero,zero,43969
 8014c7c:	00000106 	br	8014c84 <alt_sim_halt+0x30>
  } else {
    ALT_SIM_PASS();
 8014c80:	002af0b0 	cmpltui	zero,zero,43970
  }
#endif /* DEBUG_STUB */
}
 8014c84:	e037883a 	mov	sp,fp
 8014c88:	df000017 	ldw	fp,0(sp)
 8014c8c:	dec00104 	addi	sp,sp,4
 8014c90:	f800283a 	ret

08014c94 <_exit>:
 *
 * ALT_EXIT is mapped onto the _exit() system call in alt_syscall.h
 */

void ALT_EXIT (int exit_code)
{
 8014c94:	defffd04 	addi	sp,sp,-12
 8014c98:	dfc00215 	stw	ra,8(sp)
 8014c9c:	df000115 	stw	fp,4(sp)
 8014ca0:	df000104 	addi	fp,sp,4
 8014ca4:	e13fff15 	stw	r4,-4(fp)
  ALT_OS_STOP();

  /* Provide notification to the simulator that we've stopped */

  ALT_LOG_PRINT_BOOT("[alt_exit.c] Calling ALT_SIM_HALT().\r\n");
  ALT_SIM_HALT(exit_code);
 8014ca8:	e13fff17 	ldw	r4,-4(fp)
 8014cac:	8014c540 	call	8014c54 <alt_sim_halt>

  /* spin forever, since there's no where to go back to */

  ALT_LOG_PRINT_BOOT("[alt_exit.c] Spinning forever.\r\n");
  while (1);
 8014cb0:	003fff06 	br	8014cb0 <_exit+0x1c>
 8014cb4:	08014aa0 	cmpeqi	zero,at,1322
